
kernel.elf:     file format elf32-i386


Disassembly of section .text:

00100000 <start-0xc>:
  100000:	02 b0 ad 1b 01 00    	add    0x11bad(%eax),%dh
  100006:	00 00                	add    %al,(%eax)
  100008:	fd                   	std    
  100009:	4f                   	dec    %edi
  10000a:	52                   	push   %edx
  10000b:	e4                 	in     $0xb8,%al

0010000c <start>:
  10000c:	b8 be ba fe ca       	mov    $0xcafebabe,%eax
  100011:	53                   	push   %ebx
  100012:	e8 82 0e 00 00       	call   100e99 <main>

00100017 <start.loop>:
  100017:	eb fe                	jmp    100017 <start.loop>

00100019 <expand>:
  100019:	55                   	push   %ebp
  10001a:	89 e5                	mov    %esp,%ebp
  10001c:	56                   	push   %esi
  10001d:	53                   	push   %ebx
  10001e:	83 ec 10             	sub    $0x10,%esp
  100021:	8b 45 0c             	mov    0xc(%ebp),%eax
  100024:	8b 50 14             	mov    0x14(%eax),%edx
  100027:	8b 45 0c             	mov    0xc(%ebp),%eax
  10002a:	8b 40 10             	mov    0x10(%eax),%eax
  10002d:	29 c2                	sub    %eax,%edx
  10002f:	89 d0                	mov    %edx,%eax
  100031:	39 45 08             	cmp    %eax,0x8(%ebp)
  100034:	77 17                	ja     10004d <expand+0x34>
  100036:	83 ec 04             	sub    $0x4,%esp
  100039:	68 00 30 10 00       	push   $0x103000
  10003e:	6a 0b                	push   $0xb
  100040:	68 33 30 10 00       	push   $0x103033
  100045:	e8 c0 21 00 00       	call   10220a <panic_assert>
  10004a:	83 c4 10             	add    $0x10,%esp
  10004d:	8b 45 08             	mov    0x8(%ebp),%eax
  100050:	25 ff 0f 00 00       	and    $0xfff,%eax
  100055:	85 c0                	test   %eax,%eax
  100057:	74 0e                	je     100067 <expand+0x4e>
  100059:	81 65 08 00 f0 ff ff 	andl   $0xfffff000,0x8(%ebp)
  100060:	81 45 08 00 10 00 00 	addl   $0x1000,0x8(%ebp)
  100067:	8b 45 0c             	mov    0xc(%ebp),%eax
  10006a:	8b 50 10             	mov    0x10(%eax),%edx
  10006d:	8b 45 08             	mov    0x8(%ebp),%eax
  100070:	01 c2                	add    %eax,%edx
  100072:	8b 45 0c             	mov    0xc(%ebp),%eax
  100075:	8b 40 18             	mov    0x18(%eax),%eax
  100078:	39 c2                	cmp    %eax,%edx
  10007a:	76 17                	jbe    100093 <expand+0x7a>
  10007c:	83 ec 04             	sub    $0x4,%esp
  10007f:	68 48 30 10 00       	push   $0x103048
  100084:	6a 11                	push   $0x11
  100086:	68 33 30 10 00       	push   $0x103033
  10008b:	e8 7a 21 00 00       	call   10220a <panic_assert>
  100090:	83 c4 10             	add    $0x10,%esp
  100093:	8b 45 0c             	mov    0xc(%ebp),%eax
  100096:	8b 50 14             	mov    0x14(%eax),%edx
  100099:	8b 45 0c             	mov    0xc(%ebp),%eax
  10009c:	8b 40 10             	mov    0x10(%eax),%eax
  10009f:	29 c2                	sub    %eax,%edx
  1000a1:	89 d0                	mov    %edx,%eax
  1000a3:	89 45 f0             	mov    %eax,-0x10(%ebp)
  1000a6:	8b 45 f0             	mov    -0x10(%ebp),%eax
  1000a9:	89 45 f4             	mov    %eax,-0xc(%ebp)
  1000ac:	eb 52                	jmp    100100 <expand+0xe7>
  1000ae:	8b 45 0c             	mov    0xc(%ebp),%eax
  1000b1:	0f b6 40 1d          	movzbl 0x1d(%eax),%eax
  1000b5:	84 c0                	test   %al,%al
  1000b7:	0f 94 c0             	sete   %al
  1000ba:	0f b6 f0             	movzbl %al,%esi
  1000bd:	8b 45 0c             	mov    0xc(%ebp),%eax
  1000c0:	0f b6 40 1c          	movzbl 0x1c(%eax),%eax
  1000c4:	84 c0                	test   %al,%al
  1000c6:	0f 95 c0             	setne  %al
  1000c9:	0f b6 d8             	movzbl %al,%ebx
  1000cc:	a1 04 50 10 00       	mov    0x105004,%eax
  1000d1:	8b 55 0c             	mov    0xc(%ebp),%edx
  1000d4:	8b 4a 10             	mov    0x10(%edx),%ecx
  1000d7:	8b 55 f4             	mov    -0xc(%ebp),%edx
  1000da:	01 ca                	add    %ecx,%edx
  1000dc:	83 ec 04             	sub    $0x4,%esp
  1000df:	50                   	push   %eax
  1000e0:	6a 01                	push   $0x1
  1000e2:	52                   	push   %edx
  1000e3:	e8 70 0c 00 00       	call   100d58 <get_page>
  1000e8:	83 c4 10             	add    $0x10,%esp
  1000eb:	83 ec 04             	sub    $0x4,%esp
  1000ee:	56                   	push   %esi
  1000ef:	53                   	push   %ebx
  1000f0:	50                   	push   %eax
  1000f1:	e8 8b 08 00 00       	call   100981 <alloc_frame>
  1000f6:	83 c4 10             	add    $0x10,%esp
  1000f9:	81 45 f4 00 10 00 00 	addl   $0x1000,-0xc(%ebp)
  100100:	8b 45 f4             	mov    -0xc(%ebp),%eax
  100103:	3b 45 08             	cmp    0x8(%ebp),%eax
  100106:	72 a6                	jb     1000ae <expand+0x95>
  100108:	8b 45 0c             	mov    0xc(%ebp),%eax
  10010b:	8b 50 10             	mov    0x10(%eax),%edx
  10010e:	8b 45 08             	mov    0x8(%ebp),%eax
  100111:	01 c2                	add    %eax,%edx
  100113:	8b 45 0c             	mov    0xc(%ebp),%eax
  100116:	89 50 14             	mov    %edx,0x14(%eax)
  100119:	90                   	nop
  10011a:	8d 65 f8             	lea    -0x8(%ebp),%esp
  10011d:	5b                   	pop    %ebx
  10011e:	5e                   	pop    %esi
  10011f:	5d                   	pop    %ebp
  100120:	c3                   	ret    

00100121 <kmalloc_internal>:
  100121:	55                   	push   %ebp
  100122:	89 e5                	mov    %esp,%ebp
  100124:	83 ec 18             	sub    $0x18,%esp
  100127:	83 ec 0c             	sub    $0xc,%esp
  10012a:	68 7c 30 10 00       	push   $0x10307c
  10012f:	e8 a7 1d 00 00       	call   101edb <print_string>
  100134:	83 c4 10             	add    $0x10,%esp
  100137:	a1 00 40 10 00       	mov    0x104000,%eax
  10013c:	83 ec 0c             	sub    $0xc,%esp
  10013f:	50                   	push   %eax
  100140:	e8 7e 1f 00 00       	call   1020c3 <print_hex>
  100145:	83 c4 10             	add    $0x10,%esp
  100148:	83 ec 0c             	sub    $0xc,%esp
  10014b:	68 9b 30 10 00       	push   $0x10309b
  100150:	e8 86 1d 00 00       	call   101edb <print_string>
  100155:	83 c4 10             	add    $0x10,%esp
  100158:	a1 00 50 10 00       	mov    0x105000,%eax
  10015d:	85 c0                	test   %eax,%eax
  10015f:	0f 84 86 00 00 00    	je     1001eb <kmalloc_internal+0xca>
  100165:	83 ec 0c             	sub    $0xc,%esp
  100168:	68 11 11 11 00       	push   $0x111111
  10016d:	e8 51 1f 00 00       	call   1020c3 <print_hex>
  100172:	83 c4 10             	add    $0x10,%esp
  100175:	83 ec 0c             	sub    $0xc,%esp
  100178:	68 9b 30 10 00       	push   $0x10309b
  10017d:	e8 59 1d 00 00       	call   101edb <print_string>
  100182:	83 c4 10             	add    $0x10,%esp
  100185:	8b 15 00 50 10 00    	mov    0x105000,%edx
  10018b:	8b 45 0c             	mov    0xc(%ebp),%eax
  10018e:	0f b6 c0             	movzbl %al,%eax
  100191:	83 ec 04             	sub    $0x4,%esp
  100194:	52                   	push   %edx
  100195:	50                   	push   %eax
  100196:	ff 75 08             	pushl  0x8(%ebp)
  100199:	e8 48 03 00 00       	call   1004e6 <alloc>
  10019e:	83 c4 10             	add    $0x10,%esp
  1001a1:	89 45 f0             	mov    %eax,-0x10(%ebp)
  1001a4:	83 7d 10 00          	cmpl   $0x0,0x10(%ebp)
  1001a8:	74 39                	je     1001e3 <kmalloc_internal+0xc2>
  1001aa:	8b 15 04 50 10 00    	mov    0x105004,%edx
  1001b0:	8b 45 f0             	mov    -0x10(%ebp),%eax
  1001b3:	83 ec 04             	sub    $0x4,%esp
  1001b6:	52                   	push   %edx
  1001b7:	6a 00                	push   $0x0
  1001b9:	50                   	push   %eax
  1001ba:	e8 99 0b 00 00       	call   100d58 <get_page>
  1001bf:	83 c4 10             	add    $0x10,%esp
  1001c2:	89 45 ec             	mov    %eax,-0x14(%ebp)
  1001c5:	8b 45 ec             	mov    -0x14(%ebp),%eax
  1001c8:	8b 00                	mov    (%eax),%eax
  1001ca:	c1 e8 0c             	shr    $0xc,%eax
  1001cd:	c1 e0 0c             	shl    $0xc,%eax
  1001d0:	89 c2                	mov    %eax,%edx
  1001d2:	8b 45 f0             	mov    -0x10(%ebp),%eax
  1001d5:	01 d0                	add    %edx,%eax
  1001d7:	25 ff 0f 00 00       	and    $0xfff,%eax
  1001dc:	89 c2                	mov    %eax,%edx
  1001de:	8b 45 10             	mov    0x10(%ebp),%eax
  1001e1:	89 10                	mov    %edx,(%eax)
  1001e3:	8b 45 f0             	mov    -0x10(%ebp),%eax
  1001e6:	e9 e9 00 00 00       	jmp    1002d4 <kmalloc_internal+0x1b3>
  1001eb:	a1 00 40 10 00       	mov    0x104000,%eax
  1001f0:	83 ec 0c             	sub    $0xc,%esp
  1001f3:	50                   	push   %eax
  1001f4:	e8 ca 1e 00 00       	call   1020c3 <print_hex>
  1001f9:	83 c4 10             	add    $0x10,%esp
  1001fc:	83 ec 0c             	sub    $0xc,%esp
  1001ff:	68 9b 30 10 00       	push   $0x10309b
  100204:	e8 d2 1c 00 00       	call   101edb <print_string>
  100209:	83 c4 10             	add    $0x10,%esp
  10020c:	83 7d 0c 01          	cmpl   $0x1,0xc(%ebp)
  100210:	0f 85 92 00 00 00    	jne    1002a8 <kmalloc_internal+0x187>
  100216:	a1 00 40 10 00       	mov    0x104000,%eax
  10021b:	25 ff 0f 00 00       	and    $0xfff,%eax
  100220:	85 c0                	test   %eax,%eax
  100222:	0f 84 80 00 00 00    	je     1002a8 <kmalloc_internal+0x187>
  100228:	83 ec 0c             	sub    $0xc,%esp
  10022b:	68 a0 30 10 00       	push   $0x1030a0
  100230:	e8 a6 1c 00 00       	call   101edb <print_string>
  100235:	83 c4 10             	add    $0x10,%esp
  100238:	a1 00 40 10 00       	mov    0x104000,%eax
  10023d:	83 ec 0c             	sub    $0xc,%esp
  100240:	50                   	push   %eax
  100241:	e8 7d 1e 00 00       	call   1020c3 <print_hex>
  100246:	83 c4 10             	add    $0x10,%esp
  100249:	83 ec 0c             	sub    $0xc,%esp
  10024c:	68 9b 30 10 00       	push   $0x10309b
  100251:	e8 85 1c 00 00       	call   101edb <print_string>
  100256:	83 c4 10             	add    $0x10,%esp
  100259:	a1 00 40 10 00       	mov    0x104000,%eax
  10025e:	25 00 f0 ff ff       	and    $0xfffff000,%eax
  100263:	a3 00 40 10 00       	mov    %eax,0x104000
  100268:	a1 00 40 10 00       	mov    0x104000,%eax
  10026d:	05 00 10 00 00       	add    $0x1000,%eax
  100272:	a3 00 40 10 00       	mov    %eax,0x104000
  100277:	83 ec 0c             	sub    $0xc,%esp
  10027a:	68 cc 30 10 00       	push   $0x1030cc
  10027f:	e8 57 1c 00 00       	call   101edb <print_string>
  100284:	83 c4 10             	add    $0x10,%esp
  100287:	a1 00 40 10 00       	mov    0x104000,%eax
  10028c:	83 ec 0c             	sub    $0xc,%esp
  10028f:	50                   	push   %eax
  100290:	e8 2e 1e 00 00       	call   1020c3 <print_hex>
  100295:	83 c4 10             	add    $0x10,%esp
  100298:	83 ec 0c             	sub    $0xc,%esp
  10029b:	68 9b 30 10 00       	push   $0x10309b
  1002a0:	e8 36 1c 00 00       	call   101edb <print_string>
  1002a5:	83 c4 10             	add    $0x10,%esp
  1002a8:	83 7d 10 00          	cmpl   $0x0,0x10(%ebp)
  1002ac:	74 0b                	je     1002b9 <kmalloc_internal+0x198>
  1002ae:	8b 15 00 40 10 00    	mov    0x104000,%edx
  1002b4:	8b 45 10             	mov    0x10(%ebp),%eax
  1002b7:	89 10                	mov    %edx,(%eax)
  1002b9:	a1 00 40 10 00       	mov    0x104000,%eax
  1002be:	89 45 f4             	mov    %eax,-0xc(%ebp)
  1002c1:	8b 15 00 40 10 00    	mov    0x104000,%edx
  1002c7:	8b 45 08             	mov    0x8(%ebp),%eax
  1002ca:	01 d0                	add    %edx,%eax
  1002cc:	a3 00 40 10 00       	mov    %eax,0x104000
  1002d1:	8b 45 f4             	mov    -0xc(%ebp),%eax
  1002d4:	c9                   	leave  
  1002d5:	c3                   	ret    

001002d6 <kmalloc>:
  1002d6:	55                   	push   %ebp
  1002d7:	89 e5                	mov    %esp,%ebp
  1002d9:	83 ec 08             	sub    $0x8,%esp
  1002dc:	83 ec 04             	sub    $0x4,%esp
  1002df:	6a 00                	push   $0x0
  1002e1:	6a 00                	push   $0x0
  1002e3:	ff 75 08             	pushl  0x8(%ebp)
  1002e6:	e8 36 fe ff ff       	call   100121 <kmalloc_internal>
  1002eb:	83 c4 10             	add    $0x10,%esp
  1002ee:	c9                   	leave  
  1002ef:	c3                   	ret    

001002f0 <kmalloc_a>:
  1002f0:	55                   	push   %ebp
  1002f1:	89 e5                	mov    %esp,%ebp
  1002f3:	83 ec 08             	sub    $0x8,%esp
  1002f6:	83 ec 04             	sub    $0x4,%esp
  1002f9:	6a 00                	push   $0x0
  1002fb:	6a 01                	push   $0x1
  1002fd:	ff 75 08             	pushl  0x8(%ebp)
  100300:	e8 1c fe ff ff       	call   100121 <kmalloc_internal>
  100305:	83 c4 10             	add    $0x10,%esp
  100308:	c9                   	leave  
  100309:	c3                   	ret    

0010030a <kmalloc_p>:
  10030a:	55                   	push   %ebp
  10030b:	89 e5                	mov    %esp,%ebp
  10030d:	83 ec 08             	sub    $0x8,%esp
  100310:	83 ec 04             	sub    $0x4,%esp
  100313:	ff 75 0c             	pushl  0xc(%ebp)
  100316:	6a 00                	push   $0x0
  100318:	ff 75 08             	pushl  0x8(%ebp)
  10031b:	e8 01 fe ff ff       	call   100121 <kmalloc_internal>
  100320:	83 c4 10             	add    $0x10,%esp
  100323:	c9                   	leave  
  100324:	c3                   	ret    

00100325 <kmalloc_ap>:
  100325:	55                   	push   %ebp
  100326:	89 e5                	mov    %esp,%ebp
  100328:	83 ec 08             	sub    $0x8,%esp
  10032b:	83 ec 04             	sub    $0x4,%esp
  10032e:	ff 75 0c             	pushl  0xc(%ebp)
  100331:	6a 01                	push   $0x1
  100333:	ff 75 08             	pushl  0x8(%ebp)
  100336:	e8 e6 fd ff ff       	call   100121 <kmalloc_internal>
  10033b:	83 c4 10             	add    $0x10,%esp
  10033e:	c9                   	leave  
  10033f:	c3                   	ret    

00100340 <find_smallest_hole>:
  100340:	55                   	push   %ebp
  100341:	89 e5                	mov    %esp,%ebp
  100343:	83 ec 38             	sub    $0x38,%esp
  100346:	8b 45 0c             	mov    0xc(%ebp),%eax
  100349:	88 45 d4             	mov    %al,-0x2c(%ebp)
  10034c:	c7 45 f4 00 00 00 00 	movl   $0x0,-0xc(%ebp)
  100353:	eb 6f                	jmp    1003c4 <find_smallest_hole+0x84>
  100355:	8b 55 10             	mov    0x10(%ebp),%edx
  100358:	8b 45 f4             	mov    -0xc(%ebp),%eax
  10035b:	83 ec 08             	sub    $0x8,%esp
  10035e:	52                   	push   %edx
  10035f:	50                   	push   %eax
  100360:	e8 f2 1a 00 00       	call   101e57 <lookup_ordered_array>
  100365:	83 c4 10             	add    $0x10,%esp
  100368:	89 45 f0             	mov    %eax,-0x10(%ebp)
  10036b:	80 7d d4 00          	cmpb   $0x0,-0x2c(%ebp)
  10036f:	74 44                	je     1003b5 <find_smallest_hole+0x75>
  100371:	8b 45 f0             	mov    -0x10(%ebp),%eax
  100374:	89 45 ec             	mov    %eax,-0x14(%ebp)
  100377:	c7 45 e8 00 00 00 00 	movl   $0x0,-0x18(%ebp)
  10037e:	8b 45 ec             	mov    -0x14(%ebp),%eax
  100381:	83 e0 01             	and    $0x1,%eax
  100384:	85 c0                	test   %eax,%eax
  100386:	74 3c                	je     1003c4 <find_smallest_hole+0x84>
  100388:	8b 45 ec             	mov    -0x14(%ebp),%eax
  10038b:	83 c0 0c             	add    $0xc,%eax
  10038e:	25 ff 0f 00 00       	and    $0xfff,%eax
  100393:	ba 00 10 00 00       	mov    $0x1000,%edx
  100398:	29 c2                	sub    %eax,%edx
  10039a:	89 d0                	mov    %edx,%eax
  10039c:	89 45 e8             	mov    %eax,-0x18(%ebp)
  10039f:	8b 45 f0             	mov    -0x10(%ebp),%eax
  1003a2:	8b 40 08             	mov    0x8(%eax),%eax
  1003a5:	2b 45 e8             	sub    -0x18(%ebp),%eax
  1003a8:	89 45 e4             	mov    %eax,-0x1c(%ebp)
  1003ab:	8b 45 08             	mov    0x8(%ebp),%eax
  1003ae:	39 45 e4             	cmp    %eax,-0x1c(%ebp)
  1003b1:	7c 11                	jl     1003c4 <find_smallest_hole+0x84>
  1003b3:	eb 1f                	jmp    1003d4 <find_smallest_hole+0x94>
  1003b5:	8b 45 f0             	mov    -0x10(%ebp),%eax
  1003b8:	8b 40 08             	mov    0x8(%eax),%eax
  1003bb:	39 45 08             	cmp    %eax,0x8(%ebp)
  1003be:	76 13                	jbe    1003d3 <find_smallest_hole+0x93>
  1003c0:	83 45 f4 01          	addl   $0x1,-0xc(%ebp)
  1003c4:	8b 45 10             	mov    0x10(%ebp),%eax
  1003c7:	8b 50 04             	mov    0x4(%eax),%edx
  1003ca:	8b 45 f4             	mov    -0xc(%ebp),%eax
  1003cd:	39 c2                	cmp    %eax,%edx
  1003cf:	77 84                	ja     100355 <find_smallest_hole+0x15>
  1003d1:	eb 01                	jmp    1003d4 <find_smallest_hole+0x94>
  1003d3:	90                   	nop
  1003d4:	8b 45 10             	mov    0x10(%ebp),%eax
  1003d7:	8b 50 04             	mov    0x4(%eax),%edx
  1003da:	8b 45 f4             	mov    -0xc(%ebp),%eax
  1003dd:	39 c2                	cmp    %eax,%edx
  1003df:	77 07                	ja     1003e8 <find_smallest_hole+0xa8>
  1003e1:	b8 ff ff ff ff       	mov    $0xffffffff,%eax
  1003e6:	eb 03                	jmp    1003eb <find_smallest_hole+0xab>
  1003e8:	8b 45 f4             	mov    -0xc(%ebp),%eax
  1003eb:	c9                   	leave  
  1003ec:	c3                   	ret    

001003ed <header_t_less_than>:
  1003ed:	55                   	push   %ebp
  1003ee:	89 e5                	mov    %esp,%ebp
  1003f0:	8b 45 08             	mov    0x8(%ebp),%eax
  1003f3:	8b 50 08             	mov    0x8(%eax),%edx
  1003f6:	8b 45 0c             	mov    0xc(%ebp),%eax
  1003f9:	8b 40 08             	mov    0x8(%eax),%eax
  1003fc:	39 c2                	cmp    %eax,%edx
  1003fe:	0f 92 c0             	setb   %al
  100401:	5d                   	pop    %ebp
  100402:	c3                   	ret    

00100403 <create_heap>:
  100403:	55                   	push   %ebp
  100404:	89 e5                	mov    %esp,%ebp
  100406:	53                   	push   %ebx
  100407:	83 ec 34             	sub    $0x34,%esp
  10040a:	8b 55 14             	mov    0x14(%ebp),%edx
  10040d:	8b 45 18             	mov    0x18(%ebp),%eax
  100410:	88 55 e4             	mov    %dl,-0x1c(%ebp)
  100413:	88 45 e0             	mov    %al,-0x20(%ebp)
  100416:	83 ec 0c             	sub    $0xc,%esp
  100419:	6a 20                	push   $0x20
  10041b:	e8 b6 fe ff ff       	call   1002d6 <kmalloc>
  100420:	83 c4 10             	add    $0x10,%esp
  100423:	89 45 f4             	mov    %eax,-0xc(%ebp)
  100426:	8b 55 08             	mov    0x8(%ebp),%edx
  100429:	8b 5d f4             	mov    -0xc(%ebp),%ebx
  10042c:	8d 45 c8             	lea    -0x38(%ebp),%eax
  10042f:	68 ed 03 10 00       	push   $0x1003ed
  100434:	68 00 00 02 00       	push   $0x20000
  100439:	52                   	push   %edx
  10043a:	50                   	push   %eax
  10043b:	e8 d9 18 00 00       	call   101d19 <place_ordered_array>
  100440:	83 c4 0c             	add    $0xc,%esp
  100443:	8b 45 c8             	mov    -0x38(%ebp),%eax
  100446:	89 03                	mov    %eax,(%ebx)
  100448:	8b 45 cc             	mov    -0x34(%ebp),%eax
  10044b:	89 43 04             	mov    %eax,0x4(%ebx)
  10044e:	8b 45 d0             	mov    -0x30(%ebp),%eax
  100451:	89 43 08             	mov    %eax,0x8(%ebx)
  100454:	8b 45 d4             	mov    -0x2c(%ebp),%eax
  100457:	89 43 0c             	mov    %eax,0xc(%ebx)
  10045a:	81 45 08 00 00 08 00 	addl   $0x80000,0x8(%ebp)
  100461:	8b 45 08             	mov    0x8(%ebp),%eax
  100464:	83 e0 01             	and    $0x1,%eax
  100467:	85 c0                	test   %eax,%eax
  100469:	74 0e                	je     100479 <create_heap+0x76>
  10046b:	81 65 08 00 f0 ff ff 	andl   $0xfffff000,0x8(%ebp)
  100472:	81 45 08 00 10 00 00 	addl   $0x1000,0x8(%ebp)
  100479:	8b 45 f4             	mov    -0xc(%ebp),%eax
  10047c:	8b 55 08             	mov    0x8(%ebp),%edx
  10047f:	89 50 10             	mov    %edx,0x10(%eax)
  100482:	8b 45 f4             	mov    -0xc(%ebp),%eax
  100485:	8b 55 0c             	mov    0xc(%ebp),%edx
  100488:	89 50 14             	mov    %edx,0x14(%eax)
  10048b:	8b 45 f4             	mov    -0xc(%ebp),%eax
  10048e:	8b 55 10             	mov    0x10(%ebp),%edx
  100491:	89 50 18             	mov    %edx,0x18(%eax)
  100494:	8b 45 f4             	mov    -0xc(%ebp),%eax
  100497:	0f b6 55 e4          	movzbl -0x1c(%ebp),%edx
  10049b:	88 50 1c             	mov    %dl,0x1c(%eax)
  10049e:	8b 45 f4             	mov    -0xc(%ebp),%eax
  1004a1:	0f b6 55 e0          	movzbl -0x20(%ebp),%edx
  1004a5:	88 50 1d             	mov    %dl,0x1d(%eax)
  1004a8:	8b 45 08             	mov    0x8(%ebp),%eax
  1004ab:	89 45 f0             	mov    %eax,-0x10(%ebp)
  1004ae:	8b 45 0c             	mov    0xc(%ebp),%eax
  1004b1:	2b 45 08             	sub    0x8(%ebp),%eax
  1004b4:	89 c2                	mov    %eax,%edx
  1004b6:	8b 45 f0             	mov    -0x10(%ebp),%eax
  1004b9:	89 50 08             	mov    %edx,0x8(%eax)
  1004bc:	8b 45 f0             	mov    -0x10(%ebp),%eax
  1004bf:	c7 00 ab 90 38 12    	movl   $0x123890ab,(%eax)
  1004c5:	8b 45 f0             	mov    -0x10(%ebp),%eax
  1004c8:	c6 40 04 01          	movb   $0x1,0x4(%eax)
  1004cc:	8b 45 f4             	mov    -0xc(%ebp),%eax
  1004cf:	83 ec 08             	sub    $0x8,%esp
  1004d2:	50                   	push   %eax
  1004d3:	ff 75 f0             	pushl  -0x10(%ebp)
  1004d6:	e8 9a 18 00 00       	call   101d75 <insert_ordered_array>
  1004db:	83 c4 10             	add    $0x10,%esp
  1004de:	8b 45 f4             	mov    -0xc(%ebp),%eax
  1004e1:	8b 5d fc             	mov    -0x4(%ebp),%ebx
  1004e4:	c9                   	leave  
  1004e5:	c3                   	ret    

001004e6 <alloc>:
  1004e6:	55                   	push   %ebp
  1004e7:	89 e5                	mov    %esp,%ebp
  1004e9:	83 ec 78             	sub    $0x78,%esp
  1004ec:	8b 45 0c             	mov    0xc(%ebp),%eax
  1004ef:	88 45 94             	mov    %al,-0x6c(%ebp)
  1004f2:	8b 45 08             	mov    0x8(%ebp),%eax
  1004f5:	83 c0 14             	add    $0x14,%eax
  1004f8:	89 45 f4             	mov    %eax,-0xc(%ebp)
  1004fb:	0f b6 45 94          	movzbl -0x6c(%ebp),%eax
  1004ff:	83 ec 04             	sub    $0x4,%esp
  100502:	ff 75 10             	pushl  0x10(%ebp)
  100505:	50                   	push   %eax
  100506:	ff 75 f4             	pushl  -0xc(%ebp)
  100509:	e8 32 fe ff ff       	call   100340 <find_smallest_hole>
  10050e:	83 c4 10             	add    $0x10,%esp
  100511:	89 45 f0             	mov    %eax,-0x10(%ebp)
  100514:	83 7d f0 ff          	cmpl   $0xffffffff,-0x10(%ebp)
  100518:	0f 85 60 01 00 00    	jne    10067e <alloc+0x198>
  10051e:	8b 45 10             	mov    0x10(%ebp),%eax
  100521:	8b 50 14             	mov    0x14(%eax),%edx
  100524:	8b 45 10             	mov    0x10(%ebp),%eax
  100527:	8b 40 10             	mov    0x10(%eax),%eax
  10052a:	29 c2                	sub    %eax,%edx
  10052c:	89 d0                	mov    %edx,%eax
  10052e:	89 45 bc             	mov    %eax,-0x44(%ebp)
  100531:	8b 45 10             	mov    0x10(%ebp),%eax
  100534:	8b 40 14             	mov    0x14(%eax),%eax
  100537:	89 45 b8             	mov    %eax,-0x48(%ebp)
  10053a:	8b 55 bc             	mov    -0x44(%ebp),%edx
  10053d:	8b 45 f4             	mov    -0xc(%ebp),%eax
  100540:	01 d0                	add    %edx,%eax
  100542:	83 ec 08             	sub    $0x8,%esp
  100545:	ff 75 10             	pushl  0x10(%ebp)
  100548:	50                   	push   %eax
  100549:	e8 cb fa ff ff       	call   100019 <expand>
  10054e:	83 c4 10             	add    $0x10,%esp
  100551:	8b 45 10             	mov    0x10(%ebp),%eax
  100554:	8b 50 14             	mov    0x14(%eax),%edx
  100557:	8b 45 10             	mov    0x10(%ebp),%eax
  10055a:	8b 40 10             	mov    0x10(%eax),%eax
  10055d:	29 c2                	sub    %eax,%edx
  10055f:	89 d0                	mov    %edx,%eax
  100561:	89 45 b4             	mov    %eax,-0x4c(%ebp)
  100564:	c7 45 f0 00 00 00 00 	movl   $0x0,-0x10(%ebp)
  10056b:	c7 45 ec ff ff ff ff 	movl   $0xffffffff,-0x14(%ebp)
  100572:	c7 45 e8 00 00 00 00 	movl   $0x0,-0x18(%ebp)
  100579:	eb 2e                	jmp    1005a9 <alloc+0xc3>
  10057b:	8b 55 10             	mov    0x10(%ebp),%edx
  10057e:	8b 45 f0             	mov    -0x10(%ebp),%eax
  100581:	83 ec 08             	sub    $0x8,%esp
  100584:	52                   	push   %edx
  100585:	50                   	push   %eax
  100586:	e8 cc 18 00 00       	call   101e57 <lookup_ordered_array>
  10058b:	83 c4 10             	add    $0x10,%esp
  10058e:	89 45 a0             	mov    %eax,-0x60(%ebp)
  100591:	8b 45 a0             	mov    -0x60(%ebp),%eax
  100594:	3b 45 e8             	cmp    -0x18(%ebp),%eax
  100597:	76 0c                	jbe    1005a5 <alloc+0xbf>
  100599:	8b 45 a0             	mov    -0x60(%ebp),%eax
  10059c:	89 45 e8             	mov    %eax,-0x18(%ebp)
  10059f:	8b 45 f0             	mov    -0x10(%ebp),%eax
  1005a2:	89 45 ec             	mov    %eax,-0x14(%ebp)
  1005a5:	83 45 f0 01          	addl   $0x1,-0x10(%ebp)
  1005a9:	8b 45 10             	mov    0x10(%ebp),%eax
  1005ac:	8b 50 04             	mov    0x4(%eax),%edx
  1005af:	8b 45 f0             	mov    -0x10(%ebp),%eax
  1005b2:	39 c2                	cmp    %eax,%edx
  1005b4:	77 c5                	ja     10057b <alloc+0x95>
  1005b6:	83 7d ec ff          	cmpl   $0xffffffff,-0x14(%ebp)
  1005ba:	75 5b                	jne    100617 <alloc+0x131>
  1005bc:	8b 45 b8             	mov    -0x48(%ebp),%eax
  1005bf:	89 45 a8             	mov    %eax,-0x58(%ebp)
  1005c2:	8b 45 a8             	mov    -0x58(%ebp),%eax
  1005c5:	c7 00 ab 90 38 12    	movl   $0x123890ab,(%eax)
  1005cb:	8b 45 b4             	mov    -0x4c(%ebp),%eax
  1005ce:	2b 45 bc             	sub    -0x44(%ebp),%eax
  1005d1:	89 c2                	mov    %eax,%edx
  1005d3:	8b 45 a8             	mov    -0x58(%ebp),%eax
  1005d6:	89 50 08             	mov    %edx,0x8(%eax)
  1005d9:	8b 45 a8             	mov    -0x58(%ebp),%eax
  1005dc:	c6 40 04 01          	movb   $0x1,0x4(%eax)
  1005e0:	8b 45 a8             	mov    -0x58(%ebp),%eax
  1005e3:	8b 50 08             	mov    0x8(%eax),%edx
  1005e6:	8b 45 b8             	mov    -0x48(%ebp),%eax
  1005e9:	01 d0                	add    %edx,%eax
  1005eb:	83 e8 08             	sub    $0x8,%eax
  1005ee:	89 45 a4             	mov    %eax,-0x5c(%ebp)
  1005f1:	8b 45 a4             	mov    -0x5c(%ebp),%eax
  1005f4:	c7 00 ab 90 38 12    	movl   $0x123890ab,(%eax)
  1005fa:	8b 45 a4             	mov    -0x5c(%ebp),%eax
  1005fd:	8b 55 a8             	mov    -0x58(%ebp),%edx
  100600:	89 50 04             	mov    %edx,0x4(%eax)
  100603:	8b 45 10             	mov    0x10(%ebp),%eax
  100606:	83 ec 08             	sub    $0x8,%esp
  100609:	50                   	push   %eax
  10060a:	ff 75 a8             	pushl  -0x58(%ebp)
  10060d:	e8 63 17 00 00       	call   101d75 <insert_ordered_array>
  100612:	83 c4 10             	add    $0x10,%esp
  100615:	eb 4c                	jmp    100663 <alloc+0x17d>
  100617:	8b 45 10             	mov    0x10(%ebp),%eax
  10061a:	83 ec 08             	sub    $0x8,%esp
  10061d:	50                   	push   %eax
  10061e:	ff 75 ec             	pushl  -0x14(%ebp)
  100621:	e8 31 18 00 00       	call   101e57 <lookup_ordered_array>
  100626:	83 c4 10             	add    $0x10,%esp
  100629:	89 45 b0             	mov    %eax,-0x50(%ebp)
  10062c:	8b 45 b0             	mov    -0x50(%ebp),%eax
  10062f:	8b 50 08             	mov    0x8(%eax),%edx
  100632:	8b 45 b4             	mov    -0x4c(%ebp),%eax
  100635:	2b 45 bc             	sub    -0x44(%ebp),%eax
  100638:	01 c2                	add    %eax,%edx
  10063a:	8b 45 b0             	mov    -0x50(%ebp),%eax
  10063d:	89 50 08             	mov    %edx,0x8(%eax)
  100640:	8b 45 b0             	mov    -0x50(%ebp),%eax
  100643:	8b 50 08             	mov    0x8(%eax),%edx
  100646:	8b 45 b0             	mov    -0x50(%ebp),%eax
  100649:	01 d0                	add    %edx,%eax
  10064b:	83 e8 08             	sub    $0x8,%eax
  10064e:	89 45 ac             	mov    %eax,-0x54(%ebp)
  100651:	8b 45 ac             	mov    -0x54(%ebp),%eax
  100654:	8b 55 b0             	mov    -0x50(%ebp),%edx
  100657:	89 50 04             	mov    %edx,0x4(%eax)
  10065a:	8b 45 ac             	mov    -0x54(%ebp),%eax
  10065d:	c7 00 ab 90 38 12    	movl   $0x123890ab,(%eax)
  100663:	0f b6 45 94          	movzbl -0x6c(%ebp),%eax
  100667:	83 ec 04             	sub    $0x4,%esp
  10066a:	ff 75 10             	pushl  0x10(%ebp)
  10066d:	50                   	push   %eax
  10066e:	ff 75 08             	pushl  0x8(%ebp)
  100671:	e8 70 fe ff ff       	call   1004e6 <alloc>
  100676:	83 c4 10             	add    $0x10,%esp
  100679:	e9 86 01 00 00       	jmp    100804 <alloc+0x31e>
  10067e:	8b 55 10             	mov    0x10(%ebp),%edx
  100681:	8b 45 f0             	mov    -0x10(%ebp),%eax
  100684:	83 ec 08             	sub    $0x8,%esp
  100687:	52                   	push   %edx
  100688:	50                   	push   %eax
  100689:	e8 c9 17 00 00       	call   101e57 <lookup_ordered_array>
  10068e:	83 c4 10             	add    $0x10,%esp
  100691:	89 45 dc             	mov    %eax,-0x24(%ebp)
  100694:	8b 45 dc             	mov    -0x24(%ebp),%eax
  100697:	89 45 e4             	mov    %eax,-0x1c(%ebp)
  10069a:	8b 45 dc             	mov    -0x24(%ebp),%eax
  10069d:	8b 40 08             	mov    0x8(%eax),%eax
  1006a0:	89 45 e0             	mov    %eax,-0x20(%ebp)
  1006a3:	8b 45 e0             	mov    -0x20(%ebp),%eax
  1006a6:	2b 45 f4             	sub    -0xc(%ebp),%eax
  1006a9:	83 f8 13             	cmp    $0x13,%eax
  1006ac:	77 0f                	ja     1006bd <alloc+0x1d7>
  1006ae:	8b 45 e0             	mov    -0x20(%ebp),%eax
  1006b1:	2b 45 f4             	sub    -0xc(%ebp),%eax
  1006b4:	01 45 08             	add    %eax,0x8(%ebp)
  1006b7:	8b 45 e0             	mov    -0x20(%ebp),%eax
  1006ba:	89 45 f4             	mov    %eax,-0xc(%ebp)
  1006bd:	80 7d 94 00          	cmpb   $0x0,-0x6c(%ebp)
  1006c1:	74 73                	je     100736 <alloc+0x250>
  1006c3:	8b 45 e4             	mov    -0x1c(%ebp),%eax
  1006c6:	25 ff 0f 00 00       	and    $0xfff,%eax
  1006cb:	85 c0                	test   %eax,%eax
  1006cd:	74 67                	je     100736 <alloc+0x250>
  1006cf:	8b 45 e4             	mov    -0x1c(%ebp),%eax
  1006d2:	25 00 f0 ff ff       	and    $0xfffff000,%eax
  1006d7:	05 f4 0f 00 00       	add    $0xff4,%eax
  1006dc:	89 45 d8             	mov    %eax,-0x28(%ebp)
  1006df:	8b 45 e4             	mov    -0x1c(%ebp),%eax
  1006e2:	89 45 d4             	mov    %eax,-0x2c(%ebp)
  1006e5:	8b 45 e4             	mov    -0x1c(%ebp),%eax
  1006e8:	25 ff 0f 00 00       	and    $0xfff,%eax
  1006ed:	ba f4 0f 00 00       	mov    $0xff4,%edx
  1006f2:	29 c2                	sub    %eax,%edx
  1006f4:	8b 45 d4             	mov    -0x2c(%ebp),%eax
  1006f7:	89 50 08             	mov    %edx,0x8(%eax)
  1006fa:	8b 45 d4             	mov    -0x2c(%ebp),%eax
  1006fd:	c7 00 ab 90 38 12    	movl   $0x123890ab,(%eax)
  100703:	8b 45 d4             	mov    -0x2c(%ebp),%eax
  100706:	c6 40 04 01          	movb   $0x1,0x4(%eax)
  10070a:	8b 45 d8             	mov    -0x28(%ebp),%eax
  10070d:	83 e8 08             	sub    $0x8,%eax
  100710:	89 45 d0             	mov    %eax,-0x30(%ebp)
  100713:	8b 45 d0             	mov    -0x30(%ebp),%eax
  100716:	c7 00 ab 90 38 12    	movl   $0x123890ab,(%eax)
  10071c:	8b 45 d0             	mov    -0x30(%ebp),%eax
  10071f:	8b 55 d4             	mov    -0x2c(%ebp),%edx
  100722:	89 50 04             	mov    %edx,0x4(%eax)
  100725:	8b 45 d8             	mov    -0x28(%ebp),%eax
  100728:	89 45 e4             	mov    %eax,-0x1c(%ebp)
  10072b:	8b 45 d4             	mov    -0x2c(%ebp),%eax
  10072e:	8b 40 08             	mov    0x8(%eax),%eax
  100731:	29 45 e0             	sub    %eax,-0x20(%ebp)
  100734:	eb 13                	jmp    100749 <alloc+0x263>
  100736:	8b 55 10             	mov    0x10(%ebp),%edx
  100739:	8b 45 f0             	mov    -0x10(%ebp),%eax
  10073c:	83 ec 08             	sub    $0x8,%esp
  10073f:	52                   	push   %edx
  100740:	50                   	push   %eax
  100741:	e8 4a 17 00 00       	call   101e90 <remove_ordered_array>
  100746:	83 c4 10             	add    $0x10,%esp
  100749:	8b 45 e4             	mov    -0x1c(%ebp),%eax
  10074c:	89 45 cc             	mov    %eax,-0x34(%ebp)
  10074f:	8b 45 cc             	mov    -0x34(%ebp),%eax
  100752:	c7 00 ab 90 38 12    	movl   $0x123890ab,(%eax)
  100758:	8b 45 cc             	mov    -0x34(%ebp),%eax
  10075b:	c6 40 04 00          	movb   $0x0,0x4(%eax)
  10075f:	8b 45 cc             	mov    -0x34(%ebp),%eax
  100762:	8b 55 f4             	mov    -0xc(%ebp),%edx
  100765:	89 50 08             	mov    %edx,0x8(%eax)
  100768:	8b 55 e4             	mov    -0x1c(%ebp),%edx
  10076b:	8b 45 08             	mov    0x8(%ebp),%eax
  10076e:	01 d0                	add    %edx,%eax
  100770:	83 c0 0c             	add    $0xc,%eax
  100773:	89 45 c8             	mov    %eax,-0x38(%ebp)
  100776:	8b 45 c8             	mov    -0x38(%ebp),%eax
  100779:	c7 00 ab 90 38 12    	movl   $0x123890ab,(%eax)
  10077f:	8b 45 c8             	mov    -0x38(%ebp),%eax
  100782:	8b 55 cc             	mov    -0x34(%ebp),%edx
  100785:	89 50 04             	mov    %edx,0x4(%eax)
  100788:	8b 45 e0             	mov    -0x20(%ebp),%eax
  10078b:	3b 45 f4             	cmp    -0xc(%ebp),%eax
  10078e:	74 6e                	je     1007fe <alloc+0x318>
  100790:	8b 55 e4             	mov    -0x1c(%ebp),%edx
  100793:	8b 45 08             	mov    0x8(%ebp),%eax
  100796:	01 d0                	add    %edx,%eax
  100798:	83 c0 14             	add    $0x14,%eax
  10079b:	89 45 c4             	mov    %eax,-0x3c(%ebp)
  10079e:	8b 45 c4             	mov    -0x3c(%ebp),%eax
  1007a1:	c7 00 ab 90 38 12    	movl   $0x123890ab,(%eax)
  1007a7:	8b 45 c4             	mov    -0x3c(%ebp),%eax
  1007aa:	c6 40 04 01          	movb   $0x1,0x4(%eax)
  1007ae:	8b 45 e0             	mov    -0x20(%ebp),%eax
  1007b1:	2b 45 f4             	sub    -0xc(%ebp),%eax
  1007b4:	89 c2                	mov    %eax,%edx
  1007b6:	8b 45 c4             	mov    -0x3c(%ebp),%eax
  1007b9:	89 50 08             	mov    %edx,0x8(%eax)
  1007bc:	8b 55 c4             	mov    -0x3c(%ebp),%edx
  1007bf:	8b 45 e0             	mov    -0x20(%ebp),%eax
  1007c2:	01 d0                	add    %edx,%eax
  1007c4:	2b 45 f4             	sub    -0xc(%ebp),%eax
  1007c7:	83 e8 08             	sub    $0x8,%eax
  1007ca:	89 45 c0             	mov    %eax,-0x40(%ebp)
  1007cd:	8b 45 10             	mov    0x10(%ebp),%eax
  1007d0:	8b 50 14             	mov    0x14(%eax),%edx
  1007d3:	8b 45 c0             	mov    -0x40(%ebp),%eax
  1007d6:	39 c2                	cmp    %eax,%edx
  1007d8:	76 12                	jbe    1007ec <alloc+0x306>
  1007da:	8b 45 c0             	mov    -0x40(%ebp),%eax
  1007dd:	c7 00 ab 90 38 12    	movl   $0x123890ab,(%eax)
  1007e3:	8b 45 c0             	mov    -0x40(%ebp),%eax
  1007e6:	8b 55 c4             	mov    -0x3c(%ebp),%edx
  1007e9:	89 50 04             	mov    %edx,0x4(%eax)
  1007ec:	8b 45 10             	mov    0x10(%ebp),%eax
  1007ef:	83 ec 08             	sub    $0x8,%esp
  1007f2:	50                   	push   %eax
  1007f3:	ff 75 c4             	pushl  -0x3c(%ebp)
  1007f6:	e8 7a 15 00 00       	call   101d75 <insert_ordered_array>
  1007fb:	83 c4 10             	add    $0x10,%esp
  1007fe:	8b 45 cc             	mov    -0x34(%ebp),%eax
  100801:	83 c0 0c             	add    $0xc,%eax
  100804:	c9                   	leave  
  100805:	c3                   	ret    

00100806 <set_frame>:
  100806:	55                   	push   %ebp
  100807:	89 e5                	mov    %esp,%ebp
  100809:	53                   	push   %ebx
  10080a:	83 ec 10             	sub    $0x10,%esp
  10080d:	8b 45 08             	mov    0x8(%ebp),%eax
  100810:	c1 e8 0c             	shr    $0xc,%eax
  100813:	89 45 f8             	mov    %eax,-0x8(%ebp)
  100816:	8b 45 f8             	mov    -0x8(%ebp),%eax
  100819:	c1 e8 05             	shr    $0x5,%eax
  10081c:	89 45 f4             	mov    %eax,-0xc(%ebp)
  10081f:	8b 45 f8             	mov    -0x8(%ebp),%eax
  100822:	83 e0 1f             	and    $0x1f,%eax
  100825:	89 45 f0             	mov    %eax,-0x10(%ebp)
  100828:	a1 14 50 10 00       	mov    0x105014,%eax
  10082d:	8b 55 f4             	mov    -0xc(%ebp),%edx
  100830:	c1 e2 02             	shl    $0x2,%edx
  100833:	01 d0                	add    %edx,%eax
  100835:	8b 10                	mov    (%eax),%edx
  100837:	8b 45 f0             	mov    -0x10(%ebp),%eax
  10083a:	bb 01 00 00 00       	mov    $0x1,%ebx
  10083f:	89 c1                	mov    %eax,%ecx
  100841:	d3 e3                	shl    %cl,%ebx
  100843:	89 d8                	mov    %ebx,%eax
  100845:	89 c3                	mov    %eax,%ebx
  100847:	a1 14 50 10 00       	mov    0x105014,%eax
  10084c:	8b 4d f4             	mov    -0xc(%ebp),%ecx
  10084f:	c1 e1 02             	shl    $0x2,%ecx
  100852:	01 c8                	add    %ecx,%eax
  100854:	09 da                	or     %ebx,%edx
  100856:	89 10                	mov    %edx,(%eax)
  100858:	90                   	nop
  100859:	83 c4 10             	add    $0x10,%esp
  10085c:	5b                   	pop    %ebx
  10085d:	5d                   	pop    %ebp
  10085e:	c3                   	ret    

0010085f <clear_frame>:
  10085f:	55                   	push   %ebp
  100860:	89 e5                	mov    %esp,%ebp
  100862:	53                   	push   %ebx
  100863:	83 ec 10             	sub    $0x10,%esp
  100866:	8b 45 08             	mov    0x8(%ebp),%eax
  100869:	c1 e8 0c             	shr    $0xc,%eax
  10086c:	89 45 f8             	mov    %eax,-0x8(%ebp)
  10086f:	8b 45 f8             	mov    -0x8(%ebp),%eax
  100872:	c1 e8 05             	shr    $0x5,%eax
  100875:	89 45 f4             	mov    %eax,-0xc(%ebp)
  100878:	8b 45 f8             	mov    -0x8(%ebp),%eax
  10087b:	83 e0 1f             	and    $0x1f,%eax
  10087e:	89 45 f0             	mov    %eax,-0x10(%ebp)
  100881:	a1 14 50 10 00       	mov    0x105014,%eax
  100886:	8b 55 f4             	mov    -0xc(%ebp),%edx
  100889:	c1 e2 02             	shl    $0x2,%edx
  10088c:	01 d0                	add    %edx,%eax
  10088e:	8b 10                	mov    (%eax),%edx
  100890:	8b 45 f0             	mov    -0x10(%ebp),%eax
  100893:	bb 01 00 00 00       	mov    $0x1,%ebx
  100898:	89 c1                	mov    %eax,%ecx
  10089a:	d3 e3                	shl    %cl,%ebx
  10089c:	89 d8                	mov    %ebx,%eax
  10089e:	f7 d0                	not    %eax
  1008a0:	89 c3                	mov    %eax,%ebx
  1008a2:	a1 14 50 10 00       	mov    0x105014,%eax
  1008a7:	8b 4d f4             	mov    -0xc(%ebp),%ecx
  1008aa:	c1 e1 02             	shl    $0x2,%ecx
  1008ad:	01 c8                	add    %ecx,%eax
  1008af:	21 da                	and    %ebx,%edx
  1008b1:	89 10                	mov    %edx,(%eax)
  1008b3:	90                   	nop
  1008b4:	83 c4 10             	add    $0x10,%esp
  1008b7:	5b                   	pop    %ebx
  1008b8:	5d                   	pop    %ebp
  1008b9:	c3                   	ret    

001008ba <test_frame>:
  1008ba:	55                   	push   %ebp
  1008bb:	89 e5                	mov    %esp,%ebp
  1008bd:	53                   	push   %ebx
  1008be:	83 ec 10             	sub    $0x10,%esp
  1008c1:	8b 45 08             	mov    0x8(%ebp),%eax
  1008c4:	c1 e8 0c             	shr    $0xc,%eax
  1008c7:	89 45 f8             	mov    %eax,-0x8(%ebp)
  1008ca:	8b 45 f8             	mov    -0x8(%ebp),%eax
  1008cd:	c1 e8 05             	shr    $0x5,%eax
  1008d0:	89 45 f4             	mov    %eax,-0xc(%ebp)
  1008d3:	8b 45 f8             	mov    -0x8(%ebp),%eax
  1008d6:	83 e0 1f             	and    $0x1f,%eax
  1008d9:	89 45 f0             	mov    %eax,-0x10(%ebp)
  1008dc:	a1 14 50 10 00       	mov    0x105014,%eax
  1008e1:	8b 55 f4             	mov    -0xc(%ebp),%edx
  1008e4:	c1 e2 02             	shl    $0x2,%edx
  1008e7:	01 d0                	add    %edx,%eax
  1008e9:	8b 10                	mov    (%eax),%edx
  1008eb:	8b 45 f0             	mov    -0x10(%ebp),%eax
  1008ee:	bb 01 00 00 00       	mov    $0x1,%ebx
  1008f3:	89 c1                	mov    %eax,%ecx
  1008f5:	d3 e3                	shl    %cl,%ebx
  1008f7:	89 d8                	mov    %ebx,%eax
  1008f9:	21 d0                	and    %edx,%eax
  1008fb:	83 c4 10             	add    $0x10,%esp
  1008fe:	5b                   	pop    %ebx
  1008ff:	5d                   	pop    %ebp
  100900:	c3                   	ret    

00100901 <first_unused_frame>:
  100901:	55                   	push   %ebp
  100902:	89 e5                	mov    %esp,%ebp
  100904:	53                   	push   %ebx
  100905:	83 ec 10             	sub    $0x10,%esp
  100908:	c7 45 f8 00 00 00 00 	movl   $0x0,-0x8(%ebp)
  10090f:	eb 5d                	jmp    10096e <first_unused_frame+0x6d>
  100911:	a1 14 50 10 00       	mov    0x105014,%eax
  100916:	8b 55 f8             	mov    -0x8(%ebp),%edx
  100919:	c1 e2 02             	shl    $0x2,%edx
  10091c:	01 d0                	add    %edx,%eax
  10091e:	8b 00                	mov    (%eax),%eax
  100920:	83 f8 ff             	cmp    $0xffffffff,%eax
  100923:	74 45                	je     10096a <first_unused_frame+0x69>
  100925:	c7 45 f4 00 00 00 00 	movl   $0x0,-0xc(%ebp)
  10092c:	eb 36                	jmp    100964 <first_unused_frame+0x63>
  10092e:	a1 14 50 10 00       	mov    0x105014,%eax
  100933:	8b 55 f8             	mov    -0x8(%ebp),%edx
  100936:	c1 e2 02             	shl    $0x2,%edx
  100939:	01 d0                	add    %edx,%eax
  10093b:	8b 10                	mov    (%eax),%edx
  10093d:	8b 45 f4             	mov    -0xc(%ebp),%eax
  100940:	bb 01 00 00 00       	mov    $0x1,%ebx
  100945:	89 c1                	mov    %eax,%ecx
  100947:	d3 e3                	shl    %cl,%ebx
  100949:	89 d8                	mov    %ebx,%eax
  10094b:	21 d0                	and    %edx,%eax
  10094d:	85 c0                	test   %eax,%eax
  10094f:	75 0f                	jne    100960 <first_unused_frame+0x5f>
  100951:	8b 45 f8             	mov    -0x8(%ebp),%eax
  100954:	c1 e0 05             	shl    $0x5,%eax
  100957:	89 c2                	mov    %eax,%edx
  100959:	8b 45 f4             	mov    -0xc(%ebp),%eax
  10095c:	01 d0                	add    %edx,%eax
  10095e:	eb 1b                	jmp    10097b <first_unused_frame+0x7a>
  100960:	83 45 f4 01          	addl   $0x1,-0xc(%ebp)
  100964:	83 7d f4 1f          	cmpl   $0x1f,-0xc(%ebp)
  100968:	76 c4                	jbe    10092e <first_unused_frame+0x2d>
  10096a:	83 45 f8 01          	addl   $0x1,-0x8(%ebp)
  10096e:	a1 10 50 10 00       	mov    0x105010,%eax
  100973:	c1 e8 05             	shr    $0x5,%eax
  100976:	39 45 f8             	cmp    %eax,-0x8(%ebp)
  100979:	72 96                	jb     100911 <first_unused_frame+0x10>
  10097b:	83 c4 10             	add    $0x10,%esp
  10097e:	5b                   	pop    %ebx
  10097f:	5d                   	pop    %ebp
  100980:	c3                   	ret    

00100981 <alloc_frame>:
  100981:	55                   	push   %ebp
  100982:	89 e5                	mov    %esp,%ebp
  100984:	83 ec 18             	sub    $0x18,%esp
  100987:	8b 45 08             	mov    0x8(%ebp),%eax
  10098a:	8b 00                	mov    (%eax),%eax
  10098c:	25 00 f0 ff ff       	and    $0xfffff000,%eax
  100991:	85 c0                	test   %eax,%eax
  100993:	0f 85 95 00 00 00    	jne    100a2e <alloc_frame+0xad>
  100999:	e8 63 ff ff ff       	call   100901 <first_unused_frame>
  10099e:	89 45 f4             	mov    %eax,-0xc(%ebp)
  1009a1:	83 7d f4 ff          	cmpl   $0xffffffff,-0xc(%ebp)
  1009a5:	75 12                	jne    1009b9 <alloc_frame+0x38>
  1009a7:	83 ec 0c             	sub    $0xc,%esp
  1009aa:	68 f4 30 10 00       	push   $0x1030f4
  1009af:	e8 27 15 00 00       	call   101edb <print_string>
  1009b4:	83 c4 10             	add    $0x10,%esp
  1009b7:	eb 76                	jmp    100a2f <alloc_frame+0xae>
  1009b9:	8b 45 f4             	mov    -0xc(%ebp),%eax
  1009bc:	c1 e0 0c             	shl    $0xc,%eax
  1009bf:	83 ec 0c             	sub    $0xc,%esp
  1009c2:	50                   	push   %eax
  1009c3:	e8 3e fe ff ff       	call   100806 <set_frame>
  1009c8:	83 c4 10             	add    $0x10,%esp
  1009cb:	8b 45 08             	mov    0x8(%ebp),%eax
  1009ce:	0f b6 10             	movzbl (%eax),%edx
  1009d1:	83 ca 01             	or     $0x1,%edx
  1009d4:	88 10                	mov    %dl,(%eax)
  1009d6:	83 7d 10 00          	cmpl   $0x0,0x10(%ebp)
  1009da:	0f 95 c2             	setne  %dl
  1009dd:	8b 45 08             	mov    0x8(%ebp),%eax
  1009e0:	83 e2 01             	and    $0x1,%edx
  1009e3:	8d 0c 12             	lea    (%edx,%edx,1),%ecx
  1009e6:	0f b6 10             	movzbl (%eax),%edx
  1009e9:	83 e2 fd             	and    $0xfffffffd,%edx
  1009ec:	09 ca                	or     %ecx,%edx
  1009ee:	88 10                	mov    %dl,(%eax)
  1009f0:	83 7d 0c 00          	cmpl   $0x0,0xc(%ebp)
  1009f4:	0f 94 c2             	sete   %dl
  1009f7:	8b 45 08             	mov    0x8(%ebp),%eax
  1009fa:	83 e2 01             	and    $0x1,%edx
  1009fd:	8d 0c 95 00 00 00 00 	lea    0x0(,%edx,4),%ecx
  100a04:	0f b6 10             	movzbl (%eax),%edx
  100a07:	83 e2 fb             	and    $0xfffffffb,%edx
  100a0a:	09 ca                	or     %ecx,%edx
  100a0c:	88 10                	mov    %dl,(%eax)
  100a0e:	8b 45 f4             	mov    -0xc(%ebp),%eax
  100a11:	25 ff ff 0f 00       	and    $0xfffff,%eax
  100a16:	89 c2                	mov    %eax,%edx
  100a18:	8b 45 08             	mov    0x8(%ebp),%eax
  100a1b:	89 d1                	mov    %edx,%ecx
  100a1d:	c1 e1 0c             	shl    $0xc,%ecx
  100a20:	8b 10                	mov    (%eax),%edx
  100a22:	81 e2 ff 0f 00 00    	and    $0xfff,%edx
  100a28:	09 ca                	or     %ecx,%edx
  100a2a:	89 10                	mov    %edx,(%eax)
  100a2c:	eb 01                	jmp    100a2f <alloc_frame+0xae>
  100a2e:	90                   	nop
  100a2f:	c9                   	leave  
  100a30:	c3                   	ret    

00100a31 <free_frame>:
  100a31:	55                   	push   %ebp
  100a32:	89 e5                	mov    %esp,%ebp
  100a34:	83 ec 10             	sub    $0x10,%esp
  100a37:	8b 45 08             	mov    0x8(%ebp),%eax
  100a3a:	8b 00                	mov    (%eax),%eax
  100a3c:	c1 e8 0c             	shr    $0xc,%eax
  100a3f:	89 45 fc             	mov    %eax,-0x4(%ebp)
  100a42:	83 7d fc 00          	cmpl   $0x0,-0x4(%ebp)
  100a46:	74 1a                	je     100a62 <free_frame+0x31>
  100a48:	ff 75 fc             	pushl  -0x4(%ebp)
  100a4b:	e8 0f fe ff ff       	call   10085f <clear_frame>
  100a50:	83 c4 04             	add    $0x4,%esp
  100a53:	8b 45 08             	mov    0x8(%ebp),%eax
  100a56:	8b 10                	mov    (%eax),%edx
  100a58:	81 e2 ff 0f 00 00    	and    $0xfff,%edx
  100a5e:	89 10                	mov    %edx,(%eax)
  100a60:	eb 01                	jmp    100a63 <free_frame+0x32>
  100a62:	90                   	nop
  100a63:	c9                   	leave  
  100a64:	c3                   	ret    

00100a65 <init_paging>:
  100a65:	55                   	push   %ebp
  100a66:	89 e5                	mov    %esp,%ebp
  100a68:	83 ec 18             	sub    $0x18,%esp
  100a6b:	c7 45 f0 00 00 00 01 	movl   $0x1000000,-0x10(%ebp)
  100a72:	8b 45 f0             	mov    -0x10(%ebp),%eax
  100a75:	c1 e8 0c             	shr    $0xc,%eax
  100a78:	a3 10 50 10 00       	mov    %eax,0x105010
  100a7d:	83 ec 0c             	sub    $0xc,%esp
  100a80:	68 05 31 10 00       	push   $0x103105
  100a85:	e8 51 14 00 00       	call   101edb <print_string>
  100a8a:	83 c4 10             	add    $0x10,%esp
  100a8d:	b8 00 50 10 00       	mov    $0x105000,%eax
  100a92:	83 ec 0c             	sub    $0xc,%esp
  100a95:	50                   	push   %eax
  100a96:	e8 28 16 00 00       	call   1020c3 <print_hex>
  100a9b:	83 c4 10             	add    $0x10,%esp
  100a9e:	83 ec 0c             	sub    $0xc,%esp
  100aa1:	68 0d 31 10 00       	push   $0x10310d
  100aa6:	e8 30 14 00 00       	call   101edb <print_string>
  100aab:	83 c4 10             	add    $0x10,%esp
  100aae:	83 ec 0c             	sub    $0xc,%esp
  100ab1:	68 10 31 10 00       	push   $0x103110
  100ab6:	e8 20 14 00 00       	call   101edb <print_string>
  100abb:	83 c4 10             	add    $0x10,%esp
  100abe:	a1 00 40 10 00       	mov    0x104000,%eax
  100ac3:	83 ec 0c             	sub    $0xc,%esp
  100ac6:	50                   	push   %eax
  100ac7:	e8 f7 15 00 00       	call   1020c3 <print_hex>
  100acc:	83 c4 10             	add    $0x10,%esp
  100acf:	83 ec 0c             	sub    $0xc,%esp
  100ad2:	68 0d 31 10 00       	push   $0x10310d
  100ad7:	e8 ff 13 00 00       	call   101edb <print_string>
  100adc:	83 c4 10             	add    $0x10,%esp
  100adf:	a1 10 50 10 00       	mov    0x105010,%eax
  100ae4:	c1 e8 03             	shr    $0x3,%eax
  100ae7:	83 ec 0c             	sub    $0xc,%esp
  100aea:	50                   	push   %eax
  100aeb:	e8 e6 f7 ff ff       	call   1002d6 <kmalloc>
  100af0:	83 c4 10             	add    $0x10,%esp
  100af3:	a3 14 50 10 00       	mov    %eax,0x105014
  100af8:	83 ec 0c             	sub    $0xc,%esp
  100afb:	68 2f 31 10 00       	push   $0x10312f
  100b00:	e8 d6 13 00 00       	call   101edb <print_string>
  100b05:	83 c4 10             	add    $0x10,%esp
  100b08:	a1 00 40 10 00       	mov    0x104000,%eax
  100b0d:	83 ec 0c             	sub    $0xc,%esp
  100b10:	50                   	push   %eax
  100b11:	e8 ad 15 00 00       	call   1020c3 <print_hex>
  100b16:	83 c4 10             	add    $0x10,%esp
  100b19:	83 ec 0c             	sub    $0xc,%esp
  100b1c:	68 0d 31 10 00       	push   $0x10310d
  100b21:	e8 b5 13 00 00       	call   101edb <print_string>
  100b26:	83 c4 10             	add    $0x10,%esp
  100b29:	83 ec 0c             	sub    $0xc,%esp
  100b2c:	68 50 31 10 00       	push   $0x103150
  100b31:	e8 a5 13 00 00       	call   101edb <print_string>
  100b36:	83 c4 10             	add    $0x10,%esp
  100b39:	a1 00 40 10 00       	mov    0x104000,%eax
  100b3e:	83 ec 0c             	sub    $0xc,%esp
  100b41:	50                   	push   %eax
  100b42:	e8 7c 15 00 00       	call   1020c3 <print_hex>
  100b47:	83 c4 10             	add    $0x10,%esp
  100b4a:	83 ec 0c             	sub    $0xc,%esp
  100b4d:	68 0d 31 10 00       	push   $0x10310d
  100b52:	e8 84 13 00 00       	call   101edb <print_string>
  100b57:	83 c4 10             	add    $0x10,%esp
  100b5a:	83 ec 0c             	sub    $0xc,%esp
  100b5d:	68 04 20 00 00       	push   $0x2004
  100b62:	e8 89 f7 ff ff       	call   1002f0 <kmalloc_a>
  100b67:	83 c4 10             	add    $0x10,%esp
  100b6a:	a3 04 50 10 00       	mov    %eax,0x105004
  100b6f:	a1 04 50 10 00       	mov    0x105004,%eax
  100b74:	a3 08 50 10 00       	mov    %eax,0x105008
  100b79:	83 ec 0c             	sub    $0xc,%esp
  100b7c:	68 7e 31 10 00       	push   $0x10317e
  100b81:	e8 55 13 00 00       	call   101edb <print_string>
  100b86:	83 c4 10             	add    $0x10,%esp
  100b89:	a1 04 50 10 00       	mov    0x105004,%eax
  100b8e:	83 ec 0c             	sub    $0xc,%esp
  100b91:	50                   	push   %eax
  100b92:	e8 2c 15 00 00       	call   1020c3 <print_hex>
  100b97:	83 c4 10             	add    $0x10,%esp
  100b9a:	83 ec 0c             	sub    $0xc,%esp
  100b9d:	68 0d 31 10 00       	push   $0x10310d
  100ba2:	e8 34 13 00 00       	call   101edb <print_string>
  100ba7:	83 c4 10             	add    $0x10,%esp
  100baa:	83 ec 0c             	sub    $0xc,%esp
  100bad:	68 9c 31 10 00       	push   $0x10319c
  100bb2:	e8 24 13 00 00       	call   101edb <print_string>
  100bb7:	83 c4 10             	add    $0x10,%esp
  100bba:	a1 00 40 10 00       	mov    0x104000,%eax
  100bbf:	83 ec 0c             	sub    $0xc,%esp
  100bc2:	50                   	push   %eax
  100bc3:	e8 fb 14 00 00       	call   1020c3 <print_hex>
  100bc8:	83 c4 10             	add    $0x10,%esp
  100bcb:	83 ec 0c             	sub    $0xc,%esp
  100bce:	68 0d 31 10 00       	push   $0x10310d
  100bd3:	e8 03 13 00 00       	call   101edb <print_string>
  100bd8:	83 c4 10             	add    $0x10,%esp
  100bdb:	c7 45 f4 00 00 00 00 	movl   $0x0,-0xc(%ebp)
  100be2:	eb 2f                	jmp    100c13 <init_paging+0x1ae>
  100be4:	8b 15 04 50 10 00    	mov    0x105004,%edx
  100bea:	8b 45 f4             	mov    -0xc(%ebp),%eax
  100bed:	83 ec 04             	sub    $0x4,%esp
  100bf0:	52                   	push   %edx
  100bf1:	6a 01                	push   $0x1
  100bf3:	50                   	push   %eax
  100bf4:	e8 5f 01 00 00       	call   100d58 <get_page>
  100bf9:	83 c4 10             	add    $0x10,%esp
  100bfc:	83 ec 04             	sub    $0x4,%esp
  100bff:	6a 00                	push   $0x0
  100c01:	6a 00                	push   $0x0
  100c03:	50                   	push   %eax
  100c04:	e8 78 fd ff ff       	call   100981 <alloc_frame>
  100c09:	83 c4 10             	add    $0x10,%esp
  100c0c:	81 45 f4 00 10 00 00 	addl   $0x1000,-0xc(%ebp)
  100c13:	8b 55 f4             	mov    -0xc(%ebp),%edx
  100c16:	a1 00 40 10 00       	mov    0x104000,%eax
  100c1b:	39 c2                	cmp    %eax,%edx
  100c1d:	72 c5                	jb     100be4 <init_paging+0x17f>
  100c1f:	83 ec 0c             	sub    $0xc,%esp
  100c22:	68 cc 31 10 00       	push   $0x1031cc
  100c27:	e8 af 12 00 00       	call   101edb <print_string>
  100c2c:	83 c4 10             	add    $0x10,%esp
  100c2f:	a1 04 50 10 00       	mov    0x105004,%eax
  100c34:	83 ec 0c             	sub    $0xc,%esp
  100c37:	50                   	push   %eax
  100c38:	e8 86 14 00 00       	call   1020c3 <print_hex>
  100c3d:	83 c4 10             	add    $0x10,%esp
  100c40:	83 ec 0c             	sub    $0xc,%esp
  100c43:	68 0d 31 10 00       	push   $0x10310d
  100c48:	e8 8e 12 00 00       	call   101edb <print_string>
  100c4d:	83 c4 10             	add    $0x10,%esp
  100c50:	83 ec 0c             	sub    $0xc,%esp
  100c53:	68 00 32 10 00       	push   $0x103200
  100c58:	e8 7e 12 00 00       	call   101edb <print_string>
  100c5d:	83 c4 10             	add    $0x10,%esp
  100c60:	83 ec 08             	sub    $0x8,%esp
  100c63:	68 5b 0e 10 00       	push   $0x100e5b
  100c68:	6a 0e                	push   $0xe
  100c6a:	e8 1c 0e 00 00       	call   101a8b <register_interrupt_handler>
  100c6f:	83 c4 10             	add    $0x10,%esp
  100c72:	83 ec 0c             	sub    $0xc,%esp
  100c75:	68 20 32 10 00       	push   $0x103220
  100c7a:	e8 5c 12 00 00       	call   101edb <print_string>
  100c7f:	83 c4 10             	add    $0x10,%esp
  100c82:	a1 04 50 10 00       	mov    0x105004,%eax
  100c87:	83 ec 0c             	sub    $0xc,%esp
  100c8a:	50                   	push   %eax
  100c8b:	e8 33 14 00 00       	call   1020c3 <print_hex>
  100c90:	83 c4 10             	add    $0x10,%esp
  100c93:	83 ec 0c             	sub    $0xc,%esp
  100c96:	68 0d 31 10 00       	push   $0x10310d
  100c9b:	e8 3b 12 00 00       	call   101edb <print_string>
  100ca0:	83 c4 10             	add    $0x10,%esp
  100ca3:	a1 04 50 10 00       	mov    0x105004,%eax
  100ca8:	83 ec 0c             	sub    $0xc,%esp
  100cab:	50                   	push   %eax
  100cac:	e8 39 00 00 00       	call   100cea <switch_page_directory>
  100cb1:	83 c4 10             	add    $0x10,%esp
  100cb4:	83 ec 0c             	sub    $0xc,%esp
  100cb7:	68 50 32 10 00       	push   $0x103250
  100cbc:	e8 1a 12 00 00       	call   101edb <print_string>
  100cc1:	83 c4 10             	add    $0x10,%esp
  100cc4:	83 ec 0c             	sub    $0xc,%esp
  100cc7:	6a 00                	push   $0x0
  100cc9:	6a 00                	push   $0x0
  100ccb:	68 00 f0 ff cf       	push   $0xcffff000
  100cd0:	68 00 00 10 c0       	push   $0xc0100000
  100cd5:	68 00 00 00 c0       	push   $0xc0000000
  100cda:	e8 24 f7 ff ff       	call   100403 <create_heap>
  100cdf:	83 c4 20             	add    $0x20,%esp
  100ce2:	a3 00 50 10 00       	mov    %eax,0x105000
  100ce7:	90                   	nop
  100ce8:	c9                   	leave  
  100ce9:	c3                   	ret    

00100cea <switch_page_directory>:
  100cea:	55                   	push   %ebp
  100ceb:	89 e5                	mov    %esp,%ebp
  100ced:	83 ec 18             	sub    $0x18,%esp
  100cf0:	8b 45 08             	mov    0x8(%ebp),%eax
  100cf3:	a3 08 50 10 00       	mov    %eax,0x105008
  100cf8:	8b 45 08             	mov    0x8(%ebp),%eax
  100cfb:	05 00 10 00 00       	add    $0x1000,%eax
  100d00:	0f 22 d8             	mov    %eax,%cr3
  100d03:	0f 20 c0             	mov    %cr0,%eax
  100d06:	89 45 f4             	mov    %eax,-0xc(%ebp)
  100d09:	81 4d f4 00 00 00 80 	orl    $0x80000000,-0xc(%ebp)
  100d10:	83 ec 0c             	sub    $0xc,%esp
  100d13:	68 68 32 10 00       	push   $0x103268
  100d18:	e8 be 11 00 00       	call   101edb <print_string>
  100d1d:	83 c4 10             	add    $0x10,%esp
  100d20:	8b 45 f4             	mov    -0xc(%ebp),%eax
  100d23:	83 ec 0c             	sub    $0xc,%esp
  100d26:	50                   	push   %eax
  100d27:	e8 97 13 00 00       	call   1020c3 <print_hex>
  100d2c:	83 c4 10             	add    $0x10,%esp
  100d2f:	83 ec 0c             	sub    $0xc,%esp
  100d32:	68 88 32 10 00       	push   $0x103288
  100d37:	e8 9f 11 00 00       	call   101edb <print_string>
  100d3c:	83 c4 10             	add    $0x10,%esp
  100d3f:	8b 45 f4             	mov    -0xc(%ebp),%eax
  100d42:	0f 22 c0             	mov    %eax,%cr0
  100d45:	83 ec 0c             	sub    $0xc,%esp
  100d48:	68 8e 32 10 00       	push   $0x10328e
  100d4d:	e8 89 11 00 00       	call   101edb <print_string>
  100d52:	83 c4 10             	add    $0x10,%esp
  100d55:	90                   	nop
  100d56:	c9                   	leave  
  100d57:	c3                   	ret    

00100d58 <get_page>:
  100d58:	55                   	push   %ebp
  100d59:	89 e5                	mov    %esp,%ebp
  100d5b:	83 ec 18             	sub    $0x18,%esp
  100d5e:	8b 45 08             	mov    0x8(%ebp),%eax
  100d61:	c1 e8 0c             	shr    $0xc,%eax
  100d64:	89 45 08             	mov    %eax,0x8(%ebp)
  100d67:	8b 45 08             	mov    0x8(%ebp),%eax
  100d6a:	c1 e8 0a             	shr    $0xa,%eax
  100d6d:	89 45 f4             	mov    %eax,-0xc(%ebp)
  100d70:	8b 45 10             	mov    0x10(%ebp),%eax
  100d73:	8b 55 f4             	mov    -0xc(%ebp),%edx
  100d76:	8b 04 90             	mov    (%eax,%edx,4),%eax
  100d79:	85 c0                	test   %eax,%eax
  100d7b:	74 1c                	je     100d99 <get_page+0x41>
  100d7d:	8b 45 10             	mov    0x10(%ebp),%eax
  100d80:	8b 55 f4             	mov    -0xc(%ebp),%edx
  100d83:	8b 04 90             	mov    (%eax,%edx,4),%eax
  100d86:	8b 55 08             	mov    0x8(%ebp),%edx
  100d89:	81 e2 ff 03 00 00    	and    $0x3ff,%edx
  100d8f:	c1 e2 02             	shl    $0x2,%edx
  100d92:	01 d0                	add    %edx,%eax
  100d94:	e9 c0 00 00 00       	jmp    100e59 <get_page+0x101>
  100d99:	83 7d 0c 00          	cmpl   $0x0,0xc(%ebp)
  100d9d:	0f 84 b1 00 00 00    	je     100e54 <get_page+0xfc>
  100da3:	83 ec 0c             	sub    $0xc,%esp
  100da6:	68 a4 32 10 00       	push   $0x1032a4
  100dab:	e8 2b 11 00 00       	call   101edb <print_string>
  100db0:	83 c4 10             	add    $0x10,%esp
  100db3:	a1 00 40 10 00       	mov    0x104000,%eax
  100db8:	83 ec 0c             	sub    $0xc,%esp
  100dbb:	50                   	push   %eax
  100dbc:	e8 02 13 00 00       	call   1020c3 <print_hex>
  100dc1:	83 c4 10             	add    $0x10,%esp
  100dc4:	83 ec 0c             	sub    $0xc,%esp
  100dc7:	68 0d 31 10 00       	push   $0x10310d
  100dcc:	e8 0a 11 00 00       	call   101edb <print_string>
  100dd1:	83 c4 10             	add    $0x10,%esp
  100dd4:	83 ec 08             	sub    $0x8,%esp
  100dd7:	8d 45 f0             	lea    -0x10(%ebp),%eax
  100dda:	50                   	push   %eax
  100ddb:	68 00 10 00 00       	push   $0x1000
  100de0:	e8 40 f5 ff ff       	call   100325 <kmalloc_ap>
  100de5:	83 c4 10             	add    $0x10,%esp
  100de8:	89 c1                	mov    %eax,%ecx
  100dea:	8b 45 10             	mov    0x10(%ebp),%eax
  100ded:	8b 55 f4             	mov    -0xc(%ebp),%edx
  100df0:	89 0c 90             	mov    %ecx,(%eax,%edx,4)
  100df3:	83 ec 0c             	sub    $0xc,%esp
  100df6:	68 d8 32 10 00       	push   $0x1032d8
  100dfb:	e8 db 10 00 00       	call   101edb <print_string>
  100e00:	83 c4 10             	add    $0x10,%esp
  100e03:	a1 00 40 10 00       	mov    0x104000,%eax
  100e08:	83 ec 0c             	sub    $0xc,%esp
  100e0b:	50                   	push   %eax
  100e0c:	e8 b2 12 00 00       	call   1020c3 <print_hex>
  100e11:	83 c4 10             	add    $0x10,%esp
  100e14:	83 ec 0c             	sub    $0xc,%esp
  100e17:	68 0d 31 10 00       	push   $0x10310d
  100e1c:	e8 ba 10 00 00       	call   101edb <print_string>
  100e21:	83 c4 10             	add    $0x10,%esp
  100e24:	8b 45 f0             	mov    -0x10(%ebp),%eax
  100e27:	83 c8 07             	or     $0x7,%eax
  100e2a:	89 c1                	mov    %eax,%ecx
  100e2c:	8b 45 10             	mov    0x10(%ebp),%eax
  100e2f:	8b 55 f4             	mov    -0xc(%ebp),%edx
  100e32:	81 c2 00 04 00 00    	add    $0x400,%edx
  100e38:	89 0c 90             	mov    %ecx,(%eax,%edx,4)
  100e3b:	8b 45 10             	mov    0x10(%ebp),%eax
  100e3e:	8b 55 f4             	mov    -0xc(%ebp),%edx
  100e41:	8b 04 90             	mov    (%eax,%edx,4),%eax
  100e44:	8b 55 08             	mov    0x8(%ebp),%edx
  100e47:	81 e2 ff 03 00 00    	and    $0x3ff,%edx
  100e4d:	c1 e2 02             	shl    $0x2,%edx
  100e50:	01 d0                	add    %edx,%eax
  100e52:	eb 05                	jmp    100e59 <get_page+0x101>
  100e54:	b8 00 00 00 00       	mov    $0x0,%eax
  100e59:	c9                   	leave  
  100e5a:	c3                   	ret    

00100e5b <page_fault>:
  100e5b:	55                   	push   %ebp
  100e5c:	89 e5                	mov    %esp,%ebp
  100e5e:	83 ec 18             	sub    $0x18,%esp
  100e61:	0f 20 d0             	mov    %cr2,%eax
  100e64:	89 45 f4             	mov    %eax,-0xc(%ebp)
  100e67:	83 ec 0c             	sub    $0xc,%esp
  100e6a:	68 08 33 10 00       	push   $0x103308
  100e6f:	e8 67 10 00 00       	call   101edb <print_string>
  100e74:	83 c4 10             	add    $0x10,%esp
  100e77:	8b 45 f4             	mov    -0xc(%ebp),%eax
  100e7a:	83 ec 0c             	sub    $0xc,%esp
  100e7d:	50                   	push   %eax
  100e7e:	e8 40 12 00 00       	call   1020c3 <print_hex>
  100e83:	83 c4 10             	add    $0x10,%esp
  100e86:	83 ec 0c             	sub    $0xc,%esp
  100e89:	68 0d 31 10 00       	push   $0x10310d
  100e8e:	e8 48 10 00 00       	call   101edb <print_string>
  100e93:	83 c4 10             	add    $0x10,%esp
  100e96:	90                   	nop
  100e97:	c9                   	leave  
  100e98:	c3                   	ret    

00100e99 <main>:
  100e99:	8d 4c 24 04          	lea    0x4(%esp),%ecx
  100e9d:	83 e4 f0             	and    $0xfffffff0,%esp
  100ea0:	ff 71 fc             	pushl  -0x4(%ecx)
  100ea3:	55                   	push   %ebp
  100ea4:	89 e5                	mov    %esp,%ebp
  100ea6:	53                   	push   %ebx
  100ea7:	51                   	push   %ecx
  100ea8:	83 ec 20             	sub    $0x20,%esp
  100eab:	89 cb                	mov    %ecx,%ebx
  100ead:	e8 c0 01 00 00       	call   101072 <init_gdt>
  100eb2:	83 ec 0c             	sub    $0xc,%esp
  100eb5:	68 19 33 10 00       	push   $0x103319
  100eba:	e8 1c 10 00 00       	call   101edb <print_string>
  100ebf:	83 c4 10             	add    $0x10,%esp
  100ec2:	e8 30 06 00 00       	call   1014f7 <init_idt>
  100ec7:	83 ec 0c             	sub    $0xc,%esp
  100eca:	6a 32                	push   $0x32
  100ecc:	e8 62 0d 00 00       	call   101c33 <init_timer>
  100ed1:	83 c4 10             	add    $0x10,%esp
  100ed4:	e8 c5 0b 00 00       	call   101a9e <init_keyboard>
  100ed9:	83 ec 0c             	sub    $0xc,%esp
  100edc:	68 19 33 10 00       	push   $0x103319
  100ee1:	e8 f5 0f 00 00       	call   101edb <print_string>
  100ee6:	83 c4 10             	add    $0x10,%esp
  100ee9:	8b 03                	mov    (%ebx),%eax
  100eeb:	8b 40 18             	mov    0x18(%eax),%eax
  100eee:	89 45 f4             	mov    %eax,-0xc(%ebp)
  100ef1:	83 ec 0c             	sub    $0xc,%esp
  100ef4:	68 2c 33 10 00       	push   $0x10332c
  100ef9:	e8 dd 0f 00 00       	call   101edb <print_string>
  100efe:	83 c4 10             	add    $0x10,%esp
  100f01:	8b 45 f4             	mov    -0xc(%ebp),%eax
  100f04:	83 ec 0c             	sub    $0xc,%esp
  100f07:	50                   	push   %eax
  100f08:	e8 b6 11 00 00       	call   1020c3 <print_hex>
  100f0d:	83 c4 10             	add    $0x10,%esp
  100f10:	83 ec 0c             	sub    $0xc,%esp
  100f13:	68 41 33 10 00       	push   $0x103341
  100f18:	e8 be 0f 00 00       	call   101edb <print_string>
  100f1d:	83 c4 10             	add    $0x10,%esp
  100f20:	8b 03                	mov    (%ebx),%eax
  100f22:	8b 40 14             	mov    0x14(%eax),%eax
  100f25:	83 ec 0c             	sub    $0xc,%esp
  100f28:	50                   	push   %eax
  100f29:	e8 63 10 00 00       	call   101f91 <print_decimal>
  100f2e:	83 c4 10             	add    $0x10,%esp
  100f31:	8b 45 f4             	mov    -0xc(%ebp),%eax
  100f34:	89 45 f0             	mov    %eax,-0x10(%ebp)
  100f37:	e8 29 fb ff ff       	call   100a65 <init_paging>
  100f3c:	83 ec 0c             	sub    $0xc,%esp
  100f3f:	6a 08                	push   $0x8
  100f41:	e8 90 f3 ff ff       	call   1002d6 <kmalloc>
  100f46:	83 c4 10             	add    $0x10,%esp
  100f49:	89 45 ec             	mov    %eax,-0x14(%ebp)
  100f4c:	83 ec 0c             	sub    $0xc,%esp
  100f4f:	68 43 33 10 00       	push   $0x103343
  100f54:	e8 82 0f 00 00       	call   101edb <print_string>
  100f59:	83 c4 10             	add    $0x10,%esp
  100f5c:	8b 45 ec             	mov    -0x14(%ebp),%eax
  100f5f:	83 ec 0c             	sub    $0xc,%esp
  100f62:	50                   	push   %eax
  100f63:	e8 29 10 00 00       	call   101f91 <print_decimal>
  100f68:	83 c4 10             	add    $0x10,%esp
  100f6b:	83 ec 0c             	sub    $0xc,%esp
  100f6e:	68 41 33 10 00       	push   $0x103341
  100f73:	e8 63 0f 00 00       	call   101edb <print_string>
  100f78:	83 c4 10             	add    $0x10,%esp
  100f7b:	83 ec 0c             	sub    $0xc,%esp
  100f7e:	6a 08                	push   $0x8
  100f80:	e8 51 f3 ff ff       	call   1002d6 <kmalloc>
  100f85:	83 c4 10             	add    $0x10,%esp
  100f88:	89 45 e8             	mov    %eax,-0x18(%ebp)
  100f8b:	83 ec 0c             	sub    $0xc,%esp
  100f8e:	68 47 33 10 00       	push   $0x103347
  100f93:	e8 43 0f 00 00       	call   101edb <print_string>
  100f98:	83 c4 10             	add    $0x10,%esp
  100f9b:	8b 45 e8             	mov    -0x18(%ebp),%eax
  100f9e:	83 ec 0c             	sub    $0xc,%esp
  100fa1:	50                   	push   %eax
  100fa2:	e8 ea 0f 00 00       	call   101f91 <print_decimal>
  100fa7:	83 c4 10             	add    $0x10,%esp
  100faa:	83 ec 0c             	sub    $0xc,%esp
  100fad:	68 41 33 10 00       	push   $0x103341
  100fb2:	e8 24 0f 00 00       	call   101edb <print_string>
  100fb7:	83 c4 10             	add    $0x10,%esp
  100fba:	cc                   	int3   
  100fbb:	c7 45 e4 00 00 00 a0 	movl   $0xa0000000,-0x1c(%ebp)
  100fc2:	8b 45 e4             	mov    -0x1c(%ebp),%eax
  100fc5:	8b 00                	mov    (%eax),%eax
  100fc7:	89 45 e0             	mov    %eax,-0x20(%ebp)
  100fca:	eb fe                	jmp    100fca <main+0x131>

00100fcc <gdt_set_gate>:
  100fcc:	55                   	push   %ebp
  100fcd:	89 e5                	mov    %esp,%ebp
  100fcf:	83 ec 0c             	sub    $0xc,%esp
  100fd2:	8b 4d 08             	mov    0x8(%ebp),%ecx
  100fd5:	8b 55 14             	mov    0x14(%ebp),%edx
  100fd8:	8b 45 18             	mov    0x18(%ebp),%eax
  100fdb:	88 4d fc             	mov    %cl,-0x4(%ebp)
  100fde:	88 55 f8             	mov    %dl,-0x8(%ebp)
  100fe1:	88 45 f4             	mov    %al,-0xc(%ebp)
  100fe4:	0f b6 45 fc          	movzbl -0x4(%ebp),%eax
  100fe8:	8b 55 0c             	mov    0xc(%ebp),%edx
  100feb:	66 89 14 c5 42 50 10 	mov    %dx,0x105042(,%eax,8)
  100ff2:	00 
  100ff3:	8b 45 0c             	mov    0xc(%ebp),%eax
  100ff6:	c1 e8 10             	shr    $0x10,%eax
  100ff9:	89 c2                	mov    %eax,%edx
  100ffb:	0f b6 45 fc          	movzbl -0x4(%ebp),%eax
  100fff:	88 14 c5 44 50 10 00 	mov    %dl,0x105044(,%eax,8)
  101006:	8b 45 0c             	mov    0xc(%ebp),%eax
  101009:	c1 e8 18             	shr    $0x18,%eax
  10100c:	89 c2                	mov    %eax,%edx
  10100e:	0f b6 45 fc          	movzbl -0x4(%ebp),%eax
  101012:	88 14 c5 47 50 10 00 	mov    %dl,0x105047(,%eax,8)
  101019:	0f b6 45 fc          	movzbl -0x4(%ebp),%eax
  10101d:	8b 55 10             	mov    0x10(%ebp),%edx
  101020:	66 89 14 c5 40 50 10 	mov    %dx,0x105040(,%eax,8)
  101027:	00 
  101028:	8b 45 10             	mov    0x10(%ebp),%eax
  10102b:	c1 e8 10             	shr    $0x10,%eax
  10102e:	89 c2                	mov    %eax,%edx
  101030:	0f b6 45 fc          	movzbl -0x4(%ebp),%eax
  101034:	83 e2 0f             	and    $0xf,%edx
  101037:	88 14 c5 46 50 10 00 	mov    %dl,0x105046(,%eax,8)
  10103e:	0f b6 45 fc          	movzbl -0x4(%ebp),%eax
  101042:	0f b6 04 c5 46 50 10 	movzbl 0x105046(,%eax,8),%eax
  101049:	00 
  10104a:	89 c2                	mov    %eax,%edx
  10104c:	0f b6 45 f4          	movzbl -0xc(%ebp),%eax
  101050:	83 e0 f0             	and    $0xfffffff0,%eax
  101053:	09 c2                	or     %eax,%edx
  101055:	0f b6 45 fc          	movzbl -0x4(%ebp),%eax
  101059:	88 14 c5 46 50 10 00 	mov    %dl,0x105046(,%eax,8)
  101060:	0f b6 45 fc          	movzbl -0x4(%ebp),%eax
  101064:	0f b6 55 f8          	movzbl -0x8(%ebp),%edx
  101068:	88 14 c5 45 50 10 00 	mov    %dl,0x105045(,%eax,8)
  10106f:	90                   	nop
  101070:	c9                   	leave  
  101071:	c3                   	ret    

00101072 <init_gdt>:
  101072:	55                   	push   %ebp
  101073:	89 e5                	mov    %esp,%ebp
  101075:	83 ec 08             	sub    $0x8,%esp
  101078:	b8 40 50 10 00       	mov    $0x105040,%eax
  10107d:	a3 22 50 10 00       	mov    %eax,0x105022
  101082:	66 c7 05 20 50 10 00 	movw   $0x27,0x105020
  101089:	27 00 
  10108b:	6a 00                	push   $0x0
  10108d:	6a 00                	push   $0x0
  10108f:	6a 00                	push   $0x0
  101091:	6a 00                	push   $0x0
  101093:	6a 00                	push   $0x0
  101095:	e8 32 ff ff ff       	call   100fcc <gdt_set_gate>
  10109a:	83 c4 14             	add    $0x14,%esp
  10109d:	68 cf 00 00 00       	push   $0xcf
  1010a2:	68 9a 00 00 00       	push   $0x9a
  1010a7:	6a ff                	push   $0xffffffff
  1010a9:	6a 00                	push   $0x0
  1010ab:	6a 01                	push   $0x1
  1010ad:	e8 1a ff ff ff       	call   100fcc <gdt_set_gate>
  1010b2:	83 c4 14             	add    $0x14,%esp
  1010b5:	68 cf 00 00 00       	push   $0xcf
  1010ba:	68 92 00 00 00       	push   $0x92
  1010bf:	6a ff                	push   $0xffffffff
  1010c1:	6a 00                	push   $0x0
  1010c3:	6a 02                	push   $0x2
  1010c5:	e8 02 ff ff ff       	call   100fcc <gdt_set_gate>
  1010ca:	83 c4 14             	add    $0x14,%esp
  1010cd:	68 cf 00 00 00       	push   $0xcf
  1010d2:	68 fa 00 00 00       	push   $0xfa
  1010d7:	6a ff                	push   $0xffffffff
  1010d9:	6a 00                	push   $0x0
  1010db:	6a 03                	push   $0x3
  1010dd:	e8 ea fe ff ff       	call   100fcc <gdt_set_gate>
  1010e2:	83 c4 14             	add    $0x14,%esp
  1010e5:	68 cf 00 00 00       	push   $0xcf
  1010ea:	68 f2 00 00 00       	push   $0xf2
  1010ef:	6a ff                	push   $0xffffffff
  1010f1:	6a 00                	push   $0x0
  1010f3:	6a 04                	push   $0x4
  1010f5:	e8 d2 fe ff ff       	call   100fcc <gdt_set_gate>
  1010fa:	83 c4 14             	add    $0x14,%esp
  1010fd:	b8 20 50 10 00       	mov    $0x105020,%eax
  101102:	83 ec 0c             	sub    $0xc,%esp
  101105:	50                   	push   %eax
  101106:	e8 75 11 00 00       	call   102280 <load_gdt>
  10110b:	83 c4 10             	add    $0x10,%esp
  10110e:	90                   	nop
  10110f:	c9                   	leave  
  101110:	c3                   	ret    

00101111 <fb_get_cursor>:
  101111:	55                   	push   %ebp
  101112:	89 e5                	mov    %esp,%ebp
  101114:	83 ec 18             	sub    $0x18,%esp
  101117:	83 ec 08             	sub    $0x8,%esp
  10111a:	6a 0e                	push   $0xe
  10111c:	68 d4 03 00 00       	push   $0x3d4
  101121:	e8 b9 01 00 00       	call   1012df <outb>
  101126:	83 c4 10             	add    $0x10,%esp
  101129:	83 ec 0c             	sub    $0xc,%esp
  10112c:	68 d5 03 00 00       	push   $0x3d5
  101131:	e8 ca 01 00 00       	call   101300 <inb>
  101136:	83 c4 10             	add    $0x10,%esp
  101139:	0f b6 c0             	movzbl %al,%eax
  10113c:	c1 e0 08             	shl    $0x8,%eax
  10113f:	66 89 45 f6          	mov    %ax,-0xa(%ebp)
  101143:	83 ec 08             	sub    $0x8,%esp
  101146:	6a 0f                	push   $0xf
  101148:	68 d4 03 00 00       	push   $0x3d4
  10114d:	e8 8d 01 00 00       	call   1012df <outb>
  101152:	83 c4 10             	add    $0x10,%esp
  101155:	83 ec 0c             	sub    $0xc,%esp
  101158:	68 d5 03 00 00       	push   $0x3d5
  10115d:	e8 9e 01 00 00       	call   101300 <inb>
  101162:	83 c4 10             	add    $0x10,%esp
  101165:	0f b6 c0             	movzbl %al,%eax
  101168:	66 01 45 f6          	add    %ax,-0xa(%ebp)
  10116c:	0f b7 45 f6          	movzwl -0xa(%ebp),%eax
  101170:	c9                   	leave  
  101171:	c3                   	ret    

00101172 <fb_set_cursor>:
  101172:	55                   	push   %ebp
  101173:	89 e5                	mov    %esp,%ebp
  101175:	83 ec 18             	sub    $0x18,%esp
  101178:	8b 45 08             	mov    0x8(%ebp),%eax
  10117b:	66 89 45 f4          	mov    %ax,-0xc(%ebp)
  10117f:	83 ec 08             	sub    $0x8,%esp
  101182:	6a 0e                	push   $0xe
  101184:	68 d4 03 00 00       	push   $0x3d4
  101189:	e8 51 01 00 00       	call   1012df <outb>
  10118e:	83 c4 10             	add    $0x10,%esp
  101191:	0f b7 45 f4          	movzwl -0xc(%ebp),%eax
  101195:	66 c1 e8 08          	shr    $0x8,%ax
  101199:	0f b6 c0             	movzbl %al,%eax
  10119c:	83 ec 08             	sub    $0x8,%esp
  10119f:	50                   	push   %eax
  1011a0:	68 d5 03 00 00       	push   $0x3d5
  1011a5:	e8 35 01 00 00       	call   1012df <outb>
  1011aa:	83 c4 10             	add    $0x10,%esp
  1011ad:	83 ec 08             	sub    $0x8,%esp
  1011b0:	6a 0f                	push   $0xf
  1011b2:	68 d4 03 00 00       	push   $0x3d4
  1011b7:	e8 23 01 00 00       	call   1012df <outb>
  1011bc:	83 c4 10             	add    $0x10,%esp
  1011bf:	0f b7 45 f4          	movzwl -0xc(%ebp),%eax
  1011c3:	0f b6 c0             	movzbl %al,%eax
  1011c6:	83 ec 08             	sub    $0x8,%esp
  1011c9:	50                   	push   %eax
  1011ca:	68 d5 03 00 00       	push   $0x3d5
  1011cf:	e8 0b 01 00 00       	call   1012df <outb>
  1011d4:	83 c4 10             	add    $0x10,%esp
  1011d7:	90                   	nop
  1011d8:	c9                   	leave  
  1011d9:	c3                   	ret    

001011da <fb_write>:
  1011da:	55                   	push   %ebp
  1011db:	89 e5                	mov    %esp,%ebp
  1011dd:	83 ec 18             	sub    $0x18,%esp
  1011e0:	8b 55 08             	mov    0x8(%ebp),%edx
  1011e3:	8b 45 0c             	mov    0xc(%ebp),%eax
  1011e6:	88 55 ec             	mov    %dl,-0x14(%ebp)
  1011e9:	66 89 45 e8          	mov    %ax,-0x18(%ebp)
  1011ed:	c7 45 fc 00 80 0b 00 	movl   $0xb8000,-0x4(%ebp)
  1011f4:	66 0f be 45 ec       	movsbw -0x14(%ebp),%ax
  1011f9:	80 cc 0f             	or     $0xf,%ah
  1011fc:	89 c2                	mov    %eax,%edx
  1011fe:	0f b7 45 e8          	movzwl -0x18(%ebp),%eax
  101202:	8d 0c 00             	lea    (%eax,%eax,1),%ecx
  101205:	8b 45 fc             	mov    -0x4(%ebp),%eax
  101208:	01 c8                	add    %ecx,%eax
  10120a:	66 89 10             	mov    %dx,(%eax)
  10120d:	90                   	nop
  10120e:	c9                   	leave  
  10120f:	c3                   	ret    

00101210 <fb_scroll>:
  101210:	55                   	push   %ebp
  101211:	89 e5                	mov    %esp,%ebp
  101213:	83 ec 28             	sub    $0x28,%esp
  101216:	8b 45 08             	mov    0x8(%ebp),%eax
  101219:	66 89 45 e4          	mov    %ax,-0x1c(%ebp)
  10121d:	c7 45 f0 00 80 0b 00 	movl   $0xb8000,-0x10(%ebp)
  101224:	66 81 7d e4 cf 07    	cmpw   $0x7cf,-0x1c(%ebp)
  10122a:	77 06                	ja     101232 <fb_scroll+0x22>
  10122c:	0f b7 45 e4          	movzwl -0x1c(%ebp),%eax
  101230:	eb 56                	jmp    101288 <fb_scroll+0x78>
  101232:	c7 45 f4 00 00 00 00 	movl   $0x0,-0xc(%ebp)
  101239:	eb 42                	jmp    10127d <fb_scroll+0x6d>
  10123b:	8b 55 f4             	mov    -0xc(%ebp),%edx
  10123e:	89 d0                	mov    %edx,%eax
  101240:	c1 e0 02             	shl    $0x2,%eax
  101243:	01 d0                	add    %edx,%eax
  101245:	c1 e0 05             	shl    $0x5,%eax
  101248:	89 c2                	mov    %eax,%edx
  10124a:	8b 45 f0             	mov    -0x10(%ebp),%eax
  10124d:	8d 0c 02             	lea    (%edx,%eax,1),%ecx
  101250:	8b 45 f4             	mov    -0xc(%ebp),%eax
  101253:	8d 50 01             	lea    0x1(%eax),%edx
  101256:	89 d0                	mov    %edx,%eax
  101258:	c1 e0 02             	shl    $0x2,%eax
  10125b:	01 d0                	add    %edx,%eax
  10125d:	c1 e0 05             	shl    $0x5,%eax
  101260:	89 c2                	mov    %eax,%edx
  101262:	8b 45 f0             	mov    -0x10(%ebp),%eax
  101265:	01 d0                	add    %edx,%eax
  101267:	83 ec 04             	sub    $0x4,%esp
  10126a:	68 a0 00 00 00       	push   $0xa0
  10126f:	51                   	push   %ecx
  101270:	50                   	push   %eax
  101271:	e8 14 00 00 00       	call   10128a <mem_copy>
  101276:	83 c4 10             	add    $0x10,%esp
  101279:	83 45 f4 01          	addl   $0x1,-0xc(%ebp)
  10127d:	83 7d f4 18          	cmpl   $0x18,-0xc(%ebp)
  101281:	7e b8                	jle    10123b <fb_scroll+0x2b>
  101283:	b8 80 07 00 00       	mov    $0x780,%eax
  101288:	c9                   	leave  
  101289:	c3                   	ret    

0010128a <mem_copy>:
  10128a:	55                   	push   %ebp
  10128b:	89 e5                	mov    %esp,%ebp
  10128d:	eb 1b                	jmp    1012aa <mem_copy+0x20>
  10128f:	8b 55 08             	mov    0x8(%ebp),%edx
  101292:	8d 42 01             	lea    0x1(%edx),%eax
  101295:	89 45 08             	mov    %eax,0x8(%ebp)
  101298:	8b 45 0c             	mov    0xc(%ebp),%eax
  10129b:	8d 48 01             	lea    0x1(%eax),%ecx
  10129e:	89 4d 0c             	mov    %ecx,0xc(%ebp)
  1012a1:	0f b6 12             	movzbl (%edx),%edx
  1012a4:	88 10                	mov    %dl,(%eax)
  1012a6:	83 6d 10 01          	subl   $0x1,0x10(%ebp)
  1012aa:	83 7d 10 00          	cmpl   $0x0,0x10(%ebp)
  1012ae:	75 df                	jne    10128f <mem_copy+0x5>
  1012b0:	90                   	nop
  1012b1:	90                   	nop
  1012b2:	5d                   	pop    %ebp
  1012b3:	c3                   	ret    

001012b4 <mem_set>:
  1012b4:	55                   	push   %ebp
  1012b5:	89 e5                	mov    %esp,%ebp
  1012b7:	83 ec 04             	sub    $0x4,%esp
  1012ba:	8b 45 0c             	mov    0xc(%ebp),%eax
  1012bd:	88 45 fc             	mov    %al,-0x4(%ebp)
  1012c0:	eb 13                	jmp    1012d5 <mem_set+0x21>
  1012c2:	8b 45 08             	mov    0x8(%ebp),%eax
  1012c5:	8d 50 01             	lea    0x1(%eax),%edx
  1012c8:	89 55 08             	mov    %edx,0x8(%ebp)
  1012cb:	0f b6 55 fc          	movzbl -0x4(%ebp),%edx
  1012cf:	88 10                	mov    %dl,(%eax)
  1012d1:	83 6d 10 01          	subl   $0x1,0x10(%ebp)
  1012d5:	83 7d 10 00          	cmpl   $0x0,0x10(%ebp)
  1012d9:	75 e7                	jne    1012c2 <mem_set+0xe>
  1012db:	90                   	nop
  1012dc:	90                   	nop
  1012dd:	c9                   	leave  
  1012de:	c3                   	ret    

001012df <outb>:
  1012df:	55                   	push   %ebp
  1012e0:	89 e5                	mov    %esp,%ebp
  1012e2:	83 ec 08             	sub    $0x8,%esp
  1012e5:	8b 45 08             	mov    0x8(%ebp),%eax
  1012e8:	8b 55 0c             	mov    0xc(%ebp),%edx
  1012eb:	66 89 45 fc          	mov    %ax,-0x4(%ebp)
  1012ef:	89 d0                	mov    %edx,%eax
  1012f1:	88 45 f8             	mov    %al,-0x8(%ebp)
  1012f4:	0f b6 45 f8          	movzbl -0x8(%ebp),%eax
  1012f8:	0f b7 55 fc          	movzwl -0x4(%ebp),%edx
  1012fc:	ee                   	out    %al,(%dx)
  1012fd:	90                   	nop
  1012fe:	c9                   	leave  
  1012ff:	c3                   	ret    

00101300 <inb>:
  101300:	55                   	push   %ebp
  101301:	89 e5                	mov    %esp,%ebp
  101303:	83 ec 14             	sub    $0x14,%esp
  101306:	8b 45 08             	mov    0x8(%ebp),%eax
  101309:	66 89 45 ec          	mov    %ax,-0x14(%ebp)
  10130d:	0f b7 45 ec          	movzwl -0x14(%ebp),%eax
  101311:	89 c2                	mov    %eax,%edx
  101313:	ec                   	in     (%dx),%al
  101314:	88 45 ff             	mov    %al,-0x1(%ebp)
  101317:	0f b6 45 ff          	movzbl -0x1(%ebp),%eax
  10131b:	c9                   	leave  
  10131c:	c3                   	ret    

0010131d <cpuid>:
  10131d:	55                   	push   %ebp
  10131e:	89 e5                	mov    %esp,%ebp
  101320:	56                   	push   %esi
  101321:	53                   	push   %ebx
  101322:	8b 45 08             	mov    0x8(%ebp),%eax
  101325:	0f a2                	cpuid  
  101327:	89 c6                	mov    %eax,%esi
  101329:	8b 45 0c             	mov    0xc(%ebp),%eax
  10132c:	89 30                	mov    %esi,(%eax)
  10132e:	8b 45 10             	mov    0x10(%ebp),%eax
  101331:	89 10                	mov    %edx,(%eax)
  101333:	90                   	nop
  101334:	5b                   	pop    %ebx
  101335:	5e                   	pop    %esi
  101336:	5d                   	pop    %ebp
  101337:	c3                   	ret    

00101338 <disable_local_apic>:
  101338:	55                   	push   %ebp
  101339:	89 e5                	mov    %esp,%ebp
  10133b:	83 ec 18             	sub    $0x18,%esp
  10133e:	8d 45 f0             	lea    -0x10(%ebp),%eax
  101341:	50                   	push   %eax
  101342:	8d 45 f4             	lea    -0xc(%ebp),%eax
  101345:	50                   	push   %eax
  101346:	6a 01                	push   $0x1
  101348:	e8 d0 ff ff ff       	call   10131d <cpuid>
  10134d:	83 c4 0c             	add    $0xc,%esp
  101350:	8b 45 f0             	mov    -0x10(%ebp),%eax
  101353:	25 00 02 00 00       	and    $0x200,%eax
  101358:	85 c0                	test   %eax,%eax
  10135a:	74 41                	je     10139d <disable_local_apic+0x65>
  10135c:	83 ec 0c             	sub    $0xc,%esp
  10135f:	68 4c 33 10 00       	push   $0x10334c
  101364:	e8 72 0b 00 00       	call   101edb <print_string>
  101369:	83 c4 10             	add    $0x10,%esp
  10136c:	8b 45 f0             	mov    -0x10(%ebp),%eax
  10136f:	83 e0 20             	and    $0x20,%eax
  101372:	85 c0                	test   %eax,%eax
  101374:	74 17                	je     10138d <disable_local_apic+0x55>
  101376:	e8 35 11 00 00       	call   1024b0 <_disable_lapic>
  10137b:	83 ec 0c             	sub    $0xc,%esp
  10137e:	68 6e 33 10 00       	push   $0x10336e
  101383:	e8 53 0b 00 00       	call   101edb <print_string>
  101388:	83 c4 10             	add    $0x10,%esp
  10138b:	eb 10                	jmp    10139d <disable_local_apic+0x65>
  10138d:	83 ec 0c             	sub    $0xc,%esp
  101390:	68 82 33 10 00       	push   $0x103382
  101395:	e8 41 0b 00 00       	call   101edb <print_string>
  10139a:	83 c4 10             	add    $0x10,%esp
  10139d:	90                   	nop
  10139e:	c9                   	leave  
  10139f:	c3                   	ret    

001013a0 <init_pic>:
  1013a0:	55                   	push   %ebp
  1013a1:	89 e5                	mov    %esp,%ebp
  1013a3:	83 ec 08             	sub    $0x8,%esp
  1013a6:	e8 8d ff ff ff       	call   101338 <disable_local_apic>
  1013ab:	83 ec 08             	sub    $0x8,%esp
  1013ae:	6a 11                	push   $0x11
  1013b0:	6a 20                	push   $0x20
  1013b2:	e8 28 ff ff ff       	call   1012df <outb>
  1013b7:	83 c4 10             	add    $0x10,%esp
  1013ba:	83 ec 08             	sub    $0x8,%esp
  1013bd:	6a 11                	push   $0x11
  1013bf:	68 a0 00 00 00       	push   $0xa0
  1013c4:	e8 16 ff ff ff       	call   1012df <outb>
  1013c9:	83 c4 10             	add    $0x10,%esp
  1013cc:	83 ec 08             	sub    $0x8,%esp
  1013cf:	6a 20                	push   $0x20
  1013d1:	6a 21                	push   $0x21
  1013d3:	e8 07 ff ff ff       	call   1012df <outb>
  1013d8:	83 c4 10             	add    $0x10,%esp
  1013db:	83 ec 08             	sub    $0x8,%esp
  1013de:	6a 28                	push   $0x28
  1013e0:	68 a1 00 00 00       	push   $0xa1
  1013e5:	e8 f5 fe ff ff       	call   1012df <outb>
  1013ea:	83 c4 10             	add    $0x10,%esp
  1013ed:	83 ec 08             	sub    $0x8,%esp
  1013f0:	6a 04                	push   $0x4
  1013f2:	6a 21                	push   $0x21
  1013f4:	e8 e6 fe ff ff       	call   1012df <outb>
  1013f9:	83 c4 10             	add    $0x10,%esp
  1013fc:	83 ec 08             	sub    $0x8,%esp
  1013ff:	6a 02                	push   $0x2
  101401:	68 a1 00 00 00       	push   $0xa1
  101406:	e8 d4 fe ff ff       	call   1012df <outb>
  10140b:	83 c4 10             	add    $0x10,%esp
  10140e:	83 ec 08             	sub    $0x8,%esp
  101411:	6a 01                	push   $0x1
  101413:	6a 21                	push   $0x21
  101415:	e8 c5 fe ff ff       	call   1012df <outb>
  10141a:	83 c4 10             	add    $0x10,%esp
  10141d:	83 ec 08             	sub    $0x8,%esp
  101420:	6a 01                	push   $0x1
  101422:	68 a1 00 00 00       	push   $0xa1
  101427:	e8 b3 fe ff ff       	call   1012df <outb>
  10142c:	83 c4 10             	add    $0x10,%esp
  10142f:	83 ec 08             	sub    $0x8,%esp
  101432:	6a 00                	push   $0x0
  101434:	6a 21                	push   $0x21
  101436:	e8 a4 fe ff ff       	call   1012df <outb>
  10143b:	83 c4 10             	add    $0x10,%esp
  10143e:	83 ec 08             	sub    $0x8,%esp
  101441:	6a 00                	push   $0x0
  101443:	68 a1 00 00 00       	push   $0xa1
  101448:	e8 92 fe ff ff       	call   1012df <outb>
  10144d:	83 c4 10             	add    $0x10,%esp
  101450:	fb                   	sti    
  101451:	90                   	nop
  101452:	c9                   	leave  
  101453:	c3                   	ret    

00101454 <pic_acknowledge>:
  101454:	55                   	push   %ebp
  101455:	89 e5                	mov    %esp,%ebp
  101457:	83 ec 08             	sub    $0x8,%esp
  10145a:	83 7d 08 1f          	cmpl   $0x1f,0x8(%ebp)
  10145e:	76 31                	jbe    101491 <pic_acknowledge+0x3d>
  101460:	83 7d 08 2f          	cmpl   $0x2f,0x8(%ebp)
  101464:	77 2b                	ja     101491 <pic_acknowledge+0x3d>
  101466:	83 7d 08 27          	cmpl   $0x27,0x8(%ebp)
  10146a:	77 11                	ja     10147d <pic_acknowledge+0x29>
  10146c:	83 ec 08             	sub    $0x8,%esp
  10146f:	6a 20                	push   $0x20
  101471:	6a 20                	push   $0x20
  101473:	e8 67 fe ff ff       	call   1012df <outb>
  101478:	83 c4 10             	add    $0x10,%esp
  10147b:	eb 15                	jmp    101492 <pic_acknowledge+0x3e>
  10147d:	83 ec 08             	sub    $0x8,%esp
  101480:	6a 20                	push   $0x20
  101482:	68 a0 00 00 00       	push   $0xa0
  101487:	e8 53 fe ff ff       	call   1012df <outb>
  10148c:	83 c4 10             	add    $0x10,%esp
  10148f:	eb 01                	jmp    101492 <pic_acknowledge+0x3e>
  101491:	90                   	nop
  101492:	c9                   	leave  
  101493:	c3                   	ret    

00101494 <idt_set_gate>:
  101494:	55                   	push   %ebp
  101495:	89 e5                	mov    %esp,%ebp
  101497:	83 ec 08             	sub    $0x8,%esp
  10149a:	8b 45 10             	mov    0x10(%ebp),%eax
  10149d:	8b 55 14             	mov    0x14(%ebp),%edx
  1014a0:	66 89 45 fc          	mov    %ax,-0x4(%ebp)
  1014a4:	89 d0                	mov    %edx,%eax
  1014a6:	88 45 f8             	mov    %al,-0x8(%ebp)
  1014a9:	8b 45 0c             	mov    0xc(%ebp),%eax
  1014ac:	89 c2                	mov    %eax,%edx
  1014ae:	8b 45 08             	mov    0x8(%ebp),%eax
  1014b1:	66 89 14 c5 80 54 10 	mov    %dx,0x105480(,%eax,8)
  1014b8:	00 
  1014b9:	8b 45 0c             	mov    0xc(%ebp),%eax
  1014bc:	c1 e8 10             	shr    $0x10,%eax
  1014bf:	89 c2                	mov    %eax,%edx
  1014c1:	8b 45 08             	mov    0x8(%ebp),%eax
  1014c4:	66 89 14 c5 86 54 10 	mov    %dx,0x105486(,%eax,8)
  1014cb:	00 
  1014cc:	8b 45 08             	mov    0x8(%ebp),%eax
  1014cf:	0f b7 55 fc          	movzwl -0x4(%ebp),%edx
  1014d3:	66 89 14 c5 82 54 10 	mov    %dx,0x105482(,%eax,8)
  1014da:	00 
  1014db:	8b 45 08             	mov    0x8(%ebp),%eax
  1014de:	c6 04 c5 84 54 10 00 	movb   $0x0,0x105484(,%eax,8)
  1014e5:	00 
  1014e6:	8b 45 08             	mov    0x8(%ebp),%eax
  1014e9:	0f b6 55 f8          	movzbl -0x8(%ebp),%edx
  1014ed:	88 14 c5 85 54 10 00 	mov    %dl,0x105485(,%eax,8)
  1014f4:	90                   	nop
  1014f5:	c9                   	leave  
  1014f6:	c3                   	ret    

001014f7 <init_idt>:
  1014f7:	55                   	push   %ebp
  1014f8:	89 e5                	mov    %esp,%ebp
  1014fa:	83 ec 08             	sub    $0x8,%esp
  1014fd:	66 c7 05 80 5c 10 00 	movw   $0x7ff,0x105c80
  101504:	ff 07 
  101506:	b8 80 54 10 00       	mov    $0x105480,%eax
  10150b:	a3 82 5c 10 00       	mov    %eax,0x105c82
  101510:	e8 8b fe ff ff       	call   1013a0 <init_pic>
  101515:	b8 b0 22 10 00       	mov    $0x1022b0,%eax
  10151a:	68 8e 00 00 00       	push   $0x8e
  10151f:	6a 08                	push   $0x8
  101521:	50                   	push   %eax
  101522:	6a 00                	push   $0x0
  101524:	e8 6b ff ff ff       	call   101494 <idt_set_gate>
  101529:	83 c4 10             	add    $0x10,%esp
  10152c:	b8 ba 22 10 00       	mov    $0x1022ba,%eax
  101531:	68 8e 00 00 00       	push   $0x8e
  101536:	6a 08                	push   $0x8
  101538:	50                   	push   %eax
  101539:	6a 01                	push   $0x1
  10153b:	e8 54 ff ff ff       	call   101494 <idt_set_gate>
  101540:	83 c4 10             	add    $0x10,%esp
  101543:	b8 c4 22 10 00       	mov    $0x1022c4,%eax
  101548:	68 8e 00 00 00       	push   $0x8e
  10154d:	6a 08                	push   $0x8
  10154f:	50                   	push   %eax
  101550:	6a 02                	push   $0x2
  101552:	e8 3d ff ff ff       	call   101494 <idt_set_gate>
  101557:	83 c4 10             	add    $0x10,%esp
  10155a:	b8 ce 22 10 00       	mov    $0x1022ce,%eax
  10155f:	68 8e 00 00 00       	push   $0x8e
  101564:	6a 08                	push   $0x8
  101566:	50                   	push   %eax
  101567:	6a 03                	push   $0x3
  101569:	e8 26 ff ff ff       	call   101494 <idt_set_gate>
  10156e:	83 c4 10             	add    $0x10,%esp
  101571:	b8 d8 22 10 00       	mov    $0x1022d8,%eax
  101576:	68 8e 00 00 00       	push   $0x8e
  10157b:	6a 08                	push   $0x8
  10157d:	50                   	push   %eax
  10157e:	6a 04                	push   $0x4
  101580:	e8 0f ff ff ff       	call   101494 <idt_set_gate>
  101585:	83 c4 10             	add    $0x10,%esp
  101588:	b8 e2 22 10 00       	mov    $0x1022e2,%eax
  10158d:	68 8e 00 00 00       	push   $0x8e
  101592:	6a 08                	push   $0x8
  101594:	50                   	push   %eax
  101595:	6a 05                	push   $0x5
  101597:	e8 f8 fe ff ff       	call   101494 <idt_set_gate>
  10159c:	83 c4 10             	add    $0x10,%esp
  10159f:	b8 ec 22 10 00       	mov    $0x1022ec,%eax
  1015a4:	68 8e 00 00 00       	push   $0x8e
  1015a9:	6a 08                	push   $0x8
  1015ab:	50                   	push   %eax
  1015ac:	6a 06                	push   $0x6
  1015ae:	e8 e1 fe ff ff       	call   101494 <idt_set_gate>
  1015b3:	83 c4 10             	add    $0x10,%esp
  1015b6:	b8 f6 22 10 00       	mov    $0x1022f6,%eax
  1015bb:	68 8e 00 00 00       	push   $0x8e
  1015c0:	6a 08                	push   $0x8
  1015c2:	50                   	push   %eax
  1015c3:	6a 07                	push   $0x7
  1015c5:	e8 ca fe ff ff       	call   101494 <idt_set_gate>
  1015ca:	83 c4 10             	add    $0x10,%esp
  1015cd:	b8 00 23 10 00       	mov    $0x102300,%eax
  1015d2:	68 8e 00 00 00       	push   $0x8e
  1015d7:	6a 08                	push   $0x8
  1015d9:	50                   	push   %eax
  1015da:	6a 08                	push   $0x8
  1015dc:	e8 b3 fe ff ff       	call   101494 <idt_set_gate>
  1015e1:	83 c4 10             	add    $0x10,%esp
  1015e4:	b8 08 23 10 00       	mov    $0x102308,%eax
  1015e9:	68 8e 00 00 00       	push   $0x8e
  1015ee:	6a 08                	push   $0x8
  1015f0:	50                   	push   %eax
  1015f1:	6a 09                	push   $0x9
  1015f3:	e8 9c fe ff ff       	call   101494 <idt_set_gate>
  1015f8:	83 c4 10             	add    $0x10,%esp
  1015fb:	b8 12 23 10 00       	mov    $0x102312,%eax
  101600:	68 8e 00 00 00       	push   $0x8e
  101605:	6a 08                	push   $0x8
  101607:	50                   	push   %eax
  101608:	6a 0a                	push   $0xa
  10160a:	e8 85 fe ff ff       	call   101494 <idt_set_gate>
  10160f:	83 c4 10             	add    $0x10,%esp
  101612:	b8 1a 23 10 00       	mov    $0x10231a,%eax
  101617:	68 8e 00 00 00       	push   $0x8e
  10161c:	6a 08                	push   $0x8
  10161e:	50                   	push   %eax
  10161f:	6a 0b                	push   $0xb
  101621:	e8 6e fe ff ff       	call   101494 <idt_set_gate>
  101626:	83 c4 10             	add    $0x10,%esp
  101629:	b8 22 23 10 00       	mov    $0x102322,%eax
  10162e:	68 8e 00 00 00       	push   $0x8e
  101633:	6a 08                	push   $0x8
  101635:	50                   	push   %eax
  101636:	6a 0c                	push   $0xc
  101638:	e8 57 fe ff ff       	call   101494 <idt_set_gate>
  10163d:	83 c4 10             	add    $0x10,%esp
  101640:	b8 2a 23 10 00       	mov    $0x10232a,%eax
  101645:	68 8e 00 00 00       	push   $0x8e
  10164a:	6a 08                	push   $0x8
  10164c:	50                   	push   %eax
  10164d:	6a 0d                	push   $0xd
  10164f:	e8 40 fe ff ff       	call   101494 <idt_set_gate>
  101654:	83 c4 10             	add    $0x10,%esp
  101657:	b8 32 23 10 00       	mov    $0x102332,%eax
  10165c:	68 8e 00 00 00       	push   $0x8e
  101661:	6a 08                	push   $0x8
  101663:	50                   	push   %eax
  101664:	6a 0e                	push   $0xe
  101666:	e8 29 fe ff ff       	call   101494 <idt_set_gate>
  10166b:	83 c4 10             	add    $0x10,%esp
  10166e:	b8 3a 23 10 00       	mov    $0x10233a,%eax
  101673:	68 8e 00 00 00       	push   $0x8e
  101678:	6a 08                	push   $0x8
  10167a:	50                   	push   %eax
  10167b:	6a 0f                	push   $0xf
  10167d:	e8 12 fe ff ff       	call   101494 <idt_set_gate>
  101682:	83 c4 10             	add    $0x10,%esp
  101685:	b8 44 23 10 00       	mov    $0x102344,%eax
  10168a:	68 8e 00 00 00       	push   $0x8e
  10168f:	6a 08                	push   $0x8
  101691:	50                   	push   %eax
  101692:	6a 10                	push   $0x10
  101694:	e8 fb fd ff ff       	call   101494 <idt_set_gate>
  101699:	83 c4 10             	add    $0x10,%esp
  10169c:	b8 4e 23 10 00       	mov    $0x10234e,%eax
  1016a1:	68 8e 00 00 00       	push   $0x8e
  1016a6:	6a 08                	push   $0x8
  1016a8:	50                   	push   %eax
  1016a9:	6a 11                	push   $0x11
  1016ab:	e8 e4 fd ff ff       	call   101494 <idt_set_gate>
  1016b0:	83 c4 10             	add    $0x10,%esp
  1016b3:	b8 58 23 10 00       	mov    $0x102358,%eax
  1016b8:	68 8e 00 00 00       	push   $0x8e
  1016bd:	6a 08                	push   $0x8
  1016bf:	50                   	push   %eax
  1016c0:	6a 12                	push   $0x12
  1016c2:	e8 cd fd ff ff       	call   101494 <idt_set_gate>
  1016c7:	83 c4 10             	add    $0x10,%esp
  1016ca:	b8 62 23 10 00       	mov    $0x102362,%eax
  1016cf:	68 8e 00 00 00       	push   $0x8e
  1016d4:	6a 08                	push   $0x8
  1016d6:	50                   	push   %eax
  1016d7:	6a 13                	push   $0x13
  1016d9:	e8 b6 fd ff ff       	call   101494 <idt_set_gate>
  1016de:	83 c4 10             	add    $0x10,%esp
  1016e1:	b8 6c 23 10 00       	mov    $0x10236c,%eax
  1016e6:	68 8e 00 00 00       	push   $0x8e
  1016eb:	6a 08                	push   $0x8
  1016ed:	50                   	push   %eax
  1016ee:	6a 14                	push   $0x14
  1016f0:	e8 9f fd ff ff       	call   101494 <idt_set_gate>
  1016f5:	83 c4 10             	add    $0x10,%esp
  1016f8:	b8 76 23 10 00       	mov    $0x102376,%eax
  1016fd:	68 8e 00 00 00       	push   $0x8e
  101702:	6a 08                	push   $0x8
  101704:	50                   	push   %eax
  101705:	6a 15                	push   $0x15
  101707:	e8 88 fd ff ff       	call   101494 <idt_set_gate>
  10170c:	83 c4 10             	add    $0x10,%esp
  10170f:	b8 80 23 10 00       	mov    $0x102380,%eax
  101714:	68 8e 00 00 00       	push   $0x8e
  101719:	6a 08                	push   $0x8
  10171b:	50                   	push   %eax
  10171c:	6a 16                	push   $0x16
  10171e:	e8 71 fd ff ff       	call   101494 <idt_set_gate>
  101723:	83 c4 10             	add    $0x10,%esp
  101726:	b8 8a 23 10 00       	mov    $0x10238a,%eax
  10172b:	68 8e 00 00 00       	push   $0x8e
  101730:	6a 08                	push   $0x8
  101732:	50                   	push   %eax
  101733:	6a 17                	push   $0x17
  101735:	e8 5a fd ff ff       	call   101494 <idt_set_gate>
  10173a:	83 c4 10             	add    $0x10,%esp
  10173d:	b8 94 23 10 00       	mov    $0x102394,%eax
  101742:	68 8e 00 00 00       	push   $0x8e
  101747:	6a 08                	push   $0x8
  101749:	50                   	push   %eax
  10174a:	6a 18                	push   $0x18
  10174c:	e8 43 fd ff ff       	call   101494 <idt_set_gate>
  101751:	83 c4 10             	add    $0x10,%esp
  101754:	b8 9e 23 10 00       	mov    $0x10239e,%eax
  101759:	68 8e 00 00 00       	push   $0x8e
  10175e:	6a 08                	push   $0x8
  101760:	50                   	push   %eax
  101761:	6a 19                	push   $0x19
  101763:	e8 2c fd ff ff       	call   101494 <idt_set_gate>
  101768:	83 c4 10             	add    $0x10,%esp
  10176b:	b8 a8 23 10 00       	mov    $0x1023a8,%eax
  101770:	68 8e 00 00 00       	push   $0x8e
  101775:	6a 08                	push   $0x8
  101777:	50                   	push   %eax
  101778:	6a 1a                	push   $0x1a
  10177a:	e8 15 fd ff ff       	call   101494 <idt_set_gate>
  10177f:	83 c4 10             	add    $0x10,%esp
  101782:	b8 b2 23 10 00       	mov    $0x1023b2,%eax
  101787:	68 8e 00 00 00       	push   $0x8e
  10178c:	6a 08                	push   $0x8
  10178e:	50                   	push   %eax
  10178f:	6a 1b                	push   $0x1b
  101791:	e8 fe fc ff ff       	call   101494 <idt_set_gate>
  101796:	83 c4 10             	add    $0x10,%esp
  101799:	b8 bc 23 10 00       	mov    $0x1023bc,%eax
  10179e:	68 8e 00 00 00       	push   $0x8e
  1017a3:	6a 08                	push   $0x8
  1017a5:	50                   	push   %eax
  1017a6:	6a 1c                	push   $0x1c
  1017a8:	e8 e7 fc ff ff       	call   101494 <idt_set_gate>
  1017ad:	83 c4 10             	add    $0x10,%esp
  1017b0:	b8 c6 23 10 00       	mov    $0x1023c6,%eax
  1017b5:	68 8e 00 00 00       	push   $0x8e
  1017ba:	6a 08                	push   $0x8
  1017bc:	50                   	push   %eax
  1017bd:	6a 1d                	push   $0x1d
  1017bf:	e8 d0 fc ff ff       	call   101494 <idt_set_gate>
  1017c4:	83 c4 10             	add    $0x10,%esp
  1017c7:	b8 d0 23 10 00       	mov    $0x1023d0,%eax
  1017cc:	68 8e 00 00 00       	push   $0x8e
  1017d1:	6a 08                	push   $0x8
  1017d3:	50                   	push   %eax
  1017d4:	6a 1e                	push   $0x1e
  1017d6:	e8 b9 fc ff ff       	call   101494 <idt_set_gate>
  1017db:	83 c4 10             	add    $0x10,%esp
  1017de:	b8 da 23 10 00       	mov    $0x1023da,%eax
  1017e3:	68 8e 00 00 00       	push   $0x8e
  1017e8:	6a 08                	push   $0x8
  1017ea:	50                   	push   %eax
  1017eb:	6a 1f                	push   $0x1f
  1017ed:	e8 a2 fc ff ff       	call   101494 <idt_set_gate>
  1017f2:	83 c4 10             	add    $0x10,%esp
  1017f5:	b8 e1 23 10 00       	mov    $0x1023e1,%eax
  1017fa:	68 8e 00 00 00       	push   $0x8e
  1017ff:	6a 08                	push   $0x8
  101801:	50                   	push   %eax
  101802:	6a 20                	push   $0x20
  101804:	e8 8b fc ff ff       	call   101494 <idt_set_gate>
  101809:	83 c4 10             	add    $0x10,%esp
  10180c:	b8 eb 23 10 00       	mov    $0x1023eb,%eax
  101811:	68 8e 00 00 00       	push   $0x8e
  101816:	6a 08                	push   $0x8
  101818:	50                   	push   %eax
  101819:	6a 21                	push   $0x21
  10181b:	e8 74 fc ff ff       	call   101494 <idt_set_gate>
  101820:	83 c4 10             	add    $0x10,%esp
  101823:	b8 f5 23 10 00       	mov    $0x1023f5,%eax
  101828:	68 8e 00 00 00       	push   $0x8e
  10182d:	6a 08                	push   $0x8
  10182f:	50                   	push   %eax
  101830:	6a 22                	push   $0x22
  101832:	e8 5d fc ff ff       	call   101494 <idt_set_gate>
  101837:	83 c4 10             	add    $0x10,%esp
  10183a:	b8 ff 23 10 00       	mov    $0x1023ff,%eax
  10183f:	68 8e 00 00 00       	push   $0x8e
  101844:	6a 08                	push   $0x8
  101846:	50                   	push   %eax
  101847:	6a 23                	push   $0x23
  101849:	e8 46 fc ff ff       	call   101494 <idt_set_gate>
  10184e:	83 c4 10             	add    $0x10,%esp
  101851:	b8 06 24 10 00       	mov    $0x102406,%eax
  101856:	68 8e 00 00 00       	push   $0x8e
  10185b:	6a 08                	push   $0x8
  10185d:	50                   	push   %eax
  10185e:	6a 24                	push   $0x24
  101860:	e8 2f fc ff ff       	call   101494 <idt_set_gate>
  101865:	83 c4 10             	add    $0x10,%esp
  101868:	b8 0d 24 10 00       	mov    $0x10240d,%eax
  10186d:	68 8e 00 00 00       	push   $0x8e
  101872:	6a 08                	push   $0x8
  101874:	50                   	push   %eax
  101875:	6a 25                	push   $0x25
  101877:	e8 18 fc ff ff       	call   101494 <idt_set_gate>
  10187c:	83 c4 10             	add    $0x10,%esp
  10187f:	b8 14 24 10 00       	mov    $0x102414,%eax
  101884:	68 8e 00 00 00       	push   $0x8e
  101889:	6a 08                	push   $0x8
  10188b:	50                   	push   %eax
  10188c:	6a 26                	push   $0x26
  10188e:	e8 01 fc ff ff       	call   101494 <idt_set_gate>
  101893:	83 c4 10             	add    $0x10,%esp
  101896:	b8 1b 24 10 00       	mov    $0x10241b,%eax
  10189b:	68 8e 00 00 00       	push   $0x8e
  1018a0:	6a 08                	push   $0x8
  1018a2:	50                   	push   %eax
  1018a3:	6a 27                	push   $0x27
  1018a5:	e8 ea fb ff ff       	call   101494 <idt_set_gate>
  1018aa:	83 c4 10             	add    $0x10,%esp
  1018ad:	b8 22 24 10 00       	mov    $0x102422,%eax
  1018b2:	68 8e 00 00 00       	push   $0x8e
  1018b7:	6a 08                	push   $0x8
  1018b9:	50                   	push   %eax
  1018ba:	6a 28                	push   $0x28
  1018bc:	e8 d3 fb ff ff       	call   101494 <idt_set_gate>
  1018c1:	83 c4 10             	add    $0x10,%esp
  1018c4:	b8 29 24 10 00       	mov    $0x102429,%eax
  1018c9:	68 8e 00 00 00       	push   $0x8e
  1018ce:	6a 08                	push   $0x8
  1018d0:	50                   	push   %eax
  1018d1:	6a 29                	push   $0x29
  1018d3:	e8 bc fb ff ff       	call   101494 <idt_set_gate>
  1018d8:	83 c4 10             	add    $0x10,%esp
  1018db:	b8 37 24 10 00       	mov    $0x102437,%eax
  1018e0:	68 8e 00 00 00       	push   $0x8e
  1018e5:	6a 08                	push   $0x8
  1018e7:	50                   	push   %eax
  1018e8:	6a 2b                	push   $0x2b
  1018ea:	e8 a5 fb ff ff       	call   101494 <idt_set_gate>
  1018ef:	83 c4 10             	add    $0x10,%esp
  1018f2:	b8 3e 24 10 00       	mov    $0x10243e,%eax
  1018f7:	68 8e 00 00 00       	push   $0x8e
  1018fc:	6a 08                	push   $0x8
  1018fe:	50                   	push   %eax
  1018ff:	6a 2c                	push   $0x2c
  101901:	e8 8e fb ff ff       	call   101494 <idt_set_gate>
  101906:	83 c4 10             	add    $0x10,%esp
  101909:	b8 45 24 10 00       	mov    $0x102445,%eax
  10190e:	68 8e 00 00 00       	push   $0x8e
  101913:	6a 08                	push   $0x8
  101915:	50                   	push   %eax
  101916:	6a 2d                	push   $0x2d
  101918:	e8 77 fb ff ff       	call   101494 <idt_set_gate>
  10191d:	83 c4 10             	add    $0x10,%esp
  101920:	b8 4c 24 10 00       	mov    $0x10244c,%eax
  101925:	68 8e 00 00 00       	push   $0x8e
  10192a:	6a 08                	push   $0x8
  10192c:	50                   	push   %eax
  10192d:	6a 2e                	push   $0x2e
  10192f:	e8 60 fb ff ff       	call   101494 <idt_set_gate>
  101934:	83 c4 10             	add    $0x10,%esp
  101937:	b8 53 24 10 00       	mov    $0x102453,%eax
  10193c:	68 8e 00 00 00       	push   $0x8e
  101941:	6a 08                	push   $0x8
  101943:	50                   	push   %eax
  101944:	6a 2f                	push   $0x2f
  101946:	e8 49 fb ff ff       	call   101494 <idt_set_gate>
  10194b:	83 c4 10             	add    $0x10,%esp
  10194e:	b8 80 5c 10 00       	mov    $0x105c80,%eax
  101953:	83 ec 0c             	sub    $0xc,%esp
  101956:	50                   	push   %eax
  101957:	e8 44 09 00 00       	call   1022a0 <load_idt>
  10195c:	83 c4 10             	add    $0x10,%esp
  10195f:	90                   	nop
  101960:	c9                   	leave  
  101961:	c3                   	ret    

00101962 <isr_handler>:
  101962:	55                   	push   %ebp
  101963:	89 e5                	mov    %esp,%ebp
  101965:	83 ec 18             	sub    $0x18,%esp
  101968:	8b 45 2c             	mov    0x2c(%ebp),%eax
  10196b:	8b 04 85 80 50 10 00 	mov    0x105080(,%eax,4),%eax
  101972:	85 c0                	test   %eax,%eax
  101974:	74 47                	je     1019bd <isr_handler+0x5b>
  101976:	8b 45 2c             	mov    0x2c(%ebp),%eax
  101979:	8b 04 85 80 50 10 00 	mov    0x105080(,%eax,4),%eax
  101980:	89 45 f4             	mov    %eax,-0xc(%ebp)
  101983:	ff 75 44             	pushl  0x44(%ebp)
  101986:	ff 75 40             	pushl  0x40(%ebp)
  101989:	ff 75 3c             	pushl  0x3c(%ebp)
  10198c:	ff 75 38             	pushl  0x38(%ebp)
  10198f:	ff 75 34             	pushl  0x34(%ebp)
  101992:	ff 75 30             	pushl  0x30(%ebp)
  101995:	ff 75 2c             	pushl  0x2c(%ebp)
  101998:	ff 75 28             	pushl  0x28(%ebp)
  10199b:	ff 75 24             	pushl  0x24(%ebp)
  10199e:	ff 75 20             	pushl  0x20(%ebp)
  1019a1:	ff 75 1c             	pushl  0x1c(%ebp)
  1019a4:	ff 75 18             	pushl  0x18(%ebp)
  1019a7:	ff 75 14             	pushl  0x14(%ebp)
  1019aa:	ff 75 10             	pushl  0x10(%ebp)
  1019ad:	ff 75 0c             	pushl  0xc(%ebp)
  1019b0:	ff 75 08             	pushl  0x8(%ebp)
  1019b3:	8b 45 f4             	mov    -0xc(%ebp),%eax
  1019b6:	ff d0                	call   *%eax
  1019b8:	83 c4 40             	add    $0x40,%esp
  1019bb:	eb 2f                	jmp    1019ec <isr_handler+0x8a>
  1019bd:	83 ec 0c             	sub    $0xc,%esp
  1019c0:	68 94 33 10 00       	push   $0x103394
  1019c5:	e8 11 05 00 00       	call   101edb <print_string>
  1019ca:	83 c4 10             	add    $0x10,%esp
  1019cd:	8b 45 2c             	mov    0x2c(%ebp),%eax
  1019d0:	83 ec 0c             	sub    $0xc,%esp
  1019d3:	50                   	push   %eax
  1019d4:	e8 b8 05 00 00       	call   101f91 <print_decimal>
  1019d9:	83 c4 10             	add    $0x10,%esp
  1019dc:	83 ec 0c             	sub    $0xc,%esp
  1019df:	68 9b 33 10 00       	push   $0x10339b
  1019e4:	e8 f2 04 00 00       	call   101edb <print_string>
  1019e9:	83 c4 10             	add    $0x10,%esp
  1019ec:	90                   	nop
  1019ed:	c9                   	leave  
  1019ee:	c3                   	ret    

001019ef <irq_handler>:
  1019ef:	55                   	push   %ebp
  1019f0:	89 e5                	mov    %esp,%ebp
  1019f2:	83 ec 18             	sub    $0x18,%esp
  1019f5:	8b 45 2c             	mov    0x2c(%ebp),%eax
  1019f8:	83 ec 0c             	sub    $0xc,%esp
  1019fb:	50                   	push   %eax
  1019fc:	e8 53 fa ff ff       	call   101454 <pic_acknowledge>
  101a01:	83 c4 10             	add    $0x10,%esp
  101a04:	8b 45 2c             	mov    0x2c(%ebp),%eax
  101a07:	8b 04 85 80 50 10 00 	mov    0x105080(,%eax,4),%eax
  101a0e:	85 c0                	test   %eax,%eax
  101a10:	74 47                	je     101a59 <irq_handler+0x6a>
  101a12:	8b 45 2c             	mov    0x2c(%ebp),%eax
  101a15:	8b 04 85 80 50 10 00 	mov    0x105080(,%eax,4),%eax
  101a1c:	89 45 f4             	mov    %eax,-0xc(%ebp)
  101a1f:	ff 75 44             	pushl  0x44(%ebp)
  101a22:	ff 75 40             	pushl  0x40(%ebp)
  101a25:	ff 75 3c             	pushl  0x3c(%ebp)
  101a28:	ff 75 38             	pushl  0x38(%ebp)
  101a2b:	ff 75 34             	pushl  0x34(%ebp)
  101a2e:	ff 75 30             	pushl  0x30(%ebp)
  101a31:	ff 75 2c             	pushl  0x2c(%ebp)
  101a34:	ff 75 28             	pushl  0x28(%ebp)
  101a37:	ff 75 24             	pushl  0x24(%ebp)
  101a3a:	ff 75 20             	pushl  0x20(%ebp)
  101a3d:	ff 75 1c             	pushl  0x1c(%ebp)
  101a40:	ff 75 18             	pushl  0x18(%ebp)
  101a43:	ff 75 14             	pushl  0x14(%ebp)
  101a46:	ff 75 10             	pushl  0x10(%ebp)
  101a49:	ff 75 0c             	pushl  0xc(%ebp)
  101a4c:	ff 75 08             	pushl  0x8(%ebp)
  101a4f:	8b 45 f4             	mov    -0xc(%ebp),%eax
  101a52:	ff d0                	call   *%eax
  101a54:	83 c4 40             	add    $0x40,%esp
  101a57:	eb 2f                	jmp    101a88 <irq_handler+0x99>
  101a59:	83 ec 0c             	sub    $0xc,%esp
  101a5c:	68 ac 33 10 00       	push   $0x1033ac
  101a61:	e8 75 04 00 00       	call   101edb <print_string>
  101a66:	83 c4 10             	add    $0x10,%esp
  101a69:	8b 45 2c             	mov    0x2c(%ebp),%eax
  101a6c:	83 ec 0c             	sub    $0xc,%esp
  101a6f:	50                   	push   %eax
  101a70:	e8 1c 05 00 00       	call   101f91 <print_decimal>
  101a75:	83 c4 10             	add    $0x10,%esp
  101a78:	83 ec 0c             	sub    $0xc,%esp
  101a7b:	68 9b 33 10 00       	push   $0x10339b
  101a80:	e8 56 04 00 00       	call   101edb <print_string>
  101a85:	83 c4 10             	add    $0x10,%esp
  101a88:	90                   	nop
  101a89:	c9                   	leave  
  101a8a:	c3                   	ret    

00101a8b <register_interrupt_handler>:
  101a8b:	55                   	push   %ebp
  101a8c:	89 e5                	mov    %esp,%ebp
  101a8e:	8b 45 08             	mov    0x8(%ebp),%eax
  101a91:	8b 55 0c             	mov    0xc(%ebp),%edx
  101a94:	89 14 85 80 50 10 00 	mov    %edx,0x105080(,%eax,4)
  101a9b:	90                   	nop
  101a9c:	5d                   	pop    %ebp
  101a9d:	c3                   	ret    

00101a9e <init_keyboard>:
  101a9e:	55                   	push   %ebp
  101a9f:	89 e5                	mov    %esp,%ebp
  101aa1:	83 ec 08             	sub    $0x8,%esp
  101aa4:	83 ec 08             	sub    $0x8,%esp
  101aa7:	68 b9 1a 10 00       	push   $0x101ab9
  101aac:	6a 21                	push   $0x21
  101aae:	e8 d8 ff ff ff       	call   101a8b <register_interrupt_handler>
  101ab3:	83 c4 10             	add    $0x10,%esp
  101ab6:	90                   	nop
  101ab7:	c9                   	leave  
  101ab8:	c3                   	ret    

00101ab9 <kb_callback>:
  101ab9:	55                   	push   %ebp
  101aba:	89 e5                	mov    %esp,%ebp
  101abc:	83 ec 18             	sub    $0x18,%esp
  101abf:	83 ec 0c             	sub    $0xc,%esp
  101ac2:	68 b9 33 10 00       	push   $0x1033b9
  101ac7:	e8 0f 04 00 00       	call   101edb <print_string>
  101acc:	83 c4 10             	add    $0x10,%esp
  101acf:	8b 45 2c             	mov    0x2c(%ebp),%eax
  101ad2:	83 ec 0c             	sub    $0xc,%esp
  101ad5:	50                   	push   %eax
  101ad6:	e8 b6 04 00 00       	call   101f91 <print_decimal>
  101adb:	83 c4 10             	add    $0x10,%esp
  101ade:	83 ec 0c             	sub    $0xc,%esp
  101ae1:	68 c6 33 10 00       	push   $0x1033c6
  101ae6:	e8 f0 03 00 00       	call   101edb <print_string>
  101aeb:	83 c4 10             	add    $0x10,%esp
  101aee:	e8 6a 00 00 00       	call   101b5d <kb_ctrl_read_status>
  101af3:	0f b6 c0             	movzbl %al,%eax
  101af6:	83 e0 01             	and    $0x1,%eax
  101af9:	85 c0                	test   %eax,%eax
  101afb:	74 57                	je     101b54 <kb_callback+0x9b>
  101afd:	e8 96 00 00 00       	call   101b98 <kb_enc_read_buf>
  101b02:	0f b6 c0             	movzbl %al,%eax
  101b05:	89 45 f4             	mov    %eax,-0xc(%ebp)
  101b08:	83 ec 0c             	sub    $0xc,%esp
  101b0b:	68 c8 33 10 00       	push   $0x1033c8
  101b10:	e8 c6 03 00 00       	call   101edb <print_string>
  101b15:	83 c4 10             	add    $0x10,%esp
  101b18:	83 ec 0c             	sub    $0xc,%esp
  101b1b:	ff 75 f4             	pushl  -0xc(%ebp)
  101b1e:	e8 a0 05 00 00       	call   1020c3 <print_hex>
  101b23:	83 c4 10             	add    $0x10,%esp
  101b26:	83 ec 0c             	sub    $0xc,%esp
  101b29:	68 d7 33 10 00       	push   $0x1033d7
  101b2e:	e8 a8 03 00 00       	call   101edb <print_string>
  101b33:	83 c4 10             	add    $0x10,%esp
  101b36:	83 ec 0c             	sub    $0xc,%esp
  101b39:	ff 75 f4             	pushl  -0xc(%ebp)
  101b3c:	e8 50 04 00 00       	call   101f91 <print_decimal>
  101b41:	83 c4 10             	add    $0x10,%esp
  101b44:	83 ec 0c             	sub    $0xc,%esp
  101b47:	68 c6 33 10 00       	push   $0x1033c6
  101b4c:	e8 8a 03 00 00       	call   101edb <print_string>
  101b51:	83 c4 10             	add    $0x10,%esp
  101b54:	90                   	nop
  101b55:	c9                   	leave  
  101b56:	c3                   	ret    

00101b57 <kb_enable>:
  101b57:	55                   	push   %ebp
  101b58:	89 e5                	mov    %esp,%ebp
  101b5a:	90                   	nop
  101b5b:	5d                   	pop    %ebp
  101b5c:	c3                   	ret    

00101b5d <kb_ctrl_read_status>:
  101b5d:	55                   	push   %ebp
  101b5e:	89 e5                	mov    %esp,%ebp
  101b60:	83 ec 08             	sub    $0x8,%esp
  101b63:	83 ec 0c             	sub    $0xc,%esp
  101b66:	6a 64                	push   $0x64
  101b68:	e8 93 f7 ff ff       	call   101300 <inb>
  101b6d:	83 c4 10             	add    $0x10,%esp
  101b70:	c9                   	leave  
  101b71:	c3                   	ret    

00101b72 <kb_ctrl_send_cmd>:
  101b72:	55                   	push   %ebp
  101b73:	89 e5                	mov    %esp,%ebp
  101b75:	83 ec 18             	sub    $0x18,%esp
  101b78:	8b 45 08             	mov    0x8(%ebp),%eax
  101b7b:	88 45 f4             	mov    %al,-0xc(%ebp)
  101b7e:	e8 da ff ff ff       	call   101b5d <kb_ctrl_read_status>
  101b83:	eb f9                	jmp    101b7e <kb_ctrl_send_cmd+0xc>

00101b85 <kb_enc_send_cmd>:
  101b85:	55                   	push   %ebp
  101b86:	89 e5                	mov    %esp,%ebp
  101b88:	83 ec 18             	sub    $0x18,%esp
  101b8b:	8b 45 08             	mov    0x8(%ebp),%eax
  101b8e:	88 45 f4             	mov    %al,-0xc(%ebp)
  101b91:	e8 c7 ff ff ff       	call   101b5d <kb_ctrl_read_status>
  101b96:	eb f9                	jmp    101b91 <kb_enc_send_cmd+0xc>

00101b98 <kb_enc_read_buf>:
  101b98:	55                   	push   %ebp
  101b99:	89 e5                	mov    %esp,%ebp
  101b9b:	83 ec 08             	sub    $0x8,%esp
  101b9e:	83 ec 0c             	sub    $0xc,%esp
  101ba1:	6a 60                	push   $0x60
  101ba3:	e8 58 f7 ff ff       	call   101300 <inb>
  101ba8:	83 c4 10             	add    $0x10,%esp
  101bab:	c9                   	leave  
  101bac:	c3                   	ret    

00101bad <kb_set_cap_led>:
  101bad:	55                   	push   %ebp
  101bae:	89 e5                	mov    %esp,%ebp
  101bb0:	83 ec 18             	sub    $0x18,%esp
  101bb3:	8b 45 08             	mov    0x8(%ebp),%eax
  101bb6:	88 45 f4             	mov    %al,-0xc(%ebp)
  101bb9:	83 ec 0c             	sub    $0xc,%esp
  101bbc:	68 ed 00 00 00       	push   $0xed
  101bc1:	e8 bf ff ff ff       	call   101b85 <kb_enc_send_cmd>
  101bc6:	83 c4 10             	add    $0x10,%esp
  101bc9:	0f b6 45 f4          	movzbl -0xc(%ebp),%eax
  101bcd:	c1 e0 02             	shl    $0x2,%eax
  101bd0:	0f b6 c0             	movzbl %al,%eax
  101bd3:	83 ec 0c             	sub    $0xc,%esp
  101bd6:	50                   	push   %eax
  101bd7:	e8 a9 ff ff ff       	call   101b85 <kb_enc_send_cmd>
  101bdc:	83 c4 10             	add    $0x10,%esp
  101bdf:	90                   	nop
  101be0:	c9                   	leave  
  101be1:	c3                   	ret    

00101be2 <timer_callback>:
  101be2:	55                   	push   %ebp
  101be3:	89 e5                	mov    %esp,%ebp
  101be5:	83 ec 08             	sub    $0x8,%esp
  101be8:	a1 0c 50 10 00       	mov    0x10500c,%eax
  101bed:	83 c0 01             	add    $0x1,%eax
  101bf0:	a3 0c 50 10 00       	mov    %eax,0x10500c
  101bf5:	a1 0c 50 10 00       	mov    0x10500c,%eax
  101bfa:	83 f8 04             	cmp    $0x4,%eax
  101bfd:	77 31                	ja     101c30 <timer_callback+0x4e>
  101bff:	83 ec 0c             	sub    $0xc,%esp
  101c02:	68 da 33 10 00       	push   $0x1033da
  101c07:	e8 cf 02 00 00       	call   101edb <print_string>
  101c0c:	83 c4 10             	add    $0x10,%esp
  101c0f:	a1 0c 50 10 00       	mov    0x10500c,%eax
  101c14:	83 ec 0c             	sub    $0xc,%esp
  101c17:	50                   	push   %eax
  101c18:	e8 74 03 00 00       	call   101f91 <print_decimal>
  101c1d:	83 c4 10             	add    $0x10,%esp
  101c20:	83 ec 0c             	sub    $0xc,%esp
  101c23:	68 e1 33 10 00       	push   $0x1033e1
  101c28:	e8 ae 02 00 00       	call   101edb <print_string>
  101c2d:	83 c4 10             	add    $0x10,%esp
  101c30:	90                   	nop
  101c31:	c9                   	leave  
  101c32:	c3                   	ret    

00101c33 <init_timer>:
  101c33:	55                   	push   %ebp
  101c34:	89 e5                	mov    %esp,%ebp
  101c36:	83 ec 18             	sub    $0x18,%esp
  101c39:	83 ec 08             	sub    $0x8,%esp
  101c3c:	68 e2 1b 10 00       	push   $0x101be2
  101c41:	6a 20                	push   $0x20
  101c43:	e8 43 fe ff ff       	call   101a8b <register_interrupt_handler>
  101c48:	83 c4 10             	add    $0x10,%esp
  101c4b:	b8 dc 34 12 00       	mov    $0x1234dc,%eax
  101c50:	ba 00 00 00 00       	mov    $0x0,%edx
  101c55:	f7 75 08             	divl   0x8(%ebp)
  101c58:	89 45 f4             	mov    %eax,-0xc(%ebp)
  101c5b:	83 ec 08             	sub    $0x8,%esp
  101c5e:	6a 36                	push   $0x36
  101c60:	6a 43                	push   $0x43
  101c62:	e8 78 f6 ff ff       	call   1012df <outb>
  101c67:	83 c4 10             	add    $0x10,%esp
  101c6a:	8b 45 f4             	mov    -0xc(%ebp),%eax
  101c6d:	88 45 f3             	mov    %al,-0xd(%ebp)
  101c70:	8b 45 f4             	mov    -0xc(%ebp),%eax
  101c73:	c1 e8 08             	shr    $0x8,%eax
  101c76:	88 45 f2             	mov    %al,-0xe(%ebp)
  101c79:	0f b6 45 f3          	movzbl -0xd(%ebp),%eax
  101c7d:	83 ec 08             	sub    $0x8,%esp
  101c80:	50                   	push   %eax
  101c81:	6a 40                	push   $0x40
  101c83:	e8 57 f6 ff ff       	call   1012df <outb>
  101c88:	83 c4 10             	add    $0x10,%esp
  101c8b:	0f b6 45 f2          	movzbl -0xe(%ebp),%eax
  101c8f:	83 ec 08             	sub    $0x8,%esp
  101c92:	50                   	push   %eax
  101c93:	6a 40                	push   $0x40
  101c95:	e8 45 f6 ff ff       	call   1012df <outb>
  101c9a:	83 c4 10             	add    $0x10,%esp
  101c9d:	90                   	nop
  101c9e:	c9                   	leave  
  101c9f:	c3                   	ret    

00101ca0 <less_than>:
  101ca0:	55                   	push   %ebp
  101ca1:	89 e5                	mov    %esp,%ebp
  101ca3:	8b 45 08             	mov    0x8(%ebp),%eax
  101ca6:	3b 45 0c             	cmp    0xc(%ebp),%eax
  101ca9:	0f 92 c0             	setb   %al
  101cac:	5d                   	pop    %ebp
  101cad:	c3                   	ret    

00101cae <create_ordered_array>:
  101cae:	55                   	push   %ebp
  101caf:	89 e5                	mov    %esp,%ebp
  101cb1:	83 ec 18             	sub    $0x18,%esp
  101cb4:	8b 45 0c             	mov    0xc(%ebp),%eax
  101cb7:	c1 e0 02             	shl    $0x2,%eax
  101cba:	83 ec 0c             	sub    $0xc,%esp
  101cbd:	50                   	push   %eax
  101cbe:	e8 13 e6 ff ff       	call   1002d6 <kmalloc>
  101cc3:	83 c4 10             	add    $0x10,%esp
  101cc6:	89 45 e8             	mov    %eax,-0x18(%ebp)
  101cc9:	8b 45 0c             	mov    0xc(%ebp),%eax
  101ccc:	8d 14 85 00 00 00 00 	lea    0x0(,%eax,4),%edx
  101cd3:	8b 45 e8             	mov    -0x18(%ebp),%eax
  101cd6:	83 ec 04             	sub    $0x4,%esp
  101cd9:	52                   	push   %edx
  101cda:	6a 00                	push   $0x0
  101cdc:	50                   	push   %eax
  101cdd:	e8 d2 f5 ff ff       	call   1012b4 <mem_set>
  101ce2:	83 c4 10             	add    $0x10,%esp
  101ce5:	c7 45 ec 00 00 00 00 	movl   $0x0,-0x14(%ebp)
  101cec:	8b 45 0c             	mov    0xc(%ebp),%eax
  101cef:	89 45 f0             	mov    %eax,-0x10(%ebp)
  101cf2:	8b 45 10             	mov    0x10(%ebp),%eax
  101cf5:	89 45 f4             	mov    %eax,-0xc(%ebp)
  101cf8:	8b 45 08             	mov    0x8(%ebp),%eax
  101cfb:	8b 55 e8             	mov    -0x18(%ebp),%edx
  101cfe:	89 10                	mov    %edx,(%eax)
  101d00:	8b 55 ec             	mov    -0x14(%ebp),%edx
  101d03:	89 50 04             	mov    %edx,0x4(%eax)
  101d06:	8b 55 f0             	mov    -0x10(%ebp),%edx
  101d09:	89 50 08             	mov    %edx,0x8(%eax)
  101d0c:	8b 55 f4             	mov    -0xc(%ebp),%edx
  101d0f:	89 50 0c             	mov    %edx,0xc(%eax)
  101d12:	8b 45 08             	mov    0x8(%ebp),%eax
  101d15:	c9                   	leave  
  101d16:	c2 04 00             	ret    $0x4

00101d19 <place_ordered_array>:
  101d19:	55                   	push   %ebp
  101d1a:	89 e5                	mov    %esp,%ebp
  101d1c:	83 ec 18             	sub    $0x18,%esp
  101d1f:	8b 45 0c             	mov    0xc(%ebp),%eax
  101d22:	89 45 e8             	mov    %eax,-0x18(%ebp)
  101d25:	8b 45 10             	mov    0x10(%ebp),%eax
  101d28:	8d 14 85 00 00 00 00 	lea    0x0(,%eax,4),%edx
  101d2f:	8b 45 e8             	mov    -0x18(%ebp),%eax
  101d32:	83 ec 04             	sub    $0x4,%esp
  101d35:	52                   	push   %edx
  101d36:	6a 00                	push   $0x0
  101d38:	50                   	push   %eax
  101d39:	e8 76 f5 ff ff       	call   1012b4 <mem_set>
  101d3e:	83 c4 10             	add    $0x10,%esp
  101d41:	c7 45 ec 00 00 00 00 	movl   $0x0,-0x14(%ebp)
  101d48:	8b 45 10             	mov    0x10(%ebp),%eax
  101d4b:	89 45 f0             	mov    %eax,-0x10(%ebp)
  101d4e:	8b 45 14             	mov    0x14(%ebp),%eax
  101d51:	89 45 f4             	mov    %eax,-0xc(%ebp)
  101d54:	8b 45 08             	mov    0x8(%ebp),%eax
  101d57:	8b 55 e8             	mov    -0x18(%ebp),%edx
  101d5a:	89 10                	mov    %edx,(%eax)
  101d5c:	8b 55 ec             	mov    -0x14(%ebp),%edx
  101d5f:	89 50 04             	mov    %edx,0x4(%eax)
  101d62:	8b 55 f0             	mov    -0x10(%ebp),%edx
  101d65:	89 50 08             	mov    %edx,0x8(%eax)
  101d68:	8b 55 f4             	mov    -0xc(%ebp),%edx
  101d6b:	89 50 0c             	mov    %edx,0xc(%eax)
  101d6e:	8b 45 08             	mov    0x8(%ebp),%eax
  101d71:	c9                   	leave  
  101d72:	c2 04 00             	ret    $0x4

00101d75 <insert_ordered_array>:
  101d75:	55                   	push   %ebp
  101d76:	89 e5                	mov    %esp,%ebp
  101d78:	83 ec 18             	sub    $0x18,%esp
  101d7b:	8b 45 0c             	mov    0xc(%ebp),%eax
  101d7e:	8b 50 04             	mov    0x4(%eax),%edx
  101d81:	8b 45 0c             	mov    0xc(%ebp),%eax
  101d84:	8b 40 08             	mov    0x8(%eax),%eax
  101d87:	39 c2                	cmp    %eax,%edx
  101d89:	76 17                	jbe    101da2 <insert_ordered_array+0x2d>
  101d8b:	83 ec 04             	sub    $0x4,%esp
  101d8e:	68 e3 33 10 00       	push   $0x1033e3
  101d93:	6a 1f                	push   $0x1f
  101d95:	68 00 34 10 00       	push   $0x103400
  101d9a:	e8 6b 04 00 00       	call   10220a <panic_assert>
  101d9f:	83 c4 10             	add    $0x10,%esp
  101da2:	8b 45 0c             	mov    0xc(%ebp),%eax
  101da5:	8b 50 04             	mov    0x4(%eax),%edx
  101da8:	8b 45 0c             	mov    0xc(%ebp),%eax
  101dab:	8b 40 08             	mov    0x8(%eax),%eax
  101dae:	39 c2                	cmp    %eax,%edx
  101db0:	0f 84 9e 00 00 00    	je     101e54 <insert_ordered_array+0xdf>
  101db6:	c7 45 f4 00 00 00 00 	movl   $0x0,-0xc(%ebp)
  101dbd:	eb 04                	jmp    101dc3 <insert_ordered_array+0x4e>
  101dbf:	83 45 f4 01          	addl   $0x1,-0xc(%ebp)
  101dc3:	8b 45 0c             	mov    0xc(%ebp),%eax
  101dc6:	8b 50 04             	mov    0x4(%eax),%edx
  101dc9:	8b 45 f4             	mov    -0xc(%ebp),%eax
  101dcc:	39 c2                	cmp    %eax,%edx
  101dce:	76 25                	jbe    101df5 <insert_ordered_array+0x80>
  101dd0:	8b 45 0c             	mov    0xc(%ebp),%eax
  101dd3:	8b 40 0c             	mov    0xc(%eax),%eax
  101dd6:	8b 55 0c             	mov    0xc(%ebp),%edx
  101dd9:	8b 12                	mov    (%edx),%edx
  101ddb:	8b 4d f4             	mov    -0xc(%ebp),%ecx
  101dde:	c1 e1 02             	shl    $0x2,%ecx
  101de1:	01 ca                	add    %ecx,%edx
  101de3:	8b 12                	mov    (%edx),%edx
  101de5:	83 ec 08             	sub    $0x8,%esp
  101de8:	ff 75 08             	pushl  0x8(%ebp)
  101deb:	52                   	push   %edx
  101dec:	ff d0                	call   *%eax
  101dee:	83 c4 10             	add    $0x10,%esp
  101df1:	84 c0                	test   %al,%al
  101df3:	75 ca                	jne    101dbf <insert_ordered_array+0x4a>
  101df5:	8b 45 0c             	mov    0xc(%ebp),%eax
  101df8:	8b 40 04             	mov    0x4(%eax),%eax
  101dfb:	89 45 f0             	mov    %eax,-0x10(%ebp)
  101dfe:	eb 29                	jmp    101e29 <insert_ordered_array+0xb4>
  101e00:	8b 45 0c             	mov    0xc(%ebp),%eax
  101e03:	8b 00                	mov    (%eax),%eax
  101e05:	8b 55 f0             	mov    -0x10(%ebp),%edx
  101e08:	81 c2 ff ff ff 3f    	add    $0x3fffffff,%edx
  101e0e:	c1 e2 02             	shl    $0x2,%edx
  101e11:	8d 0c 10             	lea    (%eax,%edx,1),%ecx
  101e14:	8b 45 0c             	mov    0xc(%ebp),%eax
  101e17:	8b 00                	mov    (%eax),%eax
  101e19:	8b 55 f0             	mov    -0x10(%ebp),%edx
  101e1c:	c1 e2 02             	shl    $0x2,%edx
  101e1f:	01 c2                	add    %eax,%edx
  101e21:	8b 01                	mov    (%ecx),%eax
  101e23:	89 02                	mov    %eax,(%edx)
  101e25:	83 6d f0 01          	subl   $0x1,-0x10(%ebp)
  101e29:	8b 45 f0             	mov    -0x10(%ebp),%eax
  101e2c:	3b 45 f4             	cmp    -0xc(%ebp),%eax
  101e2f:	7f cf                	jg     101e00 <insert_ordered_array+0x8b>
  101e31:	8b 45 0c             	mov    0xc(%ebp),%eax
  101e34:	8b 00                	mov    (%eax),%eax
  101e36:	8b 55 f4             	mov    -0xc(%ebp),%edx
  101e39:	c1 e2 02             	shl    $0x2,%edx
  101e3c:	01 c2                	add    %eax,%edx
  101e3e:	8b 45 08             	mov    0x8(%ebp),%eax
  101e41:	89 02                	mov    %eax,(%edx)
  101e43:	8b 45 0c             	mov    0xc(%ebp),%eax
  101e46:	8b 40 04             	mov    0x4(%eax),%eax
  101e49:	8d 50 01             	lea    0x1(%eax),%edx
  101e4c:	8b 45 0c             	mov    0xc(%ebp),%eax
  101e4f:	89 50 04             	mov    %edx,0x4(%eax)
  101e52:	eb 01                	jmp    101e55 <insert_ordered_array+0xe0>
  101e54:	90                   	nop
  101e55:	c9                   	leave  
  101e56:	c3                   	ret    

00101e57 <lookup_ordered_array>:
  101e57:	55                   	push   %ebp
  101e58:	89 e5                	mov    %esp,%ebp
  101e5a:	83 ec 08             	sub    $0x8,%esp
  101e5d:	8b 45 0c             	mov    0xc(%ebp),%eax
  101e60:	8b 40 04             	mov    0x4(%eax),%eax
  101e63:	39 45 08             	cmp    %eax,0x8(%ebp)
  101e66:	72 17                	jb     101e7f <lookup_ordered_array+0x28>
  101e68:	83 ec 04             	sub    $0x4,%esp
  101e6b:	68 1b 34 10 00       	push   $0x10341b
  101e70:	6a 2e                	push   $0x2e
  101e72:	68 00 34 10 00       	push   $0x103400
  101e77:	e8 8e 03 00 00       	call   10220a <panic_assert>
  101e7c:	83 c4 10             	add    $0x10,%esp
  101e7f:	8b 45 0c             	mov    0xc(%ebp),%eax
  101e82:	8b 00                	mov    (%eax),%eax
  101e84:	8b 55 08             	mov    0x8(%ebp),%edx
  101e87:	c1 e2 02             	shl    $0x2,%edx
  101e8a:	01 d0                	add    %edx,%eax
  101e8c:	8b 00                	mov    (%eax),%eax
  101e8e:	c9                   	leave  
  101e8f:	c3                   	ret    

00101e90 <remove_ordered_array>:
  101e90:	55                   	push   %ebp
  101e91:	89 e5                	mov    %esp,%ebp
  101e93:	eb 26                	jmp    101ebb <remove_ordered_array+0x2b>
  101e95:	8b 45 0c             	mov    0xc(%ebp),%eax
  101e98:	8b 00                	mov    (%eax),%eax
  101e9a:	8b 55 08             	mov    0x8(%ebp),%edx
  101e9d:	83 c2 01             	add    $0x1,%edx
  101ea0:	c1 e2 02             	shl    $0x2,%edx
  101ea3:	8d 0c 10             	lea    (%eax,%edx,1),%ecx
  101ea6:	8b 45 0c             	mov    0xc(%ebp),%eax
  101ea9:	8b 00                	mov    (%eax),%eax
  101eab:	8b 55 08             	mov    0x8(%ebp),%edx
  101eae:	c1 e2 02             	shl    $0x2,%edx
  101eb1:	01 c2                	add    %eax,%edx
  101eb3:	8b 01                	mov    (%ecx),%eax
  101eb5:	89 02                	mov    %eax,(%edx)
  101eb7:	83 45 08 01          	addl   $0x1,0x8(%ebp)
  101ebb:	8b 45 0c             	mov    0xc(%ebp),%eax
  101ebe:	8b 40 04             	mov    0x4(%eax),%eax
  101ec1:	83 e8 01             	sub    $0x1,%eax
  101ec4:	39 45 08             	cmp    %eax,0x8(%ebp)
  101ec7:	72 cc                	jb     101e95 <remove_ordered_array+0x5>
  101ec9:	8b 45 0c             	mov    0xc(%ebp),%eax
  101ecc:	8b 40 04             	mov    0x4(%eax),%eax
  101ecf:	8d 50 ff             	lea    -0x1(%eax),%edx
  101ed2:	8b 45 0c             	mov    0xc(%ebp),%eax
  101ed5:	89 50 04             	mov    %edx,0x4(%eax)
  101ed8:	90                   	nop
  101ed9:	5d                   	pop    %ebp
  101eda:	c3                   	ret    

00101edb <print_string>:
  101edb:	55                   	push   %ebp
  101edc:	89 e5                	mov    %esp,%ebp
  101ede:	83 ec 18             	sub    $0x18,%esp
  101ee1:	e8 2b f2 ff ff       	call   101111 <fb_get_cursor>
  101ee6:	66 89 45 f6          	mov    %ax,-0xa(%ebp)
  101eea:	c7 45 f0 00 00 00 00 	movl   $0x0,-0x10(%ebp)
  101ef1:	eb 78                	jmp    101f6b <print_string+0x90>
  101ef3:	8b 55 f0             	mov    -0x10(%ebp),%edx
  101ef6:	8b 45 08             	mov    0x8(%ebp),%eax
  101ef9:	01 d0                	add    %edx,%eax
  101efb:	0f b6 00             	movzbl (%eax),%eax
  101efe:	3c 0a                	cmp    $0xa,%al
  101f00:	75 27                	jne    101f29 <print_string+0x4e>
  101f02:	0f b7 45 f6          	movzwl -0xa(%ebp),%eax
  101f06:	0f b7 c0             	movzwl %ax,%eax
  101f09:	69 c0 cd cc 00 00    	imul   $0xcccd,%eax,%eax
  101f0f:	c1 e8 10             	shr    $0x10,%eax
  101f12:	66 c1 e8 06          	shr    $0x6,%ax
  101f16:	8d 50 01             	lea    0x1(%eax),%edx
  101f19:	89 d0                	mov    %edx,%eax
  101f1b:	c1 e0 02             	shl    $0x2,%eax
  101f1e:	01 d0                	add    %edx,%eax
  101f20:	c1 e0 04             	shl    $0x4,%eax
  101f23:	66 89 45 f6          	mov    %ax,-0xa(%ebp)
  101f27:	eb 2a                	jmp    101f53 <print_string+0x78>
  101f29:	0f b7 55 f6          	movzwl -0xa(%ebp),%edx
  101f2d:	8b 4d f0             	mov    -0x10(%ebp),%ecx
  101f30:	8b 45 08             	mov    0x8(%ebp),%eax
  101f33:	01 c8                	add    %ecx,%eax
  101f35:	0f b6 00             	movzbl (%eax),%eax
  101f38:	0f be c0             	movsbl %al,%eax
  101f3b:	83 ec 08             	sub    $0x8,%esp
  101f3e:	52                   	push   %edx
  101f3f:	50                   	push   %eax
  101f40:	e8 95 f2 ff ff       	call   1011da <fb_write>
  101f45:	83 c4 10             	add    $0x10,%esp
  101f48:	0f b7 45 f6          	movzwl -0xa(%ebp),%eax
  101f4c:	83 c0 01             	add    $0x1,%eax
  101f4f:	66 89 45 f6          	mov    %ax,-0xa(%ebp)
  101f53:	0f b7 45 f6          	movzwl -0xa(%ebp),%eax
  101f57:	83 ec 0c             	sub    $0xc,%esp
  101f5a:	50                   	push   %eax
  101f5b:	e8 b0 f2 ff ff       	call   101210 <fb_scroll>
  101f60:	83 c4 10             	add    $0x10,%esp
  101f63:	66 89 45 f6          	mov    %ax,-0xa(%ebp)
  101f67:	83 45 f0 01          	addl   $0x1,-0x10(%ebp)
  101f6b:	8b 55 f0             	mov    -0x10(%ebp),%edx
  101f6e:	8b 45 08             	mov    0x8(%ebp),%eax
  101f71:	01 d0                	add    %edx,%eax
  101f73:	0f b6 00             	movzbl (%eax),%eax
  101f76:	84 c0                	test   %al,%al
  101f78:	0f 85 75 ff ff ff    	jne    101ef3 <print_string+0x18>
  101f7e:	0f b7 45 f6          	movzwl -0xa(%ebp),%eax
  101f82:	83 ec 0c             	sub    $0xc,%esp
  101f85:	50                   	push   %eax
  101f86:	e8 e7 f1 ff ff       	call   101172 <fb_set_cursor>
  101f8b:	83 c4 10             	add    $0x10,%esp
  101f8e:	90                   	nop
  101f8f:	c9                   	leave  
  101f90:	c3                   	ret    

00101f91 <print_decimal>:
  101f91:	55                   	push   %ebp
  101f92:	89 e5                	mov    %esp,%ebp
  101f94:	83 ec 58             	sub    $0x58,%esp
  101f97:	c7 45 f4 00 00 00 00 	movl   $0x0,-0xc(%ebp)
  101f9e:	83 7d 08 00          	cmpl   $0x0,0x8(%ebp)
  101fa2:	79 0a                	jns    101fae <print_decimal+0x1d>
  101fa4:	f7 5d 08             	negl   0x8(%ebp)
  101fa7:	c7 45 f4 01 00 00 00 	movl   $0x1,-0xc(%ebp)
  101fae:	c7 45 f0 00 00 00 00 	movl   $0x0,-0x10(%ebp)
  101fb5:	8b 4d 08             	mov    0x8(%ebp),%ecx
  101fb8:	ba 67 66 66 66       	mov    $0x66666667,%edx
  101fbd:	89 c8                	mov    %ecx,%eax
  101fbf:	f7 ea                	imul   %edx
  101fc1:	c1 fa 02             	sar    $0x2,%edx
  101fc4:	89 c8                	mov    %ecx,%eax
  101fc6:	c1 f8 1f             	sar    $0x1f,%eax
  101fc9:	29 c2                	sub    %eax,%edx
  101fcb:	89 d0                	mov    %edx,%eax
  101fcd:	c1 e0 02             	shl    $0x2,%eax
  101fd0:	01 d0                	add    %edx,%eax
  101fd2:	01 c0                	add    %eax,%eax
  101fd4:	29 c1                	sub    %eax,%ecx
  101fd6:	89 ca                	mov    %ecx,%edx
  101fd8:	89 d0                	mov    %edx,%eax
  101fda:	83 c0 30             	add    $0x30,%eax
  101fdd:	89 c1                	mov    %eax,%ecx
  101fdf:	8d 55 cc             	lea    -0x34(%ebp),%edx
  101fe2:	8b 45 f0             	mov    -0x10(%ebp),%eax
  101fe5:	01 d0                	add    %edx,%eax
  101fe7:	88 08                	mov    %cl,(%eax)
  101fe9:	83 45 f0 01          	addl   $0x1,-0x10(%ebp)
  101fed:	8b 4d 08             	mov    0x8(%ebp),%ecx
  101ff0:	ba 67 66 66 66       	mov    $0x66666667,%edx
  101ff5:	89 c8                	mov    %ecx,%eax
  101ff7:	f7 ea                	imul   %edx
  101ff9:	c1 fa 02             	sar    $0x2,%edx
  101ffc:	89 c8                	mov    %ecx,%eax
  101ffe:	c1 f8 1f             	sar    $0x1f,%eax
  102001:	29 c2                	sub    %eax,%edx
  102003:	89 d0                	mov    %edx,%eax
  102005:	89 45 08             	mov    %eax,0x8(%ebp)
  102008:	eb 53                	jmp    10205d <print_decimal+0xcc>
  10200a:	8b 4d 08             	mov    0x8(%ebp),%ecx
  10200d:	ba 67 66 66 66       	mov    $0x66666667,%edx
  102012:	89 c8                	mov    %ecx,%eax
  102014:	f7 ea                	imul   %edx
  102016:	c1 fa 02             	sar    $0x2,%edx
  102019:	89 c8                	mov    %ecx,%eax
  10201b:	c1 f8 1f             	sar    $0x1f,%eax
  10201e:	29 c2                	sub    %eax,%edx
  102020:	89 d0                	mov    %edx,%eax
  102022:	c1 e0 02             	shl    $0x2,%eax
  102025:	01 d0                	add    %edx,%eax
  102027:	01 c0                	add    %eax,%eax
  102029:	29 c1                	sub    %eax,%ecx
  10202b:	89 ca                	mov    %ecx,%edx
  10202d:	89 d0                	mov    %edx,%eax
  10202f:	83 c0 30             	add    $0x30,%eax
  102032:	89 c1                	mov    %eax,%ecx
  102034:	8d 55 cc             	lea    -0x34(%ebp),%edx
  102037:	8b 45 f0             	mov    -0x10(%ebp),%eax
  10203a:	01 d0                	add    %edx,%eax
  10203c:	88 08                	mov    %cl,(%eax)
  10203e:	8b 4d 08             	mov    0x8(%ebp),%ecx
  102041:	ba 67 66 66 66       	mov    $0x66666667,%edx
  102046:	89 c8                	mov    %ecx,%eax
  102048:	f7 ea                	imul   %edx
  10204a:	c1 fa 02             	sar    $0x2,%edx
  10204d:	89 c8                	mov    %ecx,%eax
  10204f:	c1 f8 1f             	sar    $0x1f,%eax
  102052:	29 c2                	sub    %eax,%edx
  102054:	89 d0                	mov    %edx,%eax
  102056:	89 45 08             	mov    %eax,0x8(%ebp)
  102059:	83 45 f0 01          	addl   $0x1,-0x10(%ebp)
  10205d:	83 7d 08 00          	cmpl   $0x0,0x8(%ebp)
  102061:	75 a7                	jne    10200a <print_decimal+0x79>
  102063:	83 6d f0 01          	subl   $0x1,-0x10(%ebp)
  102067:	c7 45 ec 00 00 00 00 	movl   $0x0,-0x14(%ebp)
  10206e:	83 7d f4 01          	cmpl   $0x1,-0xc(%ebp)
  102072:	75 2c                	jne    1020a0 <print_decimal+0x10f>
  102074:	8d 55 ac             	lea    -0x54(%ebp),%edx
  102077:	8b 45 ec             	mov    -0x14(%ebp),%eax
  10207a:	01 d0                	add    %edx,%eax
  10207c:	c6 00 2d             	movb   $0x2d,(%eax)
  10207f:	83 45 ec 01          	addl   $0x1,-0x14(%ebp)
  102083:	eb 1b                	jmp    1020a0 <print_decimal+0x10f>
  102085:	8b 55 f0             	mov    -0x10(%ebp),%edx
  102088:	8d 42 ff             	lea    -0x1(%edx),%eax
  10208b:	89 45 f0             	mov    %eax,-0x10(%ebp)
  10208e:	8b 45 ec             	mov    -0x14(%ebp),%eax
  102091:	8d 48 01             	lea    0x1(%eax),%ecx
  102094:	89 4d ec             	mov    %ecx,-0x14(%ebp)
  102097:	0f b6 54 15 cc       	movzbl -0x34(%ebp,%edx,1),%edx
  10209c:	88 54 05 ac          	mov    %dl,-0x54(%ebp,%eax,1)
  1020a0:	83 7d f0 00          	cmpl   $0x0,-0x10(%ebp)
  1020a4:	79 df                	jns    102085 <print_decimal+0xf4>
  1020a6:	8d 55 ac             	lea    -0x54(%ebp),%edx
  1020a9:	8b 45 ec             	mov    -0x14(%ebp),%eax
  1020ac:	01 d0                	add    %edx,%eax
  1020ae:	c6 00 00             	movb   $0x0,(%eax)
  1020b1:	83 ec 0c             	sub    $0xc,%esp
  1020b4:	8d 45 ac             	lea    -0x54(%ebp),%eax
  1020b7:	50                   	push   %eax
  1020b8:	e8 1e fe ff ff       	call   101edb <print_string>
  1020bd:	83 c4 10             	add    $0x10,%esp
  1020c0:	90                   	nop
  1020c1:	c9                   	leave  
  1020c2:	c3                   	ret    

001020c3 <print_hex>:
  1020c3:	55                   	push   %ebp
  1020c4:	89 e5                	mov    %esp,%ebp
  1020c6:	83 ec 58             	sub    $0x58,%esp
  1020c9:	c7 45 f4 00 00 00 00 	movl   $0x0,-0xc(%ebp)
  1020d0:	c7 45 ec 00 00 00 00 	movl   $0x0,-0x14(%ebp)
  1020d7:	83 7d 08 00          	cmpl   $0x0,0x8(%ebp)
  1020db:	75 5d                	jne    10213a <print_hex+0x77>
  1020dd:	c6 45 cc 30          	movb   $0x30,-0x34(%ebp)
  1020e1:	c6 45 cd 78          	movb   $0x78,-0x33(%ebp)
  1020e5:	c6 45 ce 30          	movb   $0x30,-0x32(%ebp)
  1020e9:	83 ec 0c             	sub    $0xc,%esp
  1020ec:	8d 45 cc             	lea    -0x34(%ebp),%eax
  1020ef:	50                   	push   %eax
  1020f0:	e8 e6 fd ff ff       	call   101edb <print_string>
  1020f5:	83 c4 10             	add    $0x10,%esp
  1020f8:	e9 97 00 00 00       	jmp    102194 <print_hex+0xd1>
  1020fd:	8b 45 08             	mov    0x8(%ebp),%eax
  102100:	83 e0 0f             	and    $0xf,%eax
  102103:	89 45 ec             	mov    %eax,-0x14(%ebp)
  102106:	83 7d ec 09          	cmpl   $0x9,-0x14(%ebp)
  10210a:	7f 14                	jg     102120 <print_hex+0x5d>
  10210c:	8b 45 ec             	mov    -0x14(%ebp),%eax
  10210f:	83 c0 30             	add    $0x30,%eax
  102112:	89 c1                	mov    %eax,%ecx
  102114:	8d 55 cc             	lea    -0x34(%ebp),%edx
  102117:	8b 45 f4             	mov    -0xc(%ebp),%eax
  10211a:	01 d0                	add    %edx,%eax
  10211c:	88 08                	mov    %cl,(%eax)
  10211e:	eb 12                	jmp    102132 <print_hex+0x6f>
  102120:	8b 45 ec             	mov    -0x14(%ebp),%eax
  102123:	83 c0 37             	add    $0x37,%eax
  102126:	89 c1                	mov    %eax,%ecx
  102128:	8d 55 cc             	lea    -0x34(%ebp),%edx
  10212b:	8b 45 f4             	mov    -0xc(%ebp),%eax
  10212e:	01 d0                	add    %edx,%eax
  102130:	88 08                	mov    %cl,(%eax)
  102132:	c1 7d 08 04          	sarl   $0x4,0x8(%ebp)
  102136:	83 45 f4 01          	addl   $0x1,-0xc(%ebp)
  10213a:	83 7d 08 00          	cmpl   $0x0,0x8(%ebp)
  10213e:	75 bd                	jne    1020fd <print_hex+0x3a>
  102140:	83 6d f4 01          	subl   $0x1,-0xc(%ebp)
  102144:	c7 45 f0 00 00 00 00 	movl   $0x0,-0x10(%ebp)
  10214b:	c6 45 ac 30          	movb   $0x30,-0x54(%ebp)
  10214f:	c6 45 ad 78          	movb   $0x78,-0x53(%ebp)
  102153:	83 45 f0 02          	addl   $0x2,-0x10(%ebp)
  102157:	eb 1b                	jmp    102174 <print_hex+0xb1>
  102159:	8b 55 f4             	mov    -0xc(%ebp),%edx
  10215c:	8d 42 ff             	lea    -0x1(%edx),%eax
  10215f:	89 45 f4             	mov    %eax,-0xc(%ebp)
  102162:	8b 45 f0             	mov    -0x10(%ebp),%eax
  102165:	8d 48 01             	lea    0x1(%eax),%ecx
  102168:	89 4d f0             	mov    %ecx,-0x10(%ebp)
  10216b:	0f b6 54 15 cc       	movzbl -0x34(%ebp,%edx,1),%edx
  102170:	88 54 05 ac          	mov    %dl,-0x54(%ebp,%eax,1)
  102174:	83 7d f4 00          	cmpl   $0x0,-0xc(%ebp)
  102178:	79 df                	jns    102159 <print_hex+0x96>
  10217a:	8d 55 ac             	lea    -0x54(%ebp),%edx
  10217d:	8b 45 f0             	mov    -0x10(%ebp),%eax
  102180:	01 d0                	add    %edx,%eax
  102182:	c6 00 00             	movb   $0x0,(%eax)
  102185:	83 ec 0c             	sub    $0xc,%esp
  102188:	8d 45 ac             	lea    -0x54(%ebp),%eax
  10218b:	50                   	push   %eax
  10218c:	e8 4a fd ff ff       	call   101edb <print_string>
  102191:	83 c4 10             	add    $0x10,%esp
  102194:	c9                   	leave  
  102195:	c3                   	ret    

00102196 <panic>:
  102196:	55                   	push   %ebp
  102197:	89 e5                	mov    %esp,%ebp
  102199:	83 ec 08             	sub    $0x8,%esp
  10219c:	fa                   	cli    
  10219d:	83 ec 0c             	sub    $0xc,%esp
  1021a0:	68 2b 34 10 00       	push   $0x10342b
  1021a5:	e8 31 fd ff ff       	call   101edb <print_string>
  1021aa:	83 c4 10             	add    $0x10,%esp
  1021ad:	83 ec 0c             	sub    $0xc,%esp
  1021b0:	ff 75 08             	pushl  0x8(%ebp)
  1021b3:	e8 23 fd ff ff       	call   101edb <print_string>
  1021b8:	83 c4 10             	add    $0x10,%esp
  1021bb:	83 ec 0c             	sub    $0xc,%esp
  1021be:	68 32 34 10 00       	push   $0x103432
  1021c3:	e8 13 fd ff ff       	call   101edb <print_string>
  1021c8:	83 c4 10             	add    $0x10,%esp
  1021cb:	83 ec 0c             	sub    $0xc,%esp
  1021ce:	ff 75 0c             	pushl  0xc(%ebp)
  1021d1:	e8 05 fd ff ff       	call   101edb <print_string>
  1021d6:	83 c4 10             	add    $0x10,%esp
  1021d9:	83 ec 0c             	sub    $0xc,%esp
  1021dc:	68 38 34 10 00       	push   $0x103438
  1021e1:	e8 f5 fc ff ff       	call   101edb <print_string>
  1021e6:	83 c4 10             	add    $0x10,%esp
  1021e9:	8b 45 10             	mov    0x10(%ebp),%eax
  1021ec:	83 ec 0c             	sub    $0xc,%esp
  1021ef:	50                   	push   %eax
  1021f0:	e8 9c fd ff ff       	call   101f91 <print_decimal>
  1021f5:	83 c4 10             	add    $0x10,%esp
  1021f8:	83 ec 0c             	sub    $0xc,%esp
  1021fb:	68 3a 34 10 00       	push   $0x10343a
  102200:	e8 d6 fc ff ff       	call   101edb <print_string>
  102205:	83 c4 10             	add    $0x10,%esp
  102208:	eb fe                	jmp    102208 <panic+0x72>

0010220a <panic_assert>:
  10220a:	55                   	push   %ebp
  10220b:	89 e5                	mov    %esp,%ebp
  10220d:	83 ec 08             	sub    $0x8,%esp
  102210:	fa                   	cli    
  102211:	83 ec 0c             	sub    $0xc,%esp
  102214:	68 3c 34 10 00       	push   $0x10343c
  102219:	e8 bd fc ff ff       	call   101edb <print_string>
  10221e:	83 c4 10             	add    $0x10,%esp
  102221:	83 ec 0c             	sub    $0xc,%esp
  102224:	ff 75 10             	pushl  0x10(%ebp)
  102227:	e8 af fc ff ff       	call   101edb <print_string>
  10222c:	83 c4 10             	add    $0x10,%esp
  10222f:	83 ec 0c             	sub    $0xc,%esp
  102232:	68 32 34 10 00       	push   $0x103432
  102237:	e8 9f fc ff ff       	call   101edb <print_string>
  10223c:	83 c4 10             	add    $0x10,%esp
  10223f:	83 ec 0c             	sub    $0xc,%esp
  102242:	ff 75 08             	pushl  0x8(%ebp)
  102245:	e8 91 fc ff ff       	call   101edb <print_string>
  10224a:	83 c4 10             	add    $0x10,%esp
  10224d:	83 ec 0c             	sub    $0xc,%esp
  102250:	68 38 34 10 00       	push   $0x103438
  102255:	e8 81 fc ff ff       	call   101edb <print_string>
  10225a:	83 c4 10             	add    $0x10,%esp
  10225d:	8b 45 0c             	mov    0xc(%ebp),%eax
  102260:	83 ec 0c             	sub    $0xc,%esp
  102263:	50                   	push   %eax
  102264:	e8 28 fd ff ff       	call   101f91 <print_decimal>
  102269:	83 c4 10             	add    $0x10,%esp
  10226c:	83 ec 0c             	sub    $0xc,%esp
  10226f:	68 3a 34 10 00       	push   $0x10343a
  102274:	e8 62 fc ff ff       	call   101edb <print_string>
  102279:	83 c4 10             	add    $0x10,%esp
  10227c:	eb fe                	jmp    10227c <panic_assert+0x72>
  10227e:	66 90                	xchg   %ax,%ax

00102280 <load_gdt>:
  102280:	8b 44 24 04          	mov    0x4(%esp),%eax
  102284:	0f 01 10             	lgdtl  (%eax)
  102287:	66 b8 10 00          	mov    $0x10,%ax
  10228b:	8e d8                	mov    %eax,%ds
  10228d:	8e c0                	mov    %eax,%es
  10228f:	8e e0                	mov    %eax,%fs
  102291:	8e e8                	mov    %eax,%gs
  102293:	8e d0                	mov    %eax,%ss
  102295:	ea 9c 22 10 00 08 00 	ljmp   $0x8,$0x10229c

0010229c <flush>:
  10229c:	c3                   	ret    
  10229d:	66 90                	xchg   %ax,%ax
  10229f:	90                   	nop

001022a0 <load_idt>:
  1022a0:	8b 44 24 04          	mov    0x4(%esp),%eax
  1022a4:	0f 01 18             	lidtl  (%eax)
  1022a7:	c3                   	ret    
  1022a8:	66 90                	xchg   %ax,%ax
  1022aa:	66 90                	xchg   %ax,%ax
  1022ac:	66 90                	xchg   %ax,%ax
  1022ae:	66 90                	xchg   %ax,%ax

001022b0 <isr0>:
  1022b0:	fa                   	cli    
  1022b1:	6a 00                	push   $0x0
  1022b3:	6a 00                	push   $0x0
  1022b5:	e9 a0 01 00 00       	jmp    10245a <isr_common_stub>

001022ba <isr1>:
  1022ba:	fa                   	cli    
  1022bb:	6a 00                	push   $0x0
  1022bd:	6a 01                	push   $0x1
  1022bf:	e9 96 01 00 00       	jmp    10245a <isr_common_stub>

001022c4 <isr2>:
  1022c4:	fa                   	cli    
  1022c5:	6a 00                	push   $0x0
  1022c7:	6a 02                	push   $0x2
  1022c9:	e9 8c 01 00 00       	jmp    10245a <isr_common_stub>

001022ce <isr3>:
  1022ce:	fa                   	cli    
  1022cf:	6a 00                	push   $0x0
  1022d1:	6a 03                	push   $0x3
  1022d3:	e9 82 01 00 00       	jmp    10245a <isr_common_stub>

001022d8 <isr4>:
  1022d8:	fa                   	cli    
  1022d9:	6a 00                	push   $0x0
  1022db:	6a 04                	push   $0x4
  1022dd:	e9 78 01 00 00       	jmp    10245a <isr_common_stub>

001022e2 <isr5>:
  1022e2:	fa                   	cli    
  1022e3:	6a 00                	push   $0x0
  1022e5:	6a 05                	push   $0x5
  1022e7:	e9 6e 01 00 00       	jmp    10245a <isr_common_stub>

001022ec <isr6>:
  1022ec:	fa                   	cli    
  1022ed:	6a 00                	push   $0x0
  1022ef:	6a 06                	push   $0x6
  1022f1:	e9 64 01 00 00       	jmp    10245a <isr_common_stub>

001022f6 <isr7>:
  1022f6:	fa                   	cli    
  1022f7:	6a 00                	push   $0x0
  1022f9:	6a 07                	push   $0x7
  1022fb:	e9 5a 01 00 00       	jmp    10245a <isr_common_stub>

00102300 <isr8>:
  102300:	fa                   	cli    
  102301:	6a 08                	push   $0x8
  102303:	e9 52 01 00 00       	jmp    10245a <isr_common_stub>

00102308 <isr9>:
  102308:	fa                   	cli    
  102309:	6a 00                	push   $0x0
  10230b:	6a 09                	push   $0x9
  10230d:	e9 48 01 00 00       	jmp    10245a <isr_common_stub>

00102312 <isr10>:
  102312:	fa                   	cli    
  102313:	6a 0a                	push   $0xa
  102315:	e9 40 01 00 00       	jmp    10245a <isr_common_stub>

0010231a <isr11>:
  10231a:	fa                   	cli    
  10231b:	6a 0b                	push   $0xb
  10231d:	e9 38 01 00 00       	jmp    10245a <isr_common_stub>

00102322 <isr12>:
  102322:	fa                   	cli    
  102323:	6a 0c                	push   $0xc
  102325:	e9 30 01 00 00       	jmp    10245a <isr_common_stub>

0010232a <isr13>:
  10232a:	fa                   	cli    
  10232b:	6a 0d                	push   $0xd
  10232d:	e9 28 01 00 00       	jmp    10245a <isr_common_stub>

00102332 <isr14>:
  102332:	fa                   	cli    
  102333:	6a 0e                	push   $0xe
  102335:	e9 20 01 00 00       	jmp    10245a <isr_common_stub>

0010233a <isr15>:
  10233a:	fa                   	cli    
  10233b:	6a 00                	push   $0x0
  10233d:	6a 0f                	push   $0xf
  10233f:	e9 16 01 00 00       	jmp    10245a <isr_common_stub>

00102344 <isr16>:
  102344:	fa                   	cli    
  102345:	6a 00                	push   $0x0
  102347:	6a 10                	push   $0x10
  102349:	e9 0c 01 00 00       	jmp    10245a <isr_common_stub>

0010234e <isr17>:
  10234e:	fa                   	cli    
  10234f:	6a 00                	push   $0x0
  102351:	6a 11                	push   $0x11
  102353:	e9 02 01 00 00       	jmp    10245a <isr_common_stub>

00102358 <isr18>:
  102358:	fa                   	cli    
  102359:	6a 00                	push   $0x0
  10235b:	6a 12                	push   $0x12
  10235d:	e9 f8 00 00 00       	jmp    10245a <isr_common_stub>

00102362 <isr19>:
  102362:	fa                   	cli    
  102363:	6a 00                	push   $0x0
  102365:	6a 13                	push   $0x13
  102367:	e9 ee 00 00 00       	jmp    10245a <isr_common_stub>

0010236c <isr20>:
  10236c:	fa                   	cli    
  10236d:	6a 00                	push   $0x0
  10236f:	6a 14                	push   $0x14
  102371:	e9 e4 00 00 00       	jmp    10245a <isr_common_stub>

00102376 <isr21>:
  102376:	fa                   	cli    
  102377:	6a 00                	push   $0x0
  102379:	6a 15                	push   $0x15
  10237b:	e9 da 00 00 00       	jmp    10245a <isr_common_stub>

00102380 <isr22>:
  102380:	fa                   	cli    
  102381:	6a 00                	push   $0x0
  102383:	6a 16                	push   $0x16
  102385:	e9 d0 00 00 00       	jmp    10245a <isr_common_stub>

0010238a <isr23>:
  10238a:	fa                   	cli    
  10238b:	6a 00                	push   $0x0
  10238d:	6a 17                	push   $0x17
  10238f:	e9 c6 00 00 00       	jmp    10245a <isr_common_stub>

00102394 <isr24>:
  102394:	fa                   	cli    
  102395:	6a 00                	push   $0x0
  102397:	6a 18                	push   $0x18
  102399:	e9 bc 00 00 00       	jmp    10245a <isr_common_stub>

0010239e <isr25>:
  10239e:	fa                   	cli    
  10239f:	6a 00                	push   $0x0
  1023a1:	6a 19                	push   $0x19
  1023a3:	e9 b2 00 00 00       	jmp    10245a <isr_common_stub>

001023a8 <isr26>:
  1023a8:	fa                   	cli    
  1023a9:	6a 00                	push   $0x0
  1023ab:	6a 1a                	push   $0x1a
  1023ad:	e9 a8 00 00 00       	jmp    10245a <isr_common_stub>

001023b2 <isr27>:
  1023b2:	fa                   	cli    
  1023b3:	6a 00                	push   $0x0
  1023b5:	6a 1b                	push   $0x1b
  1023b7:	e9 9e 00 00 00       	jmp    10245a <isr_common_stub>

001023bc <isr28>:
  1023bc:	fa                   	cli    
  1023bd:	6a 00                	push   $0x0
  1023bf:	6a 1c                	push   $0x1c
  1023c1:	e9 94 00 00 00       	jmp    10245a <isr_common_stub>

001023c6 <isr29>:
  1023c6:	fa                   	cli    
  1023c7:	6a 00                	push   $0x0
  1023c9:	6a 1d                	push   $0x1d
  1023cb:	e9 8a 00 00 00       	jmp    10245a <isr_common_stub>

001023d0 <isr30>:
  1023d0:	fa                   	cli    
  1023d1:	6a 00                	push   $0x0
  1023d3:	6a 1e                	push   $0x1e
  1023d5:	e9 80 00 00 00       	jmp    10245a <isr_common_stub>

001023da <isr31>:
  1023da:	fa                   	cli    
  1023db:	6a 00                	push   $0x0
  1023dd:	6a 1f                	push   $0x1f
  1023df:	eb 79                	jmp    10245a <isr_common_stub>

001023e1 <irq0>:
  1023e1:	fa                   	cli    
  1023e2:	6a 00                	push   $0x0
  1023e4:	6a 20                	push   $0x20
  1023e6:	e9 94 00 00 00       	jmp    10247f <irq_common_stub>

001023eb <irq1>:
  1023eb:	fa                   	cli    
  1023ec:	6a 00                	push   $0x0
  1023ee:	6a 21                	push   $0x21
  1023f0:	e9 8a 00 00 00       	jmp    10247f <irq_common_stub>

001023f5 <irq2>:
  1023f5:	fa                   	cli    
  1023f6:	6a 00                	push   $0x0
  1023f8:	6a 22                	push   $0x22
  1023fa:	e9 80 00 00 00       	jmp    10247f <irq_common_stub>

001023ff <irq3>:
  1023ff:	fa                   	cli    
  102400:	6a 00                	push   $0x0
  102402:	6a 23                	push   $0x23
  102404:	eb 79                	jmp    10247f <irq_common_stub>

00102406 <irq4>:
  102406:	fa                   	cli    
  102407:	6a 00                	push   $0x0
  102409:	6a 24                	push   $0x24
  10240b:	eb 72                	jmp    10247f <irq_common_stub>

0010240d <irq5>:
  10240d:	fa                   	cli    
  10240e:	6a 00                	push   $0x0
  102410:	6a 25                	push   $0x25
  102412:	eb 6b                	jmp    10247f <irq_common_stub>

00102414 <irq6>:
  102414:	fa                   	cli    
  102415:	6a 00                	push   $0x0
  102417:	6a 26                	push   $0x26
  102419:	eb 64                	jmp    10247f <irq_common_stub>

0010241b <irq7>:
  10241b:	fa                   	cli    
  10241c:	6a 00                	push   $0x0
  10241e:	6a 27                	push   $0x27
  102420:	eb 5d                	jmp    10247f <irq_common_stub>

00102422 <irq8>:
  102422:	fa                   	cli    
  102423:	6a 00                	push   $0x0
  102425:	6a 28                	push   $0x28
  102427:	eb 56                	jmp    10247f <irq_common_stub>

00102429 <irq9>:
  102429:	fa                   	cli    
  10242a:	6a 00                	push   $0x0
  10242c:	6a 29                	push   $0x29
  10242e:	eb 4f                	jmp    10247f <irq_common_stub>

00102430 <irq10>:
  102430:	fa                   	cli    
  102431:	6a 00                	push   $0x0
  102433:	6a 2a                	push   $0x2a
  102435:	eb 48                	jmp    10247f <irq_common_stub>

00102437 <irq11>:
  102437:	fa                   	cli    
  102438:	6a 00                	push   $0x0
  10243a:	6a 2b                	push   $0x2b
  10243c:	eb 41                	jmp    10247f <irq_common_stub>

0010243e <irq12>:
  10243e:	fa                   	cli    
  10243f:	6a 00                	push   $0x0
  102441:	6a 2c                	push   $0x2c
  102443:	eb 3a                	jmp    10247f <irq_common_stub>

00102445 <irq13>:
  102445:	fa                   	cli    
  102446:	6a 00                	push   $0x0
  102448:	6a 2d                	push   $0x2d
  10244a:	eb 33                	jmp    10247f <irq_common_stub>

0010244c <irq14>:
  10244c:	fa                   	cli    
  10244d:	6a 00                	push   $0x0
  10244f:	6a 2e                	push   $0x2e
  102451:	eb 2c                	jmp    10247f <irq_common_stub>

00102453 <irq15>:
  102453:	fa                   	cli    
  102454:	6a 00                	push   $0x0
  102456:	6a 2f                	push   $0x2f
  102458:	eb 25                	jmp    10247f <irq_common_stub>

0010245a <isr_common_stub>:
  10245a:	60                   	pusha  
  10245b:	66 8c d8             	mov    %ds,%ax
  10245e:	50                   	push   %eax
  10245f:	66 b8 10 00          	mov    $0x10,%ax
  102463:	8e d8                	mov    %eax,%ds
  102465:	8e c0                	mov    %eax,%es
  102467:	8e e0                	mov    %eax,%fs
  102469:	8e e8                	mov    %eax,%gs
  10246b:	e8 f2 f4 ff ff       	call   101962 <isr_handler>
  102470:	58                   	pop    %eax
  102471:	8e d8                	mov    %eax,%ds
  102473:	8e c0                	mov    %eax,%es
  102475:	8e e0                	mov    %eax,%fs
  102477:	8e e8                	mov    %eax,%gs
  102479:	61                   	popa   
  10247a:	83 c4 08             	add    $0x8,%esp
  10247d:	fb                   	sti    
  10247e:	cf                   	iret   

0010247f <irq_common_stub>:
  10247f:	60                   	pusha  
  102480:	66 8c d8             	mov    %ds,%ax
  102483:	50                   	push   %eax
  102484:	66 b8 10 00          	mov    $0x10,%ax
  102488:	8e d8                	mov    %eax,%ds
  10248a:	8e c0                	mov    %eax,%es
  10248c:	8e e0                	mov    %eax,%fs
  10248e:	8e e8                	mov    %eax,%gs
  102490:	e8 5a f5 ff ff       	call   1019ef <irq_handler>
  102495:	58                   	pop    %eax
  102496:	8e d8                	mov    %eax,%ds
  102498:	8e c0                	mov    %eax,%es
  10249a:	8e e0                	mov    %eax,%fs
  10249c:	8e e8                	mov    %eax,%gs
  10249e:	61                   	popa   
  10249f:	83 c4 08             	add    $0x8,%esp
  1024a2:	fb                   	sti    
  1024a3:	cf                   	iret   
  1024a4:	66 90                	xchg   %ax,%ax
  1024a6:	66 90                	xchg   %ax,%ax
  1024a8:	66 90                	xchg   %ax,%ax
  1024aa:	66 90                	xchg   %ax,%ax
  1024ac:	66 90                	xchg   %ax,%ax
  1024ae:	66 90                	xchg   %ax,%ax

001024b0 <_disable_lapic>:
  1024b0:	b9 1b 00 00 00       	mov    $0x1b,%ecx
  1024b5:	0f 32                	rdmsr  
  1024b7:	25 ff f7 00 00       	and    $0xf7ff,%eax
  1024bc:	0f 30                	wrmsr  
  1024be:	c3                   	ret    

Disassembly of section .rodata:

00103000 <.rodata>:
  103000:	6e                   	outsb  %ds:(%esi),(%dx)
  103001:	65 77 5f             	gs ja  103063 <_disable_lapic+0xbb3>
  103004:	73 69                	jae    10306f <_disable_lapic+0xbbf>
  103006:	7a 65                	jp     10306d <_disable_lapic+0xbbd>
  103008:	20 3e                	and    %bh,(%esi)
  10300a:	20 68 65             	and    %ch,0x65(%eax)
  10300d:	61                   	popa   
  10300e:	70 2d                	jo     10303d <_disable_lapic+0xb8d>
  103010:	3e 65 6e             	ds outsb %gs:(%esi),(%dx)
  103013:	64 5f                	fs pop %edi
  103015:	61                   	popa   
  103016:	64 64 72 65          	fs fs jb 10307f <_disable_lapic+0xbcf>
  10301a:	73 73                	jae    10308f <_disable_lapic+0xbdf>
  10301c:	20 2d 20 68 65 61    	and    %ch,0x61656820
  103022:	70 2d                	jo     103051 <_disable_lapic+0xba1>
  103024:	3e 73 74             	jae,pt 10309b <_disable_lapic+0xbeb>
  103027:	61                   	popa   
  103028:	72 74                	jb     10309e <_disable_lapic+0xbee>
  10302a:	5f                   	pop    %edi
  10302b:	61                   	popa   
  10302c:	64 64 72 65          	fs fs jb 103095 <_disable_lapic+0xbe5>
  103030:	73 73                	jae    1030a5 <_disable_lapic+0xbf5>
  103032:	00 73 72             	add    %dh,0x72(%ebx)
  103035:	63 2f                	arpl   %bp,(%edi)
  103037:	6b 65 72 6e          	imul   $0x6e,0x72(%ebp),%esp
  10303b:	65 6c                	gs insb (%dx),%es:(%edi)
  10303d:	2f                   	das    
  10303e:	6b 68 65 61          	imul   $0x61,0x65(%eax),%ebp
  103042:	70 2e                	jo     103072 <_disable_lapic+0xbc2>
  103044:	63 00                	arpl   %ax,(%eax)
  103046:	00 00                	add    %al,(%eax)
  103048:	68 65 61 70 2d       	push   $0x2d706165
  10304d:	3e 73 74             	jae,pt 1030c4 <_disable_lapic+0xc14>
  103050:	61                   	popa   
  103051:	72 74                	jb     1030c7 <_disable_lapic+0xc17>
  103053:	5f                   	pop    %edi
  103054:	61                   	popa   
  103055:	64 64 72 65          	fs fs jb 1030be <_disable_lapic+0xc0e>
  103059:	73 73                	jae    1030ce <_disable_lapic+0xc1e>
  10305b:	20 2b                	and    %ch,(%ebx)
  10305d:	20 6e 65             	and    %ch,0x65(%esi)
  103060:	77 5f                	ja     1030c1 <_disable_lapic+0xc11>
  103062:	73 69                	jae    1030cd <_disable_lapic+0xc1d>
  103064:	7a 65                	jp     1030cb <_disable_lapic+0xc1b>
  103066:	20 3c 3d 20 68 65 61 	and    %bh,0x61656820(,%edi,1)
  10306d:	70 2d                	jo     10309c <_disable_lapic+0xbec>
  10306f:	3e 6d                	ds insl (%dx),%es:(%edi)
  103071:	61                   	popa   
  103072:	78 5f                	js     1030d3 <_disable_lapic+0xc23>
  103074:	61                   	popa   
  103075:	64 64 72 65          	fs fs jb 1030de <_disable_lapic+0xc2e>
  103079:	73 73                	jae    1030ee <_disable_lapic+0xc3e>
  10307b:	00 62 65             	add    %ah,0x65(%edx)
  10307e:	66 6f                	outsw  %ds:(%esi),(%dx)
  103080:	72 65                	jb     1030e7 <_disable_lapic+0xc37>
  103082:	20 50 6c             	and    %dl,0x6c(%eax)
  103085:	61                   	popa   
  103086:	63 65 6d             	arpl   %sp,0x6d(%ebp)
  103089:	65 6e                	outsb  %gs:(%esi),(%dx)
  10308b:	74 5f                	je     1030ec <_disable_lapic+0xc3c>
  10308d:	61                   	popa   
  10308e:	64 64 72 65          	fs fs jb 1030f7 <_disable_lapic+0xc47>
  103092:	73 73                	jae    103107 <_disable_lapic+0xc57>
  103094:	20 69 73             	and    %ch,0x73(%ecx)
  103097:	20 3a                	and    %bh,(%edx)
  103099:	20 00                	and    %al,(%eax)
  10309b:	0a 00                	or     (%eax),%al
  10309d:	00 00                	add    %al,(%eax)
  10309f:	00 62 65             	add    %ah,0x65(%edx)
  1030a2:	66 6f                	outsw  %ds:(%esi),(%dx)
  1030a4:	72 65                	jb     10310b <_disable_lapic+0xc5b>
  1030a6:	20 61 6c             	and    %ah,0x6c(%ecx)
  1030a9:	69 67 6e 6d 65 6e 74 	imul   $0x746e656d,0x6e(%edi),%esp
  1030b0:	20 50 6c             	and    %dl,0x6c(%eax)
  1030b3:	61                   	popa   
  1030b4:	63 65 6d             	arpl   %sp,0x6d(%ebp)
  1030b7:	65 6e                	outsb  %gs:(%esi),(%dx)
  1030b9:	74 5f                	je     10311a <_disable_lapic+0xc6a>
  1030bb:	61                   	popa   
  1030bc:	64 64 72 65          	fs fs jb 103125 <_disable_lapic+0xc75>
  1030c0:	73 73                	jae    103135 <_disable_lapic+0xc85>
  1030c2:	20 69 73             	and    %ch,0x73(%ecx)
  1030c5:	20 3a                	and    %bh,(%edx)
  1030c7:	20 00                	and    %al,(%eax)
  1030c9:	00 00                	add    %al,(%eax)
  1030cb:	00 61 66             	add    %ah,0x66(%ecx)
  1030ce:	74 65                	je     103135 <_disable_lapic+0xc85>
  1030d0:	72 20                	jb     1030f2 <_disable_lapic+0xc42>
  1030d2:	61                   	popa   
  1030d3:	6c                   	insb   (%dx),%es:(%edi)
  1030d4:	69 67 6e 6d 65 6e 74 	imul   $0x746e656d,0x6e(%edi),%esp
  1030db:	20 50 6c             	and    %dl,0x6c(%eax)
  1030de:	61                   	popa   
  1030df:	63 65 6d             	arpl   %sp,0x6d(%ebp)
  1030e2:	65 6e                	outsb  %gs:(%esi),(%dx)
  1030e4:	74 5f                	je     103145 <_disable_lapic+0xc95>
  1030e6:	61                   	popa   
  1030e7:	64 64 72 65          	fs fs jb 103150 <_disable_lapic+0xca0>
  1030eb:	73 73                	jae    103160 <_disable_lapic+0xcb0>
  1030ed:	20 69 73             	and    %ch,0x73(%ecx)
  1030f0:	20 3a                	and    %bh,(%edx)
  1030f2:	20 00                	and    %al,(%eax)
  1030f4:	4e                   	dec    %esi
  1030f5:	6f                   	outsl  %ds:(%esi),(%dx)
  1030f6:	20 66 72             	and    %ah,0x72(%esi)
  1030f9:	65 65 20 66 72       	gs and %ah,%gs:0x72(%esi)
  1030fe:	61                   	popa   
  1030ff:	6d                   	insl   (%dx),%es:(%edi)
  103100:	65 73 21             	gs jae 103124 <_disable_lapic+0xc74>
  103103:	0a 00                	or     (%eax),%al
  103105:	6b 68 65 61          	imul   $0x61,0x65(%eax),%ebp
  103109:	70 3a                	jo     103145 <_disable_lapic+0xc95>
  10310b:	20 00                	and    %al,(%eax)
  10310d:	0a 00                	or     (%eax),%al
  10310f:	00 62 65             	add    %ah,0x65(%edx)
  103112:	66 6f                	outsw  %ds:(%esi),(%dx)
  103114:	72 65                	jb     10317b <_disable_lapic+0xccb>
  103116:	20 61 6c             	and    %ah,0x6c(%ecx)
  103119:	6c                   	insb   (%dx),%es:(%edi)
  10311a:	6f                   	outsl  %ds:(%esi),(%dx)
  10311b:	63 61 74             	arpl   %sp,0x74(%ecx)
  10311e:	69 6e 67 20 66 6f 72 	imul   $0x726f6620,0x67(%esi),%ebp
  103125:	20 62 69             	and    %ah,0x69(%edx)
  103128:	74 6d                	je     103197 <_disable_lapic+0xce7>
  10312a:	61                   	popa   
  10312b:	70 3a                	jo     103167 <_disable_lapic+0xcb7>
  10312d:	20 00                	and    %al,(%eax)
  10312f:	61                   	popa   
  103130:	66 74 65             	data16 je 103198 <_disable_lapic+0xce8>
  103133:	72 20                	jb     103155 <_disable_lapic+0xca5>
  103135:	61                   	popa   
  103136:	6c                   	insb   (%dx),%es:(%edi)
  103137:	6c                   	insb   (%dx),%es:(%edi)
  103138:	6f                   	outsl  %ds:(%esi),(%dx)
  103139:	63 61 74             	arpl   %sp,0x74(%ecx)
  10313c:	69 6e 67 20 66 6f 72 	imul   $0x726f6620,0x67(%esi),%ebp
  103143:	20 62 69             	and    %ah,0x69(%edx)
  103146:	74 6d                	je     1031b5 <_disable_lapic+0xd05>
  103148:	61                   	popa   
  103149:	70 3a                	jo     103185 <_disable_lapic+0xcd5>
  10314b:	20 00                	and    %al,(%eax)
  10314d:	00 00                	add    %al,(%eax)
  10314f:	00 62 65             	add    %ah,0x65(%edx)
  103152:	66 6f                	outsw  %ds:(%esi),(%dx)
  103154:	72 65                	jb     1031bb <_disable_lapic+0xd0b>
  103156:	20 61 6c             	and    %ah,0x6c(%ecx)
  103159:	6c                   	insb   (%dx),%es:(%edi)
  10315a:	6f                   	outsl  %ds:(%esi),(%dx)
  10315b:	63 61 74             	arpl   %sp,0x74(%ecx)
  10315e:	69 6e 67 20 66 6f 72 	imul   $0x726f6620,0x67(%esi),%ebp
  103165:	20 6b 65             	and    %ch,0x65(%ebx)
  103168:	72 6e                	jb     1031d8 <_disable_lapic+0xd28>
  10316a:	65 6c                	gs insb (%dx),%es:(%edi)
  10316c:	5f                   	pop    %edi
  10316d:	70 61                	jo     1031d0 <_disable_lapic+0xd20>
  10316f:	67 65 5f             	addr16 gs pop %edi
  103172:	64 69 72 65 63 74 6f 	imul   $0x726f7463,%fs:0x65(%edx),%esi
  103179:	72 
  10317a:	79 3a                	jns    1031b6 <_disable_lapic+0xd06>
  10317c:	20 00                	and    %al,(%eax)
  10317e:	61                   	popa   
  10317f:	6c                   	insb   (%dx),%es:(%edi)
  103180:	6c                   	insb   (%dx),%es:(%edi)
  103181:	6f                   	outsl  %ds:(%esi),(%dx)
  103182:	63 61 74             	arpl   %sp,0x74(%ecx)
  103185:	65 20 6b 65          	and    %ch,%gs:0x65(%ebx)
  103189:	72 6e                	jb     1031f9 <_disable_lapic+0xd49>
  10318b:	61                   	popa   
  10318c:	6c                   	insb   (%dx),%es:(%edi)
  10318d:	5f                   	pop    %edi
  10318e:	64 69 72 65 63 74 6f 	imul   $0x726f7463,%fs:0x65(%edx),%esi
  103195:	72 
  103196:	79 3a                	jns    1031d2 <_disable_lapic+0xd22>
  103198:	20 00                	and    %al,(%eax)
  10319a:	00 00                	add    %al,(%eax)
  10319c:	61                   	popa   
  10319d:	66 74 65             	data16 je 103205 <_disable_lapic+0xd55>
  1031a0:	72 20                	jb     1031c2 <_disable_lapic+0xd12>
  1031a2:	61                   	popa   
  1031a3:	6c                   	insb   (%dx),%es:(%edi)
  1031a4:	6c                   	insb   (%dx),%es:(%edi)
  1031a5:	6f                   	outsl  %ds:(%esi),(%dx)
  1031a6:	63 61 74             	arpl   %sp,0x74(%ecx)
  1031a9:	69 6e 67 20 66 6f 72 	imul   $0x726f6620,0x67(%esi),%ebp
  1031b0:	20 6b 65             	and    %ch,0x65(%ebx)
  1031b3:	72 6e                	jb     103223 <_disable_lapic+0xd73>
  1031b5:	65 6c                	gs insb (%dx),%es:(%edi)
  1031b7:	5f                   	pop    %edi
  1031b8:	70 61                	jo     10321b <_disable_lapic+0xd6b>
  1031ba:	67 65 5f             	addr16 gs pop %edi
  1031bd:	64 69 72 65 63 74 6f 	imul   $0x726f7463,%fs:0x65(%edx),%esi
  1031c4:	72 
  1031c5:	79 3a                	jns    103201 <_disable_lapic+0xd51>
  1031c7:	20 00                	and    %al,(%eax)
  1031c9:	00 00                	add    %al,(%eax)
  1031cb:	00 61 66             	add    %ah,0x66(%ecx)
  1031ce:	74 65                	je     103235 <_disable_lapic+0xd85>
  1031d0:	72 20                	jb     1031f2 <_disable_lapic+0xd42>
  1031d2:	70 61                	jo     103235 <_disable_lapic+0xd85>
  1031d4:	67 65 20 6d 61       	and    %ch,%gs:0x61(%di)
  1031d9:	70 70                	jo     10324b <_disable_lapic+0xd9b>
  1031db:	69 6e 67 20 74 6f 20 	imul   $0x206f7420,0x67(%esi),%ebp
  1031e2:	66 72 61             	data16 jb 103246 <_disable_lapic+0xd96>
  1031e5:	6d                   	insl   (%dx),%es:(%edi)
  1031e6:	65 2c 20             	gs sub $0x20,%al
  1031e9:	6b 65 72 6e          	imul   $0x6e,0x72(%ebp),%esp
  1031ed:	65 6c                	gs insb (%dx),%es:(%edi)
  1031ef:	5f                   	pop    %edi
  1031f0:	64 69 72 65 63 74 6f 	imul   $0x726f7463,%fs:0x65(%edx),%esi
  1031f7:	72 
  1031f8:	79 20                	jns    10321a <_disable_lapic+0xd6a>
  1031fa:	69 73 20 3a 20 00 73 	imul   $0x7300203a,0x20(%ebx),%esi
  103201:	74 61                	je     103264 <_disable_lapic+0xdb4>
  103203:	72 74                	jb     103279 <_disable_lapic+0xdc9>
  103205:	20 74 6f 20          	and    %dh,0x20(%edi,%ebp,2)
  103209:	72 65                	jb     103270 <_disable_lapic+0xdc0>
  10320b:	67 69 73 74 65 72 20 	imul   $0x70207265,0x74(%bp,%di),%esi
  103212:	70 
  103213:	61                   	popa   
  103214:	67 65 2d 66 61 75 6c 	addr16 gs sub $0x6c756166,%eax
  10321b:	74 0a                	je     103227 <_disable_lapic+0xd77>
  10321d:	00 00                	add    %al,(%eax)
  10321f:	00 73 74             	add    %dh,0x74(%ebx)
  103222:	61                   	popa   
  103223:	72 74                	jb     103299 <_disable_lapic+0xde9>
  103225:	69 6e 67 20 74 6f 20 	imul   $0x206f7420,0x67(%esi),%ebp
  10322c:	65 6e                	outsb  %gs:(%esi),(%dx)
  10322e:	61                   	popa   
  10322f:	62 6c 65 20          	bound  %ebp,0x20(%ebp,%eiz,2)
  103233:	70 61                	jo     103296 <_disable_lapic+0xde6>
  103235:	67 65 2c 20          	addr16 gs sub $0x20,%al
  103239:	6b 65 72 6e          	imul   $0x6e,0x72(%ebp),%esp
  10323d:	65 6c                	gs insb (%dx),%es:(%edi)
  10323f:	5f                   	pop    %edi
  103240:	64 69 72 65 63 74 6f 	imul   $0x726f7463,%fs:0x65(%edx),%esi
  103247:	72 
  103248:	79 20                	jns    10326a <_disable_lapic+0xdba>
  10324a:	69 73 20 3a 20 00 66 	imul   $0x6600203a,0x20(%ebx),%esi
  103251:	69 6e 69 73 68 65 64 	imul   $0x64656873,0x69(%esi),%ebp
  103258:	20 65 6e             	and    %ah,0x6e(%ebp)
  10325b:	61                   	popa   
  10325c:	62 6c 69 6e          	bound  %ebp,0x6e(%ecx,%ebp,2)
  103260:	67 20 70 61          	and    %dh,0x61(%bx,%si)
  103264:	67 65 0a 00          	or     %gs:(%bx,%si),%al
  103268:	62 65 66             	bound  %esp,0x66(%ebp)
  10326b:	6f                   	outsl  %ds:(%esi),(%dx)
  10326c:	72 65                	jb     1032d3 <_disable_lapic+0xe23>
  10326e:	20 65 6e             	and    %ah,0x6e(%ebp)
  103271:	61                   	popa   
  103272:	62 6c 65 20          	bound  %ebp,0x20(%ebp,%eiz,2)
  103276:	70 61                	jo     1032d9 <_disable_lapic+0xe29>
  103278:	67 69 6e 67 2c 20 63 	imul   $0x7263202c,0x67(%bp),%ebp
  10327f:	72 
  103280:	30 20                	xor    %ah,(%eax)
  103282:	69 73 20 3a 20 00 20 	imul   $0x2000203a,0x20(%ebx),%esi
  103289:	63 72 20             	arpl   %si,0x20(%edx)
  10328c:	0a 00                	or     (%eax),%al
  10328e:	61                   	popa   
  10328f:	66 74 65             	data16 je 1032f7 <_disable_lapic+0xe47>
  103292:	72 20                	jb     1032b4 <_disable_lapic+0xe04>
  103294:	65 6e                	outsb  %gs:(%esi),(%dx)
  103296:	61                   	popa   
  103297:	62 6c 65 20          	bound  %ebp,0x20(%ebp,%eiz,2)
  10329b:	70 61                	jo     1032fe <_disable_lapic+0xe4e>
  10329d:	67 69 6e 67 0a 00 00 	imul   $0x6200000a,0x67(%bp),%ebp
  1032a4:	62 
  1032a5:	65 66 6f             	outsw  %gs:(%esi),(%dx)
  1032a8:	72 65                	jb     10330f <_disable_lapic+0xe5f>
  1032aa:	20 73 65             	and    %dh,0x65(%ebx)
  1032ad:	74 75                	je     103324 <_disable_lapic+0xe74>
  1032af:	70 20                	jo     1032d1 <_disable_lapic+0xe21>
  1032b1:	70 61                	jo     103314 <_disable_lapic+0xe64>
  1032b3:	67 65 20 74 61       	and    %dh,%gs:0x61(%si)
  1032b8:	62 6c 65 2c          	bound  %ebp,0x2c(%ebp,%eiz,2)
  1032bc:	20 70 6c             	and    %dh,0x6c(%eax)
  1032bf:	61                   	popa   
  1032c0:	63 65 6d             	arpl   %sp,0x6d(%ebp)
  1032c3:	65 6e                	outsb  %gs:(%esi),(%dx)
  1032c5:	74 5f                	je     103326 <_disable_lapic+0xe76>
  1032c7:	61                   	popa   
  1032c8:	64 64 72 65          	fs fs jb 103331 <_disable_lapic+0xe81>
  1032cc:	73 73                	jae    103341 <_disable_lapic+0xe91>
  1032ce:	20 69 73             	and    %ch,0x73(%ecx)
  1032d1:	20 3a                	and    %bh,(%edx)
  1032d3:	20 00                	and    %al,(%eax)
  1032d5:	00 00                	add    %al,(%eax)
  1032d7:	00 61 66             	add    %ah,0x66(%ecx)
  1032da:	74 65                	je     103341 <_disable_lapic+0xe91>
  1032dc:	72 20                	jb     1032fe <_disable_lapic+0xe4e>
  1032de:	73 65                	jae    103345 <_disable_lapic+0xe95>
  1032e0:	74 75                	je     103357 <_disable_lapic+0xea7>
  1032e2:	70 20                	jo     103304 <_disable_lapic+0xe54>
  1032e4:	70 61                	jo     103347 <_disable_lapic+0xe97>
  1032e6:	67 65 20 74 61       	and    %dh,%gs:0x61(%si)
  1032eb:	62 6c 65 2c          	bound  %ebp,0x2c(%ebp,%eiz,2)
  1032ef:	20 70 6c             	and    %dh,0x6c(%eax)
  1032f2:	61                   	popa   
  1032f3:	63 65 6d             	arpl   %sp,0x6d(%ebp)
  1032f6:	65 6e                	outsb  %gs:(%esi),(%dx)
  1032f8:	74 5f                	je     103359 <_disable_lapic+0xea9>
  1032fa:	61                   	popa   
  1032fb:	64 64 72 65          	fs fs jb 103364 <_disable_lapic+0xeb4>
  1032ff:	73 73                	jae    103374 <_disable_lapic+0xec4>
  103301:	20 69 73             	and    %ch,0x73(%ecx)
  103304:	20 3a                	and    %bh,(%edx)
  103306:	20 00                	and    %al,(%eax)
  103308:	50                   	push   %eax
  103309:	61                   	popa   
  10330a:	67 65 20 66 61       	and    %ah,%gs:0x61(%bp)
  10330f:	75 6c                	jne    10337d <_disable_lapic+0xecd>
  103311:	74 20                	je     103333 <_disable_lapic+0xe83>
  103313:	61                   	popa   
  103314:	74 20                	je     103336 <_disable_lapic+0xe86>
  103316:	3a 20                	cmp    (%eax),%ah
  103318:	00 57 65             	add    %dl,0x65(%edi)
  10331b:	6c                   	insb   (%dx),%es:(%edi)
  10331c:	63 6f 6d             	arpl   %bp,0x6d(%edi)
  10331f:	65 20 74 6f 20       	and    %dh,%gs:0x20(%edi,%ebp,2)
  103324:	6d                   	insl   (%dx),%es:(%edi)
  103325:	79 20                	jns    103347 <_disable_lapic+0xe97>
  103327:	6f                   	outsl  %ds:(%esi),(%dx)
  103328:	73 21                	jae    10334b <_disable_lapic+0xe9b>
  10332a:	0a 00                	or     (%eax),%al
  10332c:	4d                   	dec    %ebp
  10332d:	6f                   	outsl  %ds:(%esi),(%dx)
  10332e:	64 75 6c             	fs jne 10339d <_disable_lapic+0xeed>
  103331:	65 20 61 64          	and    %ah,%gs:0x64(%ecx)
  103335:	64 72 65             	fs jb  10339d <_disable_lapic+0xeed>
  103338:	73 73                	jae    1033ad <_disable_lapic+0xefd>
  10333a:	20 69 73             	and    %ch,0x73(%ecx)
  10333d:	20 3a                	and    %bh,(%edx)
  10333f:	20 00                	and    %al,(%eax)
  103341:	0a 00                	or     (%eax),%al
  103343:	62 3a                	bound  %edi,(%edx)
  103345:	20 00                	and    %al,(%eax)
  103347:	63 3a                	arpl   %di,(%edx)
  103349:	20 00                	and    %al,(%eax)
  10334b:	00 44 65 74          	add    %al,0x74(%ebp,%eiz,2)
  10334f:	65 63 74 65 64       	arpl   %si,%gs:0x64(%ebp,%eiz,2)
  103354:	20 4c 41 50          	and    %cl,0x50(%ecx,%eax,2)
  103358:	49                   	dec    %ecx
  103359:	43                   	inc    %ebx
  10335a:	2c 20                	sub    $0x20,%al
  10335c:	77 69                	ja     1033c7 <_disable_lapic+0xf17>
  10335e:	6c                   	insb   (%dx),%es:(%edi)
  10335f:	6c                   	insb   (%dx),%es:(%edi)
  103360:	20 64 69 73          	and    %ah,0x73(%ecx,%ebp,2)
  103364:	61                   	popa   
  103365:	62 6c 65 20          	bound  %ebp,0x20(%ebp,%eiz,2)
  103369:	69 74 2e 0a 00 4c 41 	imul   $0x50414c00,0xa(%esi,%ebp,1),%esi
  103370:	50 
  103371:	49                   	dec    %ecx
  103372:	43                   	inc    %ebx
  103373:	20 69 73             	and    %ch,0x73(%ecx)
  103376:	20 64 69 73          	and    %ah,0x73(%ecx,%ebp,2)
  10337a:	61                   	popa   
  10337b:	62 6c 65 64          	bound  %ebp,0x64(%ebp,%eiz,2)
  10337f:	2e 0a 00             	or     %cs:(%eax),%al
  103382:	4e                   	dec    %esi
  103383:	6f                   	outsl  %ds:(%esi),(%dx)
  103384:	20 4d 53             	and    %cl,0x53(%ebp)
  103387:	52                   	push   %edx
  103388:	20 64 65 74          	and    %ah,0x74(%ebp,%eiz,2)
  10338c:	65 63 74 65 64       	arpl   %si,%gs:0x64(%ebp,%eiz,2)
  103391:	2e 0a 00             	or     %cs:(%eax),%al
  103394:	49                   	dec    %ecx
  103395:	73 72                	jae    103409 <_disable_lapic+0xf59>
  103397:	20 3a                	and    %bh,(%edx)
  103399:	20 00                	and    %al,(%eax)
  10339b:	20 69 73             	and    %ch,0x73(%ecx)
  10339e:	20 6e 6f             	and    %ch,0x6f(%esi)
  1033a1:	74 20                	je     1033c3 <_disable_lapic+0xf13>
  1033a3:	68 61 6e 64 6c       	push   $0x6c646e61
  1033a8:	65 64 0a 00          	gs or  %fs:(%eax),%al
  1033ac:	49                   	dec    %ecx
  1033ad:	6e                   	outsb  %ds:(%esi),(%dx)
  1033ae:	74 65                	je     103415 <_disable_lapic+0xf65>
  1033b0:	72 72                	jb     103424 <_disable_lapic+0xf74>
  1033b2:	75 70                	jne    103424 <_disable_lapic+0xf74>
  1033b4:	74 20                	je     1033d6 <_disable_lapic+0xf26>
  1033b6:	3a 20                	cmp    (%eax),%ah
  1033b8:	00 49 6e             	add    %cl,0x6e(%ecx)
  1033bb:	74 65                	je     103422 <_disable_lapic+0xf72>
  1033bd:	72 72                	jb     103431 <_disable_lapic+0xf81>
  1033bf:	75 70                	jne    103431 <_disable_lapic+0xf81>
  1033c1:	74 20                	je     1033e3 <_disable_lapic+0xf33>
  1033c3:	3a 20                	cmp    (%eax),%ah
  1033c5:	00 0a                	add    %cl,(%edx)
  1033c7:	00 53 63             	add    %dl,0x63(%ebx)
  1033ca:	61                   	popa   
  1033cb:	6e                   	outsb  %ds:(%esi),(%dx)
  1033cc:	63 6f 64             	arpl   %bp,0x64(%edi)
  1033cf:	65 20 69 73          	and    %ch,%gs:0x73(%ecx)
  1033d3:	20 3a                	and    %bh,(%edx)
  1033d5:	20 00                	and    %al,(%eax)
  1033d7:	20 20                	and    %ah,(%eax)
  1033d9:	00 54 69 63          	add    %dl,0x63(%ecx,%ebp,2)
  1033dd:	6b 3a 20             	imul   $0x20,(%edx),%edi
  1033e0:	00 0a                	add    %cl,(%edx)
  1033e2:	00 61 72             	add    %ah,0x72(%ecx)
  1033e5:	72 61                	jb     103448 <_disable_lapic+0xf98>
  1033e7:	79 2d                	jns    103416 <_disable_lapic+0xf66>
  1033e9:	3e 73 69             	jae,pt 103455 <_disable_lapic+0xfa5>
  1033ec:	7a 65                	jp     103453 <_disable_lapic+0xfa3>
  1033ee:	3c 3d                	cmp    $0x3d,%al
  1033f0:	61                   	popa   
  1033f1:	72 72                	jb     103465 <_disable_lapic+0xfb5>
  1033f3:	61                   	popa   
  1033f4:	79 2d                	jns    103423 <_disable_lapic+0xf73>
  1033f6:	3e 6d                	ds insl (%dx),%es:(%edi)
  1033f8:	61                   	popa   
  1033f9:	78 5f                	js     10345a <_disable_lapic+0xfaa>
  1033fb:	73 69                	jae    103466 <_disable_lapic+0xfb6>
  1033fd:	7a 65                	jp     103464 <_disable_lapic+0xfb4>
  1033ff:	00 73 72             	add    %dh,0x72(%ebx)
  103402:	63 2f                	arpl   %bp,(%edi)
  103404:	63 6f 6d             	arpl   %bp,0x6d(%edi)
  103407:	6d                   	insl   (%dx),%es:(%edi)
  103408:	6f                   	outsl  %ds:(%esi),(%dx)
  103409:	6e                   	outsb  %ds:(%esi),(%dx)
  10340a:	2f                   	das    
  10340b:	6f                   	outsl  %ds:(%esi),(%dx)
  10340c:	72 64                	jb     103472 <_disable_lapic+0xfc2>
  10340e:	65 72 65             	gs jb  103476 <_disable_lapic+0xfc6>
  103411:	64 5f                	fs pop %edi
  103413:	61                   	popa   
  103414:	72 72                	jb     103488 <_disable_lapic+0xfd8>
  103416:	61                   	popa   
  103417:	79 2e                	jns    103447 <_disable_lapic+0xf97>
  103419:	63 00                	arpl   %ax,(%eax)
  10341b:	69 20 3c 20 61 72    	imul   $0x7261203c,(%eax),%esp
  103421:	72 61                	jb     103484 <_disable_lapic+0xfd4>
  103423:	79 2d                	jns    103452 <_disable_lapic+0xfa2>
  103425:	3e 73 69             	jae,pt 103491 <_disable_lapic+0xfe1>
  103428:	7a 65                	jp     10348f <_disable_lapic+0xfdf>
  10342a:	00 50 41             	add    %dl,0x41(%eax)
  10342d:	4e                   	dec    %esi
  10342e:	49                   	dec    %ecx
  10342f:	43                   	inc    %ebx
  103430:	28 00                	sub    %al,(%eax)
  103432:	29 20                	sub    %esp,(%eax)
  103434:	61                   	popa   
  103435:	74 20                	je     103457 <_disable_lapic+0xfa7>
  103437:	00 3a                	add    %bh,(%edx)
  103439:	00 0a                	add    %cl,(%edx)
  10343b:	00 41 53             	add    %al,0x53(%ecx)
  10343e:	53                   	push   %ebx
  10343f:	45                   	inc    %ebp
  103440:	52                   	push   %edx
  103441:	54                   	push   %esp
  103442:	49                   	dec    %ecx
  103443:	4f                   	dec    %edi
  103444:	4e                   	dec    %esi
  103445:	2d 46 41 49 4c       	sub    $0x4c494146,%eax
  10344a:	45                   	inc    %ebp
  10344b:	44                   	inc    %esp
  10344c:	28 00                	sub    %al,(%eax)

Disassembly of section .eh_frame:

00103450 <.eh_frame>:
  103450:	14 00                	adc    $0x0,%al
  103452:	00 00                	add    %al,(%eax)
  103454:	00 00                	add    %al,(%eax)
  103456:	00 00                	add    %al,(%eax)
  103458:	01 7a 52             	add    %edi,0x52(%edx)
  10345b:	00 01                	add    %al,(%ecx)
  10345d:	7c 08                	jl     103467 <_disable_lapic+0xfb7>
  10345f:	01 1b                	add    %ebx,(%ebx)
  103461:	0c 04                	or     $0x4,%al
  103463:	04 88                	add    $0x88,%al
  103465:	01 00                	add    %eax,(%eax)
  103467:	00 24 00             	add    %ah,(%eax,%eax,1)
  10346a:	00 00                	add    %al,(%eax)
  10346c:	1c 00                	sbb    $0x0,%al
  10346e:	00 00                	add    %al,(%eax)
  103470:	a9 cb ff ff 08       	test   $0x8ffffcb,%eax
  103475:	01 00                	add    %eax,(%eax)
  103477:	00 00                	add    %al,(%eax)
  103479:	41                   	inc    %ecx
  10347a:	0e                   	push   %cs
  10347b:	08 85 02 42 0d 05    	or     %al,0x50d4202(%ebp)
  103481:	45                   	inc    %ebp
  103482:	86 03                	xchg   %al,(%ebx)
  103484:	83 04 02 fd          	addl   $0xfffffffd,(%edx,%eax,1)
  103488:	c3                   	ret    
  103489:	41                   	inc    %ecx
  10348a:	c6 41 c5 0c          	movb   $0xc,-0x3b(%ecx)
  10348e:	04 04                	add    $0x4,%al
  103490:	1c 00                	sbb    $0x0,%al
  103492:	00 00                	add    %al,(%eax)
  103494:	44                   	inc    %esp
  103495:	00 00                	add    %al,(%eax)
  103497:	00 89 cc ff ff b5    	add    %cl,-0x4a000034(%ecx)
  10349d:	01 00                	add    %eax,(%eax)
  10349f:	00 00                	add    %al,(%eax)
  1034a1:	41                   	inc    %ecx
  1034a2:	0e                   	push   %cs
  1034a3:	08 85 02 42 0d 05    	or     %al,0x50d4202(%ebp)
  1034a9:	03 b1 01 c5 0c 04    	add    0x40cc501(%ecx),%esi
  1034af:	04 1c                	add    $0x1c,%al
  1034b1:	00 00                	add    %al,(%eax)
  1034b3:	00 64 00 00          	add    %ah,0x0(%eax,%eax,1)
  1034b7:	00 1e                	add    %bl,(%esi)
  1034b9:	ce                   	into   
  1034ba:	ff                   	(bad)  
  1034bb:	ff 1a                	lcall  *(%edx)
  1034bd:	00 00                	add    %al,(%eax)
  1034bf:	00 00                	add    %al,(%eax)
  1034c1:	41                   	inc    %ecx
  1034c2:	0e                   	push   %cs
  1034c3:	08 85 02 42 0d 05    	or     %al,0x50d4202(%ebp)
  1034c9:	56                   	push   %esi
  1034ca:	c5 0c 04             	lds    (%esp,%eax,1),%ecx
  1034cd:	04 00                	add    $0x0,%al
  1034cf:	00 1c 00             	add    %bl,(%eax,%eax,1)
  1034d2:	00 00                	add    %al,(%eax)
  1034d4:	84 00                	test   %al,(%eax)
  1034d6:	00 00                	add    %al,(%eax)
  1034d8:	18 ce                	sbb    %cl,%dh
  1034da:	ff                   	(bad)  
  1034db:	ff 1a                	lcall  *(%edx)
  1034dd:	00 00                	add    %al,(%eax)
  1034df:	00 00                	add    %al,(%eax)
  1034e1:	41                   	inc    %ecx
  1034e2:	0e                   	push   %cs
  1034e3:	08 85 02 42 0d 05    	or     %al,0x50d4202(%ebp)
  1034e9:	56                   	push   %esi
  1034ea:	c5 0c 04             	lds    (%esp,%eax,1),%ecx
  1034ed:	04 00                	add    $0x0,%al
  1034ef:	00 1c 00             	add    %bl,(%eax,%eax,1)
  1034f2:	00 00                	add    %al,(%eax)
  1034f4:	a4                   	movsb  %ds:(%esi),%es:(%edi)
  1034f5:	00 00                	add    %al,(%eax)
  1034f7:	00 12                	add    %dl,(%edx)
  1034f9:	ce                   	into   
  1034fa:	ff                   	(bad)  
  1034fb:	ff 1b                	lcall  *(%ebx)
  1034fd:	00 00                	add    %al,(%eax)
  1034ff:	00 00                	add    %al,(%eax)
  103501:	41                   	inc    %ecx
  103502:	0e                   	push   %cs
  103503:	08 85 02 42 0d 05    	or     %al,0x50d4202(%ebp)
  103509:	57                   	push   %edi
  10350a:	c5 0c 04             	lds    (%esp,%eax,1),%ecx
  10350d:	04 00                	add    $0x0,%al
  10350f:	00 1c 00             	add    %bl,(%eax,%eax,1)
  103512:	00 00                	add    %al,(%eax)
  103514:	c4 00                	les    (%eax),%eax
  103516:	00 00                	add    %al,(%eax)
  103518:	0d ce ff ff 1b       	or     $0x1bffffce,%eax
  10351d:	00 00                	add    %al,(%eax)
  10351f:	00 00                	add    %al,(%eax)
  103521:	41                   	inc    %ecx
  103522:	0e                   	push   %cs
  103523:	08 85 02 42 0d 05    	or     %al,0x50d4202(%ebp)
  103529:	57                   	push   %edi
  10352a:	c5 0c 04             	lds    (%esp,%eax,1),%ecx
  10352d:	04 00                	add    $0x0,%al
  10352f:	00 1c 00             	add    %bl,(%eax,%eax,1)
  103532:	00 00                	add    %al,(%eax)
  103534:	e4 00                	in     $0x0,%al
  103536:	00 00                	add    %al,(%eax)
  103538:	08 ce                	or     %cl,%dh
  10353a:	ff                   	(bad)  
  10353b:	ff ad 00 00 00 00    	ljmp   *0x0(%ebp)
  103541:	41                   	inc    %ecx
  103542:	0e                   	push   %cs
  103543:	08 85 02 42 0d 05    	or     %al,0x50d4202(%ebp)
  103549:	02 a9 c5 0c 04 04    	add    0x4040cc5(%ecx),%ch
  10354f:	00 1c 00             	add    %bl,(%eax,%eax,1)
  103552:	00 00                	add    %al,(%eax)
  103554:	04 01                	add    $0x1,%al
  103556:	00 00                	add    %al,(%eax)
  103558:	95                   	xchg   %eax,%ebp
  103559:	ce                   	into   
  10355a:	ff                   	(bad)  
  10355b:	ff 16                	call   *(%esi)
  10355d:	00 00                	add    %al,(%eax)
  10355f:	00 00                	add    %al,(%eax)
  103561:	41                   	inc    %ecx
  103562:	0e                   	push   %cs
  103563:	08 85 02 42 0d 05    	or     %al,0x50d4202(%ebp)
  103569:	52                   	push   %edx
  10356a:	c5 0c 04             	lds    (%esp,%eax,1),%ecx
  10356d:	04 00                	add    $0x0,%al
  10356f:	00 20                	add    %ah,(%eax)
  103571:	00 00                	add    %al,(%eax)
  103573:	00 24 01             	add    %ah,(%ecx,%eax,1)
  103576:	00 00                	add    %al,(%eax)
  103578:	8b ce                	mov    %esi,%ecx
  10357a:	ff                   	(bad)  
  10357b:	ff e3                	jmp    *%ebx
  10357d:	00 00                	add    %al,(%eax)
  10357f:	00 00                	add    %al,(%eax)
  103581:	41                   	inc    %ecx
  103582:	0e                   	push   %cs
  103583:	08 85 02 42 0d 05    	or     %al,0x50d4202(%ebp)
  103589:	44                   	inc    %esp
  10358a:	83 03 02             	addl   $0x2,(%ebx)
  10358d:	db c5                	fcmovnb %st(5),%st
  10358f:	c3                   	ret    
  103590:	0c 04                	or     $0x4,%al
  103592:	04 00                	add    $0x0,%al
  103594:	1c 00                	sbb    $0x0,%al
  103596:	00 00                	add    %al,(%eax)
  103598:	48                   	dec    %eax
  103599:	01 00                	add    %eax,(%eax)
  10359b:	00 4a cf             	add    %cl,-0x31(%edx)
  10359e:	ff                   	(bad)  
  10359f:	ff 20                	jmp    *(%eax)
  1035a1:	03 00                	add    (%eax),%eax
  1035a3:	00 00                	add    %al,(%eax)
  1035a5:	41                   	inc    %ecx
  1035a6:	0e                   	push   %cs
  1035a7:	08 85 02 42 0d 05    	or     %al,0x50d4202(%ebp)
  1035ad:	03 1c 03             	add    (%ebx,%eax,1),%ebx
  1035b0:	c5 0c 04             	lds    (%esp,%eax,1),%ecx
  1035b3:	04 20                	add    $0x20,%al
  1035b5:	00 00                	add    %al,(%eax)
  1035b7:	00 68 01             	add    %ch,0x1(%eax)
  1035ba:	00 00                	add    %al,(%eax)
  1035bc:	4a                   	dec    %edx
  1035bd:	d2 ff                	sar    %cl,%bh
  1035bf:	ff 59 00             	lcall  *0x0(%ecx)
  1035c2:	00 00                	add    %al,(%eax)
  1035c4:	00 41 0e             	add    %al,0xe(%ecx)
  1035c7:	08 85 02 42 0d 05    	or     %al,0x50d4202(%ebp)
  1035cd:	44                   	inc    %esp
  1035ce:	83 03 02             	addl   $0x2,(%ebx)
  1035d1:	50                   	push   %eax
  1035d2:	c3                   	ret    
  1035d3:	41                   	inc    %ecx
  1035d4:	c5 0c 04             	lds    (%esp,%eax,1),%ecx
  1035d7:	04 20                	add    $0x20,%al
  1035d9:	00 00                	add    %al,(%eax)
  1035db:	00 8c 01 00 00 7f d2 	add    %cl,-0x2d810000(%ecx,%eax,1)
  1035e2:	ff                   	(bad)  
  1035e3:	ff 5b 00             	lcall  *0x0(%ebx)
  1035e6:	00 00                	add    %al,(%eax)
  1035e8:	00 41 0e             	add    %al,0xe(%ecx)
  1035eb:	08 85 02 42 0d 05    	or     %al,0x50d4202(%ebp)
  1035f1:	44                   	inc    %esp
  1035f2:	83 03 02             	addl   $0x2,(%ebx)
  1035f5:	52                   	push   %edx
  1035f6:	c3                   	ret    
  1035f7:	41                   	inc    %ecx
  1035f8:	c5 0c 04             	lds    (%esp,%eax,1),%ecx
  1035fb:	04 20                	add    $0x20,%al
  1035fd:	00 00                	add    %al,(%eax)
  1035ff:	00 b0 01 00 00 b6    	add    %dh,-0x49ffffff(%eax)
  103605:	d2 ff                	sar    %cl,%bh
  103607:	ff 47 00             	incl   0x0(%edi)
  10360a:	00 00                	add    %al,(%eax)
  10360c:	00 41 0e             	add    %al,0xe(%ecx)
  10360f:	08 85 02 42 0d 05    	or     %al,0x50d4202(%ebp)
  103615:	44                   	inc    %esp
  103616:	83 03 7e             	addl   $0x7e,(%ebx)
  103619:	c3                   	ret    
  10361a:	41                   	inc    %ecx
  10361b:	c5 0c 04             	lds    (%esp,%eax,1),%ecx
  10361e:	04 00                	add    $0x0,%al
  103620:	20 00                	and    %al,(%eax)
  103622:	00 00                	add    %al,(%eax)
  103624:	d4 01                	aam    $0x1
  103626:	00 00                	add    %al,(%eax)
  103628:	d9 d2                	(bad)  
  10362a:	ff                   	(bad)  
  10362b:	ff 80 00 00 00 00    	incl   0x0(%eax)
  103631:	41                   	inc    %ecx
  103632:	0e                   	push   %cs
  103633:	08 85 02 42 0d 05    	or     %al,0x50d4202(%ebp)
  103639:	44                   	inc    %esp
  10363a:	83 03 02             	addl   $0x2,(%ebx)
  10363d:	77 c3                	ja     103602 <_disable_lapic+0x1152>
  10363f:	41                   	inc    %ecx
  103640:	c5 0c 04             	lds    (%esp,%eax,1),%ecx
  103643:	04 1c                	add    $0x1c,%al
  103645:	00 00                	add    %al,(%eax)
  103647:	00 f8                	add    %bh,%al
  103649:	01 00                	add    %eax,(%eax)
  10364b:	00 35 d3 ff ff b0    	add    %dh,0xb0ffffd3
  103651:	00 00                	add    %al,(%eax)
  103653:	00 00                	add    %al,(%eax)
  103655:	41                   	inc    %ecx
  103656:	0e                   	push   %cs
  103657:	08 85 02 42 0d 05    	or     %al,0x50d4202(%ebp)
  10365d:	02 ac c5 0c 04 04 00 	add    0x4040c(%ebp,%eax,8),%ch
  103664:	1c 00                	sbb    $0x0,%al
  103666:	00 00                	add    %al,(%eax)
  103668:	18 02                	sbb    %al,(%edx)
  10366a:	00 00                	add    %al,(%eax)
  10366c:	c5 d3 ff             	(bad)
  10366f:	ff 34 00             	pushl  (%eax,%eax,1)
  103672:	00 00                	add    %al,(%eax)
  103674:	00 41 0e             	add    %al,0xe(%ecx)
  103677:	08 85 02 42 0d 05    	or     %al,0x50d4202(%ebp)
  10367d:	70 c5                	jo     103644 <_disable_lapic+0x1194>
  10367f:	0c 04                	or     $0x4,%al
  103681:	04 00                	add    $0x0,%al
  103683:	00 1c 00             	add    %bl,(%eax,%eax,1)
  103686:	00 00                	add    %al,(%eax)
  103688:	38 02                	cmp    %al,(%edx)
  10368a:	00 00                	add    %al,(%eax)
  10368c:	d9 d3                	(bad)  
  10368e:	ff                   	(bad)  
  10368f:	ff 85 02 00 00 00    	incl   0x2(%ebp)
  103695:	41                   	inc    %ecx
  103696:	0e                   	push   %cs
  103697:	08 85 02 42 0d 05    	or     %al,0x50d4202(%ebp)
  10369d:	03 81 02 c5 0c 04    	add    0x40cc502(%ecx),%eax
  1036a3:	04 1c                	add    $0x1c,%al
  1036a5:	00 00                	add    %al,(%eax)
  1036a7:	00 58 02             	add    %bl,0x2(%eax)
  1036aa:	00 00                	add    %al,(%eax)
  1036ac:	3e d6                	ds (bad) 
  1036ae:	ff                   	(bad)  
  1036af:	ff 6e 00             	ljmp   *0x0(%esi)
  1036b2:	00 00                	add    %al,(%eax)
  1036b4:	00 41 0e             	add    %al,0xe(%ecx)
  1036b7:	08 85 02 42 0d 05    	or     %al,0x50d4202(%ebp)
  1036bd:	02 6a c5             	add    -0x3b(%edx),%ch
  1036c0:	0c 04                	or     $0x4,%al
  1036c2:	04 00                	add    $0x0,%al
  1036c4:	1c 00                	sbb    $0x0,%al
  1036c6:	00 00                	add    %al,(%eax)
  1036c8:	78 02                	js     1036cc <_disable_lapic+0x121c>
  1036ca:	00 00                	add    %al,(%eax)
  1036cc:	8c d6                	mov    %ss,%esi
  1036ce:	ff                   	(bad)  
  1036cf:	ff 03                	incl   (%ebx)
  1036d1:	01 00                	add    %eax,(%eax)
  1036d3:	00 00                	add    %al,(%eax)
  1036d5:	41                   	inc    %ecx
  1036d6:	0e                   	push   %cs
  1036d7:	08 85 02 42 0d 05    	or     %al,0x50d4202(%ebp)
  1036dd:	02 ff                	add    %bh,%bh
  1036df:	c5 0c 04             	lds    (%esp,%eax,1),%ecx
  1036e2:	04 00                	add    $0x0,%al
  1036e4:	1c 00                	sbb    $0x0,%al
  1036e6:	00 00                	add    %al,(%eax)
  1036e8:	98                   	cwtl   
  1036e9:	02 00                	add    (%eax),%al
  1036eb:	00 6f d7             	add    %ch,-0x29(%edi)
  1036ee:	ff                   	(bad)  
  1036ef:	ff                   	(bad)  
  1036f0:	3e 00 00             	add    %al,%ds:(%eax)
  1036f3:	00 00                	add    %al,(%eax)
  1036f5:	41                   	inc    %ecx
  1036f6:	0e                   	push   %cs
  1036f7:	08 85 02 42 0d 05    	or     %al,0x50d4202(%ebp)
  1036fd:	7a c5                	jp     1036c4 <_disable_lapic+0x1214>
  1036ff:	0c 04                	or     $0x4,%al
  103701:	04 00                	add    $0x0,%al
  103703:	00 24 00             	add    %ah,(%eax,%eax,1)
  103706:	00 00                	add    %al,(%eax)
  103708:	b8 02 00 00 8d       	mov    $0x8d000002,%eax
  10370d:	d7                   	xlat   %ds:(%ebx)
  10370e:	ff                   	(bad)  
  10370f:	ff 33                	pushl  (%ebx)
  103711:	01 00                	add    %eax,(%eax)
  103713:	00 00                	add    %al,(%eax)
  103715:	44                   	inc    %esp
  103716:	0c 01                	or     $0x1,%al
  103718:	00 47 10             	add    %al,0x10(%edi)
  10371b:	05 02 75 00 44       	add    $0x44007502,%eax
  103720:	0f 03 75 78          	lsl    0x78(%ebp),%esi
  103724:	06                   	push   %es
  103725:	10 03                	adc    %al,(%ebx)
  103727:	02 75 7c             	add    0x7c(%ebp),%dh
  10372a:	00 00                	add    %al,(%eax)
  10372c:	1c 00                	sbb    $0x0,%al
  10372e:	00 00                	add    %al,(%eax)
  103730:	e0 02                	loopne 103734 <_disable_lapic+0x1284>
  103732:	00 00                	add    %al,(%eax)
  103734:	98                   	cwtl   
  103735:	d8 ff                	fdivr  %st(7),%st
  103737:	ff a6 00 00 00 00    	jmp    *0x0(%esi)
  10373d:	41                   	inc    %ecx
  10373e:	0e                   	push   %cs
  10373f:	08 85 02 42 0d 05    	or     %al,0x50d4202(%ebp)
  103745:	02 a2 c5 0c 04 04    	add    0x4040cc5(%edx),%ah
  10374b:	00 1c 00             	add    %bl,(%eax,%eax,1)
  10374e:	00 00                	add    %al,(%eax)
  103750:	00 03                	add    %al,(%ebx)
  103752:	00 00                	add    %al,(%eax)
  103754:	1e                   	push   %ds
  103755:	d9 ff                	fcos   
  103757:	ff 9f 00 00 00 00    	lcall  *0x0(%edi)
  10375d:	41                   	inc    %ecx
  10375e:	0e                   	push   %cs
  10375f:	08 85 02 42 0d 05    	or     %al,0x50d4202(%ebp)
  103765:	02 9b c5 0c 04 04    	add    0x4040cc5(%ebx),%bl
  10376b:	00 1c 00             	add    %bl,(%eax,%eax,1)
  10376e:	00 00                	add    %al,(%eax)
  103770:	20 03                	and    %al,(%ebx)
  103772:	00 00                	add    %al,(%eax)
  103774:	9d                   	popf   
  103775:	d9 ff                	fcos   
  103777:	ff 61 00             	jmp    *0x0(%ecx)
  10377a:	00 00                	add    %al,(%eax)
  10377c:	00 41 0e             	add    %al,0xe(%ecx)
  10377f:	08 85 02 42 0d 05    	or     %al,0x50d4202(%ebp)
  103785:	02 5d c5             	add    -0x3b(%ebp),%bl
  103788:	0c 04                	or     $0x4,%al
  10378a:	04 00                	add    $0x0,%al
  10378c:	1c 00                	sbb    $0x0,%al
  10378e:	00 00                	add    %al,(%eax)
  103790:	40                   	inc    %eax
  103791:	03 00                	add    (%eax),%eax
  103793:	00 de                	add    %bl,%dh
  103795:	d9 ff                	fcos   
  103797:	ff 68 00             	ljmp   *0x0(%eax)
  10379a:	00 00                	add    %al,(%eax)
  10379c:	00 41 0e             	add    %al,0xe(%ecx)
  10379f:	08 85 02 42 0d 05    	or     %al,0x50d4202(%ebp)
  1037a5:	02 64 c5 0c          	add    0xc(%ebp,%eax,8),%ah
  1037a9:	04 04                	add    $0x4,%al
  1037ab:	00 1c 00             	add    %bl,(%eax,%eax,1)
  1037ae:	00 00                	add    %al,(%eax)
  1037b0:	60                   	pusha  
  1037b1:	03 00                	add    (%eax),%eax
  1037b3:	00 26                	add    %ah,(%esi)
  1037b5:	da ff                	(bad)  
  1037b7:	ff 36                	pushl  (%esi)
  1037b9:	00 00                	add    %al,(%eax)
  1037bb:	00 00                	add    %al,(%eax)
  1037bd:	41                   	inc    %ecx
  1037be:	0e                   	push   %cs
  1037bf:	08 85 02 42 0d 05    	or     %al,0x50d4202(%ebp)
  1037c5:	72 c5                	jb     10378c <_disable_lapic+0x12dc>
  1037c7:	0c 04                	or     $0x4,%al
  1037c9:	04 00                	add    $0x0,%al
  1037cb:	00 1c 00             	add    %bl,(%eax,%eax,1)
  1037ce:	00 00                	add    %al,(%eax)
  1037d0:	80 03 00             	addb   $0x0,(%ebx)
  1037d3:	00 3c da             	add    %bh,(%edx,%ebx,8)
  1037d6:	ff                   	(bad)  
  1037d7:	ff                   	(bad)  
  1037d8:	7a 00                	jp     1037da <_disable_lapic+0x132a>
  1037da:	00 00                	add    %al,(%eax)
  1037dc:	00 41 0e             	add    %al,0xe(%ecx)
  1037df:	08 85 02 42 0d 05    	or     %al,0x50d4202(%ebp)
  1037e5:	02 76 c5             	add    -0x3b(%esi),%dh
  1037e8:	0c 04                	or     $0x4,%al
  1037ea:	04 00                	add    $0x0,%al
  1037ec:	1c 00                	sbb    $0x0,%al
  1037ee:	00 00                	add    %al,(%eax)
  1037f0:	a0 03 00 00 96       	mov    0x96000003,%al
  1037f5:	da ff                	(bad)  
  1037f7:	ff 2a                	ljmp   *(%edx)
  1037f9:	00 00                	add    %al,(%eax)
  1037fb:	00 00                	add    %al,(%eax)
  1037fd:	41                   	inc    %ecx
  1037fe:	0e                   	push   %cs
  1037ff:	08 85 02 42 0d 05    	or     %al,0x50d4202(%ebp)
  103805:	66 c5 0c 04          	lds    (%esp,%eax,1),%cx
  103809:	04 00                	add    $0x0,%al
  10380b:	00 1c 00             	add    %bl,(%eax,%eax,1)
  10380e:	00 00                	add    %al,(%eax)
  103810:	c0 03 00             	rolb   $0x0,(%ebx)
  103813:	00 a0 da ff ff 2b    	add    %ah,0x2bffffda(%eax)
  103819:	00 00                	add    %al,(%eax)
  10381b:	00 00                	add    %al,(%eax)
  10381d:	41                   	inc    %ecx
  10381e:	0e                   	push   %cs
  10381f:	08 85 02 42 0d 05    	or     %al,0x50d4202(%ebp)
  103825:	67 c5 0c             	lds    (%si),%ecx
  103828:	04 04                	add    $0x4,%al
  10382a:	00 00                	add    %al,(%eax)
  10382c:	1c 00                	sbb    $0x0,%al
  10382e:	00 00                	add    %al,(%eax)
  103830:	e0 03                	loopne 103835 <_disable_lapic+0x1385>
  103832:	00 00                	add    %al,(%eax)
  103834:	ab                   	stos   %eax,%es:(%edi)
  103835:	da ff                	(bad)  
  103837:	ff 21                	jmp    *(%ecx)
  103839:	00 00                	add    %al,(%eax)
  10383b:	00 00                	add    %al,(%eax)
  10383d:	41                   	inc    %ecx
  10383e:	0e                   	push   %cs
  10383f:	08 85 02 42 0d 05    	or     %al,0x50d4202(%ebp)
  103845:	5d                   	pop    %ebp
  103846:	c5 0c 04             	lds    (%esp,%eax,1),%ecx
  103849:	04 00                	add    $0x0,%al
  10384b:	00 1c 00             	add    %bl,(%eax,%eax,1)
  10384e:	00 00                	add    %al,(%eax)
  103850:	00 04 00             	add    %al,(%eax,%eax,1)
  103853:	00 ac da ff ff 1d 00 	add    %ch,0x1dffff(%edx,%ebx,8)
  10385a:	00 00                	add    %al,(%eax)
  10385c:	00 41 0e             	add    %al,0xe(%ecx)
  10385f:	08 85 02 42 0d 05    	or     %al,0x50d4202(%ebp)
  103865:	59                   	pop    %ecx
  103866:	c5 0c 04             	lds    (%esp,%eax,1),%ecx
  103869:	04 00                	add    $0x0,%al
  10386b:	00 24 00             	add    %ah,(%eax,%eax,1)
  10386e:	00 00                	add    %al,(%eax)
  103870:	20 04 00             	and    %al,(%eax,%eax,1)
  103873:	00 a9 da ff ff 1b    	add    %ch,0x1bffffda(%ecx)
  103879:	00 00                	add    %al,(%eax)
  10387b:	00 00                	add    %al,(%eax)
  10387d:	41                   	inc    %ecx
  10387e:	0e                   	push   %cs
  10387f:	08 85 02 42 0d 05    	or     %al,0x50d4202(%ebp)
  103885:	42                   	inc    %edx
  103886:	86 03                	xchg   %al,(%ebx)
  103888:	83 04 53 c3          	addl   $0xffffffc3,(%ebx,%edx,2)
  10388c:	41                   	inc    %ecx
  10388d:	c6 41 c5 0c          	movb   $0xc,-0x3b(%ecx)
  103891:	04 04                	add    $0x4,%al
  103893:	00 1c 00             	add    %bl,(%eax,%eax,1)
  103896:	00 00                	add    %al,(%eax)
  103898:	48                   	dec    %eax
  103899:	04 00                	add    $0x0,%al
  10389b:	00 9c da ff ff 68 00 	add    %bl,0x68ffff(%edx,%ebx,8)
  1038a2:	00 00                	add    %al,(%eax)
  1038a4:	00 41 0e             	add    %al,0xe(%ecx)
  1038a7:	08 85 02 42 0d 05    	or     %al,0x50d4202(%ebp)
  1038ad:	02 64 c5 0c          	add    0xc(%ebp,%eax,8),%ah
  1038b1:	04 04                	add    $0x4,%al
  1038b3:	00 1c 00             	add    %bl,(%eax,%eax,1)
  1038b6:	00 00                	add    %al,(%eax)
  1038b8:	68 04 00 00 e4       	push   $0xe4000004
  1038bd:	da ff                	(bad)  
  1038bf:	ff b4 00 00 00 00 41 	pushl  0x41000000(%eax,%eax,1)
  1038c6:	0e                   	push   %cs
  1038c7:	08 85 02 42 0d 05    	or     %al,0x50d4202(%ebp)
  1038cd:	02 b0 c5 0c 04 04    	add    0x4040cc5(%eax),%dh
  1038d3:	00 1c 00             	add    %bl,(%eax,%eax,1)
  1038d6:	00 00                	add    %al,(%eax)
  1038d8:	88 04 00             	mov    %al,(%eax,%eax,1)
  1038db:	00 78 db             	add    %bh,-0x25(%eax)
  1038de:	ff                   	(bad)  
  1038df:	ff 40 00             	incl   0x0(%eax)
  1038e2:	00 00                	add    %al,(%eax)
  1038e4:	00 41 0e             	add    %al,0xe(%ecx)
  1038e7:	08 85 02 42 0d 05    	or     %al,0x50d4202(%ebp)
  1038ed:	7c c5                	jl     1038b4 <_disable_lapic+0x1404>
  1038ef:	0c 04                	or     $0x4,%al
  1038f1:	04 00                	add    $0x0,%al
  1038f3:	00 1c 00             	add    %bl,(%eax,%eax,1)
  1038f6:	00 00                	add    %al,(%eax)
  1038f8:	a8 04                	test   $0x4,%al
  1038fa:	00 00                	add    %al,(%eax)
  1038fc:	98                   	cwtl   
  1038fd:	db ff                	(bad)  
  1038ff:	ff 63 00             	jmp    *0x0(%ebx)
  103902:	00 00                	add    %al,(%eax)
  103904:	00 41 0e             	add    %al,0xe(%ecx)
  103907:	08 85 02 42 0d 05    	or     %al,0x50d4202(%ebp)
  10390d:	02 5f c5             	add    -0x3b(%edi),%bl
  103910:	0c 04                	or     $0x4,%al
  103912:	04 00                	add    $0x0,%al
  103914:	1c 00                	sbb    $0x0,%al
  103916:	00 00                	add    %al,(%eax)
  103918:	c8 04 00 00          	enter  $0x4,$0x0
  10391c:	db db                	fcmovnu %st(3),%st
  10391e:	ff                   	(bad)  
  10391f:	ff 6b 04             	ljmp   *0x4(%ebx)
  103922:	00 00                	add    %al,(%eax)
  103924:	00 41 0e             	add    %al,0xe(%ecx)
  103927:	08 85 02 42 0d 05    	or     %al,0x50d4202(%ebp)
  10392d:	03 67 04             	add    0x4(%edi),%esp
  103930:	c5 0c 04             	lds    (%esp,%eax,1),%ecx
  103933:	04 1c                	add    $0x1c,%al
  103935:	00 00                	add    %al,(%eax)
  103937:	00 e8                	add    %ch,%al
  103939:	04 00                	add    $0x0,%al
  10393b:	00 26                	add    %ah,(%esi)
  10393d:	e0 ff                	loopne 10393e <_disable_lapic+0x148e>
  10393f:	ff 8d 00 00 00 00    	decl   0x0(%ebp)
  103945:	41                   	inc    %ecx
  103946:	0e                   	push   %cs
  103947:	08 85 02 42 0d 05    	or     %al,0x50d4202(%ebp)
  10394d:	02 89 c5 0c 04 04    	add    0x4040cc5(%ecx),%cl
  103953:	00 1c 00             	add    %bl,(%eax,%eax,1)
  103956:	00 00                	add    %al,(%eax)
  103958:	08 05 00 00 93 e0    	or     %al,0xe0930000
  10395e:	ff                   	(bad)  
  10395f:	ff 9c 00 00 00 00 41 	lcall  *0x41000000(%eax,%eax,1)
  103966:	0e                   	push   %cs
  103967:	08 85 02 42 0d 05    	or     %al,0x50d4202(%ebp)
  10396d:	02 98 c5 0c 04 04    	add    0x4040cc5(%eax),%bl
  103973:	00 1c 00             	add    %bl,(%eax,%eax,1)
  103976:	00 00                	add    %al,(%eax)
  103978:	28 05 00 00 0f e1    	sub    %al,0xe10f0000
  10397e:	ff                   	(bad)  
  10397f:	ff 13                	call   *(%ebx)
  103981:	00 00                	add    %al,(%eax)
  103983:	00 00                	add    %al,(%eax)
  103985:	41                   	inc    %ecx
  103986:	0e                   	push   %cs
  103987:	08 85 02 42 0d 05    	or     %al,0x50d4202(%ebp)
  10398d:	4f                   	dec    %edi
  10398e:	c5 0c 04             	lds    (%esp,%eax,1),%ecx
  103991:	04 00                	add    $0x0,%al
  103993:	00 1c 00             	add    %bl,(%eax,%eax,1)
  103996:	00 00                	add    %al,(%eax)
  103998:	48                   	dec    %eax
  103999:	05 00 00 02 e1       	add    $0xe1020000,%eax
  10399e:	ff                   	(bad)  
  10399f:	ff 1b                	lcall  *(%ebx)
  1039a1:	00 00                	add    %al,(%eax)
  1039a3:	00 00                	add    %al,(%eax)
  1039a5:	41                   	inc    %ecx
  1039a6:	0e                   	push   %cs
  1039a7:	08 85 02 42 0d 05    	or     %al,0x50d4202(%ebp)
  1039ad:	57                   	push   %edi
  1039ae:	c5 0c 04             	lds    (%esp,%eax,1),%ecx
  1039b1:	04 00                	add    $0x0,%al
  1039b3:	00 1c 00             	add    %bl,(%eax,%eax,1)
  1039b6:	00 00                	add    %al,(%eax)
  1039b8:	68 05 00 00 fd       	push   $0xfd000005
  1039bd:	e0 ff                	loopne 1039be <_disable_lapic+0x150e>
  1039bf:	ff 9e 00 00 00 00    	lcall  *0x0(%esi)
  1039c5:	41                   	inc    %ecx
  1039c6:	0e                   	push   %cs
  1039c7:	08 85 02 42 0d 05    	or     %al,0x50d4202(%ebp)
  1039cd:	02 9a c5 0c 04 04    	add    0x4040cc5(%edx),%bl
  1039d3:	00 1c 00             	add    %bl,(%eax,%eax,1)
  1039d6:	00 00                	add    %al,(%eax)
  1039d8:	88 05 00 00 7b e1    	mov    %al,0xe17b0000
  1039de:	ff                   	(bad)  
  1039df:	ff 06                	incl   (%esi)
  1039e1:	00 00                	add    %al,(%eax)
  1039e3:	00 00                	add    %al,(%eax)
  1039e5:	41                   	inc    %ecx
  1039e6:	0e                   	push   %cs
  1039e7:	08 85 02 42 0d 05    	or     %al,0x50d4202(%ebp)
  1039ed:	42                   	inc    %edx
  1039ee:	c5 0c 04             	lds    (%esp,%eax,1),%ecx
  1039f1:	04 00                	add    $0x0,%al
  1039f3:	00 1c 00             	add    %bl,(%eax,%eax,1)
  1039f6:	00 00                	add    %al,(%eax)
  1039f8:	a8 05                	test   $0x5,%al
  1039fa:	00 00                	add    %al,(%eax)
  1039fc:	61                   	popa   
  1039fd:	e1 ff                	loope  1039fe <_disable_lapic+0x154e>
  1039ff:	ff 15 00 00 00 00    	call   *0x0
  103a05:	41                   	inc    %ecx
  103a06:	0e                   	push   %cs
  103a07:	08 85 02 42 0d 05    	or     %al,0x50d4202(%ebp)
  103a0d:	51                   	push   %ecx
  103a0e:	c5 0c 04             	lds    (%esp,%eax,1),%ecx
  103a11:	04 00                	add    $0x0,%al
  103a13:	00 18                	add    %bl,(%eax)
  103a15:	00 00                	add    %al,(%eax)
  103a17:	00 c8                	add    %cl,%al
  103a19:	05 00 00 56 e1       	add    $0xe1560000,%eax
  103a1e:	ff                   	(bad)  
  103a1f:	ff 13                	call   *(%ebx)
  103a21:	00 00                	add    %al,(%eax)
  103a23:	00 00                	add    %al,(%eax)
  103a25:	41                   	inc    %ecx
  103a26:	0e                   	push   %cs
  103a27:	08 85 02 42 0d 05    	or     %al,0x50d4202(%ebp)
  103a2d:	00 00                	add    %al,(%eax)
  103a2f:	00 18                	add    %bl,(%eax)
  103a31:	00 00                	add    %al,(%eax)
  103a33:	00 e4                	add    %ah,%ah
  103a35:	05 00 00 4d e1       	add    $0xe14d0000,%eax
  103a3a:	ff                   	(bad)  
  103a3b:	ff 13                	call   *(%ebx)
  103a3d:	00 00                	add    %al,(%eax)
  103a3f:	00 00                	add    %al,(%eax)
  103a41:	41                   	inc    %ecx
  103a42:	0e                   	push   %cs
  103a43:	08 85 02 42 0d 05    	or     %al,0x50d4202(%ebp)
  103a49:	00 00                	add    %al,(%eax)
  103a4b:	00 1c 00             	add    %bl,(%eax,%eax,1)
  103a4e:	00 00                	add    %al,(%eax)
  103a50:	00 06                	add    %al,(%esi)
  103a52:	00 00                	add    %al,(%eax)
  103a54:	44                   	inc    %esp
  103a55:	e1 ff                	loope  103a56 <_disable_lapic+0x15a6>
  103a57:	ff 15 00 00 00 00    	call   *0x0
  103a5d:	41                   	inc    %ecx
  103a5e:	0e                   	push   %cs
  103a5f:	08 85 02 42 0d 05    	or     %al,0x50d4202(%ebp)
  103a65:	51                   	push   %ecx
  103a66:	c5 0c 04             	lds    (%esp,%eax,1),%ecx
  103a69:	04 00                	add    $0x0,%al
  103a6b:	00 1c 00             	add    %bl,(%eax,%eax,1)
  103a6e:	00 00                	add    %al,(%eax)
  103a70:	20 06                	and    %al,(%esi)
  103a72:	00 00                	add    %al,(%eax)
  103a74:	39 e1                	cmp    %esp,%ecx
  103a76:	ff                   	(bad)  
  103a77:	ff 35 00 00 00 00    	pushl  0x0
  103a7d:	41                   	inc    %ecx
  103a7e:	0e                   	push   %cs
  103a7f:	08 85 02 42 0d 05    	or     %al,0x50d4202(%ebp)
  103a85:	71 c5                	jno    103a4c <_disable_lapic+0x159c>
  103a87:	0c 04                	or     $0x4,%al
  103a89:	04 00                	add    $0x0,%al
  103a8b:	00 1c 00             	add    %bl,(%eax,%eax,1)
  103a8e:	00 00                	add    %al,(%eax)
  103a90:	40                   	inc    %eax
  103a91:	06                   	push   %es
  103a92:	00 00                	add    %al,(%eax)
  103a94:	4e                   	dec    %esi
  103a95:	e1 ff                	loope  103a96 <_disable_lapic+0x15e6>
  103a97:	ff 51 00             	call   *0x0(%ecx)
  103a9a:	00 00                	add    %al,(%eax)
  103a9c:	00 41 0e             	add    %al,0xe(%ecx)
  103a9f:	08 85 02 42 0d 05    	or     %al,0x50d4202(%ebp)
  103aa5:	02 4d c5             	add    -0x3b(%ebp),%cl
  103aa8:	0c 04                	or     $0x4,%al
  103aaa:	04 00                	add    $0x0,%al
  103aac:	1c 00                	sbb    $0x0,%al
  103aae:	00 00                	add    %al,(%eax)
  103ab0:	60                   	pusha  
  103ab1:	06                   	push   %es
  103ab2:	00 00                	add    %al,(%eax)
  103ab4:	7f e1                	jg     103a97 <_disable_lapic+0x15e7>
  103ab6:	ff                   	(bad)  
  103ab7:	ff 6d 00             	ljmp   *0x0(%ebp)
  103aba:	00 00                	add    %al,(%eax)
  103abc:	00 41 0e             	add    %al,0xe(%ecx)
  103abf:	08 85 02 42 0d 05    	or     %al,0x50d4202(%ebp)
  103ac5:	02 69 c5             	add    -0x3b(%ecx),%ch
  103ac8:	0c 04                	or     $0x4,%al
  103aca:	04 00                	add    $0x0,%al
  103acc:	1c 00                	sbb    $0x0,%al
  103ace:	00 00                	add    %al,(%eax)
  103ad0:	80 06 00             	addb   $0x0,(%esi)
  103ad3:	00 cc                	add    %cl,%ah
  103ad5:	e1 ff                	loope  103ad6 <_disable_lapic+0x1626>
  103ad7:	ff 0e                	decl   (%esi)
  103ad9:	00 00                	add    %al,(%eax)
  103adb:	00 00                	add    %al,(%eax)
  103add:	41                   	inc    %ecx
  103ade:	0e                   	push   %cs
  103adf:	08 85 02 42 0d 05    	or     %al,0x50d4202(%ebp)
  103ae5:	4a                   	dec    %edx
  103ae6:	c5 0c 04             	lds    (%esp,%eax,1),%ecx
  103ae9:	04 00                	add    $0x0,%al
  103aeb:	00 1c 00             	add    %bl,(%eax,%eax,1)
  103aee:	00 00                	add    %al,(%eax)
  103af0:	a0 06 00 00 ba       	mov    0xba000006,%al
  103af5:	e1 ff                	loope  103af6 <_disable_lapic+0x1646>
  103af7:	ff 6b 00             	ljmp   *0x0(%ebx)
  103afa:	00 00                	add    %al,(%eax)
  103afc:	00 41 0e             	add    %al,0xe(%ecx)
  103aff:	08 85 02 42 0d 05    	or     %al,0x50d4202(%ebp)
  103b05:	02 65 c5             	add    -0x3b(%ebp),%ah
  103b08:	0c 04                	or     $0x4,%al
  103b0a:	04 00                	add    $0x0,%al
  103b0c:	1c 00                	sbb    $0x0,%al
  103b0e:	00 00                	add    %al,(%eax)
  103b10:	c0 06 00             	rolb   $0x0,(%esi)
  103b13:	00 05 e2 ff ff 5c    	add    %al,0x5cffffe2
  103b19:	00 00                	add    %al,(%eax)
  103b1b:	00 00                	add    %al,(%eax)
  103b1d:	41                   	inc    %ecx
  103b1e:	0e                   	push   %cs
  103b1f:	08 85 02 42 0d 05    	or     %al,0x50d4202(%ebp)
  103b25:	02 56 c5             	add    -0x3b(%esi),%dl
  103b28:	0c 04                	or     $0x4,%al
  103b2a:	04 00                	add    $0x0,%al
  103b2c:	1c 00                	sbb    $0x0,%al
  103b2e:	00 00                	add    %al,(%eax)
  103b30:	e0 06                	loopne 103b38 <_disable_lapic+0x1688>
  103b32:	00 00                	add    %al,(%eax)
  103b34:	41                   	inc    %ecx
  103b35:	e2 ff                	loop   103b36 <_disable_lapic+0x1686>
  103b37:	ff e2                	jmp    *%edx
  103b39:	00 00                	add    %al,(%eax)
  103b3b:	00 00                	add    %al,(%eax)
  103b3d:	41                   	inc    %ecx
  103b3e:	0e                   	push   %cs
  103b3f:	08 85 02 42 0d 05    	or     %al,0x50d4202(%ebp)
  103b45:	02 de                	add    %dh,%bl
  103b47:	c5 0c 04             	lds    (%esp,%eax,1),%ecx
  103b4a:	04 00                	add    $0x0,%al
  103b4c:	1c 00                	sbb    $0x0,%al
  103b4e:	00 00                	add    %al,(%eax)
  103b50:	00 07                	add    %al,(%edi)
  103b52:	00 00                	add    %al,(%eax)
  103b54:	03 e3                	add    %ebx,%esp
  103b56:	ff                   	(bad)  
  103b57:	ff                   	(bad)  
  103b58:	39 00                	cmp    %eax,(%eax)
  103b5a:	00 00                	add    %al,(%eax)
  103b5c:	00 41 0e             	add    %al,0xe(%ecx)
  103b5f:	08 85 02 42 0d 05    	or     %al,0x50d4202(%ebp)
  103b65:	75 c5                	jne    103b2c <_disable_lapic+0x167c>
  103b67:	0c 04                	or     $0x4,%al
  103b69:	04 00                	add    $0x0,%al
  103b6b:	00 1c 00             	add    %bl,(%eax,%eax,1)
  103b6e:	00 00                	add    %al,(%eax)
  103b70:	20 07                	and    %al,(%edi)
  103b72:	00 00                	add    %al,(%eax)
  103b74:	1c e3                	sbb    $0xe3,%al
  103b76:	ff                   	(bad)  
  103b77:	ff 4b 00             	decl   0x0(%ebx)
  103b7a:	00 00                	add    %al,(%eax)
  103b7c:	00 41 0e             	add    %al,0xe(%ecx)
  103b7f:	08 85 02 42 0d 05    	or     %al,0x50d4202(%ebp)
  103b85:	02 47 c5             	add    -0x3b(%edi),%al
  103b88:	0c 04                	or     $0x4,%al
  103b8a:	04 00                	add    $0x0,%al
  103b8c:	1c 00                	sbb    $0x0,%al
  103b8e:	00 00                	add    %al,(%eax)
  103b90:	40                   	inc    %eax
  103b91:	07                   	pop    %es
  103b92:	00 00                	add    %al,(%eax)
  103b94:	47                   	inc    %edi
  103b95:	e3 ff                	jecxz  103b96 <_disable_lapic+0x16e6>
  103b97:	ff b6 00 00 00 00    	pushl  0x0(%esi)
  103b9d:	41                   	inc    %ecx
  103b9e:	0e                   	push   %cs
  103b9f:	08 85 02 42 0d 05    	or     %al,0x50d4202(%ebp)
  103ba5:	02 b2 c5 0c 04 04    	add    0x4040cc5(%edx),%dh
  103bab:	00 1c 00             	add    %bl,(%eax,%eax,1)
  103bae:	00 00                	add    %al,(%eax)
  103bb0:	60                   	pusha  
  103bb1:	07                   	pop    %es
  103bb2:	00 00                	add    %al,(%eax)
  103bb4:	dd e3                	fucom  %st(3)
  103bb6:	ff                   	(bad)  
  103bb7:	ff 32                	pushl  (%edx)
  103bb9:	01 00                	add    %eax,(%eax)
  103bbb:	00 00                	add    %al,(%eax)
  103bbd:	41                   	inc    %ecx
  103bbe:	0e                   	push   %cs
  103bbf:	08 85 02 42 0d 05    	or     %al,0x50d4202(%ebp)
  103bc5:	03 2e                	add    (%esi),%ebp
  103bc7:	01 c5                	add    %eax,%ebp
  103bc9:	0c 04                	or     $0x4,%al
  103bcb:	04 1c                	add    $0x1c,%al
  103bcd:	00 00                	add    %al,(%eax)
  103bcf:	00 80 07 00 00 ef    	add    %al,-0x10fffff9(%eax)
  103bd5:	e4 ff                	in     $0xff,%al
  103bd7:	ff d3                	call   *%ebx
  103bd9:	00 00                	add    %al,(%eax)
  103bdb:	00 00                	add    %al,(%eax)
  103bdd:	41                   	inc    %ecx
  103bde:	0e                   	push   %cs
  103bdf:	08 85 02 42 0d 05    	or     %al,0x50d4202(%ebp)
  103be5:	02 cf                	add    %bh,%cl
  103be7:	c5 0c 04             	lds    (%esp,%eax,1),%ecx
  103bea:	04 00                	add    $0x0,%al
  103bec:	18 00                	sbb    %al,(%eax)
  103bee:	00 00                	add    %al,(%eax)
  103bf0:	a0 07 00 00 a2       	mov    0xa2000007,%al
  103bf5:	e5 ff                	in     $0xff,%eax
  103bf7:	ff 74 00 00          	pushl  0x0(%eax,%eax,1)
  103bfb:	00 00                	add    %al,(%eax)
  103bfd:	41                   	inc    %ecx
  103bfe:	0e                   	push   %cs
  103bff:	08 85 02 42 0d 05    	or     %al,0x50d4202(%ebp)
  103c05:	00 00                	add    %al,(%eax)
  103c07:	00 18                	add    %bl,(%eax)
  103c09:	00 00                	add    %al,(%eax)
  103c0b:	00 bc 07 00 00 fa e5 	add    %bh,-0x1a060000(%edi,%eax,1)
  103c12:	ff                   	(bad)  
  103c13:	ff 74 00 00          	pushl  0x0(%eax,%eax,1)
  103c17:	00 00                	add    %al,(%eax)
  103c19:	41                   	inc    %ecx
  103c1a:	0e                   	push   %cs
  103c1b:	08 85 02 42 0d 05    	or     %al,0x50d4202(%ebp)
  103c21:	00 00                	add    %al,(%eax)
	...

Disassembly of section .data:

00104000 <placement_address>:
  104000:	86 5c 10 00          	xchg   %bl,0x0(%eax,%edx,1)

Disassembly of section .bss:

00105000 <kheap>:
  105000:	00 00                	add    %al,(%eax)
	...

00105004 <kernel_directory>:
  105004:	00 00                	add    %al,(%eax)
	...

00105008 <current_directory>:
  105008:	00 00                	add    %al,(%eax)
	...

0010500c <tick>:
  10500c:	00 00                	add    %al,(%eax)
	...

00105010 <nframes>:
  105010:	00 00                	add    %al,(%eax)
	...

00105014 <frames_bitmap>:
	...

00105020 <gdt>:
	...

00105040 <gdt_entries>:
	...

00105080 <interrupt_handler_entries>:
	...

00105480 <idt_entries>:
	...

00105c80 <idt>:
  105c80:	00 00                	add    %al,(%eax)
  105c82:	00 00                	add    %al,(%eax)
	...

Disassembly of section .debug_info:

00000000 <.debug_info>:
       0:	5b                   	pop    %ebx
       1:	08 00                	or     %al,(%eax)
       3:	00 04 00             	add    %al,(%eax,%eax,1)
       6:	00 00                	add    %al,(%eax)
       8:	00 00                	add    %al,(%eax)
       a:	04 01                	add    $0x1,%al
       c:	24 00                	and    $0x0,%al
       e:	00 00                	add    %al,(%eax)
      10:	0c 05                	or     $0x5,%al
      12:	01 00                	add    %eax,(%eax)
      14:	00 42 02             	add    %al,0x2(%edx)
      17:	00 00                	add    %al,(%eax)
      19:	19 00                	sbb    %eax,(%eax)
      1b:	10 00                	adc    %al,(%eax)
      1d:	ed                   	in     (%dx),%eax
      1e:	07                   	pop    %es
      1f:	00 00                	add    %al,(%eax)
      21:	00 00                	add    %al,(%eax)
      23:	00 00                	add    %al,(%eax)
      25:	02 70 02             	add    0x2(%eax),%dh
      28:	00 00                	add    %al,(%eax)
      2a:	02 04 17             	add    (%edi,%edx,1),%al
      2d:	31 00                	xor    %eax,(%eax)
      2f:	00 00                	add    %al,(%eax)
      31:	03 01                	add    (%ecx),%eax
      33:	08 6f 01             	or     %ch,0x1(%edi)
      36:	00 00                	add    %al,(%eax)
      38:	02 30                	add    (%eax),%dh
      3a:	01 00                	add    %eax,(%eax)
      3c:	00 02                	add    %al,(%edx)
      3e:	05 0e 44 00 00       	add    $0x440e,%eax
      43:	00 03                	add    %al,(%ebx)
      45:	01 06                	add    %eax,(%esi)
      47:	78 01                	js     4a <FLAGS+0x49>
      49:	00 00                	add    %al,(%eax)
      4b:	03 02                	add    (%edx),%eax
      4d:	07                   	pop    %es
      4e:	cc                   	int3   
      4f:	01 00                	add    %eax,(%eax)
      51:	00 03                	add    %al,(%ebx)
      53:	02 05 65 00 00 00    	add    0x65,%al
      59:	02 75 02             	add    0x2(%ebp),%dh
      5c:	00 00                	add    %al,(%eax)
      5e:	02 08                	add    (%eax),%cl
      60:	16                   	push   %ss
      61:	65 00 00             	add    %al,%gs:(%eax)
      64:	00 03                	add    %al,(%ebx)
      66:	04 07                	add    $0x7,%al
      68:	fa                   	cli    
      69:	05 00 00 02 9c       	add    $0x9c020000,%eax
      6e:	00 00                	add    %al,(%eax)
      70:	00 02                	add    %al,(%edx)
      72:	09 0d 78 00 00 00    	or     %ecx,0x78
      78:	04 04                	add    $0x4,%al
      7a:	05 69 6e 74 00       	add    $0x746e69,%eax
      7f:	02 16                	add    (%esi),%dl
      81:	02 00                	add    (%eax),%al
      83:	00 03                	add    %al,(%ebx)
      85:	07                   	pop    %es
      86:	0f 8b 00 00 00 05    	jnp    500008c <kernelend+0x4efa406>
      8c:	04 02                	add    $0x2,%al
      8e:	a3 02 00 00 03       	mov    %eax,0x3000002
      93:	08 10                	or     %dl,(%eax)
      95:	99                   	cltd   
      96:	00 00                	add    %al,(%eax)
      98:	00 06                	add    %al,(%esi)
      9a:	04 9f                	add    $0x9f,%al
      9c:	00 00                	add    %al,(%eax)
      9e:	00 07                	add    %al,(%edi)
      a0:	38 00                	cmp    %al,(%eax)
      a2:	00 00                	add    %al,(%eax)
      a4:	b3 00                	mov    $0x0,%bl
      a6:	00 00                	add    %al,(%eax)
      a8:	08 7f 00             	or     %bh,0x0(%edi)
      ab:	00 00                	add    %al,(%eax)
      ad:	08 7f 00             	or     %bh,0x0(%edi)
      b0:	00 00                	add    %al,(%eax)
      b2:	00 09                	add    %cl,(%ecx)
      b4:	10 03                	adc    %al,(%ebx)
      b6:	0a 09                	or     (%ecx),%cl
      b8:	f1                   	icebp  
      b9:	00 00                	add    %al,(%eax)
      bb:	00 0a                	add    %cl,(%edx)
      bd:	48                   	dec    %eax
      be:	0b 00                	or     (%eax),%eax
      c0:	00 03                	add    %al,(%ebx)
      c2:	0b 0d f1 00 00 00    	or     0xf1,%ecx
      c8:	00 0a                	add    %cl,(%edx)
      ca:	d7                   	xlat   %ds:(%ebx)
      cb:	00 00                	add    %al,(%eax)
      cd:	00 03                	add    %al,(%ebx)
      cf:	0c 0b                	or     $0xb,%al
      d1:	59                   	pop    %ecx
      d2:	00 00                	add    %al,(%eax)
      d4:	00 04 0a             	add    %al,(%edx,%ecx,1)
      d7:	9a 02 00 00 03 0d 0b 	lcall  $0xb0d,$0x3000002
      de:	59                   	pop    %ecx
      df:	00 00                	add    %al,(%eax)
      e1:	00 08                	add    %cl,(%eax)
      e3:	0a 9f 01 00 00 03    	or     0x3000001(%edi),%bl
      e9:	0e                   	push   %cs
      ea:	11 8d 00 00 00 0c    	adc    %ecx,0xc000000(%ebp)
      f0:	00 06                	add    %al,(%esi)
      f2:	04 7f                	add    $0x7f,%al
      f4:	00 00                	add    %al,(%eax)
      f6:	00 02                	add    %al,(%edx)
      f8:	1d 02 00 00 03       	sbb    $0x3000002,%eax
      fd:	0f 03 b3 00 00 00 09 	lsl    0x9000000(%ebx),%esi
     104:	0c 04                	or     $0x4,%al
     106:	0d 09 34 01 00       	or     $0x13409,%eax
     10b:	00 0a                	add    %cl,(%edx)
     10d:	b8 02 00 00 04       	mov    $0x4000002,%eax
     112:	0e                   	push   %cs
     113:	0b 59 00             	or     0x0(%ecx),%ebx
     116:	00 00                	add    %al,(%eax)
     118:	00 0a                	add    %cl,(%edx)
     11a:	7b 02                	jnp    11e <FLAGS+0x11d>
     11c:	00 00                	add    %al,(%eax)
     11e:	04 0f                	add    $0xf,%al
     120:	0a 25 00 00 00 04    	or     0x4000000,%ah
     126:	0a d7                	or     %bh,%dl
     128:	00 00                	add    %al,(%eax)
     12a:	00 04 10             	add    %al,(%eax,%edx,1)
     12d:	0b 59 00             	or     0x0(%ecx),%ebx
     130:	00 00                	add    %al,(%eax)
     132:	08 00                	or     %al,(%eax)
     134:	02 55 01             	add    0x1(%ebp),%dl
     137:	00 00                	add    %al,(%eax)
     139:	04 11                	add    $0x11,%al
     13b:	03 03                	add    (%ebx),%eax
     13d:	01 00                	add    %eax,(%eax)
     13f:	00 09                	add    %cl,(%ecx)
     141:	08 04 13             	or     %al,(%ebx,%edx,1)
     144:	09 64 01 00          	or     %esp,0x0(%ecx,%eax,1)
     148:	00 0a                	add    %cl,(%edx)
     14a:	b8 02 00 00 04       	mov    $0x4000002,%eax
     14f:	14 0b                	adc    $0xb,%al
     151:	59                   	pop    %ecx
     152:	00 00                	add    %al,(%eax)
     154:	00 00                	add    %al,(%eax)
     156:	0a f6                	or     %dh,%dh
     158:	02 00                	add    (%eax),%al
     15a:	00 04 15 0f 64 01 00 	add    %al,0x1640f(,%edx,1)
     161:	00 04 00             	add    %al,(%eax,%eax,1)
     164:	06                   	push   %es
     165:	04 34                	add    $0x34,%al
     167:	01 00                	add    %eax,(%eax)
     169:	00 02                	add    %al,(%edx)
     16b:	ff 01                	incl   (%ecx)
     16d:	00 00                	add    %al,(%eax)
     16f:	04 16                	add    $0x16,%al
     171:	03 40 01             	add    0x1(%eax),%eax
     174:	00 00                	add    %al,(%eax)
     176:	09 20                	or     %esp,(%eax)
     178:	04 18                	add    $0x18,%al
     17a:	09 ce                	or     %ecx,%esi
     17c:	01 00                	add    %eax,(%eax)
     17e:	00 0a                	add    %cl,(%edx)
     180:	42                   	inc    %edx
     181:	04 00                	add    $0x0,%al
     183:	00 04 19             	add    %al,(%ecx,%ebx,1)
     186:	15 f7 00 00 00       	adc    $0xf7,%eax
     18b:	00 0a                	add    %cl,(%edx)
     18d:	7d 01                	jge    190 <FLAGS+0x18f>
     18f:	00 00                	add    %al,(%eax)
     191:	04 1a                	add    $0x1a,%al
     193:	0b 59 00             	or     0x0(%ecx),%ebx
     196:	00 00                	add    %al,(%eax)
     198:	10 0a                	adc    %cl,(%edx)
     19a:	01 03                	add    %eax,(%ebx)
     19c:	00 00                	add    %al,(%eax)
     19e:	04 1b                	add    $0x1b,%al
     1a0:	0b 59 00             	or     0x0(%ecx),%ebx
     1a3:	00 00                	add    %al,(%eax)
     1a5:	14 0a                	adc    $0xa,%al
     1a7:	a9 01 00 00 04       	test   $0x4000001,%eax
     1ac:	1c 0b                	sbb    $0xb,%al
     1ae:	59                   	pop    %ecx
     1af:	00 00                	add    %al,(%eax)
     1b1:	00 18                	add    %bl,(%eax)
     1b3:	0a 00                	or     (%eax),%al
     1b5:	00 00                	add    %al,(%eax)
     1b7:	00 04 1d 0a 25 00 00 	add    %al,0x250a(,%ebx,1)
     1be:	00 1c 0a             	add    %bl,(%edx,%ecx,1)
     1c1:	80 00 00             	addb   $0x0,(%eax)
     1c4:	00 04 1e             	add    %al,(%esi,%ebx,1)
     1c7:	0a 25 00 00 00 1d    	or     0x1d000000,%ah
     1cd:	00 02                	add    %al,(%edx)
     1cf:	0b 00                	or     (%eax),%eax
     1d1:	00 00                	add    %al,(%eax)
     1d3:	04 1f                	add    $0x1f,%al
     1d5:	03 76 01             	add    0x1(%esi),%esi
     1d8:	00 00                	add    %al,(%eax)
     1da:	0b 12                	or     (%edx),%edx
     1dc:	04 00                	add    $0x0,%al
     1de:	00 04 05 07 10 57 02 	add    %al,0x2571007(,%eax,1)
     1e5:	00 00                	add    %al,(%eax)
     1e7:	0c 83                	or     $0x83,%al
     1e9:	02 00                	add    (%eax),%al
     1eb:	00 05 08 0b 59 00    	add    %al,0x590b08
     1f1:	00 00                	add    %al,(%eax)
     1f3:	04 01                	add    $0x1,%al
     1f5:	1f                   	pop    %ds
     1f6:	00 0d 72 77 00 05    	add    %cl,0x5007772
     1fc:	09 0b                	or     %ecx,(%ebx)
     1fe:	59                   	pop    %ecx
     1ff:	00 00                	add    %al,(%eax)
     201:	00 04 01             	add    %al,(%ecx,%eax,1)
     204:	1e                   	push   %ds
     205:	00 0c c7             	add    %cl,(%edi,%eax,8)
     208:	01 00                	add    %eax,(%eax)
     20a:	00 05 0a 0b 59 00    	add    %al,0x590b0a
     210:	00 00                	add    %al,(%eax)
     212:	04 01                	add    $0x1,%al
     214:	1d 00 0c 67 02       	sbb    $0x2670c00,%eax
     219:	00 00                	add    %al,(%eax)
     21b:	05 0b 0b 59 00       	add    $0x590b0b,%eax
     220:	00 00                	add    %al,(%eax)
     222:	04 01                	add    $0x1,%al
     224:	1c 00                	sbb    $0x0,%al
     226:	0c b5                	or     $0xb5,%al
     228:	01 00                	add    %eax,(%eax)
     22a:	00 05 0c 0b 59 00    	add    %al,0x590b0c
     230:	00 00                	add    %al,(%eax)
     232:	04 01                	add    $0x1,%al
     234:	1b 00                	sbb    (%eax),%eax
     236:	0c e5                	or     $0xe5,%al
     238:	02 00                	add    (%eax),%al
     23a:	00 05 0d 0b 59 00    	add    %al,0x590b0d
     240:	00 00                	add    %al,(%eax)
     242:	04 07                	add    $0x7,%al
     244:	14 00                	adc    $0x0,%al
     246:	0c 82                	or     $0x82,%al
     248:	03 00                	add    (%eax),%eax
     24a:	00 05 0e 0b 59 00    	add    %al,0x590b0e
     250:	00 00                	add    %al,(%eax)
     252:	04 14                	add    $0x14,%al
     254:	00 00                	add    %al,(%eax)
     256:	00 02                	add    %al,(%edx)
     258:	49                   	dec    %ecx
     259:	01 00                	add    %eax,(%eax)
     25b:	00 05 0f 03 da 01    	add    %al,0x1da030f
     261:	00 00                	add    %al,(%eax)
     263:	0e                   	push   %cs
     264:	5e                   	pop    %esi
     265:	01 00                	add    %eax,(%eax)
     267:	00 00                	add    %al,(%eax)
     269:	10 05 11 10 7f 02    	adc    %al,0x27f1011
     26f:	00 00                	add    %al,(%eax)
     271:	0a df                	or     %bh,%bl
     273:	02 00                	add    (%eax),%al
     275:	00 05 12 0c 7f 02    	add    %al,0x27f0c12
     27b:	00 00                	add    %al,(%eax)
     27d:	00 00                	add    %al,(%eax)
     27f:	0f 57 02             	xorps  (%edx),%xmm0
     282:	00 00                	add    %al,(%eax)
     284:	90                   	nop
     285:	02 00                	add    (%eax),%al
     287:	00 10                	add    %dl,(%eax)
     289:	90                   	nop
     28a:	02 00                	add    (%eax),%al
     28c:	00 ff                	add    %bh,%bh
     28e:	03 00                	add    (%eax),%eax
     290:	03 04 07             	add    (%edi,%eax,1),%eax
     293:	f5                   	cmc    
     294:	05 00 00 02 b3       	add    $0xb3020000,%eax
     299:	00 00                	add    %al,(%eax)
     29b:	00 05 13 03 63 02    	add    %al,0x2630313
     2a1:	00 00                	add    %al,(%eax)
     2a3:	0e                   	push   %cs
     2a4:	47                   	inc    %edi
     2a5:	03 00                	add    (%eax),%eax
     2a7:	00 04 20             	add    %al,(%eax,%eiz,1)
     2aa:	05 15 10 db 02       	add    $0x2db1015,%eax
     2af:	00 00                	add    %al,(%eax)
     2b1:	0a 18                	or     (%eax),%bl
     2b3:	01 00                	add    %eax,(%eax)
     2b5:	00 05 16 13 db 02    	add    %al,0x2db1316
     2bb:	00 00                	add    %al,(%eax)
     2bd:	00 11                	add    %dl,(%ecx)
     2bf:	be 02 00 00 05       	mov    $0x5000002,%esi
     2c4:	17                   	pop    %ss
     2c5:	0b f2                	or     %edx,%esi
     2c7:	02 00                	add    (%eax),%al
     2c9:	00 00                	add    %al,(%eax)
     2cb:	10 11                	adc    %dl,(%ecx)
     2cd:	f7 00 00 00 05 18    	testl  $0x18050000,(%eax)
     2d3:	0b 59 00             	or     0x0(%ecx),%ebx
     2d6:	00 00                	add    %al,(%eax)
     2d8:	00 20                	add    %ah,(%eax)
     2da:	00 0f                	add    %cl,(%edi)
     2dc:	ec                   	in     (%dx),%al
     2dd:	02 00                	add    (%eax),%al
     2df:	00 ec                	add    %ch,%ah
     2e1:	02 00                	add    (%eax),%al
     2e3:	00 10                	add    %dl,(%eax)
     2e5:	90                   	nop
     2e6:	02 00                	add    (%eax),%al
     2e8:	00 ff                	add    %bh,%bh
     2ea:	03 00                	add    (%eax),%eax
     2ec:	06                   	push   %es
     2ed:	04 97                	add    $0x97,%al
     2ef:	02 00                	add    (%eax),%al
     2f1:	00 0f                	add    %cl,(%edi)
     2f3:	59                   	pop    %ecx
     2f4:	00 00                	add    %al,(%eax)
     2f6:	00 03                	add    %al,(%ebx)
     2f8:	03 00                	add    (%eax),%eax
     2fa:	00 10                	add    %dl,(%eax)
     2fc:	90                   	nop
     2fd:	02 00                	add    (%eax),%al
     2ff:	00 ff                	add    %bh,%bh
     301:	03 00                	add    (%eax),%eax
     303:	02 a2 00 00 00 05    	add    0x5000000(%edx),%ah
     309:	19 03                	sbb    %eax,(%ebx)
     30b:	a3 02 00 00 12       	mov    %eax,0x12000002
     310:	ed                   	in     (%dx),%eax
     311:	00 00                	add    %al,(%eax)
     313:	00 01                	add    %al,(%ecx)
     315:	05 0e 59 00 00       	add    $0x590e,%eax
     31a:	00 13                	add    %dl,(%ebx)
     31c:	12 00                	adc    (%eax),%al
     31e:	00 00                	add    %al,(%eax)
     320:	01 06                	add    %eax,(%esi)
     322:	07                   	pop    %es
     323:	59                   	pop    %ecx
     324:	00 00                	add    %al,(%eax)
     326:	00 05 03 00 40 10    	add    %al,0x10400003
     32c:	00 12                	add    %dl,(%edx)
     32e:	6f                   	outsl  %ds:(%esi),(%dx)
     32f:	00 00                	add    %al,(%eax)
     331:	00 01                	add    %al,(%ecx)
     333:	07                   	pop    %es
     334:	1a 39                	sbb    (%ecx),%bh
     336:	03 00                	add    (%eax),%eax
     338:	00 06                	add    %al,(%esi)
     33a:	04 03                	add    $0x3,%al
     33c:	03 00                	add    (%eax),%eax
     33e:	00 13                	add    %dl,(%ebx)
     340:	cd 00                	int    $0x0
     342:	00 00                	add    %al,(%eax)
     344:	01 08                	add    %ecx,(%eax)
     346:	09 51 03             	or     %edx,0x3(%ecx)
     349:	00 00                	add    %al,(%eax)
     34b:	05 03 00 50 10       	add    $0x10500003,%eax
     350:	00 06                	add    %al,(%esi)
     352:	04 ce                	add    $0xce,%al
     354:	01 00                	add    %eax,(%eax)
     356:	00 14 e1             	add    %dl,(%ecx,%eiz,8)
     359:	01 00                	add    %eax,(%eax)
     35b:	00 01                	add    %al,(%ecx)
     35d:	89 07                	mov    %eax,(%edi)
     35f:	8b 00                	mov    (%eax),%eax
     361:	00 00                	add    %al,(%eax)
     363:	e6 04                	out    %al,$0x4
     365:	10 00                	adc    %al,(%eax)
     367:	20 03                	and    %al,(%ebx)
     369:	00 00                	add    %al,(%eax)
     36b:	01 9c 3e 05 00 00 15 	add    %ebx,0x15000005(%esi,%edi,1)
     372:	d7                   	xlat   %ds:(%ebx)
     373:	00 00                	add    %al,(%eax)
     375:	00 01                	add    %al,(%ecx)
     377:	89 13                	mov    %edx,(%ebx)
     379:	59                   	pop    %ecx
     37a:	00 00                	add    %al,(%eax)
     37c:	00 02                	add    %al,(%edx)
     37e:	91                   	xchg   %eax,%ecx
     37f:	00 15 8b 01 00 00    	add    %dl,0x18b
     385:	01 89 1e 25 00 00    	add    %ecx,0x251e(%ecx)
     38b:	00 03                	add    %al,(%ebx)
     38d:	91                   	xchg   %eax,%ecx
     38e:	8c 7f 15             	mov    %?,0x15(%edi)
     391:	c2 01 00             	ret    $0x1
     394:	00 01                	add    %al,(%ecx)
     396:	89 32                	mov    %esi,(%edx)
     398:	51                   	push   %ecx
     399:	03 00                	add    (%eax),%eax
     39b:	00 02                	add    %al,(%edx)
     39d:	91                   	xchg   %eax,%ecx
     39e:	08 16                	or     %dl,(%esi)
     3a0:	af                   	scas   %es:(%edi),%eax
     3a1:	02 00                	add    (%eax),%al
     3a3:	00 01                	add    %al,(%ecx)
     3a5:	8a 0b                	mov    (%ebx),%cl
     3a7:	59                   	pop    %ecx
     3a8:	00 00                	add    %al,(%eax)
     3aa:	00 02                	add    %al,(%edx)
     3ac:	91                   	xchg   %eax,%ecx
     3ad:	6c                   	insb   (%dx),%es:(%edi)
     3ae:	17                   	pop    %ss
     3af:	69 00 01 8b 0b 6c    	imul   $0x6c0b8b01,(%eax),%eax
     3b5:	00 00                	add    %al,(%eax)
     3b7:	00 02                	add    %al,(%edx)
     3b9:	91                   	xchg   %eax,%ecx
     3ba:	68 16 ec 02 00       	push   $0x2ec16
     3bf:	00 01                	add    %al,(%ecx)
     3c1:	ae                   	scas   %es:(%edi),%al
     3c2:	0f 64 01             	pcmpgtb (%ecx),%mm0
     3c5:	00 00                	add    %al,(%eax)
     3c7:	02 91 54 16 08 02    	add    0x2081654(%ecx),%dl
     3cd:	00 00                	add    %al,(%eax)
     3cf:	01 af 0b 59 00 00    	add    %ebp,0x590b(%edi)
     3d5:	00 02                	add    %al,(%edx)
     3d7:	91                   	xchg   %eax,%ecx
     3d8:	5c                   	pop    %esp
     3d9:	16                   	push   %ss
     3da:	8b 02                	mov    (%edx),%eax
     3dc:	00 00                	add    %al,(%eax)
     3de:	01 b0 0b 59 00 00    	add    %esi,0x590b(%eax)
     3e4:	00 02                	add    %al,(%edx)
     3e6:	91                   	xchg   %eax,%ecx
     3e7:	58                   	pop    %eax
     3e8:	16                   	push   %ss
     3e9:	35 01 00 00 01       	xor    $0x1000001,%eax
     3ee:	c3                   	ret    
     3ef:	0f 64 01             	pcmpgtb (%ecx),%mm0
     3f2:	00 00                	add    %al,(%eax)
     3f4:	02 91 44 16 e7 01    	add    0x1e71644(%ecx),%dl
     3fa:	00 00                	add    %al,(%eax)
     3fc:	01 c7                	add    %eax,%edi
     3fe:	0f 3e                	(bad)  
     400:	05 00 00 02 91       	add    $0x91020000,%eax
     405:	40                   	inc    %eax
     406:	18 1e                	sbb    %bl,(%esi)
     408:	05 10 00 60 01       	add    $0x1600010,%eax
     40d:	00 00                	add    %al,(%eax)
     40f:	d8 04 00             	fadds  (%eax,%eax,1)
     412:	00 16                	add    %dl,(%esi)
     414:	37                   	aaa    
     415:	02 00                	add    (%eax),%al
     417:	00 01                	add    %al,(%ecx)
     419:	8d 08                	lea    (%eax),%ecx
     41b:	59                   	pop    %ecx
     41c:	00 00                	add    %al,(%eax)
     41e:	00 03                	add    %al,(%ebx)
     420:	91                   	xchg   %eax,%ecx
     421:	b4 7f                	mov    $0x7f,%ah
     423:	16                   	push   %ss
     424:	fd                   	std    
     425:	02 00                	add    (%eax),%al
     427:	00 01                	add    %al,(%ecx)
     429:	8e 08                	mov    (%eax),%cs
     42b:	59                   	pop    %ecx
     42c:	00 00                	add    %al,(%eax)
     42e:	00 03                	add    %al,(%ebx)
     430:	91                   	xchg   %eax,%ecx
     431:	b0 7f                	mov    $0x7f,%al
     433:	16                   	push   %ss
     434:	f4                   	hlt    
     435:	01 00                	add    %eax,(%eax)
     437:	00 01                	add    %al,(%ecx)
     439:	90                   	nop
     43a:	08 59 00             	or     %bl,0x0(%ecx)
     43d:	00 00                	add    %al,(%eax)
     43f:	03 91 ac 7f 17 69    	add    0x69177fac(%ecx),%edx
     445:	64 78 00             	fs js  448 <FLAGS+0x447>
     448:	01 92 08 59 00 00    	add    %edx,0x5908(%edx)
     44e:	00 02                	add    %al,(%edx)
     450:	91                   	xchg   %eax,%ecx
     451:	64 16                	fs push %ss
     453:	dc 00                	faddl  (%eax)
     455:	00 00                	add    %al,(%eax)
     457:	01 92 18 59 00 00    	add    %edx,0x5918(%edx)
     45d:	00 02                	add    %al,(%edx)
     45f:	91                   	xchg   %eax,%ecx
     460:	60                   	pusha  
     461:	18 7b 05             	sbb    %bh,0x5(%ebx)
     464:	10 00                	adc    %al,(%eax)
     466:	2e 00 00             	add    %al,%cs:(%eax)
     469:	00 7f 04             	add    %bh,0x4(%edi)
     46c:	00 00                	add    %al,(%eax)
     46e:	17                   	pop    %ss
     46f:	74 6d                	je     4de <FLAGS+0x4dd>
     471:	70 00                	jo     473 <FLAGS+0x472>
     473:	01 94 0c 59 00 00 00 	add    %edx,0x59(%esp,%ecx,1)
     47a:	03 91 98 7f 00 18    	add    0x18007f98(%ecx),%edx
     480:	bc 05 10 00 59       	mov    $0x59001005,%esp
     485:	00 00                	add    %al,(%eax)
     487:	00 ad 04 00 00 16    	add    %ch,0x16000004(%ebp)
     48d:	f6 02 00             	testb  $0x0,(%edx)
     490:	00 01                	add    %al,(%ecx)
     492:	9c                   	pushf  
     493:	10 64 01 00          	adc    %ah,0x0(%ecx,%eax,1)
     497:	00 03                	add    %al,(%ebx)
     499:	91                   	xchg   %eax,%ecx
     49a:	a0 7f 16 29 01       	mov    0x129167f,%al
     49f:	00 00                	add    %al,(%eax)
     4a1:	01 a0 10 3e 05 00    	add    %esp,0x53e10(%eax)
     4a7:	00 03                	add    %al,(%ebx)
     4a9:	91                   	xchg   %eax,%ecx
     4aa:	9c                   	pushf  
     4ab:	7f 00                	jg     4ad <FLAGS+0x4ac>
     4ad:	19 17                	sbb    %edx,(%edi)
     4af:	06                   	push   %es
     4b0:	10 00                	adc    %al,(%eax)
     4b2:	4c                   	dec    %esp
     4b3:	00 00                	add    %al,(%eax)
     4b5:	00 16                	add    %dl,(%esi)
     4b7:	f6 02 00             	testb  $0x0,(%edx)
     4ba:	00 01                	add    %al,(%ecx)
     4bc:	a5                   	movsl  %ds:(%esi),%es:(%edi)
     4bd:	10 64 01 00          	adc    %ah,0x0(%ecx,%eax,1)
     4c1:	00 03                	add    %al,(%ebx)
     4c3:	91                   	xchg   %eax,%ecx
     4c4:	a8 7f                	test   $0x7f,%al
     4c6:	16                   	push   %ss
     4c7:	29 01                	sub    %eax,(%ecx)
     4c9:	00 00                	add    %al,(%eax)
     4cb:	01 a7 10 3e 05 00    	add    %esp,0x53e10(%edi)
     4d1:	00 03                	add    %al,(%ebx)
     4d3:	91                   	xchg   %eax,%ecx
     4d4:	a4                   	movsb  %ds:(%esi),%es:(%edi)
     4d5:	7f 00                	jg     4d7 <FLAGS+0x4d6>
     4d7:	00 18                	add    %bl,(%eax)
     4d9:	cf                   	iret   
     4da:	06                   	push   %es
     4db:	10 00                	adc    %al,(%eax)
     4dd:	65 00 00             	add    %al,%gs:(%eax)
     4e0:	00 13                	add    %dl,(%ebx)
     4e2:	05 00 00 16 c0       	add    $0xc0160000,%eax
     4e7:	00 00                	add    %al,(%eax)
     4e9:	00 01                	add    %al,(%ecx)
     4eb:	b6 08                	mov    $0x8,%dh
     4ed:	59                   	pop    %ecx
     4ee:	00 00                	add    %al,(%eax)
     4f0:	00 02                	add    %al,(%edx)
     4f2:	91                   	xchg   %eax,%ecx
     4f3:	50                   	push   %eax
     4f4:	16                   	push   %ss
     4f5:	f1                   	icebp  
     4f6:	02 00                	add    (%eax),%al
     4f8:	00 01                	add    %al,(%ecx)
     4fa:	b7 0c                	mov    $0xc,%bh
     4fc:	64 01 00             	add    %eax,%fs:(%eax)
     4ff:	00 02                	add    %al,(%edx)
     501:	91                   	xchg   %eax,%ecx
     502:	4c                   	dec    %esp
     503:	16                   	push   %ss
     504:	24 01                	and    $0x1,%al
     506:	00 00                	add    %al,(%eax)
     508:	01 bb 0c 3e 05 00    	add    %edi,0x53e0c(%ebx)
     50e:	00 02                	add    %al,(%edx)
     510:	91                   	xchg   %eax,%ecx
     511:	48                   	dec    %eax
     512:	00 19                	add    %bl,(%ecx)
     514:	90                   	nop
     515:	07                   	pop    %es
     516:	10 00                	adc    %al,(%eax)
     518:	6e                   	outsb  %ds:(%esi),(%dx)
     519:	00 00                	add    %al,(%eax)
     51b:	00 16                	add    %dl,(%esi)
     51d:	f1                   	icebp  
     51e:	02 00                	add    (%eax),%al
     520:	00 01                	add    %al,(%ecx)
     522:	cb                   	lret   
     523:	0c 64                	or     $0x64,%al
     525:	01 00                	add    %eax,(%eax)
     527:	00 03                	add    %al,(%ebx)
     529:	91                   	xchg   %eax,%ecx
     52a:	bc 7f 16 24 01       	mov    $0x124167f,%esp
     52f:	00 00                	add    %al,(%eax)
     531:	01 cf                	add    %ecx,%edi
     533:	0c 3e                	or     $0x3e,%al
     535:	05 00 00 03 91       	add    $0x91030000,%eax
     53a:	b8 7f 00 00 06       	mov    $0x600007f,%eax
     53f:	04 6a                	add    $0x6a,%al
     541:	01 00                	add    %eax,(%eax)
     543:	00 14 bb             	add    %dl,(%ebx,%edi,4)
     546:	01 00                	add    %eax,(%eax)
     548:	00 01                	add    %al,(%ecx)
     54a:	72 09                	jb     555 <FLAGS+0x554>
     54c:	51                   	push   %ecx
     54d:	03 00                	add    (%eax),%eax
     54f:	00 03                	add    %al,(%ebx)
     551:	04 10                	add    $0x10,%al
     553:	00 e3                	add    %ah,%bl
     555:	00 00                	add    %al,(%eax)
     557:	00 01                	add    %al,(%ecx)
     559:	9c                   	pushf  
     55a:	c8 05 00 00          	enter  $0x5,$0x0
     55e:	15 69 01 00 00       	adc    $0x169,%eax
     563:	01 72 1b             	add    %esi,0x1b(%edx)
     566:	59                   	pop    %ecx
     567:	00 00                	add    %al,(%eax)
     569:	00 02                	add    %al,(%edx)
     56b:	91                   	xchg   %eax,%ecx
     56c:	00 1a                	add    %bl,(%edx)
     56e:	65 6e                	outsb  %gs:(%esi),(%dx)
     570:	64 00 01             	add    %al,%fs:(%ecx)
     573:	72 28                	jb     59d <FLAGS+0x59c>
     575:	59                   	pop    %ecx
     576:	00 00                	add    %al,(%eax)
     578:	00 02                	add    %al,(%edx)
     57a:	91                   	xchg   %eax,%ecx
     57b:	04 1a                	add    $0x1a,%al
     57d:	6d                   	insl   (%dx),%es:(%edi)
     57e:	61                   	popa   
     57f:	78 00                	js     581 <FLAGS+0x580>
     581:	01 72 33             	add    %esi,0x33(%edx)
     584:	59                   	pop    %ecx
     585:	00 00                	add    %al,(%eax)
     587:	00 02                	add    %al,(%edx)
     589:	91                   	xchg   %eax,%ecx
     58a:	08 15 00 00 00 00    	or     %dl,0x0
     590:	01 72 3d             	add    %esi,0x3d(%edx)
     593:	25 00 00 00 02       	and    $0x2000000,%eax
     598:	91                   	xchg   %eax,%ecx
     599:	5c                   	pop    %esp
     59a:	15 80 00 00 00       	adc    $0x80,%eax
     59f:	01 72 4e             	add    %esi,0x4e(%edx)
     5a2:	25 00 00 00 02       	and    $0x2000000,%eax
     5a7:	91                   	xchg   %eax,%ecx
     5a8:	58                   	pop    %eax
     5a9:	16                   	push   %ss
     5aa:	c2 01 00             	ret    $0x1
     5ad:	00 01                	add    %al,(%ecx)
     5af:	73 0d                	jae    5be <FLAGS+0x5bd>
     5b1:	51                   	push   %ecx
     5b2:	03 00                	add    (%eax),%eax
     5b4:	00 02                	add    %al,(%edx)
     5b6:	91                   	xchg   %eax,%ecx
     5b7:	6c                   	insb   (%dx),%es:(%edi)
     5b8:	16                   	push   %ss
     5b9:	7e 02                	jle    5bd <FLAGS+0x5bc>
     5bb:	00 00                	add    %al,(%eax)
     5bd:	01 80 0f 64 01 00    	add    %eax,0x1640f(%eax)
     5c3:	00 02                	add    %al,(%edx)
     5c5:	91                   	xchg   %eax,%ecx
     5c6:	68 00 1b 96 01       	push   $0x1961b00
     5cb:	00 00                	add    %al,(%eax)
     5cd:	01 6f 0d             	add    %ebp,0xd(%edi)
     5d0:	38 00                	cmp    %al,(%eax)
     5d2:	00 00                	add    %al,(%eax)
     5d4:	ed                   	in     (%dx),%eax
     5d5:	03 10                	add    (%eax),%edx
     5d7:	00 16                	add    %dl,(%esi)
     5d9:	00 00                	add    %al,(%eax)
     5db:	00 01                	add    %al,(%ecx)
     5dd:	9c                   	pushf  
     5de:	fd                   	std    
     5df:	05 00 00 1a 61       	add    $0x611a0000,%eax
     5e4:	00 01                	add    %al,(%ecx)
     5e6:	6f                   	outsl  %ds:(%esi),(%dx)
     5e7:	26 8b 00             	mov    %es:(%eax),%eax
     5ea:	00 00                	add    %al,(%eax)
     5ec:	02 91 00 1a 62 00    	add    0x621a00(%ecx),%dl
     5f2:	01 6f 2f             	add    %ebp,0x2f(%edi)
     5f5:	8b 00                	mov    (%eax),%eax
     5f7:	00 00                	add    %al,(%eax)
     5f9:	02 91 04 00 1c 89    	add    -0x76e3fffc(%ecx),%dl
     5ff:	00 00                	add    %al,(%eax)
     601:	00 01                	add    %al,(%ecx)
     603:	55                   	push   %ebp
     604:	0e                   	push   %cs
     605:	6c                   	insb   (%dx),%es:(%edi)
     606:	00 00                	add    %al,(%eax)
     608:	00 40 03             	add    %al,0x3(%eax)
     60b:	10 00                	adc    %al,(%eax)
     60d:	ad                   	lods   %ds:(%esi),%eax
     60e:	00 00                	add    %al,(%eax)
     610:	00 01                	add    %al,(%ecx)
     612:	9c                   	pushf  
     613:	a8 06                	test   $0x6,%al
     615:	00 00                	add    %al,(%eax)
     617:	15 d7 00 00 00       	adc    $0xd7,%eax
     61c:	01 55 27             	add    %edx,0x27(%ebp)
     61f:	59                   	pop    %ecx
     620:	00 00                	add    %al,(%eax)
     622:	00 02                	add    %al,(%edx)
     624:	91                   	xchg   %eax,%ecx
     625:	00 15 8b 01 00 00    	add    %dl,0x18b
     62b:	01 55 32             	add    %edx,0x32(%ebp)
     62e:	25 00 00 00 02       	and    $0x2000000,%eax
     633:	91                   	xchg   %eax,%ecx
     634:	4c                   	dec    %esp
     635:	15 c2 01 00 00       	adc    $0x1c2,%eax
     63a:	01 55 46             	add    %edx,0x46(%ebp)
     63d:	51                   	push   %ecx
     63e:	03 00                	add    (%eax),%eax
     640:	00 02                	add    %al,(%edx)
     642:	91                   	xchg   %eax,%ecx
     643:	08 17                	or     %dl,(%edi)
     645:	69 00 01 56 09 78    	imul   $0x78095601,(%eax),%eax
     64b:	00 00                	add    %al,(%eax)
     64d:	00 02                	add    %al,(%edx)
     64f:	91                   	xchg   %eax,%ecx
     650:	6c                   	insb   (%dx),%es:(%edi)
     651:	1d 00 00 00 00       	sbb    $0x0,%eax
     656:	16                   	push   %ss
     657:	f6 02 00             	testb  $0x0,(%edx)
     65a:	00 01                	add    %al,(%ecx)
     65c:	58                   	pop    %eax
     65d:	0c 64                	or     $0x64,%al
     65f:	01 00                	add    %eax,(%eax)
     661:	00 02                	add    %al,(%edx)
     663:	91                   	xchg   %eax,%ecx
     664:	68 19 71 03 10       	push   $0x10037119
     669:	00 44 00 00          	add    %al,0x0(%eax,%eax,1)
     66d:	00 16                	add    %dl,(%esi)
     66f:	c4 00                	les    (%eax),%eax
     671:	00 00                	add    %al,(%eax)
     673:	01 5a 0c             	add    %ebx,0xc(%edx)
     676:	59                   	pop    %ecx
     677:	00 00                	add    %al,(%eax)
     679:	00 02                	add    %al,(%edx)
     67b:	91                   	xchg   %eax,%ecx
     67c:	64 16                	fs push %ss
     67e:	42                   	inc    %edx
     67f:	01 00                	add    %eax,(%eax)
     681:	00 01                	add    %al,(%ecx)
     683:	5b                   	pop    %ebx
     684:	0a 78 00             	or     0x0(%eax),%bh
     687:	00 00                	add    %al,(%eax)
     689:	02 91 60 19 88 03    	add    0x3881960(%ecx),%dl
     68f:	10 00                	adc    %al,(%eax)
     691:	2d 00 00 00 16       	sub    $0x16000000,%eax
     696:	90                   	nop
     697:	02 00                	add    (%eax),%al
     699:	00 01                	add    %al,(%ecx)
     69b:	5e                   	pop    %esi
     69c:	09 6c 00 00          	or     %ebp,0x0(%eax,%eax,1)
     6a0:	00 02                	add    %al,(%edx)
     6a2:	91                   	xchg   %eax,%ecx
     6a3:	5c                   	pop    %esp
     6a4:	00 00                	add    %al,(%eax)
     6a6:	00 00                	add    %al,(%eax)
     6a8:	14 e2                	adc    $0xe2,%al
     6aa:	00 00                	add    %al,(%eax)
     6ac:	00 01                	add    %al,(%ecx)
     6ae:	51                   	push   %ecx
     6af:	07                   	pop    %es
     6b0:	59                   	pop    %ecx
     6b1:	00 00                	add    %al,(%eax)
     6b3:	00 25 03 10 00 1b    	add    %ah,0x1b001003
     6b9:	00 00                	add    %al,(%eax)
     6bb:	00 01                	add    %al,(%ecx)
     6bd:	9c                   	pushf  
     6be:	e1 06                	loope  6c6 <FLAGS+0x6c5>
     6c0:	00 00                	add    %al,(%eax)
     6c2:	15 d7 00 00 00       	adc    $0xd7,%eax
     6c7:	01 51 18             	add    %edx,0x18(%ecx)
     6ca:	59                   	pop    %ecx
     6cb:	00 00                	add    %al,(%eax)
     6cd:	00 02                	add    %al,(%edx)
     6cf:	91                   	xchg   %eax,%ecx
     6d0:	00 15 50 01 00 00    	add    %dl,0x150
     6d6:	01 51 25             	add    %edx,0x25(%ecx)
     6d9:	e1 06                	loope  6e1 <FLAGS+0x6e0>
     6db:	00 00                	add    %al,(%eax)
     6dd:	02 91 04 00 06 04    	add    0x4060004(%ecx),%dl
     6e3:	59                   	pop    %ecx
     6e4:	00 00                	add    %al,(%eax)
     6e6:	00 14 56             	add    %dl,(%esi,%edx,2)
     6e9:	02 00                	add    (%eax),%al
     6eb:	00 01                	add    %al,(%ecx)
     6ed:	4d                   	dec    %ebp
     6ee:	07                   	pop    %es
     6ef:	59                   	pop    %ecx
     6f0:	00 00                	add    %al,(%eax)
     6f2:	00 0a                	add    %cl,(%edx)
     6f4:	03 10                	add    (%eax),%edx
     6f6:	00 1b                	add    %bl,(%ebx)
     6f8:	00 00                	add    %al,(%eax)
     6fa:	00 01                	add    %al,(%ecx)
     6fc:	9c                   	pushf  
     6fd:	20 07                	and    %al,(%edi)
     6ff:	00 00                	add    %al,(%eax)
     701:	15 d7 00 00 00       	adc    $0xd7,%eax
     706:	01 4d 17             	add    %ecx,0x17(%ebp)
     709:	59                   	pop    %ecx
     70a:	00 00                	add    %al,(%eax)
     70c:	00 02                	add    %al,(%edx)
     70e:	91                   	xchg   %eax,%ecx
     70f:	00 15 50 01 00 00    	add    %dl,0x150
     715:	01 4d 24             	add    %ecx,0x24(%ebp)
     718:	e1 06                	loope  720 <FLAGS+0x71f>
     71a:	00 00                	add    %al,(%eax)
     71c:	02 91 04 00 14 2d    	add    0x2d140004(%ecx),%dl
     722:	02 00                	add    (%eax),%al
     724:	00 01                	add    %al,(%ecx)
     726:	49                   	dec    %ecx
     727:	07                   	pop    %es
     728:	59                   	pop    %ecx
     729:	00 00                	add    %al,(%eax)
     72b:	00 f0                	add    %dh,%al
     72d:	02 10                	add    (%eax),%dl
     72f:	00 1a                	add    %bl,(%edx)
     731:	00 00                	add    %al,(%eax)
     733:	00 01                	add    %al,(%ecx)
     735:	9c                   	pushf  
     736:	4a                   	dec    %edx
     737:	07                   	pop    %es
     738:	00 00                	add    %al,(%eax)
     73a:	15 d7 00 00 00       	adc    $0xd7,%eax
     73f:	01 49 17             	add    %ecx,0x17(%ecx)
     742:	59                   	pop    %ecx
     743:	00 00                	add    %al,(%eax)
     745:	00 02                	add    %al,(%edx)
     747:	91                   	xchg   %eax,%ecx
     748:	00 00                	add    %al,(%eax)
     74a:	14 df                	adc    $0xdf,%al
     74c:	01 00                	add    %eax,(%eax)
     74e:	00 01                	add    %al,(%ecx)
     750:	45                   	inc    %ebp
     751:	07                   	pop    %es
     752:	59                   	pop    %ecx
     753:	00 00                	add    %al,(%eax)
     755:	00 d6                	add    %dl,%dh
     757:	02 10                	add    (%eax),%dl
     759:	00 1a                	add    %bl,(%edx)
     75b:	00 00                	add    %al,(%eax)
     75d:	00 01                	add    %al,(%ecx)
     75f:	9c                   	pushf  
     760:	74 07                	je     769 <FLAGS+0x768>
     762:	00 00                	add    %al,(%eax)
     764:	15 d7 00 00 00       	adc    $0xd7,%eax
     769:	01 45 15             	add    %eax,0x15(%ebp)
     76c:	59                   	pop    %ecx
     76d:	00 00                	add    %al,(%eax)
     76f:	00 02                	add    %al,(%edx)
     771:	91                   	xchg   %eax,%ecx
     772:	00 00                	add    %al,(%eax)
     774:	1c ce                	sbb    $0xce,%al
     776:	02 00                	add    (%eax),%al
     778:	00 01                	add    %al,(%ecx)
     77a:	1d 0e 59 00 00       	sbb    $0x590e,%eax
     77f:	00 21                	add    %ah,(%ecx)
     781:	01 10                	add    %edx,(%eax)
     783:	00 b5 01 00 00 01    	add    %dh,0x1000001(%ebp)
     789:	9c                   	pushf  
     78a:	0b 08                	or     (%eax),%ecx
     78c:	00 00                	add    %al,(%eax)
     78e:	15 d7 00 00 00       	adc    $0xd7,%eax
     793:	01 1d 25 59 00 00    	add    %ebx,0x5925
     799:	00 02                	add    %al,(%edx)
     79b:	91                   	xchg   %eax,%ecx
     79c:	00 15 90 01 00 00    	add    %dl,0x190
     7a2:	01 1d 2f 78 00 00    	add    %ebx,0x782f
     7a8:	00 02                	add    %al,(%edx)
     7aa:	91                   	xchg   %eax,%ecx
     7ab:	04 15                	add    $0x15,%al
     7ad:	50                   	push   %eax
     7ae:	01 00                	add    %eax,(%eax)
     7b0:	00 01                	add    %al,(%ecx)
     7b2:	1d 3d e1 06 00       	sbb    $0x6e13d,%eax
     7b7:	00 02                	add    %al,(%edx)
     7b9:	91                   	xchg   %eax,%ecx
     7ba:	08 18                	or     %bl,(%eax)
     7bc:	65 01 10             	add    %edx,%gs:(%eax)
     7bf:	00 86 00 00 00 f1    	add    %al,-0xf000000(%esi)
     7c5:	07                   	pop    %es
     7c6:	00 00                	add    %al,(%eax)
     7c8:	16                   	push   %ss
     7c9:	fa                   	cli    
     7ca:	07                   	pop    %es
     7cb:	00 00                	add    %al,(%eax)
     7cd:	01 24 08             	add    %esp,(%eax,%ecx,1)
     7d0:	8b 00                	mov    (%eax),%eax
     7d2:	00 00                	add    %al,(%eax)
     7d4:	02 91 68 19 aa 01    	add    0x1aa1968(%ecx),%dl
     7da:	10 00                	adc    %al,(%eax)
     7dc:	39 00                	cmp    %eax,(%eax)
     7de:	00 00                	add    %al,(%eax)
     7e0:	16                   	push   %ss
     7e1:	12 04 00             	adc    (%eax,%eax,1),%al
     7e4:	00 01                	add    %al,(%ecx)
     7e6:	26 0e                	es push %cs
     7e8:	0b 08                	or     (%eax),%ecx
     7ea:	00 00                	add    %al,(%eax)
     7ec:	02 91 64 00 00 19    	add    0x19000064(%ecx),%dl
     7f2:	eb 01                	jmp    7f5 <FLAGS+0x7f4>
     7f4:	10 00                	adc    %al,(%eax)
     7f6:	e9 00 00 00 17       	jmp    170007fb <kernelend+0x16efab75>
     7fb:	74 6d                	je     86a <FLAGS+0x869>
     7fd:	70 00                	jo     7ff <FLAGS+0x7fe>
     7ff:	01 3b                	add    %edi,(%ebx)
     801:	0f 59 00             	mulps  (%eax),%xmm0
     804:	00 00                	add    %al,(%eax)
     806:	02 91 6c 00 00 06    	add    0x600006c(%ecx),%dl
     80c:	04 57                	add    $0x57,%al
     80e:	02 00                	add    (%eax),%al
     810:	00 1e                	add    %bl,(%esi)
     812:	60                   	pusha  
     813:	02 00                	add    (%eax),%al
     815:	00 01                	add    %al,(%ecx)
     817:	0a 0d 19 00 10 00    	or     0x100019,%cl
     81d:	08 01                	or     %al,(%ecx)
     81f:	00 00                	add    %al,(%eax)
     821:	01 9c 15 af 02 00 00 	add    %ebx,0x2af(%ebp,%edx,1)
     828:	01 0a                	add    %ecx,(%edx)
     82a:	1a 59 00             	sbb    0x0(%ecx),%bl
     82d:	00 00                	add    %al,(%eax)
     82f:	02 91 00 15 c2 01    	add    0x1c21500(%ecx),%dl
     835:	00 00                	add    %al,(%eax)
     837:	01 0a                	add    %ecx,(%edx)
     839:	2c 51                	sub    $0x51,%al
     83b:	03 00                	add    (%eax),%eax
     83d:	00 02                	add    %al,(%edx)
     83f:	91                   	xchg   %eax,%ecx
     840:	04 16                	add    $0x16,%al
     842:	d3 00                	roll   %cl,(%eax)
     844:	00 00                	add    %al,(%eax)
     846:	01 13                	add    %edx,(%ebx)
     848:	0b 59 00             	or     0x0(%ecx),%ebx
     84b:	00 00                	add    %al,(%eax)
     84d:	02 91 68 17 69 00    	add    0x691768(%ecx),%dl
     853:	01 14 0b             	add    %edx,(%ebx,%ecx,1)
     856:	59                   	pop    %ecx
     857:	00 00                	add    %al,(%eax)
     859:	00 02                	add    %al,(%edx)
     85b:	91                   	xchg   %eax,%ecx
     85c:	6c                   	insb   (%dx),%es:(%edi)
     85d:	00 00                	add    %al,(%eax)
     85f:	bb 06 00 00 04       	mov    $0x4000006,%ebx
     864:	00 e1                	add    %ah,%cl
     866:	01 00                	add    %eax,(%eax)
     868:	00 04 01             	add    %al,(%ecx,%eax,1)
     86b:	24 00                	and    $0x0,%al
     86d:	00 00                	add    %al,(%eax)
     86f:	0c c9                	or     $0xc9,%al
     871:	03 00                	add    (%eax),%eax
     873:	00 42 02             	add    %al,0x2(%edx)
     876:	00 00                	add    %al,(%eax)
     878:	06                   	push   %es
     879:	08 10                	or     %dl,(%eax)
     87b:	00 93 06 00 00 81    	add    %dl,-0x7efffffa(%ebx)
     881:	03 00                	add    (%eax),%eax
     883:	00 02                	add    %al,(%edx)
     885:	70 02                	jo     889 <FLAGS+0x888>
     887:	00 00                	add    %al,(%eax)
     889:	02 04 17             	add    (%edi,%edx,1),%al
     88c:	31 00                	xor    %eax,(%eax)
     88e:	00 00                	add    %al,(%eax)
     890:	03 01                	add    (%ecx),%eax
     892:	08 6f 01             	or     %ch,0x1(%edi)
     895:	00 00                	add    %al,(%eax)
     897:	02 30                	add    (%eax),%dh
     899:	01 00                	add    %eax,(%eax)
     89b:	00 02                	add    %al,(%edx)
     89d:	05 0e 44 00 00       	add    $0x440e,%eax
     8a2:	00 03                	add    %al,(%ebx)
     8a4:	01 06                	add    %eax,(%esi)
     8a6:	78 01                	js     8a9 <FLAGS+0x8a8>
     8a8:	00 00                	add    %al,(%eax)
     8aa:	03 02                	add    (%edx),%eax
     8ac:	07                   	pop    %es
     8ad:	cc                   	int3   
     8ae:	01 00                	add    %eax,(%eax)
     8b0:	00 03                	add    %al,(%ebx)
     8b2:	02 05 65 00 00 00    	add    0x65,%al
     8b8:	02 75 02             	add    0x2(%ebp),%dh
     8bb:	00 00                	add    %al,(%eax)
     8bd:	02 08                	add    (%eax),%cl
     8bf:	16                   	push   %ss
     8c0:	65 00 00             	add    %al,%gs:(%eax)
     8c3:	00 03                	add    %al,(%ebx)
     8c5:	04 07                	add    $0x7,%al
     8c7:	fa                   	cli    
     8c8:	05 00 00 04 04       	add    $0x4040000,%eax
     8cd:	05 69 6e 74 00       	add    $0x746e69,%eax
     8d2:	05 2b 04 00 00       	add    $0x42b,%eax
     8d7:	40                   	inc    %eax
     8d8:	03 1d 10 4e 01 00    	add    0x14e10,%ebx
     8de:	00 06                	add    %al,(%esi)
     8e0:	64 73 00             	fs jae 8e3 <FLAGS+0x8e2>
     8e3:	03 1e                	add    (%esi),%ebx
     8e5:	0b 59 00             	or     0x0(%ecx),%ebx
     8e8:	00 00                	add    %al,(%eax)
     8ea:	00 06                	add    %al,(%esi)
     8ec:	65 64 69 00 03 1f 0b 	gs imul $0x590b1f03,%fs:(%eax),%eax
     8f3:	59 
     8f4:	00 00                	add    %al,(%eax)
     8f6:	00 04 06             	add    %al,(%esi,%eax,1)
     8f9:	65 73 69             	gs jae 965 <FLAGS+0x964>
     8fc:	00 03                	add    %al,(%ebx)
     8fe:	1f                   	pop    %ds
     8ff:	0f 59 00             	mulps  (%eax),%xmm0
     902:	00 00                	add    %al,(%eax)
     904:	08 06                	or     %al,(%esi)
     906:	65 62 70 00          	bound  %esi,%gs:0x0(%eax)
     90a:	03 1f                	add    (%edi),%ebx
     90c:	13 59 00             	adc    0x0(%ecx),%ebx
     90f:	00 00                	add    %al,(%eax)
     911:	0c 06                	or     $0x6,%al
     913:	65 73 70             	gs jae 986 <FLAGS+0x985>
     916:	00 03                	add    %al,(%ebx)
     918:	1f                   	pop    %ds
     919:	17                   	pop    %ss
     91a:	59                   	pop    %ecx
     91b:	00 00                	add    %al,(%eax)
     91d:	00 10                	add    %dl,(%eax)
     91f:	06                   	push   %es
     920:	65 62 78 00          	bound  %edi,%gs:0x0(%eax)
     924:	03 1f                	add    (%edi),%ebx
     926:	1b 59 00             	sbb    0x0(%ecx),%ebx
     929:	00 00                	add    %al,(%eax)
     92b:	14 06                	adc    $0x6,%al
     92d:	65 64 78 00          	gs fs js 931 <FLAGS+0x930>
     931:	03 1f                	add    (%edi),%ebx
     933:	1f                   	pop    %ds
     934:	59                   	pop    %ecx
     935:	00 00                	add    %al,(%eax)
     937:	00 18                	add    %bl,(%eax)
     939:	06                   	push   %es
     93a:	65 63 78 00          	arpl   %di,%gs:0x0(%eax)
     93e:	03 1f                	add    (%edi),%ebx
     940:	23 59 00             	and    0x0(%ecx),%ebx
     943:	00 00                	add    %al,(%eax)
     945:	1c 06                	sbb    $0x6,%al
     947:	65 61                	gs popa 
     949:	78 00                	js     94b <FLAGS+0x94a>
     94b:	03 1f                	add    (%edi),%ebx
     94d:	27                   	daa    
     94e:	59                   	pop    %ecx
     94f:	00 00                	add    %al,(%eax)
     951:	00 20                	add    %ah,(%eax)
     953:	07                   	pop    %es
     954:	f3 03 00             	repz add (%eax),%eax
     957:	00 03                	add    %al,(%ebx)
     959:	20 0b                	and    %cl,(%ebx)
     95b:	59                   	pop    %ecx
     95c:	00 00                	add    %al,(%eax)
     95e:	00 24 07             	add    %ah,(%edi,%eax,1)
     961:	17                   	pop    %ss
     962:	04 00                	add    $0x0,%al
     964:	00 03                	add    %al,(%ebx)
     966:	20 12                	and    %dl,(%edx)
     968:	59                   	pop    %ecx
     969:	00 00                	add    %al,(%eax)
     96b:	00 28                	add    %ch,(%eax)
     96d:	06                   	push   %es
     96e:	65 69 70 00 03 21 0b 	imul   $0x590b2103,%gs:0x0(%eax),%esi
     975:	59 
     976:	00 00                	add    %al,(%eax)
     978:	00 2c 06             	add    %ch,(%esi,%eax,1)
     97b:	63 73 00             	arpl   %si,0x0(%ebx)
     97e:	03 21                	add    (%ecx),%esp
     980:	0f 59 00             	mulps  (%eax),%xmm0
     983:	00 00                	add    %al,(%eax)
     985:	30 07                	xor    %al,(%edi)
     987:	56                   	push   %esi
     988:	03 00                	add    (%eax),%eax
     98a:	00 03                	add    %al,(%ebx)
     98c:	21 12                	and    %edx,(%edx)
     98e:	59                   	pop    %ecx
     98f:	00 00                	add    %al,(%eax)
     991:	00 34 07             	add    %dh,(%edi,%eax,1)
     994:	b9 03 00 00 03       	mov    $0x3000003,%ecx
     999:	21 19                	and    %ebx,(%ecx)
     99b:	59                   	pop    %ecx
     99c:	00 00                	add    %al,(%eax)
     99e:	00 38                	add    %bh,(%eax)
     9a0:	06                   	push   %es
     9a1:	73 73                	jae    a16 <FLAGS+0xa15>
     9a3:	00 03                	add    %al,(%ebx)
     9a5:	21 21                	and    %esp,(%ecx)
     9a7:	59                   	pop    %ecx
     9a8:	00 00                	add    %al,(%eax)
     9aa:	00 3c 00             	add    %bh,(%eax,%eax,1)
     9ad:	02 0d 03 00 00 03    	add    0x3000003,%cl
     9b3:	22 03                	and    (%ebx),%al
     9b5:	73 00                	jae    9b7 <FLAGS+0x9b6>
     9b7:	00 00                	add    %al,(%eax)
     9b9:	05 12 04 00 00       	add    $0x412,%eax
     9be:	04 04                	add    $0x4,%al
     9c0:	07                   	pop    %es
     9c1:	10 d7                	adc    %dl,%bh
     9c3:	01 00                	add    %eax,(%eax)
     9c5:	00 08                	add    %cl,(%eax)
     9c7:	83 02 00             	addl   $0x0,(%edx)
     9ca:	00 04 08             	add    %al,(%eax,%ecx,1)
     9cd:	0b 59 00             	or     0x0(%ecx),%ebx
     9d0:	00 00                	add    %al,(%eax)
     9d2:	04 01                	add    $0x1,%al
     9d4:	1f                   	pop    %ds
     9d5:	00 09                	add    %cl,(%ecx)
     9d7:	72 77                	jb     a50 <FLAGS+0xa4f>
     9d9:	00 04 09             	add    %al,(%ecx,%ecx,1)
     9dc:	0b 59 00             	or     0x0(%ecx),%ebx
     9df:	00 00                	add    %al,(%eax)
     9e1:	04 01                	add    $0x1,%al
     9e3:	1e                   	push   %ds
     9e4:	00 08                	add    %cl,(%eax)
     9e6:	c7 01 00 00 04 0a    	movl   $0xa040000,(%ecx)
     9ec:	0b 59 00             	or     0x0(%ecx),%ebx
     9ef:	00 00                	add    %al,(%eax)
     9f1:	04 01                	add    $0x1,%al
     9f3:	1d 00 08 67 02       	sbb    $0x2670800,%eax
     9f8:	00 00                	add    %al,(%eax)
     9fa:	04 0b                	add    $0xb,%al
     9fc:	0b 59 00             	or     0x0(%ecx),%ebx
     9ff:	00 00                	add    %al,(%eax)
     a01:	04 01                	add    $0x1,%al
     a03:	1c 00                	sbb    $0x0,%al
     a05:	08 b5 01 00 00 04    	or     %dh,0x4000001(%ebp)
     a0b:	0c 0b                	or     $0xb,%al
     a0d:	59                   	pop    %ecx
     a0e:	00 00                	add    %al,(%eax)
     a10:	00 04 01             	add    %al,(%ecx,%eax,1)
     a13:	1b 00                	sbb    (%eax),%eax
     a15:	08 e5                	or     %ah,%ch
     a17:	02 00                	add    (%eax),%al
     a19:	00 04 0d 0b 59 00 00 	add    %al,0x590b(,%ecx,1)
     a20:	00 04 07             	add    %al,(%edi,%eax,1)
     a23:	14 00                	adc    $0x0,%al
     a25:	08 82 03 00 00 04    	or     %al,0x4000003(%edx)
     a2b:	0e                   	push   %cs
     a2c:	0b 59 00             	or     0x0(%ecx),%ebx
     a2f:	00 00                	add    %al,(%eax)
     a31:	04 14                	add    $0x14,%al
     a33:	00 00                	add    %al,(%eax)
     a35:	00 02                	add    %al,(%edx)
     a37:	49                   	dec    %ecx
     a38:	01 00                	add    %eax,(%eax)
     a3a:	00 04 0f             	add    %al,(%edi,%ecx,1)
     a3d:	03 5a 01             	add    0x1(%edx),%ebx
     a40:	00 00                	add    %al,(%eax)
     a42:	0a 5e 01             	or     0x1(%esi),%bl
     a45:	00 00                	add    %al,(%eax)
     a47:	00 10                	add    %dl,(%eax)
     a49:	04 11                	add    $0x11,%al
     a4b:	10 ff                	adc    %bh,%bh
     a4d:	01 00                	add    %eax,(%eax)
     a4f:	00 07                	add    %al,(%edi)
     a51:	df 02                	filds  (%edx)
     a53:	00 00                	add    %al,(%eax)
     a55:	04 12                	add    $0x12,%al
     a57:	0c ff                	or     $0xff,%al
     a59:	01 00                	add    %eax,(%eax)
     a5b:	00 00                	add    %al,(%eax)
     a5d:	00 0b                	add    %cl,(%ebx)
     a5f:	d7                   	xlat   %ds:(%ebx)
     a60:	01 00                	add    %eax,(%eax)
     a62:	00 10                	add    %dl,(%eax)
     a64:	02 00                	add    (%eax),%al
     a66:	00 0c 10             	add    %cl,(%eax,%edx,1)
     a69:	02 00                	add    (%eax),%al
     a6b:	00 ff                	add    %bh,%bh
     a6d:	03 00                	add    (%eax),%eax
     a6f:	03 04 07             	add    (%edi,%eax,1),%eax
     a72:	f5                   	cmc    
     a73:	05 00 00 02 b3       	add    $0xb3020000,%eax
     a78:	00 00                	add    %al,(%eax)
     a7a:	00 04 13             	add    %al,(%ebx,%edx,1)
     a7d:	03 e3                	add    %ebx,%esp
     a7f:	01 00                	add    %eax,(%eax)
     a81:	00 0a                	add    %cl,(%edx)
     a83:	47                   	inc    %edi
     a84:	03 00                	add    (%eax),%eax
     a86:	00 04 20             	add    %al,(%eax,%eiz,1)
     a89:	04 15                	add    $0x15,%al
     a8b:	10 5b 02             	adc    %bl,0x2(%ebx)
     a8e:	00 00                	add    %al,(%eax)
     a90:	07                   	pop    %es
     a91:	18 01                	sbb    %al,(%ecx)
     a93:	00 00                	add    %al,(%eax)
     a95:	04 16                	add    $0x16,%al
     a97:	13 5b 02             	adc    0x2(%ebx),%ebx
     a9a:	00 00                	add    %al,(%eax)
     a9c:	00 0d be 02 00 00    	add    %cl,0x2be
     aa2:	04 17                	add    $0x17,%al
     aa4:	0b 72 02             	or     0x2(%edx),%esi
     aa7:	00 00                	add    %al,(%eax)
     aa9:	00 10                	add    %dl,(%eax)
     aab:	0d f7 00 00 00       	or     $0xf7,%eax
     ab0:	04 18                	add    $0x18,%al
     ab2:	0b 59 00             	or     0x0(%ecx),%ebx
     ab5:	00 00                	add    %al,(%eax)
     ab7:	00 20                	add    %ah,(%eax)
     ab9:	00 0b                	add    %cl,(%ebx)
     abb:	6c                   	insb   (%dx),%es:(%edi)
     abc:	02 00                	add    (%eax),%al
     abe:	00 6c 02 00          	add    %ch,0x0(%edx,%eax,1)
     ac2:	00 0c 10             	add    %cl,(%eax,%edx,1)
     ac5:	02 00                	add    (%eax),%al
     ac7:	00 ff                	add    %bh,%bh
     ac9:	03 00                	add    (%eax),%eax
     acb:	0e                   	push   %cs
     acc:	04 17                	add    $0x17,%al
     ace:	02 00                	add    (%eax),%al
     ad0:	00 0b                	add    %cl,(%ebx)
     ad2:	59                   	pop    %ecx
     ad3:	00 00                	add    %al,(%eax)
     ad5:	00 83 02 00 00 0c    	add    %al,0xc000002(%ebx)
     adb:	10 02                	adc    %al,(%edx)
     add:	00 00                	add    %al,(%eax)
     adf:	ff 03                	incl   (%ebx)
     ae1:	00 02                	add    %al,(%edx)
     ae3:	a2 00 00 00 04       	mov    %al,0x4000000
     ae8:	19 03                	sbb    %eax,(%ebx)
     aea:	23 02                	and    (%edx),%eax
     aec:	00 00                	add    %al,(%eax)
     aee:	02 16                	add    (%esi),%dl
     af0:	02 00                	add    (%eax),%al
     af2:	00 05 07 0f 9b 02    	add    %al,0x29b0f07
     af8:	00 00                	add    %al,(%eax)
     afa:	0f 04                	(bad)  
     afc:	02 a3 02 00 00 05    	add    0x5000002(%ebx),%ah
     b02:	08 10                	or     %dl,(%eax)
     b04:	a9 02 00 00 0e       	test   $0xe000002,%eax
     b09:	04 af                	add    $0xaf,%al
     b0b:	02 00                	add    (%eax),%al
     b0d:	00 10                	add    %dl,(%eax)
     b0f:	38 00                	cmp    %al,(%eax)
     b11:	00 00                	add    %al,(%eax)
     b13:	c3                   	ret    
     b14:	02 00                	add    (%eax),%al
     b16:	00 11                	add    %dl,(%ecx)
     b18:	8f 02                	popl   (%edx)
     b1a:	00 00                	add    %al,(%eax)
     b1c:	11 8f 02 00 00 00    	adc    %ecx,0x2(%edi)
     b22:	12 10                	adc    (%eax),%dl
     b24:	05 0a 09 01 03       	add    $0x301090a,%eax
     b29:	00 00                	add    %al,(%eax)
     b2b:	07                   	pop    %es
     b2c:	48                   	dec    %eax
     b2d:	0b 00                	or     (%eax),%eax
     b2f:	00 05 0b 0d 01 03    	add    %al,0x3010d0b
     b35:	00 00                	add    %al,(%eax)
     b37:	00 07                	add    %al,(%edi)
     b39:	d7                   	xlat   %ds:(%ebx)
     b3a:	00 00                	add    %al,(%eax)
     b3c:	00 05 0c 0b 59 00    	add    %al,0x590b0c
     b42:	00 00                	add    %al,(%eax)
     b44:	04 07                	add    $0x7,%al
     b46:	9a 02 00 00 05 0d 0b 	lcall  $0xb0d,$0x5000002
     b4d:	59                   	pop    %ecx
     b4e:	00 00                	add    %al,(%eax)
     b50:	00 08                	add    %cl,(%eax)
     b52:	07                   	pop    %es
     b53:	9f                   	lahf   
     b54:	01 00                	add    %eax,(%eax)
     b56:	00 05 0e 11 9d 02    	add    %al,0x29d110e
     b5c:	00 00                	add    %al,(%eax)
     b5e:	0c 00                	or     $0x0,%al
     b60:	0e                   	push   %cs
     b61:	04 8f                	add    $0x8f,%al
     b63:	02 00                	add    (%eax),%al
     b65:	00 02                	add    %al,(%edx)
     b67:	1d 02 00 00 05       	sbb    $0x5000002,%eax
     b6c:	0f 03 c3             	lsl    %bx,%eax
     b6f:	02 00                	add    (%eax),%al
     b71:	00 12                	add    %dl,(%edx)
     b73:	20 06                	and    %al,(%esi)
     b75:	18 09                	sbb    %cl,(%ecx)
     b77:	6b 03 00             	imul   $0x0,(%ebx),%eax
     b7a:	00 07                	add    %al,(%edi)
     b7c:	42                   	inc    %edx
     b7d:	04 00                	add    $0x0,%al
     b7f:	00 06                	add    %al,(%esi)
     b81:	19 15 07 03 00 00    	sbb    %edx,0x307
     b87:	00 07                	add    %al,(%edi)
     b89:	7d 01                	jge    b8c <FLAGS+0xb8b>
     b8b:	00 00                	add    %al,(%eax)
     b8d:	06                   	push   %es
     b8e:	1a 0b                	sbb    (%ebx),%cl
     b90:	59                   	pop    %ecx
     b91:	00 00                	add    %al,(%eax)
     b93:	00 10                	add    %dl,(%eax)
     b95:	07                   	pop    %es
     b96:	01 03                	add    %eax,(%ebx)
     b98:	00 00                	add    %al,(%eax)
     b9a:	06                   	push   %es
     b9b:	1b 0b                	sbb    (%ebx),%ecx
     b9d:	59                   	pop    %ecx
     b9e:	00 00                	add    %al,(%eax)
     ba0:	00 14 07             	add    %dl,(%edi,%eax,1)
     ba3:	a9 01 00 00 06       	test   $0x6000001,%eax
     ba8:	1c 0b                	sbb    $0xb,%al
     baa:	59                   	pop    %ecx
     bab:	00 00                	add    %al,(%eax)
     bad:	00 18                	add    %bl,(%eax)
     baf:	07                   	pop    %es
     bb0:	00 00                	add    %al,(%eax)
     bb2:	00 00                	add    %al,(%eax)
     bb4:	06                   	push   %es
     bb5:	1d 0a 25 00 00       	sbb    $0x250a,%eax
     bba:	00 1c 07             	add    %bl,(%edi,%eax,1)
     bbd:	80 00 00             	addb   $0x0,(%eax)
     bc0:	00 06                	add    %al,(%esi)
     bc2:	1e                   	push   %ds
     bc3:	0a 25 00 00 00 1d    	or     0x1d000000,%ah
     bc9:	00 02                	add    %al,(%edx)
     bcb:	0b 00                	or     (%eax),%eax
     bcd:	00 00                	add    %al,(%eax)
     bcf:	06                   	push   %es
     bd0:	1f                   	pop    %ds
     bd1:	03 13                	add    (%ebx),%edx
     bd3:	03 00                	add    (%eax),%eax
     bd5:	00 13                	add    %dl,(%ebx)
     bd7:	32 03                	xor    (%ebx),%al
     bd9:	00 00                	add    %al,(%eax)
     bdb:	01 09                	add    %ecx,(%ecx)
     bdd:	08 89 03 00 00 05    	or     %cl,0x5000003(%ecx)
     be3:	03 14 50             	add    (%eax,%edx,2),%edx
     be6:	10 00                	adc    %al,(%eax)
     be8:	0e                   	push   %cs
     be9:	04 59                	add    $0x59,%al
     beb:	00 00                	add    %al,(%eax)
     bed:	00 13                	add    %dl,(%ebx)
     bef:	c1 03 00             	roll   $0x0,(%ebx)
     bf2:	00 01                	add    %al,(%ecx)
     bf4:	0a 07                	or     (%edi),%al
     bf6:	59                   	pop    %ecx
     bf7:	00 00                	add    %al,(%eax)
     bf9:	00 05 03 10 50 10    	add    %al,0x10501003
     bff:	00 13                	add    %dl,(%ebx)
     c01:	6f                   	outsl  %ds:(%esi),(%dx)
     c02:	00 00                	add    %al,(%eax)
     c04:	00 01                	add    %al,(%ecx)
     c06:	0b 13                	or     (%ebx),%edx
     c08:	b3 03                	mov    $0x3,%bl
     c0a:	00 00                	add    %al,(%eax)
     c0c:	05 03 04 50 10       	add    $0x10500403,%eax
     c11:	00 0e                	add    %cl,(%esi)
     c13:	04 83                	add    $0x83,%al
     c15:	02 00                	add    (%eax),%al
     c17:	00 13                	add    %dl,(%ebx)
     c19:	92                   	xchg   %eax,%edx
     c1a:	03 00                	add    (%eax),%eax
     c1c:	00 01                	add    %al,(%ecx)
     c1e:	0c 13                	or     $0x13,%al
     c20:	b3 03                	mov    $0x3,%bl
     c22:	00 00                	add    %al,(%eax)
     c24:	05 03 08 50 10       	add    $0x10500803,%eax
     c29:	00 14 12             	add    %dl,(%edx,%edx,1)
     c2c:	00 00                	add    %al,(%eax)
     c2e:	00 01                	add    %al,(%ecx)
     c30:	0e                   	push   %cs
     c31:	0e                   	push   %cs
     c32:	59                   	pop    %ecx
     c33:	00 00                	add    %al,(%eax)
     c35:	00 14 cd 00 00 00 01 	add    %dl,0x1000000(,%ecx,8)
     c3c:	0f 10 e3             	movups %xmm3,%xmm4
     c3f:	03 00                	add    (%eax),%eax
     c41:	00 0e                	add    %cl,(%esi)
     c43:	04 6b                	add    $0x6b,%al
     c45:	03 00                	add    (%eax),%eax
     c47:	00 14 19             	add    %dl,(%ecx,%ebx,1)
     c4a:	03 00                	add    (%eax),%eax
     c4c:	00 01                	add    %al,(%ecx)
     c4e:	10 0e                	adc    %cl,(%esi)
     c50:	59                   	pop    %ecx
     c51:	00 00                	add    %al,(%eax)
     c53:	00 15 3b 06 00 00    	add    %dl,0x63b
     c59:	01 a5 06 5b 0e 10    	add    %esp,0x100e5b06(%ebp)
     c5f:	00 3e                	add    %bh,(%esi)
     c61:	00 00                	add    %al,(%eax)
     c63:	00 01                	add    %al,(%ecx)
     c65:	9c                   	pushf  
     c66:	2a 04 00             	sub    (%eax,%eax,1),%al
     c69:	00 16                	add    %dl,(%esi)
     c6b:	54                   	push   %esp
     c6c:	04 00                	add    $0x0,%al
     c6e:	00 01                	add    %al,(%ecx)
     c70:	a5                   	movsl  %ds:(%esi),%es:(%edi)
     c71:	1d 4e 01 00 00       	sbb    $0x14e,%eax
     c76:	02 91 00 17 24 03    	add    0x3241700(%ecx),%dl
     c7c:	00 00                	add    %al,(%eax)
     c7e:	01 a6 0b 59 00 00    	add    %esp,0x590b(%esi)
     c84:	00 02                	add    %al,(%edx)
     c86:	91                   	xchg   %eax,%ecx
     c87:	6c                   	insb   (%dx),%es:(%edi)
     c88:	00 18                	add    %bl,(%eax)
     c8a:	dd 03                	fldl   (%ebx)
     c8c:	00 00                	add    %al,(%eax)
     c8e:	01 8e 09 9a 04 00    	add    %ecx,0x49a09(%esi)
     c94:	00 58 0d             	add    %bl,0xd(%eax)
     c97:	10 00                	adc    %al,(%eax)
     c99:	03 01                	add    (%ecx),%eax
     c9b:	00 00                	add    %al,(%eax)
     c9d:	01 9c 9a 04 00 00 16 	add    %ebx,0x16000004(%edx,%ebx,4)
     ca4:	05 03 00 00 01       	add    $0x1000003,%eax
     ca9:	8e 18                	mov    (%eax),%ds
     cab:	59                   	pop    %ecx
     cac:	00 00                	add    %al,(%eax)
     cae:	00 02                	add    %al,(%edx)
     cb0:	91                   	xchg   %eax,%ecx
     cb1:	00 16                	add    %dl,(%esi)
     cb3:	05 04 00 00 01       	add    $0x1000004,%eax
     cb8:	8e 25 6c 00 00 00    	mov    0x6c,%fs
     cbe:	02 91 04 19 64 69    	add    0x69641904(%ecx),%dl
     cc4:	72 00                	jb     cc6 <FLAGS+0xcc5>
     cc6:	01 8e 3d b3 03 00    	add    %ecx,0x3b33d(%esi)
     ccc:	00 02                	add    %al,(%edx)
     cce:	91                   	xchg   %eax,%ecx
     ccf:	08 17                	or     %dl,(%edi)
     cd1:	3c 04                	cmp    $0x4,%al
     cd3:	00 00                	add    %al,(%eax)
     cd5:	01 90 0b 59 00 00    	add    %edx,0x590b(%eax)
     cdb:	00 02                	add    %al,(%edx)
     cdd:	91                   	xchg   %eax,%ecx
     cde:	6c                   	insb   (%dx),%es:(%edi)
     cdf:	1a a3 0d 10 00 b1    	sbb    -0x4effeff3(%ebx),%ah
     ce5:	00 00                	add    %al,(%eax)
     ce7:	00 1b                	add    %bl,(%ebx)
     ce9:	74 6d                	je     d58 <FLAGS+0xd57>
     ceb:	70 00                	jo     ced <FLAGS+0xcec>
     ced:	01 94 08 59 00 00 00 	add    %edx,0x59(%eax,%ecx,1)
     cf4:	02 91 68 00 00 0e    	add    0xe000068(%ecx),%dl
     cfa:	04 d7                	add    $0xd7,%al
     cfc:	01 00                	add    %eax,(%eax)
     cfe:	00 15 40 03 00 00    	add    %dl,0x340
     d04:	01 7c 06 ea          	add    %edi,-0x16(%esi,%eax,1)
     d08:	0c 10                	or     $0x10,%al
     d0a:	00 6e 00             	add    %ch,0x0(%esi)
     d0d:	00 00                	add    %al,(%eax)
     d0f:	01 9c d5 04 00 00 19 	add    %ebx,0x19000004(%ebp,%edx,8)
     d16:	64 69 72 00 01 7c 2e 	imul   $0xb32e7c01,%fs:0x0(%edx),%esi
     d1d:	b3 
     d1e:	03 00                	add    (%eax),%eax
     d20:	00 02                	add    %al,(%edx)
     d22:	91                   	xchg   %eax,%ecx
     d23:	00 1b                	add    %bl,(%ebx)
     d25:	63 72 30             	arpl   %si,0x30(%edx)
     d28:	00 01                	add    %al,(%ecx)
     d2a:	84 0b                	test   %cl,(%ebx)
     d2c:	59                   	pop    %ecx
     d2d:	00 00                	add    %al,(%eax)
     d2f:	00 02                	add    %al,(%edx)
     d31:	91                   	xchg   %eax,%ecx
     d32:	6c                   	insb   (%dx),%es:(%edi)
     d33:	00 1c 48             	add    %bl,(%eax,%ecx,2)
     d36:	04 00                	add    $0x0,%al
     d38:	00 01                	add    %al,(%ecx)
     d3a:	4c                   	dec    %esp
     d3b:	06                   	push   %es
     d3c:	65 0a 10             	or     %gs:(%eax),%dl
     d3f:	00 85 02 00 00 01    	add    %al,0x1000002(%ebp)
     d45:	9c                   	pushf  
     d46:	08 05 00 00 17 0a    	or     %al,0xa170000
     d4c:	04 00                	add    $0x0,%al
     d4e:	00 01                	add    %al,(%ecx)
     d50:	4d                   	dec    %ebp
     d51:	0b 59 00             	or     0x0(%ecx),%ebx
     d54:	00 00                	add    %al,(%eax)
     d56:	02 91 68 1b 69 00    	add    0x691b68(%ecx),%dl
     d5c:	01 69 09             	add    %ebp,0x9(%ecx)
     d5f:	6c                   	insb   (%dx),%es:(%edi)
     d60:	00 00                	add    %al,(%eax)
     d62:	00 02                	add    %al,(%edx)
     d64:	91                   	xchg   %eax,%ecx
     d65:	6c                   	insb   (%dx),%es:(%edi)
     d66:	00 1d 20 04 00 00    	add    %bl,0x420
     d6c:	01 45 0d             	add    %eax,0xd(%ebp)
     d6f:	31 0a                	xor    %ecx,(%edx)
     d71:	10 00                	adc    %al,(%eax)
     d73:	34 00                	xor    $0x0,%al
     d75:	00 00                	add    %al,(%eax)
     d77:	01 9c 3d 05 00 00 16 	add    %ebx,0x16000005(%ebp,%edi,1)
     d7e:	12 04 00             	adc    (%eax,%eax,1),%al
     d81:	00 01                	add    %al,(%ecx)
     d83:	45                   	inc    %ebp
     d84:	20 9a 04 00 00 02    	and    %bl,0x2000004(%edx)
     d8a:	91                   	xchg   %eax,%ecx
     d8b:	00 17                	add    %dl,(%edi)
     d8d:	82 03 00             	addb   $0x0,(%ebx)
     d90:	00 01                	add    %al,(%ecx)
     d92:	46                   	inc    %esi
     d93:	0b 59 00             	or     0x0(%ecx),%ebx
     d96:	00 00                	add    %al,(%eax)
     d98:	02 91 74 00 15 7c    	add    0x7c150074(%ecx),%dl
     d9e:	03 00                	add    (%eax),%eax
     da0:	00 01                	add    %al,(%ecx)
     da2:	37                   	aaa    
     da3:	06                   	push   %es
     da4:	81 09 10 00 b0 00    	orl    $0xb00010,(%ecx)
     daa:	00 00                	add    %al,(%eax)
     dac:	01 9c 90 05 00 00 16 	add    %ebx,0x16000005(%eax,%edx,4)
     db3:	12 04 00             	adc    (%eax,%eax,1),%al
     db6:	00 01                	add    %al,(%ecx)
     db8:	37                   	aaa    
     db9:	1a 9a 04 00 00 02    	sbb    0x2000004(%edx),%bl
     dbf:	91                   	xchg   %eax,%ecx
     dc0:	00 16                	add    %dl,(%esi)
     dc2:	af                   	scas   %es:(%edi),%eax
     dc3:	03 00                	add    (%eax),%eax
     dc5:	00 01                	add    %al,(%ecx)
     dc7:	37                   	aaa    
     dc8:	24 6c                	and    $0x6c,%al
     dca:	00 00                	add    %al,(%eax)
     dcc:	00 02                	add    %al,(%edx)
     dce:	91                   	xchg   %eax,%ecx
     dcf:	04 16                	add    $0x16,%al
     dd1:	e6 03                	out    %al,$0x3
     dd3:	00 00                	add    %al,(%eax)
     dd5:	01 37                	add    %esi,(%edi)
     dd7:	33 6c 00 00          	xor    0x0(%eax,%eax,1),%ebp
     ddb:	00 02                	add    %al,(%edx)
     ddd:	91                   	xchg   %eax,%ecx
     dde:	08 17                	or     %dl,(%edi)
     de0:	42                   	inc    %edx
     de1:	04 00                	add    $0x0,%al
     de3:	00 01                	add    %al,(%ecx)
     de5:	39 0b                	cmp    %ecx,(%ebx)
     de7:	59                   	pop    %ecx
     de8:	00 00                	add    %al,(%eax)
     dea:	00 02                	add    %al,(%edx)
     dec:	91                   	xchg   %eax,%ecx
     ded:	6c                   	insb   (%dx),%es:(%edi)
     dee:	00 1e                	add    %bl,(%esi)
     df0:	5d                   	pop    %ebp
     df1:	03 00                	add    (%eax),%eax
     df3:	00 01                	add    %al,(%ecx)
     df5:	2a 0e                	sub    (%esi),%cl
     df7:	59                   	pop    %ecx
     df8:	00 00                	add    %al,(%eax)
     dfa:	00 01                	add    %al,(%ecx)
     dfc:	09 10                	or     %edx,(%eax)
     dfe:	00 80 00 00 00 01    	add    %al,0x1000000(%eax)
     e04:	9c                   	pushf  
     e05:	c5 05 00 00 1b 69    	lds    0x691b0000,%eax
     e0b:	00 01                	add    %al,(%ecx)
     e0d:	2b 0b                	sub    (%ebx),%ecx
     e0f:	59                   	pop    %ecx
     e10:	00 00                	add    %al,(%eax)
     e12:	00 02                	add    %al,(%edx)
     e14:	91                   	xchg   %eax,%ecx
     e15:	70 1b                	jo     e32 <FLAGS+0xe31>
     e17:	6a 00                	push   $0x0
     e19:	01 2b                	add    %ebp,(%ebx)
     e1b:	0e                   	push   %cs
     e1c:	59                   	pop    %ecx
     e1d:	00 00                	add    %al,(%eax)
     e1f:	00 02                	add    %al,(%edx)
     e21:	91                   	xchg   %eax,%ecx
     e22:	6c                   	insb   (%dx),%es:(%edi)
     e23:	00 1f                	add    %bl,(%edi)
     e25:	a4                   	movsb  %ds:(%esi),%es:(%edi)
     e26:	03 00                	add    (%eax),%eax
     e28:	00 01                	add    %al,(%ecx)
     e2a:	23 0e                	and    (%esi),%ecx
     e2c:	59                   	pop    %ecx
     e2d:	00 00                	add    %al,(%eax)
     e2f:	00 ba 08 10 00 47    	add    %bh,0x47001008(%edx)
     e35:	00 00                	add    %al,(%eax)
     e37:	00 01                	add    %al,(%ecx)
     e39:	9c                   	pushf  
     e3a:	1c 06                	sbb    $0x6,%al
     e3c:	00 00                	add    %al,(%eax)
     e3e:	16                   	push   %ss
     e3f:	fa                   	cli    
     e40:	03 00                	add    (%eax),%eax
     e42:	00 01                	add    %al,(%ecx)
     e44:	23 1f                	and    (%edi),%ebx
     e46:	59                   	pop    %ecx
     e47:	00 00                	add    %al,(%eax)
     e49:	00 02                	add    %al,(%edx)
     e4b:	91                   	xchg   %eax,%ecx
     e4c:	00 17                	add    %dl,(%edi)
     e4e:	82 03 00             	addb   $0x0,(%ebx)
     e51:	00 01                	add    %al,(%ecx)
     e53:	24 0b                	and    $0xb,%al
     e55:	59                   	pop    %ecx
     e56:	00 00                	add    %al,(%eax)
     e58:	00 02                	add    %al,(%edx)
     e5a:	91                   	xchg   %eax,%ecx
     e5b:	70 17                	jo     e74 <FLAGS+0xe73>
     e5d:	42                   	inc    %edx
     e5e:	04 00                	add    $0x0,%al
     e60:	00 01                	add    %al,(%ecx)
     e62:	25 0b 59 00 00       	and    $0x590b,%eax
     e67:	00 02                	add    %al,(%edx)
     e69:	91                   	xchg   %eax,%ecx
     e6a:	6c                   	insb   (%dx),%es:(%edi)
     e6b:	17                   	pop    %ss
     e6c:	42                   	inc    %edx
     e6d:	01 00                	add    %eax,(%eax)
     e6f:	00 01                	add    %al,(%ecx)
     e71:	26 0b 59 00          	or     %es:0x0(%ecx),%ebx
     e75:	00 00                	add    %al,(%eax)
     e77:	02 91 68 00 20 70    	add    0x70200068(%ecx),%dl
     e7d:	03 00                	add    (%eax),%eax
     e7f:	00 01                	add    %al,(%ecx)
     e81:	1c 0d                	sbb    $0xd,%al
     e83:	5f                   	pop    %edi
     e84:	08 10                	or     %dl,(%eax)
     e86:	00 5b 00             	add    %bl,0x0(%ebx)
     e89:	00 00                	add    %al,(%eax)
     e8b:	01 9c 6f 06 00 00 16 	add    %ebx,0x16000006(%edi,%ebp,2)
     e92:	fa                   	cli    
     e93:	03 00                	add    (%eax),%eax
     e95:	00 01                	add    %al,(%ecx)
     e97:	1c 1f                	sbb    $0x1f,%al
     e99:	59                   	pop    %ecx
     e9a:	00 00                	add    %al,(%eax)
     e9c:	00 02                	add    %al,(%edx)
     e9e:	91                   	xchg   %eax,%ecx
     e9f:	00 17                	add    %dl,(%edi)
     ea1:	82 03 00             	addb   $0x0,(%ebx)
     ea4:	00 01                	add    %al,(%ecx)
     ea6:	1d 0b 59 00 00       	sbb    $0x590b,%eax
     eab:	00 02                	add    %al,(%edx)
     ead:	91                   	xchg   %eax,%ecx
     eae:	70 17                	jo     ec7 <FLAGS+0xec6>
     eb0:	42                   	inc    %edx
     eb1:	04 00                	add    $0x0,%al
     eb3:	00 01                	add    %al,(%ecx)
     eb5:	1e                   	push   %ds
     eb6:	0b 59 00             	or     0x0(%ecx),%ebx
     eb9:	00 00                	add    %al,(%eax)
     ebb:	02 91 6c 17 42 01    	add    0x142176c(%ecx),%dl
     ec1:	00 00                	add    %al,(%eax)
     ec3:	01 1f                	add    %ebx,(%edi)
     ec5:	0b 59 00             	or     0x0(%ecx),%ebx
     ec8:	00 00                	add    %al,(%eax)
     eca:	02 91 68 00 21 88    	add    -0x77deff98(%ecx),%dl
     ed0:	03 00                	add    (%eax),%eax
     ed2:	00 01                	add    %al,(%ecx)
     ed4:	15 0d 06 08 10       	adc    $0x1008060d,%eax
     ed9:	00 59 00             	add    %bl,0x0(%ecx)
     edc:	00 00                	add    %al,(%eax)
     ede:	01 9c 16 fa 03 00 00 	add    %ebx,0x3fa(%esi,%edx,1)
     ee5:	01 15 1d 59 00 00    	add    %edx,0x591d
     eeb:	00 02                	add    %al,(%edx)
     eed:	91                   	xchg   %eax,%ecx
     eee:	00 17                	add    %dl,(%edi)
     ef0:	82 03 00             	addb   $0x0,(%ebx)
     ef3:	00 01                	add    %al,(%ecx)
     ef5:	16                   	push   %ss
     ef6:	0b 59 00             	or     0x0(%ecx),%ebx
     ef9:	00 00                	add    %al,(%eax)
     efb:	02 91 70 17 42 04    	add    0x4421770(%ecx),%dl
     f01:	00 00                	add    %al,(%eax)
     f03:	01 17                	add    %edx,(%edi)
     f05:	0b 59 00             	or     0x0(%ecx),%ebx
     f08:	00 00                	add    %al,(%eax)
     f0a:	02 91 6c 17 42 01    	add    0x142176c(%ecx),%dl
     f10:	00 00                	add    %al,(%eax)
     f12:	01 18                	add    %ebx,(%eax)
     f14:	0b 59 00             	or     0x0(%ecx),%ebx
     f17:	00 00                	add    %al,(%eax)
     f19:	02 91 68 00 00 10    	add    0x10000068(%ecx),%dl
     f1f:	04 00                	add    $0x0,%al
     f21:	00 04 00             	add    %al,(%eax,%eax,1)
     f24:	29 04 00             	sub    %eax,(%eax,%eax,1)
     f27:	00 04 01             	add    %al,(%ecx,%eax,1)
     f2a:	24 00                	and    $0x0,%al
     f2c:	00 00                	add    %al,(%eax)
     f2e:	0c 04                	or     $0x4,%al
     f30:	05 00 00 42 02       	add    $0x2420000,%eax
     f35:	00 00                	add    %al,(%eax)
     f37:	99                   	cltd   
     f38:	0e                   	push   %cs
     f39:	10 00                	adc    %al,(%eax)
     f3b:	33 01                	xor    (%ecx),%eax
     f3d:	00 00                	add    %al,(%eax)
     f3f:	ea 05 00 00 02 01 08 	ljmp   $0x801,$0x2000005
     f46:	6f                   	outsl  %ds:(%esi),(%dx)
     f47:	01 00                	add    %eax,(%eax)
     f49:	00 02                	add    %al,(%edx)
     f4b:	01 06                	add    %eax,(%esi)
     f4d:	78 01                	js     f50 <FLAGS+0xf4f>
     f4f:	00 00                	add    %al,(%eax)
     f51:	02 02                	add    (%edx),%al
     f53:	07                   	pop    %es
     f54:	cc                   	int3   
     f55:	01 00                	add    %eax,(%eax)
     f57:	00 02                	add    %al,(%edx)
     f59:	02 05 65 00 00 00    	add    0x65,%al
     f5f:	03 75 02             	add    0x2(%ebp),%esi
     f62:	00 00                	add    %al,(%eax)
     f64:	02 08                	add    (%eax),%cl
     f66:	16                   	push   %ss
     f67:	4d                   	dec    %ebp
     f68:	00 00                	add    %al,(%eax)
     f6a:	00 02                	add    %al,(%edx)
     f6c:	04 07                	add    $0x7,%al
     f6e:	fa                   	cli    
     f6f:	05 00 00 04 04       	add    $0x4040000,%eax
     f74:	05 69 6e 74 00       	add    $0x746e69,%eax
     f79:	03 be 07 00 00 03    	add    0x3000007(%esi),%edi
     f7f:	49                   	dec    %ecx
     f80:	21 25 00 00 00 03    	and    %esp,0x3000000
     f86:	b9 04 00 00 03       	mov    $0x3000004,%ecx
     f8b:	4a                   	dec    %edx
     f8c:	21 33                	and    %esi,(%ebx)
     f8e:	00 00                	add    %al,(%eax)
     f90:	00 03                	add    %al,(%ebx)
     f92:	25 06 00 00 03       	and    $0x3000006,%eax
     f97:	4b                   	dec    %ebx
     f98:	21 4d 00             	and    %ecx,0x0(%ebp)
     f9b:	00 00                	add    %al,(%eax)
     f9d:	03 a6 04 00 00 03    	add    0x3000004(%esi),%esp
     fa3:	4c                   	dec    %esp
     fa4:	21 8b 00 00 00 02    	and    %ecx,0x2000000(%ebx)
     faa:	08 07                	or     %al,(%edi)
     fac:	f0 05 00 00 05 85    	lock add $0x85050000,%eax
     fb2:	07                   	pop    %es
     fb3:	00 00                	add    %al,(%eax)
     fb5:	10 03                	adc    %al,(%ebx)
     fb7:	68 08 d4 00 00       	push   $0xd408
     fbc:	00 06                	add    %al,(%esi)
     fbe:	08 07                	or     %al,(%edi)
     fc0:	00 00                	add    %al,(%eax)
     fc2:	03 6a 16             	add    0x16(%edx),%ebp
     fc5:	73 00                	jae    fc7 <FLAGS+0xfc6>
     fc7:	00 00                	add    %al,(%eax)
     fc9:	00 06                	add    %al,(%esi)
     fcb:	22 05 00 00 03 6b    	and    0x6b030000,%al
     fd1:	16                   	push   %ss
     fd2:	73 00                	jae    fd4 <FLAGS+0xfd3>
     fd4:	00 00                	add    %al,(%eax)
     fd6:	04 06                	add    $0x6,%al
     fd8:	fa                   	cli    
     fd9:	07                   	pop    %es
     fda:	00 00                	add    %al,(%eax)
     fdc:	03 6c 16 73          	add    0x73(%esi,%edx,1),%ebp
     fe0:	00 00                	add    %al,(%eax)
     fe2:	00 08                	add    %cl,(%eax)
     fe4:	06                   	push   %es
     fe5:	ff 07                	incl   (%edi)
     fe7:	00 00                	add    %al,(%eax)
     fe9:	03 6d 16             	add    0x16(%ebp),%ebp
     fec:	73 00                	jae    fee <FLAGS+0xfed>
     fee:	00 00                	add    %al,(%eax)
     ff0:	0c 00                	or     $0x0,%al
     ff2:	03 d2                	add    %edx,%edx
     ff4:	06                   	push   %es
     ff5:	00 00                	add    %al,(%eax)
     ff7:	03 6f 2c             	add    0x2c(%edi),%ebp
     ffa:	92                   	xchg   %eax,%edx
     ffb:	00 00                	add    %al,(%eax)
     ffd:	00 05 7e 06 00 00    	add    %al,0x67e
    1003:	10 03                	adc    %al,(%ebx)
    1005:	72 08                	jb     100f <FLAGS+0x100e>
    1007:	22 01                	and    (%ecx),%al
    1009:	00 00                	add    %al,(%eax)
    100b:	07                   	pop    %es
    100c:	6e                   	outsb  %ds:(%esi),(%dx)
    100d:	75 6d                	jne    107c <FLAGS+0x107b>
    100f:	00 03                	add    %al,(%ebx)
    1011:	74 16                	je     1029 <FLAGS+0x1028>
    1013:	73 00                	jae    1015 <FLAGS+0x1014>
    1015:	00 00                	add    %al,(%eax)
    1017:	00 06                	add    %al,(%esi)
    1019:	d7                   	xlat   %ds:(%ebx)
    101a:	00 00                	add    %al,(%eax)
    101c:	00 03                	add    %al,(%ebx)
    101e:	75 16                	jne    1036 <FLAGS+0x1035>
    1020:	73 00                	jae    1022 <FLAGS+0x1021>
    1022:	00 00                	add    %al,(%eax)
    1024:	04 06                	add    $0x6,%al
    1026:	fa                   	cli    
    1027:	07                   	pop    %es
    1028:	00 00                	add    %al,(%eax)
    102a:	03 76 16             	add    0x16(%esi),%esi
    102d:	73 00                	jae    102f <FLAGS+0x102e>
    102f:	00 00                	add    %al,(%eax)
    1031:	08 06                	or     %al,(%esi)
    1033:	5d                   	pop    %ebp
    1034:	05 00 00 03 77       	add    $0x77030000,%eax
    1039:	16                   	push   %ss
    103a:	73 00                	jae    103c <FLAGS+0x103b>
    103c:	00 00                	add    %al,(%eax)
    103e:	0c 00                	or     $0x0,%al
    1040:	03 38                	add    (%eax),%edi
    1042:	05 00 00 03 79       	add    $0x79030000,%eax
    1047:	33 e0                	xor    %eax,%esp
    1049:	00 00                	add    %al,(%eax)
    104b:	00 08                	add    %cl,(%eax)
    104d:	10 03                	adc    %al,(%ebx)
    104f:	8e 03                	mov    (%ebx),%es
    1051:	50                   	push   %eax
    1052:	01 00                	add    %eax,(%eax)
    1054:	00 09                	add    %cl,(%ecx)
    1056:	46                   	inc    %esi
    1057:	06                   	push   %es
    1058:	00 00                	add    %al,(%eax)
    105a:	03 90 23 d4 00 00    	add    0xd423(%eax),%edx
    1060:	00 09                	add    %cl,(%ecx)
    1062:	c3                   	ret    
    1063:	05 00 00 03 91       	add    $0x91030000,%eax
    1068:	2a 22                	sub    (%edx),%ah
    106a:	01 00                	add    %eax,(%eax)
    106c:	00 00                	add    %al,(%eax)
    106e:	0a 08                	or     (%eax),%cl
    1070:	03 b8 05 74 01 00    	add    0x17405(%eax),%edi
    1076:	00 06                	add    %al,(%esi)
    1078:	08 08                	or     %cl,(%eax)
    107a:	00 00                	add    %al,(%eax)
    107c:	03 ba 1a 73 00 00    	add    0x731a(%edx),%edi
    1082:	00 00                	add    %al,(%eax)
    1084:	06                   	push   %es
    1085:	6d                   	insl   (%dx),%es:(%edi)
    1086:	05 00 00 03 bb       	add    $0xbb030000,%eax
    108b:	1a 67 00             	sbb    0x0(%edi),%ah
    108e:	00 00                	add    %al,(%eax)
    1090:	04 00                	add    $0x0,%al
    1092:	0a 06                	or     (%esi),%al
    1094:	03 bd 05 cc 01 00    	add    0x1cc05(%ebp),%edi
    109a:	00 06                	add    %al,(%esi)
    109c:	cc                   	int3   
    109d:	04 00                	add    $0x0,%al
    109f:	00 03                	add    %al,(%ebx)
    10a1:	bf 19 5b 00 00       	mov    $0x5b19,%edi
    10a6:	00 00                	add    %al,(%eax)
    10a8:	06                   	push   %es
    10a9:	10 07                	adc    %al,(%edi)
    10ab:	00 00                	add    %al,(%eax)
    10ad:	03 c0                	add    %eax,%eax
    10af:	19 5b 00             	sbb    %ebx,0x0(%ebx)
    10b2:	00 00                	add    %al,(%eax)
    10b4:	01 06                	add    %eax,(%esi)
    10b6:	85 04 00             	test   %eax,(%eax,%eax,1)
    10b9:	00 03                	add    %al,(%ebx)
    10bb:	c1 19 5b             	rcrl   $0x5b,(%ecx)
    10be:	00 00                	add    %al,(%eax)
    10c0:	00 02                	add    %al,(%edx)
    10c2:	06                   	push   %es
    10c3:	45                   	inc    %ebp
    10c4:	07                   	pop    %es
    10c5:	00 00                	add    %al,(%eax)
    10c7:	03 c2                	add    %edx,%eax
    10c9:	19 5b 00             	sbb    %ebx,0x0(%ebx)
    10cc:	00 00                	add    %al,(%eax)
    10ce:	03 06                	add    (%esi),%eax
    10d0:	4f                   	dec    %edi
    10d1:	06                   	push   %es
    10d2:	00 00                	add    %al,(%eax)
    10d4:	03 c3                	add    %ebx,%eax
    10d6:	19 5b 00             	sbb    %ebx,0x0(%ebx)
    10d9:	00 00                	add    %al,(%eax)
    10db:	04 06                	add    $0x6,%al
    10dd:	59                   	pop    %ecx
    10de:	04 00                	add    $0x0,%al
    10e0:	00 03                	add    %al,(%ebx)
    10e2:	c4 19                	les    (%ecx),%ebx
    10e4:	5b                   	pop    %ebx
    10e5:	00 00                	add    %al,(%eax)
    10e7:	00 05 00 08 08 03    	add    %al,0x3080800
    10ed:	b6 03                	mov    $0x3,%dh
    10ef:	e0 01                	loopne 10f2 <FLAGS+0x10f1>
    10f1:	00 00                	add    %al,(%eax)
    10f3:	0b 50 01             	or     0x1(%eax),%edx
    10f6:	00 00                	add    %al,(%eax)
    10f8:	0b 74 01 00          	or     0x0(%ecx,%eax,1),%esi
    10fc:	00 00                	add    %al,(%eax)
    10fe:	05 6f 06 00 00       	add    $0x66f,%eax
    1103:	78 03                	js     1108 <FLAGS+0x1107>
    1105:	7b 08                	jnp    110f <FLAGS+0x110e>
    1107:	51                   	push   %ecx
    1108:	03 00                	add    (%eax),%eax
    110a:	00 06                	add    %al,(%esi)
    110c:	57                   	push   %edi
    110d:	03 00                	add    (%eax),%eax
    110f:	00 03                	add    %al,(%ebx)
    1111:	7e 16                	jle    1129 <FLAGS+0x1128>
    1113:	73 00                	jae    1115 <FLAGS+0x1114>
    1115:	00 00                	add    %al,(%eax)
    1117:	00 06                	add    %al,(%esi)
    1119:	cb                   	lret   
    111a:	05 00 00 03 81       	add    $0x81030000,%eax
    111f:	16                   	push   %ss
    1120:	73 00                	jae    1122 <FLAGS+0x1121>
    1122:	00 00                	add    %al,(%eax)
    1124:	04 06                	add    $0x6,%al
    1126:	f0 06                	lock push %es
    1128:	00 00                	add    %al,(%eax)
    112a:	03 82 16 73 00 00    	add    0x7316(%edx),%eax
    1130:	00 08                	add    %cl,(%eax)
    1132:	06                   	push   %es
    1133:	8c 05 00 00 03 85    	mov    %es,0x85030000
    1139:	16                   	push   %ss
    113a:	73 00                	jae    113c <FLAGS+0x113b>
    113c:	00 00                	add    %al,(%eax)
    113e:	0c 06                	or     $0x6,%al
    1140:	f7 04 00 00 03 88 16 	testl  $0x16880300,(%eax,%eax,1)
    1147:	73 00                	jae    1149 <FLAGS+0x1148>
    1149:	00 00                	add    %al,(%eax)
    114b:	10 06                	adc    %al,(%esi)
    114d:	b3 07                	mov    $0x7,%bl
    114f:	00 00                	add    %al,(%eax)
    1151:	03 8b 16 73 00 00    	add    0x7316(%ebx),%ecx
    1157:	00 14 06             	add    %dl,(%esi,%eax,1)
    115a:	18 05 00 00 03 8c    	sbb    %al,0x8c030000
    1160:	16                   	push   %ss
    1161:	73 00                	jae    1163 <FLAGS+0x1162>
    1163:	00 00                	add    %al,(%eax)
    1165:	18 07                	sbb    %al,(%edi)
    1167:	75 00                	jne    1169 <FLAGS+0x1168>
    1169:	03 92 05 2e 01 00    	add    0x12e05(%edx),%edx
    116f:	00 1c 06             	add    %bl,(%esi,%eax,1)
    1172:	19 06                	sbb    %eax,(%esi)
    1174:	00 00                	add    %al,(%eax)
    1176:	03 95 16 73 00 00    	add    0x7316(%ebp),%edx
    117c:	00 2c 06             	add    %ch,(%esi,%eax,1)
    117f:	a8 05                	test   $0x5,%al
    1181:	00 00                	add    %al,(%eax)
    1183:	03 96 16 73 00 00    	add    0x7316(%esi),%edx
    1189:	00 30                	add    %dh,(%eax)
    118b:	06                   	push   %es
    118c:	2a 07                	sub    (%edi),%al
    118e:	00 00                	add    %al,(%eax)
    1190:	03 99 16 73 00 00    	add    0x7316(%ecx),%ebx
    1196:	00 34 06             	add    %dh,(%esi,%eax,1)
    1199:	eb 04                	jmp    119f <FLAGS+0x119e>
    119b:	00 00                	add    %al,(%eax)
    119d:	03 9a 16 73 00 00    	add    0x7316(%edx),%ebx
    11a3:	00 38                	add    %bh,(%eax)
    11a5:	06                   	push   %es
    11a6:	38 07                	cmp    %al,(%edi)
    11a8:	00 00                	add    %al,(%eax)
    11aa:	03 9d 16 73 00 00    	add    0x7316(%ebp),%ebx
    11b0:	00 3c 06             	add    %bh,(%esi,%eax,1)
    11b3:	d0 07                	rolb   (%edi)
    11b5:	00 00                	add    %al,(%eax)
    11b7:	03 a0 16 73 00 00    	add    0x7316(%eax),%esp
    11bd:	00 40 06             	add    %al,0x6(%eax)
    11c0:	63 05 00 00 03 a3    	arpl   %ax,0xa3030000
    11c6:	16                   	push   %ss
    11c7:	73 00                	jae    11c9 <FLAGS+0x11c8>
    11c9:	00 00                	add    %al,(%eax)
    11cb:	44                   	inc    %esp
    11cc:	06                   	push   %es
    11cd:	b2 05                	mov    $0x5,%dl
    11cf:	00 00                	add    %al,(%eax)
    11d1:	03 a6 16 73 00 00    	add    0x7316(%esi),%esp
    11d7:	00 48 06             	add    %cl,0x6(%eax)
    11da:	fa                   	cli    
    11db:	06                   	push   %es
    11dc:	00 00                	add    %al,(%eax)
    11de:	03 a7 16 73 00 00    	add    0x7316(%edi),%esp
    11e4:	00 4c 06 e7          	add    %cl,-0x19(%esi,%eax,1)
    11e8:	05 00 00 03 a8       	add    $0xa8030000,%eax
    11ed:	16                   	push   %ss
    11ee:	67 00 00             	add    %al,(%bx,%si)
    11f1:	00 50 06             	add    %dl,0x6(%eax)
    11f4:	e1 07                	loope  11fd <FLAGS+0x11fc>
    11f6:	00 00                	add    %al,(%eax)
    11f8:	03 a9 16 67 00 00    	add    0x6716(%ecx),%ebp
    11fe:	00 52 06             	add    %dl,0x6(%edx)
    1201:	d5 05                	aad    $0x5
    1203:	00 00                	add    %al,(%eax)
    1205:	03 aa 16 67 00 00    	add    0x6716(%edx),%ebp
    120b:	00 54 06 a1          	add    %dl,-0x5f(%esi,%eax,1)
    120f:	07                   	pop    %es
    1210:	00 00                	add    %al,(%eax)
    1212:	03 ab 16 67 00 00    	add    0x6716(%ebx),%ebp
    1218:	00 56 06             	add    %dl,0x6(%esi)
    121b:	74 04                	je     1221 <FLAGS+0x1220>
    121d:	00 00                	add    %al,(%eax)
    121f:	03 ad 16 7f 00 00    	add    0x7f16(%ebp),%ebp
    1225:	00 58 06             	add    %bl,0x6(%eax)
    1228:	af                   	scas   %es:(%edi),%eax
    1229:	06                   	push   %es
    122a:	00 00                	add    %al,(%eax)
    122c:	03 ae 16 73 00 00    	add    0x7316(%esi),%ebp
    1232:	00 60 06             	add    %ah,0x6(%eax)
    1235:	07                   	pop    %es
    1236:	06                   	push   %es
    1237:	00 00                	add    %al,(%eax)
    1239:	03 af 16 73 00 00    	add    0x7316(%edi),%ebp
    123f:	00 64 06 72          	add    %ah,0x72(%esi,%eax,1)
    1243:	07                   	pop    %es
    1244:	00 00                	add    %al,(%eax)
    1246:	03 b0 16 73 00 00    	add    0x7316(%eax),%esi
    124c:	00 68 06             	add    %ch,0x6(%eax)
    124f:	98                   	cwtl   
    1250:	05 00 00 03 b1       	add    $0xb1030000,%eax
    1255:	15 5b 00 00 00       	adc    $0x5b,%eax
    125a:	6c                   	insb   (%dx),%es:(%edi)
    125b:	06                   	push   %es
    125c:	c1 06 00             	roll   $0x0,(%esi)
    125f:	00 03                	add    %al,(%ebx)
    1261:	b5 15                	mov    $0x15,%ch
    1263:	5b                   	pop    %ebx
    1264:	00 00                	add    %al,(%eax)
    1266:	00 6d 0c             	add    %ch,0xc(%ebp)
    1269:	cc                   	int3   
    126a:	01 00                	add    %eax,(%eax)
    126c:	00 70 00             	add    %dh,0x0(%eax)
    126f:	03 61 07             	add    0x7(%ecx),%esp
    1272:	00 00                	add    %al,(%eax)
    1274:	03 c8                	add    %eax,%ecx
    1276:	1f                   	pop    %ds
    1277:	e0 01                	loopne 127a <FLAGS+0x1279>
    1279:	00 00                	add    %al,(%eax)
    127b:	02 04 07             	add    (%edi,%eax,1),%al
    127e:	f5                   	cmc    
    127f:	05 00 00 0d ff       	add    $0xff0d0000,%eax
    1284:	04 00                	add    $0x0,%al
    1286:	00 01                	add    %al,(%ecx)
    1288:	09 05 54 00 00 00    	or     %eax,0x54
    128e:	99                   	cltd   
    128f:	0e                   	push   %cs
    1290:	10 00                	adc    %al,(%eax)
    1292:	33 01                	xor    (%ecx),%eax
    1294:	00 00                	add    %al,(%eax)
    1296:	01 9c 00 04 00 00 0e 	add    %ebx,0xe000004(%eax,%eax,1)
    129d:	6f                   	outsl  %ds:(%esi),(%dx)
    129e:	06                   	push   %es
    129f:	00 00                	add    %al,(%eax)
    12a1:	01 09                	add    %ecx,(%ecx)
    12a3:	1c 00                	sbb    $0x0,%al
    12a5:	04 00                	add    $0x0,%al
    12a7:	00 02                	add    %al,(%edx)
    12a9:	91                   	xchg   %eax,%ecx
    12aa:	00 0f                	add    %cl,(%edi)
    12ac:	f3 07                	repz pop %es
    12ae:	00 00                	add    %al,(%eax)
    12b0:	01 12                	add    %edx,(%edx)
    12b2:	0b 41 00             	or     0x0(%ecx),%eax
    12b5:	00 00                	add    %al,(%eax)
    12b7:	02 75 74             	add    0x74(%ebp),%dh
    12ba:	03 a1 06 00 00 01    	add    0x1000006(%ecx),%esp
    12c0:	17                   	pop    %ss
    12c1:	14 06                	adc    $0x6,%al
    12c3:	04 00                	add    $0x0,%al
    12c5:	00 0f                	add    %cl,(%edi)
    12c7:	2a 05 00 00 01 18    	sub    0x18010000,%al
    12cd:	13 9c 03 00 00 02 75 	adc    0x75020000(%ebx,%eax,1),%ebx
    12d4:	70 10                	jo     12e6 <FLAGS+0x12e5>
    12d6:	62 00                	bound  %eax,(%eax)
    12d8:	01 1c 0b             	add    %ebx,(%ebx,%ecx,1)
    12db:	41                   	inc    %ecx
    12dc:	00 00                	add    %al,(%eax)
    12de:	00 02                	add    %al,(%edx)
    12e0:	75 6c                	jne    134e <FLAGS+0x134d>
    12e2:	11 df                	adc    %ebx,%edi
    12e4:	01 00                	add    %eax,(%eax)
    12e6:	00 01                	add    %al,(%ecx)
    12e8:	1c 0f                	sbb    $0xf,%al
    12ea:	54                   	push   %esp
    12eb:	00 00                	add    %al,(%eax)
    12ed:	00 d6                	add    %dl,%dh
    12ef:	03 00                	add    (%eax),%eax
    12f1:	00 12                	add    %dl,(%edx)
    12f3:	00 10                	add    %dl,(%eax)
    12f5:	63 00                	arpl   %ax,(%eax)
    12f7:	01 20                	add    %esp,(%eax)
    12f9:	0b 41 00             	or     0x0(%ecx),%eax
    12fc:	00 00                	add    %al,(%eax)
    12fe:	02 75 68             	add    0x68(%ebp),%dh
    1301:	10 70 00             	adc    %dh,0x0(%eax)
    1304:	01 29                	add    %ebp,(%ecx)
    1306:	0c 0d                	or     $0xd,%al
    1308:	04 00                	add    $0x0,%al
    130a:	00 02                	add    %al,(%edx)
    130c:	75 64                	jne    1372 <FLAGS+0x1371>
    130e:	0f 38 06 00          	phsubd (%eax),%mm0
    1312:	00 01                	add    %al,(%ecx)
    1314:	2a 0b                	sub    (%ebx),%cl
    1316:	41                   	inc    %ecx
    1317:	00 00                	add    %al,(%eax)
    1319:	00 02                	add    %al,(%edx)
    131b:	75 60                	jne    137d <FLAGS+0x137c>
    131d:	00 13                	add    %dl,(%ebx)
    131f:	04 51                	add    $0x51,%al
    1321:	03 00                	add    (%eax),%eax
    1323:	00 13                	add    %dl,(%ebx)
    1325:	04 0c                	add    $0xc,%al
    1327:	04 00                	add    $0x0,%al
    1329:	00 14 13             	add    %dl,(%ebx,%edx,1)
    132c:	04 41                	add    $0x41,%al
    132e:	00 00                	add    %al,(%eax)
    1330:	00 00                	add    %al,(%eax)
    1332:	b5 01                	mov    $0x1,%ch
    1334:	00 00                	add    %al,(%eax)
    1336:	04 00                	add    $0x0,%al
    1338:	4d                   	dec    %ebp
    1339:	05 00 00 04 01       	add    $0x1040000,%eax
    133e:	24 00                	and    $0x0,%al
    1340:	00 00                	add    %al,(%eax)
    1342:	0c c3                	or     $0xc3,%al
    1344:	08 00                	or     %al,(%eax)
    1346:	00 42 02             	add    %al,0x2(%edx)
    1349:	00 00                	add    %al,(%eax)
    134b:	cc                   	int3   
    134c:	0f 10 00             	movups (%eax),%xmm0
    134f:	45                   	inc    %ebp
    1350:	01 00                	add    %eax,(%eax)
    1352:	00 9f 06 00 00 02    	add    %bl,0x2000006(%edi)
    1358:	70 02                	jo     135c <FLAGS+0x135b>
    135a:	00 00                	add    %al,(%eax)
    135c:	02 04 17             	add    (%edi,%edx,1),%al
    135f:	31 00                	xor    %eax,(%eax)
    1361:	00 00                	add    %al,(%eax)
    1363:	03 01                	add    (%ecx),%eax
    1365:	08 6f 01             	or     %ch,0x1(%edi)
    1368:	00 00                	add    %al,(%eax)
    136a:	03 01                	add    (%ecx),%eax
    136c:	06                   	push   %es
    136d:	78 01                	js     1370 <FLAGS+0x136f>
    136f:	00 00                	add    %al,(%eax)
    1371:	02 bd 08 00 00 02    	add    0x2000008(%ebp),%bh
    1377:	06                   	push   %es
    1378:	18 4b 00             	sbb    %cl,0x0(%ebx)
    137b:	00 00                	add    %al,(%eax)
    137d:	03 02                	add    (%edx),%eax
    137f:	07                   	pop    %es
    1380:	cc                   	int3   
    1381:	01 00                	add    %eax,(%eax)
    1383:	00 03                	add    %al,(%ebx)
    1385:	02 05 65 00 00 00    	add    0x65,%al
    138b:	02 75 02             	add    0x2(%ebp),%dh
    138e:	00 00                	add    %al,(%eax)
    1390:	02 08                	add    (%eax),%cl
    1392:	16                   	push   %ss
    1393:	65 00 00             	add    %al,%gs:(%eax)
    1396:	00 03                	add    %al,(%ebx)
    1398:	04 07                	add    $0x7,%al
    139a:	fa                   	cli    
    139b:	05 00 00 04 04       	add    $0x4040000,%eax
    13a0:	05 69 6e 74 00       	add    $0x746e69,%eax
    13a5:	05 9c 08 00 00       	add    $0x89c,%eax
    13aa:	06                   	push   %es
    13ab:	03 05 08 9b 00 00    	add    0x9b08,%eax
    13b1:	00 06                	add    %al,(%esi)
    13b3:	54                   	push   %esp
    13b4:	08 00                	or     %al,(%eax)
    13b6:	00 03                	add    %al,(%ebx)
    13b8:	06                   	push   %es
    13b9:	0b 3f                	or     (%edi),%edi
    13bb:	00 00                	add    %al,(%eax)
    13bd:	00 00                	add    %al,(%eax)
    13bf:	06                   	push   %es
    13c0:	66 08 00             	data16 or %al,(%eax)
    13c3:	00 03                	add    %al,(%ebx)
    13c5:	07                   	pop    %es
    13c6:	0b 59 00             	or     0x0(%ecx),%ebx
    13c9:	00 00                	add    %al,(%eax)
    13cb:	02 00                	add    (%eax),%al
    13cd:	02 42 08             	add    0x8(%edx),%al
    13d0:	00 00                	add    %al,(%eax)
    13d2:	03 0a                	add    (%edx),%ecx
    13d4:	1b 73 00             	sbb    0x0(%ebx),%esi
    13d7:	00 00                	add    %al,(%eax)
    13d9:	05 2a 08 00 00       	add    $0x82a,%eax
    13de:	08 03                	or     %al,(%ebx)
    13e0:	0c 08                	or     $0x8,%al
    13e2:	03 01                	add    (%ecx),%eax
    13e4:	00 00                	add    %al,(%eax)
    13e6:	06                   	push   %es
    13e7:	70 08                	jo     13f1 <FLAGS+0x13f0>
    13e9:	00 00                	add    %al,(%eax)
    13eb:	03 0d 0b 3f 00 00    	add    0x3f0b,%ecx
    13f1:	00 00                	add    %al,(%eax)
    13f3:	06                   	push   %es
    13f4:	a7                   	cmpsl  %es:(%edi),%ds:(%esi)
    13f5:	08 00                	or     %al,(%eax)
    13f7:	00 03                	add    %al,(%ebx)
    13f9:	0e                   	push   %cs
    13fa:	0b 3f                	or     (%edi),%edi
    13fc:	00 00                	add    %al,(%eax)
    13fe:	00 02                	add    %al,(%edx)
    1400:	06                   	push   %es
    1401:	84 08                	test   %cl,(%eax)
    1403:	00 00                	add    %al,(%eax)
    1405:	03 0f                	add    (%edi),%ecx
    1407:	0a 25 00 00 00 04    	or     0x4000000,%ah
    140d:	06                   	push   %es
    140e:	3b 08                	cmp    (%eax),%ecx
    1410:	00 00                	add    %al,(%eax)
    1412:	03 10                	add    (%eax),%edx
    1414:	0a 25 00 00 00 05    	or     0x5000000,%ah
    141a:	06                   	push   %es
    141b:	90                   	nop
    141c:	08 00                	or     %al,(%eax)
    141e:	00 03                	add    %al,(%ebx)
    1420:	11 0a                	adc    %ecx,(%edx)
    1422:	25 00 00 00 06       	and    $0x6000000,%eax
    1427:	06                   	push   %es
    1428:	7a 08                	jp     1432 <FLAGS+0x1431>
    142a:	00 00                	add    %al,(%eax)
    142c:	03 12                	add    (%edx),%edx
    142e:	0a 25 00 00 00 07    	or     0x7000000,%ah
    1434:	00 02                	add    %al,(%edx)
    1436:	48                   	dec    %eax
    1437:	08 00                	or     %al,(%eax)
    1439:	00 03                	add    %al,(%ebx)
    143b:	15 21 a7 00 00       	adc    $0xa721,%eax
    1440:	00 07                	add    %al,(%edi)
    1442:	67 64 74 00          	addr16 fs je 1446 <FLAGS+0x1445>
    1446:	01 04 07             	add    %eax,(%edi,%eax,1)
    1449:	9b                   	fwait
    144a:	00 00                	add    %al,(%eax)
    144c:	00 05 03 20 50 10    	add    %al,0x10502003
    1452:	00 08                	add    %cl,(%eax)
    1454:	03 01                	add    (%ecx),%eax
    1456:	00 00                	add    %al,(%eax)
    1458:	31 01                	xor    %eax,(%ecx)
    145a:	00 00                	add    %al,(%eax)
    145c:	09 31                	or     %esi,(%ecx)
    145e:	01 00                	add    %eax,(%eax)
    1460:	00 04 00             	add    %al,(%eax,%eax,1)
    1463:	03 04 07             	add    (%edi,%eax,1),%eax
    1466:	f5                   	cmc    
    1467:	05 00 00 0a 5a       	add    $0x5a0a0000,%eax
    146c:	08 00                	or     %al,(%eax)
    146e:	00 01                	add    %al,(%ecx)
    1470:	05 0d 21 01 00       	add    $0x1210d,%eax
    1475:	00 05 03 40 50 10    	add    %al,0x10504003
    147b:	00 0b                	add    %cl,(%ebx)
    147d:	21 08                	and    %ecx,(%eax)
    147f:	00 00                	add    %al,(%eax)
    1481:	01 14 06             	add    %edx,(%esi,%eax,1)
    1484:	72 10                	jb     1496 <FLAGS+0x1495>
    1486:	10 00                	adc    %al,(%eax)
    1488:	9f                   	lahf   
    1489:	00 00                	add    %al,(%eax)
    148b:	00 01                	add    %al,(%ecx)
    148d:	9c                   	pushf  
    148e:	0c b0                	or     $0xb0,%al
    1490:	08 00                	or     %al,(%eax)
    1492:	00 01                	add    %al,(%ecx)
    1494:	07                   	pop    %es
    1495:	0d cc 0f 10 00       	or     $0x100fcc,%eax
    149a:	a6                   	cmpsb  %es:(%edi),%ds:(%esi)
    149b:	00 00                	add    %al,(%eax)
    149d:	00 01                	add    %al,(%ecx)
    149f:	9c                   	pushf  
    14a0:	0d 6e 00 01 07       	or     $0x701006e,%eax
    14a5:	1f                   	pop    %ds
    14a6:	25 00 00 00 02       	and    $0x2000000,%eax
    14ab:	91                   	xchg   %eax,%ecx
    14ac:	74 0e                	je     14bc <FLAGS+0x14bb>
    14ae:	66 08 00             	data16 or %al,(%eax)
    14b1:	00 01                	add    %al,(%ecx)
    14b3:	07                   	pop    %es
    14b4:	27                   	daa    
    14b5:	59                   	pop    %ecx
    14b6:	00 00                	add    %al,(%eax)
    14b8:	00 02                	add    %al,(%edx)
    14ba:	91                   	xchg   %eax,%ecx
    14bb:	04 0e                	add    $0xe,%al
    14bd:	54                   	push   %esp
    14be:	08 00                	or     %al,(%eax)
    14c0:	00 01                	add    %al,(%ecx)
    14c2:	07                   	pop    %es
    14c3:	32 59 00             	xor    0x0(%ecx),%bl
    14c6:	00 00                	add    %al,(%eax)
    14c8:	02 91 08 0e 3b 08    	add    0x83b0e08(%ecx),%dl
    14ce:	00 00                	add    %al,(%eax)
    14d0:	01 07                	add    %eax,(%edi)
    14d2:	3d 25 00 00 00       	cmp    $0x25,%eax
    14d7:	02 91 70 0e 6b 08    	add    0x86b0e70(%ecx),%dl
    14dd:	00 00                	add    %al,(%eax)
    14df:	01 07                	add    %eax,(%edi)
    14e1:	49                   	dec    %ecx
    14e2:	25 00 00 00 02       	and    $0x2000000,%eax
    14e7:	91                   	xchg   %eax,%ecx
    14e8:	6c                   	insb   (%dx),%es:(%edi)
    14e9:	00 00                	add    %al,(%eax)
    14eb:	56                   	push   %esi
    14ec:	02 00                	add    (%eax),%al
    14ee:	00 04 00             	add    %al,(%eax,%eax,1)
    14f1:	32 06                	xor    (%esi),%al
    14f3:	00 00                	add    %al,(%eax)
    14f5:	04 01                	add    $0x1,%al
    14f7:	24 00                	and    $0x0,%al
    14f9:	00 00                	add    %al,(%eax)
    14fb:	0c 30                	or     $0x30,%al
    14fd:	09 00                	or     %eax,(%eax)
    14ff:	00 42 02             	add    %al,0x2(%edx)
    1502:	00 00                	add    %al,(%eax)
    1504:	11 11                	adc    %edx,(%ecx)
    1506:	10 00                	adc    %al,(%eax)
    1508:	0c 02                	or     $0x2,%al
    150a:	00 00                	add    %al,(%eax)
    150c:	5f                   	pop    %edi
    150d:	07                   	pop    %es
    150e:	00 00                	add    %al,(%eax)
    1510:	02 70 02             	add    0x2(%eax),%dh
    1513:	00 00                	add    %al,(%eax)
    1515:	02 04 17             	add    (%edi,%edx,1),%al
    1518:	31 00                	xor    %eax,(%eax)
    151a:	00 00                	add    %al,(%eax)
    151c:	03 01                	add    (%ecx),%eax
    151e:	08 6f 01             	or     %ch,0x1(%edi)
    1521:	00 00                	add    %al,(%eax)
    1523:	03 01                	add    (%ecx),%eax
    1525:	06                   	push   %es
    1526:	78 01                	js     1529 <FLAGS+0x1528>
    1528:	00 00                	add    %al,(%eax)
    152a:	02 bd 08 00 00 02    	add    0x2000008(%ebp),%bh
    1530:	06                   	push   %es
    1531:	18 4b 00             	sbb    %cl,0x0(%ebx)
    1534:	00 00                	add    %al,(%eax)
    1536:	03 02                	add    (%edx),%eax
    1538:	07                   	pop    %es
    1539:	cc                   	int3   
    153a:	01 00                	add    %eax,(%eax)
    153c:	00 03                	add    %al,(%ebx)
    153e:	02 05 65 00 00 00    	add    0x65,%al
    1544:	02 75 02             	add    0x2(%ebp),%dh
    1547:	00 00                	add    %al,(%eax)
    1549:	02 08                	add    (%eax),%cl
    154b:	16                   	push   %ss
    154c:	65 00 00             	add    %al,%gs:(%eax)
    154f:	00 03                	add    %al,(%ebx)
    1551:	04 07                	add    $0x7,%al
    1553:	fa                   	cli    
    1554:	05 00 00 04 04       	add    $0x4040000,%eax
    1559:	05 69 6e 74 00       	add    $0x746e69,%eax
    155e:	05 69 6e 62 00       	add    $0x626e69,%eax
    1563:	01 3d 06 25 00 00    	add    %edi,0x2506
    1569:	00 00                	add    %al,(%eax)
    156b:	13 10                	adc    (%eax),%edx
    156d:	00 1d 00 00 00 01    	add    %bl,0x1000000
    1573:	9c                   	pushf  
    1574:	ac                   	lods   %ds:(%esi),%al
    1575:	00 00                	add    %al,(%eax)
    1577:	00 06                	add    %al,(%esi)
    1579:	f9                   	stc    
    157a:	08 00                	or     %al,(%eax)
    157c:	00 01                	add    %al,(%ecx)
    157e:	3d 10 3f 00 00       	cmp    $0x3f10,%eax
    1583:	00 02                	add    %al,(%edx)
    1585:	91                   	xchg   %eax,%ecx
    1586:	64 07                	fs pop %es
    1588:	f4                   	hlt    
    1589:	08 00                	or     %al,(%eax)
    158b:	00 01                	add    %al,(%ecx)
    158d:	3e 0a 25 00 00 00 02 	or     %ds:0x2000000,%ah
    1594:	91                   	xchg   %eax,%ecx
    1595:	77 00                	ja     1597 <FLAGS+0x1596>
    1597:	08 ef                	or     %ch,%bh
    1599:	08 00                	or     %al,(%eax)
    159b:	00 01                	add    %al,(%ecx)
    159d:	38 06                	cmp    %al,(%esi)
    159f:	df 12                	fists  (%edx)
    15a1:	10 00                	adc    %al,(%eax)
    15a3:	21 00                	and    %eax,(%eax)
    15a5:	00 00                	add    %al,(%eax)
    15a7:	01 9c e1 00 00 00 06 	add    %ebx,0x6000000(%ecx,%eiz,8)
    15ae:	f9                   	stc    
    15af:	08 00                	or     %al,(%eax)
    15b1:	00 01                	add    %al,(%ecx)
    15b3:	38 11                	cmp    %dl,(%ecx)
    15b5:	3f                   	aas    
    15b6:	00 00                	add    %al,(%eax)
    15b8:	00 02                	add    %al,(%edx)
    15ba:	91                   	xchg   %eax,%ecx
    15bb:	74 06                	je     15c3 <FLAGS+0x15c2>
    15bd:	f4                   	hlt    
    15be:	08 00                	or     %al,(%eax)
    15c0:	00 01                	add    %al,(%ecx)
    15c2:	38 1c 25 00 00 00 02 	cmp    %bl,0x2000000(,%eiz,1)
    15c9:	91                   	xchg   %eax,%ecx
    15ca:	70 00                	jo     15cc <FLAGS+0x15cb>
    15cc:	08 fe                	or     %bh,%dh
    15ce:	08 00                	or     %al,(%eax)
    15d0:	00 01                	add    %al,(%ecx)
    15d2:	31 06                	xor    %eax,(%esi)
    15d4:	b4 12                	mov    $0x12,%ah
    15d6:	10 00                	adc    %al,(%eax)
    15d8:	2b 00                	sub    (%eax),%eax
    15da:	00 00                	add    %al,(%eax)
    15dc:	01 9c 25 01 00 00 06 	add    %ebx,0x6000001(%ebp,%eiz,1)
    15e3:	dc 08                	fmull  (%eax)
    15e5:	00 00                	add    %al,(%eax)
    15e7:	01 31                	add    %esi,(%ecx)
    15e9:	14 25                	adc    $0x25,%al
    15eb:	01 00                	add    %eax,(%eax)
    15ed:	00 02                	add    %al,(%edx)
    15ef:	91                   	xchg   %eax,%ecx
    15f0:	00 06                	add    %al,(%esi)
    15f2:	d2 08                	rorb   %cl,(%eax)
    15f4:	00 00                	add    %al,(%eax)
    15f6:	01 31                	add    %esi,(%ecx)
    15f8:	1f                   	pop    %ds
    15f9:	38 00                	cmp    %al,(%eax)
    15fb:	00 00                	add    %al,(%eax)
    15fd:	02 91 74 09 6c 65    	add    0x656c0974(%ecx),%dl
    1603:	6e                   	outsb  %ds:(%esi),(%dx)
    1604:	00 01                	add    %al,(%ecx)
    1606:	31 30                	xor    %esi,(%eax)
    1608:	59                   	pop    %ecx
    1609:	00 00                	add    %al,(%eax)
    160b:	00 02                	add    %al,(%edx)
    160d:	91                   	xchg   %eax,%ecx
    160e:	08 00                	or     %al,(%eax)
    1610:	0a 04 38             	or     (%eax,%edi,1),%al
    1613:	00 00                	add    %al,(%eax)
    1615:	00 08                	add    %cl,(%eax)
    1617:	10 09                	adc    %cl,(%ecx)
    1619:	00 00                	add    %al,(%eax)
    161b:	01 2a                	add    %ebp,(%edx)
    161d:	06                   	push   %es
    161e:	8a 12                	mov    (%edx),%dl
    1620:	10 00                	adc    %al,(%eax)
    1622:	2a 00                	sub    (%eax),%al
    1624:	00 00                	add    %al,(%eax)
    1626:	01 9c 6f 01 00 00 09 	add    %ebx,0x9000001(%edi,%ebp,2)
    162d:	73 72                	jae    16a1 <FLAGS+0x16a0>
    162f:	63 00                	arpl   %ax,(%eax)
    1631:	01 2a                	add    %ebp,(%edx)
    1633:	15 25 01 00 00       	adc    $0x125,%eax
    1638:	02 91 00 06 dc 08    	add    0x8dc0600(%ecx),%dl
    163e:	00 00                	add    %al,(%eax)
    1640:	01 2a                	add    %ebp,(%edx)
    1642:	20 25 01 00 00 02    	and    %ah,0x2000001
    1648:	91                   	xchg   %eax,%ecx
    1649:	04 09                	add    $0x9,%al
    164b:	6c                   	insb   (%dx),%es:(%edi)
    164c:	65 6e                	outsb  %gs:(%esi),(%dx)
    164e:	00 01                	add    %al,(%ecx)
    1650:	2a 2c 59             	sub    (%ecx,%ebx,2),%ch
    1653:	00 00                	add    %al,(%eax)
    1655:	00 02                	add    %al,(%edx)
    1657:	91                   	xchg   %eax,%ecx
    1658:	08 00                	or     %al,(%eax)
    165a:	0b 06                	or     (%esi),%eax
    165c:	09 00                	or     %eax,(%eax)
    165e:	00 01                	add    %al,(%ecx)
    1660:	21 07                	and    %eax,(%edi)
    1662:	3f                   	aas    
    1663:	00 00                	add    %al,(%eax)
    1665:	00 10                	add    %dl,(%eax)
    1667:	12 10                	adc    (%eax),%dl
    1669:	00 7a 00             	add    %bh,0x0(%edx)
    166c:	00 00                	add    %al,(%eax)
    166e:	01 9c be 01 00 00 06 	add    %ebx,0x6000001(%esi,%edi,4)
    1675:	e2 04                	loop   167b <FLAGS+0x167a>
    1677:	00 00                	add    %al,(%eax)
    1679:	01 21                	add    %esp,(%ecx)
    167b:	17                   	pop    %ss
    167c:	3f                   	aas    
    167d:	00 00                	add    %al,(%eax)
    167f:	00 02                	add    %al,(%edx)
    1681:	91                   	xchg   %eax,%ecx
    1682:	5c                   	pop    %esp
    1683:	0c 66                	or     $0x66,%al
    1685:	62 00                	bound  %eax,(%eax)
    1687:	01 22                	add    %esp,(%edx)
    1689:	0b be 01 00 00 02    	or     0x2000001(%esi),%edi
    168f:	91                   	xchg   %eax,%ecx
    1690:	68 0d 32 12 10       	push   $0x1012320d
    1695:	00 51 00             	add    %dl,0x0(%ecx)
    1698:	00 00                	add    %al,(%eax)
    169a:	0c 69                	or     $0x69,%al
    169c:	00 01                	add    %al,(%ecx)
    169e:	24 0d                	and    $0xd,%al
    16a0:	6c                   	insb   (%dx),%es:(%edi)
    16a1:	00 00                	add    %al,(%eax)
    16a3:	00 02                	add    %al,(%edx)
    16a5:	91                   	xchg   %eax,%ecx
    16a6:	6c                   	insb   (%dx),%es:(%edi)
    16a7:	00 00                	add    %al,(%eax)
    16a9:	0a 04 25 00 00 00 08 	or     0x8000000(,%eiz,1),%al
    16b0:	19 09                	sbb    %ecx,(%ecx)
    16b2:	00 00                	add    %al,(%eax)
    16b4:	01 1b                	add    %ebx,(%ebx)
    16b6:	06                   	push   %es
    16b7:	da 11                	ficoml (%ecx)
    16b9:	10 00                	adc    %al,(%eax)
    16bb:	36 00 00             	add    %al,%ss:(%eax)
    16be:	00 01                	add    %al,(%ecx)
    16c0:	9c                   	pushf  
    16c1:	07                   	pop    %es
    16c2:	02 00                	add    (%eax),%al
    16c4:	00 06                	add    %al,(%esi)
    16c6:	d2 08                	rorb   %cl,(%eax)
    16c8:	00 00                	add    %al,(%eax)
    16ca:	01 1b                	add    %ebx,(%ebx)
    16cc:	14 38                	adc    $0x38,%al
    16ce:	00 00                	add    %al,(%eax)
    16d0:	00 02                	add    %al,(%edx)
    16d2:	91                   	xchg   %eax,%ecx
    16d3:	64 06                	fs push %es
    16d5:	e2 04                	loop   16db <FLAGS+0x16da>
    16d7:	00 00                	add    %al,(%eax)
    16d9:	01 1b                	add    %ebx,(%ebx)
    16db:	25 3f 00 00 00       	and    $0x3f,%eax
    16e0:	02 91 60 0c 66 62    	add    0x62660c60(%ecx),%dl
    16e6:	00 01                	add    %al,(%ecx)
    16e8:	1c 0c                	sbb    $0xc,%al
    16ea:	07                   	pop    %es
    16eb:	02 00                	add    (%eax),%al
    16ed:	00 02                	add    %al,(%edx)
    16ef:	91                   	xchg   %eax,%ecx
    16f0:	74 00                	je     16f2 <FLAGS+0x16f1>
    16f2:	0a 04 3f             	or     (%edi,%edi,1),%al
    16f5:	00 00                	add    %al,(%eax)
    16f7:	00 0e                	add    %cl,(%esi)
    16f9:	22 09                	and    (%ecx),%cl
    16fb:	00 00                	add    %al,(%eax)
    16fd:	01 13                	add    %edx,(%ebx)
    16ff:	06                   	push   %es
    1700:	72 11                	jb     1713 <FLAGS+0x1712>
    1702:	10 00                	adc    %al,(%eax)
    1704:	68 00 00 00 01       	push   $0x1000000
    1709:	9c                   	pushf  
    170a:	33 02                	xor    (%edx),%eax
    170c:	00 00                	add    %al,(%eax)
    170e:	06                   	push   %es
    170f:	e2 04                	loop   1715 <FLAGS+0x1714>
    1711:	00 00                	add    %al,(%eax)
    1713:	01 13                	add    %edx,(%ebx)
    1715:	1a 3f                	sbb    (%edi),%bh
    1717:	00 00                	add    %al,(%eax)
    1719:	00 02                	add    %al,(%edx)
    171b:	91                   	xchg   %eax,%ecx
    171c:	6c                   	insb   (%dx),%es:(%edi)
    171d:	00 0f                	add    %cl,(%edi)
    171f:	e1 08                	loope  1729 <FLAGS+0x1728>
    1721:	00 00                	add    %al,(%eax)
    1723:	01 0a                	add    %ecx,(%edx)
    1725:	07                   	pop    %es
    1726:	3f                   	aas    
    1727:	00 00                	add    %al,(%eax)
    1729:	00 11                	add    %dl,(%ecx)
    172b:	11 10                	adc    %edx,(%eax)
    172d:	00 61 00             	add    %ah,0x0(%ecx)
    1730:	00 00                	add    %al,(%eax)
    1732:	01 9c 0c 70 6f 73 00 	add    %ebx,0x736f70(%esp,%ecx,1)
    1739:	01 0b                	add    %ecx,(%ebx)
    173b:	0b 3f                	or     (%edi),%edi
    173d:	00 00                	add    %al,(%eax)
    173f:	00 02                	add    %al,(%edx)
    1741:	91                   	xchg   %eax,%ecx
    1742:	6e                   	outsb  %ds:(%esi),(%dx)
    1743:	00 00                	add    %al,(%eax)
    1745:	29 04 00             	sub    %eax,(%eax,%eax,1)
    1748:	00 04 00             	add    %al,(%eax,%eax,1)
    174b:	4f                   	dec    %edi
    174c:	07                   	pop    %es
    174d:	00 00                	add    %al,(%eax)
    174f:	04 01                	add    $0x1,%al
    1751:	24 00                	and    $0x0,%al
    1753:	00 00                	add    %al,(%eax)
    1755:	0c 12                	or     $0x12,%al
    1757:	0a 00                	or     (%eax),%al
    1759:	00 42 02             	add    %al,0x2(%edx)
    175c:	00 00                	add    %al,(%eax)
    175e:	1d 13 10 00 81       	sbb    $0x81001013,%eax
    1763:	07                   	pop    %es
    1764:	00 00                	add    %al,(%eax)
    1766:	9c                   	pushf  
    1767:	08 00                	or     %al,(%eax)
    1769:	00 02                	add    %al,(%edx)
    176b:	70 02                	jo     176f <FLAGS+0x176e>
    176d:	00 00                	add    %al,(%eax)
    176f:	02 04 17             	add    (%edi,%edx,1),%al
    1772:	31 00                	xor    %eax,(%eax)
    1774:	00 00                	add    %al,(%eax)
    1776:	03 01                	add    (%ecx),%eax
    1778:	08 6f 01             	or     %ch,0x1(%edi)
    177b:	00 00                	add    %al,(%eax)
    177d:	03 01                	add    (%ecx),%eax
    177f:	06                   	push   %es
    1780:	78 01                	js     1783 <FLAGS+0x1782>
    1782:	00 00                	add    %al,(%eax)
    1784:	02 bd 08 00 00 02    	add    0x2000008(%ebp),%bh
    178a:	06                   	push   %es
    178b:	18 4b 00             	sbb    %cl,0x0(%ebx)
    178e:	00 00                	add    %al,(%eax)
    1790:	03 02                	add    (%edx),%eax
    1792:	07                   	pop    %es
    1793:	cc                   	int3   
    1794:	01 00                	add    %eax,(%eax)
    1796:	00 03                	add    %al,(%ebx)
    1798:	02 05 65 00 00 00    	add    0x65,%al
    179e:	02 75 02             	add    0x2(%ebp),%dh
    17a1:	00 00                	add    %al,(%eax)
    17a3:	02 08                	add    (%eax),%cl
    17a5:	16                   	push   %ss
    17a6:	65 00 00             	add    %al,%gs:(%eax)
    17a9:	00 03                	add    %al,(%ebx)
    17ab:	04 07                	add    $0x7,%al
    17ad:	fa                   	cli    
    17ae:	05 00 00 04 04       	add    $0x4040000,%eax
    17b3:	05 69 6e 74 00       	add    $0x746e69,%eax
    17b8:	05 ea 09 00 00       	add    $0x9ea,%eax
    17bd:	06                   	push   %es
    17be:	03 0e                	add    (%esi),%ecx
    17c0:	08 9b 00 00 00 06    	or     %bl,0x6000000(%ebx)
    17c6:	54                   	push   %esp
    17c7:	08 00                	or     %al,(%eax)
    17c9:	00 03                	add    %al,(%ebx)
    17cb:	0f 0b                	ud2    
    17cd:	3f                   	aas    
    17ce:	00 00                	add    %al,(%eax)
    17d0:	00 00                	add    %al,(%eax)
    17d2:	06                   	push   %es
    17d3:	66 08 00             	data16 or %al,(%eax)
    17d6:	00 03                	add    %al,(%ebx)
    17d8:	10 0b                	adc    %cl,(%ebx)
    17da:	59                   	pop    %ecx
    17db:	00 00                	add    %al,(%eax)
    17dd:	00 02                	add    %al,(%edx)
    17df:	00 02                	add    %al,(%edx)
    17e1:	46                   	inc    %esi
    17e2:	0a 00                	or     (%eax),%al
    17e4:	00 03                	add    %al,(%ebx)
    17e6:	12 1b                	adc    (%ebx),%bl
    17e8:	73 00                	jae    17ea <FLAGS+0x17e9>
    17ea:	00 00                	add    %al,(%eax)
    17ec:	05 f5 09 00 00       	add    $0x9f5,%eax
    17f1:	08 03                	or     %al,(%ebx)
    17f3:	14 08                	adc    $0x8,%al
    17f5:	f6 00 00             	testb  $0x0,(%eax)
    17f8:	00 06                	add    %al,(%esi)
    17fa:	a7                   	cmpsl  %es:(%edi),%ds:(%esi)
    17fb:	08 00                	or     %al,(%eax)
    17fd:	00 03                	add    %al,(%ebx)
    17ff:	15 0b 3f 00 00       	adc    $0x3f0b,%eax
    1804:	00 00                	add    %al,(%eax)
    1806:	06                   	push   %es
    1807:	c4 09                	les    (%ecx),%ecx
    1809:	00 00                	add    %al,(%eax)
    180b:	03 16                	add    (%esi),%edx
    180d:	0b 3f                	or     (%edi),%edi
    180f:	00 00                	add    %al,(%eax)
    1811:	00 02                	add    %al,(%edx)
    1813:	06                   	push   %es
    1814:	dc 09                	fmull  (%ecx)
    1816:	00 00                	add    %al,(%eax)
    1818:	03 17                	add    (%edi),%edx
    181a:	0a 25 00 00 00 04    	or     0x4000000,%ah
    1820:	06                   	push   %es
    1821:	57                   	push   %edi
    1822:	03 00                	add    (%eax),%eax
    1824:	00 03                	add    %al,(%ebx)
    1826:	18 0a                	sbb    %cl,(%edx)
    1828:	25 00 00 00 05       	and    $0x5000000,%eax
    182d:	06                   	push   %es
    182e:	7a 08                	jp     1838 <FLAGS+0x1837>
    1830:	00 00                	add    %al,(%eax)
    1832:	03 19                	add    (%ecx),%ebx
    1834:	0b 3f                	or     (%edi),%edi
    1836:	00 00                	add    %al,(%eax)
    1838:	00 06                	add    %al,(%esi)
    183a:	00 02                	add    %al,(%edx)
    183c:	77 09                	ja     1847 <FLAGS+0x1846>
    183e:	00 00                	add    %al,(%eax)
    1840:	03 1b                	add    (%ebx),%ebx
    1842:	21 a7 00 00 00 05    	and    %esp,0x5000000(%edi)
    1848:	2b 04 00             	sub    (%eax,%eax,1),%eax
    184b:	00 40 03             	add    %al,0x3(%eax)
    184e:	1d 10 dd 01 00       	sbb    $0x1dd10,%eax
    1853:	00 07                	add    %al,(%edi)
    1855:	64 73 00             	fs jae 1858 <FLAGS+0x1857>
    1858:	03 1e                	add    (%esi),%ebx
    185a:	0b 59 00             	or     0x0(%ecx),%ebx
    185d:	00 00                	add    %al,(%eax)
    185f:	00 07                	add    %al,(%edi)
    1861:	65 64 69 00 03 1f 0b 	gs imul $0x590b1f03,%fs:(%eax),%eax
    1868:	59 
    1869:	00 00                	add    %al,(%eax)
    186b:	00 04 07             	add    %al,(%edi,%eax,1)
    186e:	65 73 69             	gs jae 18da <FLAGS+0x18d9>
    1871:	00 03                	add    %al,(%ebx)
    1873:	1f                   	pop    %ds
    1874:	0f 59 00             	mulps  (%eax),%xmm0
    1877:	00 00                	add    %al,(%eax)
    1879:	08 07                	or     %al,(%edi)
    187b:	65 62 70 00          	bound  %esi,%gs:0x0(%eax)
    187f:	03 1f                	add    (%edi),%ebx
    1881:	13 59 00             	adc    0x0(%ecx),%ebx
    1884:	00 00                	add    %al,(%eax)
    1886:	0c 07                	or     $0x7,%al
    1888:	65 73 70             	gs jae 18fb <FLAGS+0x18fa>
    188b:	00 03                	add    %al,(%ebx)
    188d:	1f                   	pop    %ds
    188e:	17                   	pop    %ss
    188f:	59                   	pop    %ecx
    1890:	00 00                	add    %al,(%eax)
    1892:	00 10                	add    %dl,(%eax)
    1894:	07                   	pop    %es
    1895:	65 62 78 00          	bound  %edi,%gs:0x0(%eax)
    1899:	03 1f                	add    (%edi),%ebx
    189b:	1b 59 00             	sbb    0x0(%ecx),%ebx
    189e:	00 00                	add    %al,(%eax)
    18a0:	14 07                	adc    $0x7,%al
    18a2:	65 64 78 00          	gs fs js 18a6 <FLAGS+0x18a5>
    18a6:	03 1f                	add    (%edi),%ebx
    18a8:	1f                   	pop    %ds
    18a9:	59                   	pop    %ecx
    18aa:	00 00                	add    %al,(%eax)
    18ac:	00 18                	add    %bl,(%eax)
    18ae:	07                   	pop    %es
    18af:	65 63 78 00          	arpl   %di,%gs:0x0(%eax)
    18b3:	03 1f                	add    (%edi),%ebx
    18b5:	23 59 00             	and    0x0(%ecx),%ebx
    18b8:	00 00                	add    %al,(%eax)
    18ba:	1c 07                	sbb    $0x7,%al
    18bc:	65 61                	gs popa 
    18be:	78 00                	js     18c0 <FLAGS+0x18bf>
    18c0:	03 1f                	add    (%edi),%ebx
    18c2:	27                   	daa    
    18c3:	59                   	pop    %ecx
    18c4:	00 00                	add    %al,(%eax)
    18c6:	00 20                	add    %ah,(%eax)
    18c8:	06                   	push   %es
    18c9:	f3 03 00             	repz add (%eax),%eax
    18cc:	00 03                	add    %al,(%ebx)
    18ce:	20 0b                	and    %cl,(%ebx)
    18d0:	59                   	pop    %ecx
    18d1:	00 00                	add    %al,(%eax)
    18d3:	00 24 06             	add    %ah,(%esi,%eax,1)
    18d6:	17                   	pop    %ss
    18d7:	04 00                	add    $0x0,%al
    18d9:	00 03                	add    %al,(%ebx)
    18db:	20 12                	and    %dl,(%edx)
    18dd:	59                   	pop    %ecx
    18de:	00 00                	add    %al,(%eax)
    18e0:	00 28                	add    %ch,(%eax)
    18e2:	07                   	pop    %es
    18e3:	65 69 70 00 03 21 0b 	imul   $0x590b2103,%gs:0x0(%eax),%esi
    18ea:	59 
    18eb:	00 00                	add    %al,(%eax)
    18ed:	00 2c 07             	add    %ch,(%edi,%eax,1)
    18f0:	63 73 00             	arpl   %si,0x0(%ebx)
    18f3:	03 21                	add    (%ecx),%esp
    18f5:	0f 59 00             	mulps  (%eax),%xmm0
    18f8:	00 00                	add    %al,(%eax)
    18fa:	30 06                	xor    %al,(%esi)
    18fc:	56                   	push   %esi
    18fd:	03 00                	add    (%eax),%eax
    18ff:	00 03                	add    %al,(%ebx)
    1901:	21 12                	and    %edx,(%edx)
    1903:	59                   	pop    %ecx
    1904:	00 00                	add    %al,(%eax)
    1906:	00 34 06             	add    %dh,(%esi,%eax,1)
    1909:	b9 03 00 00 03       	mov    $0x3000003,%ecx
    190e:	21 19                	and    %ebx,(%ecx)
    1910:	59                   	pop    %ecx
    1911:	00 00                	add    %al,(%eax)
    1913:	00 38                	add    %bh,(%eax)
    1915:	07                   	pop    %es
    1916:	73 73                	jae    198b <FLAGS+0x198a>
    1918:	00 03                	add    %al,(%ebx)
    191a:	21 21                	and    %esp,(%ecx)
    191c:	59                   	pop    %ecx
    191d:	00 00                	add    %al,(%eax)
    191f:	00 3c 00             	add    %bh,(%eax,%eax,1)
    1922:	02 0d 03 00 00 03    	add    0x3000003,%cl
    1928:	22 03                	and    (%ebx),%al
    192a:	02 01                	add    (%ecx),%al
    192c:	00 00                	add    %al,(%eax)
    192e:	02 63 09             	add    0x9(%ebx),%ah
    1931:	00 00                	add    %al,(%eax)
    1933:	03 24 10             	add    (%eax,%edx,1),%esp
    1936:	f5                   	cmc    
    1937:	01 00                	add    %eax,(%eax)
    1939:	00 08                	add    %cl,(%eax)
    193b:	04 fb                	add    $0xfb,%al
    193d:	01 00                	add    %eax,(%eax)
    193f:	00 09                	add    %cl,(%ecx)
    1941:	06                   	push   %es
    1942:	02 00                	add    (%eax),%al
    1944:	00 0a                	add    %cl,(%edx)
    1946:	dd 01                	fldl   (%ecx)
    1948:	00 00                	add    %al,(%eax)
    194a:	00 0b                	add    %cl,(%ebx)
    194c:	69 64 74 00 01 08 07 	imul   $0x9b070801,0x0(%esp,%esi,2),%esp
    1953:	9b 
    1954:	00 00                	add    %al,(%eax)
    1956:	00 05 03 80 5c 10    	add    %al,0x105c8003
    195c:	00 0c f6             	add    %cl,(%esi,%esi,8)
    195f:	00 00                	add    %al,(%eax)
    1961:	00 28                	add    %ch,(%eax)
    1963:	02 00                	add    (%eax),%al
    1965:	00 0d 28 02 00 00    	add    %cl,0x228
    196b:	ff 00                	incl   (%eax)
    196d:	03 04 07             	add    (%edi,%eax,1),%eax
    1970:	f5                   	cmc    
    1971:	05 00 00 0e 06       	add    $0x60e0000,%eax
    1976:	0a 00                	or     (%eax),%al
    1978:	00 01                	add    %al,(%ecx)
    197a:	09 0d 18 02 00 00    	or     %ecx,0x218
    1980:	05 03 80 54 10       	add    $0x10548003,%eax
    1985:	00 0c e9             	add    %cl,(%ecx,%ebp,8)
    1988:	01 00                	add    %eax,(%eax)
    198a:	00 51 02             	add    %dl,0x2(%ecx)
    198d:	00 00                	add    %al,(%eax)
    198f:	0d 28 02 00 00       	or     $0x228,%eax
    1994:	ff 00                	incl   (%eax)
    1996:	0e                   	push   %cs
    1997:	aa                   	stos   %al,%es:(%edi)
    1998:	09 00                	or     %eax,(%eax)
    199a:	00 01                	add    %al,(%ecx)
    199c:	0a 15 41 02 00 00    	or     0x241,%dl
    19a2:	05 03 80 50 10       	add    $0x10508003,%eax
    19a7:	00 0f                	add    %cl,(%edi)
    19a9:	83 09 00             	orl    $0x0,(%ecx)
    19ac:	00 01                	add    %al,(%ecx)
    19ae:	9a 06 8b 1a 10 00 13 	lcall  $0x1300,$0x101a8b06
    19b5:	00 00                	add    %al,(%eax)
    19b7:	00 01                	add    %al,(%ecx)
    19b9:	9c                   	pushf  
    19ba:	98                   	cwtl   
    19bb:	02 00                	add    (%eax),%al
    19bd:	00 10                	add    %dl,(%eax)
    19bf:	f3 03 00             	repz add (%eax),%eax
    19c2:	00 01                	add    %al,(%ecx)
    19c4:	9a 27 59 00 00 00 02 	lcall  $0x200,$0x5927
    19cb:	91                   	xchg   %eax,%ecx
    19cc:	00 10                	add    %dl,(%eax)
    19ce:	a2 09 00 00 01       	mov    %al,0x1000009
    19d3:	9a 43 e9 01 00 00 02 	lcall  $0x200,$0x1e943
    19da:	91                   	xchg   %eax,%ecx
    19db:	04 00                	add    $0x0,%al
    19dd:	11 9e 09 00 00 01    	adc    %ebx,0x1000009(%esi)
    19e3:	8d 06                	lea    (%esi),%eax
    19e5:	ef                   	out    %eax,(%dx)
    19e6:	19 10                	sbb    %edx,(%eax)
    19e8:	00 9c 00 00 00 01 9c 	add    %bl,-0x63ff0000(%eax,%eax,1)
    19ef:	d7                   	xlat   %ds:(%ebx)
    19f0:	02 00                	add    (%eax),%al
    19f2:	00 10                	add    %dl,(%eax)
    19f4:	54                   	push   %esp
    19f5:	04 00                	add    $0x0,%al
    19f7:	00 01                	add    %al,(%ecx)
    19f9:	8d 1e                	lea    (%esi),%ebx
    19fb:	dd 01                	fldl   (%ecx)
    19fd:	00 00                	add    %al,(%eax)
    19ff:	02 91 00 12 12 1a    	add    0x1a121200(%ecx),%dl
    1a05:	10 00                	adc    %al,(%eax)
    1a07:	45                   	inc    %ebp
    1a08:	00 00                	add    %al,(%eax)
    1a0a:	00 13                	add    %dl,(%ebx)
    1a0c:	a2 09 00 00 01       	mov    %al,0x1000009
    1a11:	90                   	nop
    1a12:	16                   	push   %ss
    1a13:	e9 01 00 00 02       	jmp    2001a19 <kernelend+0x1efbd93>
    1a18:	91                   	xchg   %eax,%ecx
    1a19:	6c                   	insb   (%dx),%es:(%edi)
    1a1a:	00 00                	add    %al,(%eax)
    1a1c:	11 4a 09             	adc    %ecx,0x9(%edx)
    1a1f:	00 00                	add    %al,(%eax)
    1a21:	01 82 06 62 19 10    	add    %eax,0x10196206(%edx)
    1a27:	00 8d 00 00 00 01    	add    %cl,0x1000000(%ebp)
    1a2d:	9c                   	pushf  
    1a2e:	16                   	push   %ss
    1a2f:	03 00                	add    (%eax),%eax
    1a31:	00 10                	add    %dl,(%eax)
    1a33:	54                   	push   %esp
    1a34:	04 00                	add    $0x0,%al
    1a36:	00 01                	add    %al,(%ecx)
    1a38:	82 1e dd             	sbbb   $0xdd,(%esi)
    1a3b:	01 00                	add    %eax,(%eax)
    1a3d:	00 02                	add    %al,(%edx)
    1a3f:	91                   	xchg   %eax,%ecx
    1a40:	00 12                	add    %dl,(%edx)
    1a42:	76 19                	jbe    1a5d <FLAGS+0x1a5c>
    1a44:	10 00                	adc    %al,(%eax)
    1a46:	45                   	inc    %ebp
    1a47:	00 00                	add    %al,(%eax)
    1a49:	00 13                	add    %dl,(%ebx)
    1a4b:	a2 09 00 00 01       	mov    %al,0x1000009
    1a50:	84 16                	test   %dl,(%esi)
    1a52:	e9 01 00 00 02       	jmp    2001a58 <kernelend+0x1efbdd2>
    1a57:	91                   	xchg   %eax,%ecx
    1a58:	6c                   	insb   (%dx),%es:(%edi)
    1a59:	00 00                	add    %al,(%eax)
    1a5b:	14 2a                	adc    $0x2a,%al
    1a5d:	0a 00                	or     (%eax),%al
    1a5f:	00 01                	add    %al,(%ecx)
    1a61:	48                   	dec    %eax
    1a62:	06                   	push   %es
    1a63:	f7 14 10             	notl   (%eax,%edx,1)
    1a66:	00 6b 04             	add    %ch,0x4(%ebx)
    1a69:	00 00                	add    %al,(%eax)
    1a6b:	01 9c 15 56 09 00 00 	add    %ebx,0x956(%ebp,%edx,1)
    1a72:	01 40 0d             	add    %eax,0xd(%eax)
    1a75:	94                   	xchg   %eax,%esp
    1a76:	14 10                	adc    $0x10,%al
    1a78:	00 63 00             	add    %ah,0x0(%ebx)
    1a7b:	00 00                	add    %al,(%eax)
    1a7d:	01 9c 79 03 00 00 16 	add    %ebx,0x16000003(%ecx,%edi,2)
    1a84:	6e                   	outsb  %ds:(%esi),(%dx)
    1a85:	00 01                	add    %al,(%ecx)
    1a87:	40                   	inc    %eax
    1a88:	20 59 00             	and    %bl,0x0(%ecx)
    1a8b:	00 00                	add    %al,(%eax)
    1a8d:	02 91 00 10 66 08    	add    0x8661000(%ecx),%dl
    1a93:	00 00                	add    %al,(%eax)
    1a95:	01 40 28             	add    %eax,0x28(%eax)
    1a98:	59                   	pop    %ecx
    1a99:	00 00                	add    %al,(%eax)
    1a9b:	00 02                	add    %al,(%edx)
    1a9d:	91                   	xchg   %eax,%ecx
    1a9e:	04 10                	add    $0x10,%al
    1aa0:	c4 09                	les    (%ecx),%ecx
    1aa2:	00 00                	add    %al,(%eax)
    1aa4:	01 40 34             	add    %eax,0x34(%eax)
    1aa7:	3f                   	aas    
    1aa8:	00 00                	add    %al,(%eax)
    1aaa:	00 02                	add    %al,(%edx)
    1aac:	91                   	xchg   %eax,%ecx
    1aad:	74 10                	je     1abf <FLAGS+0x1abe>
    1aaf:	57                   	push   %edi
    1ab0:	03 00                	add    (%eax),%eax
    1ab2:	00 01                	add    %al,(%ecx)
    1ab4:	40                   	inc    %eax
    1ab5:	41                   	inc    %ecx
    1ab6:	25 00 00 00 02       	and    $0x2000000,%eax
    1abb:	91                   	xchg   %eax,%ecx
    1abc:	70 00                	jo     1abe <FLAGS+0x1abd>
    1abe:	17                   	pop    %ss
    1abf:	cc                   	int3   
    1ac0:	09 00                	or     %eax,(%eax)
    1ac2:	00 01                	add    %al,(%ecx)
    1ac4:	35 0d 54 14 10       	xor    $0x1014540d,%eax
    1ac9:	00 40 00             	add    %al,0x0(%eax)
    1acc:	00 00                	add    %al,(%eax)
    1ace:	01 9c 9f 03 00 00 10 	add    %ebx,0x10000003(%edi,%ebx,4)
    1ad5:	f3 03 00             	repz add (%eax),%eax
    1ad8:	00 01                	add    %al,(%ecx)
    1ada:	35 23 59 00 00       	xor    $0x5923,%eax
    1adf:	00 02                	add    %al,(%edx)
    1ae1:	91                   	xchg   %eax,%ecx
    1ae2:	00 00                	add    %al,(%eax)
    1ae4:	18 41 09             	sbb    %al,0x9(%ecx)
    1ae7:	00 00                	add    %al,(%eax)
    1ae9:	01 25 0d a0 13 10    	add    %esp,0x1013a00d
    1aef:	00 b4 00 00 00 01 9c 	add    %dh,-0x63ff0000(%eax,%eax,1)
    1af6:	19 33                	sbb    %esi,(%ebx)
    1af8:	0a 00                	or     (%eax),%al
    1afa:	00 01                	add    %al,(%ecx)
    1afc:	13 0d 38 13 10 00    	adc    0x101338,%ecx
    1b02:	68 00 00 00 01       	push   $0x1000000
    1b07:	9c                   	pushf  
    1b08:	e6 03                	out    %al,$0x3
    1b0a:	00 00                	add    %al,(%eax)
    1b0c:	1a 65 61             	sbb    0x61(%ebp),%ah
    1b0f:	78 00                	js     1b11 <FLAGS+0x1b10>
    1b11:	01 14 0b             	add    %edx,(%ebx,%ecx,1)
    1b14:	59                   	pop    %ecx
    1b15:	00 00                	add    %al,(%eax)
    1b17:	00 02                	add    %al,(%edx)
    1b19:	91                   	xchg   %eax,%ecx
    1b1a:	6c                   	insb   (%dx),%es:(%edi)
    1b1b:	1a 65 64             	sbb    0x64(%ebp),%ah
    1b1e:	78 00                	js     1b20 <FLAGS+0x1b1f>
    1b20:	01 15 0b 59 00 00    	add    %edx,0x590b
    1b26:	00 02                	add    %al,(%edx)
    1b28:	91                   	xchg   %eax,%ecx
    1b29:	68 00 15 e4 09       	push   $0x9e41500
    1b2e:	00 00                	add    %al,(%eax)
    1b30:	01 0f                	add    %ecx,(%edi)
    1b32:	0d 1d 13 10 00       	or     $0x10131d,%eax
    1b37:	1b 00                	sbb    (%eax),%eax
    1b39:	00 00                	add    %al,(%eax)
    1b3b:	01 9c 26 04 00 00 10 	add    %ebx,0x10000004(%esi,%eiz,1)
    1b42:	1b 04 00             	sbb    (%eax,%eax,1),%eax
    1b45:	00 01                	add    %al,(%ecx)
    1b47:	0f 17 6c 00 00       	movhps %xmm5,0x0(%eax,%eax,1)
    1b4c:	00 02                	add    %al,(%edx)
    1b4e:	91                   	xchg   %eax,%ecx
    1b4f:	00 16                	add    %dl,(%esi)
    1b51:	61                   	popa   
    1b52:	00 01                	add    %al,(%ecx)
    1b54:	0f 24                	(bad)  
    1b56:	26 04 00             	es add $0x0,%al
    1b59:	00 02                	add    %al,(%edx)
    1b5b:	91                   	xchg   %eax,%ecx
    1b5c:	04 16                	add    $0x16,%al
    1b5e:	64 00 01             	add    %al,%fs:(%ecx)
    1b61:	0f 2e 26             	ucomiss (%esi),%xmm4
    1b64:	04 00                	add    $0x0,%al
    1b66:	00 02                	add    %al,(%edx)
    1b68:	91                   	xchg   %eax,%ecx
    1b69:	08 00                	or     %al,(%eax)
    1b6b:	08 04 59             	or     %al,(%ecx,%ebx,2)
    1b6e:	00 00                	add    %al,(%eax)
    1b70:	00 00                	add    %al,(%eax)
    1b72:	42                   	inc    %edx
    1b73:	02 00                	add    (%eax),%al
    1b75:	00 04 00             	add    %al,(%eax,%eax,1)
    1b78:	0b 09                	or     (%ecx),%ecx
    1b7a:	00 00                	add    %al,(%eax)
    1b7c:	04 01                	add    $0x1,%al
    1b7e:	24 00                	and    $0x0,%al
    1b80:	00 00                	add    %al,(%eax)
    1b82:	0c c4                	or     $0xc4,%al
    1b84:	0a 00                	or     (%eax),%al
    1b86:	00 42 02             	add    %al,0x2(%edx)
    1b89:	00 00                	add    %al,(%eax)
    1b8b:	9e                   	sahf   
    1b8c:	1a 10                	sbb    (%eax),%dl
    1b8e:	00 44 01 00          	add    %al,0x0(%ecx,%eax,1)
    1b92:	00 55 0a             	add    %dl,0xa(%ebp)
    1b95:	00 00                	add    %al,(%eax)
    1b97:	02 70 02             	add    0x2(%eax),%dh
    1b9a:	00 00                	add    %al,(%eax)
    1b9c:	02 04 17             	add    (%edi,%edx,1),%al
    1b9f:	31 00                	xor    %eax,(%eax)
    1ba1:	00 00                	add    %al,(%eax)
    1ba3:	03 01                	add    (%ecx),%eax
    1ba5:	08 6f 01             	or     %ch,0x1(%edi)
    1ba8:	00 00                	add    %al,(%eax)
    1baa:	03 01                	add    (%ecx),%eax
    1bac:	06                   	push   %es
    1bad:	78 01                	js     1bb0 <FLAGS+0x1baf>
    1baf:	00 00                	add    %al,(%eax)
    1bb1:	03 02                	add    (%edx),%eax
    1bb3:	07                   	pop    %es
    1bb4:	cc                   	int3   
    1bb5:	01 00                	add    %eax,(%eax)
    1bb7:	00 03                	add    %al,(%ebx)
    1bb9:	02 05 65 00 00 00    	add    0x65,%al
    1bbf:	02 75 02             	add    0x2(%ebp),%dh
    1bc2:	00 00                	add    %al,(%eax)
    1bc4:	02 08                	add    (%eax),%cl
    1bc6:	16                   	push   %ss
    1bc7:	59                   	pop    %ecx
    1bc8:	00 00                	add    %al,(%eax)
    1bca:	00 03                	add    %al,(%ebx)
    1bcc:	04 07                	add    $0x7,%al
    1bce:	fa                   	cli    
    1bcf:	05 00 00 04 04       	add    $0x4040000,%eax
    1bd4:	05 69 6e 74 00       	add    $0x746e69,%eax
    1bd9:	05 2b 04 00 00       	add    $0x42b,%eax
    1bde:	40                   	inc    %eax
    1bdf:	03 1d 10 42 01 00    	add    0x14210,%ebx
    1be5:	00 06                	add    %al,(%esi)
    1be7:	64 73 00             	fs jae 1bea <FLAGS+0x1be9>
    1bea:	03 1e                	add    (%esi),%ebx
    1bec:	0b 4d 00             	or     0x0(%ebp),%ecx
    1bef:	00 00                	add    %al,(%eax)
    1bf1:	00 06                	add    %al,(%esi)
    1bf3:	65 64 69 00 03 1f 0b 	gs imul $0x4d0b1f03,%fs:(%eax),%eax
    1bfa:	4d 
    1bfb:	00 00                	add    %al,(%eax)
    1bfd:	00 04 06             	add    %al,(%esi,%eax,1)
    1c00:	65 73 69             	gs jae 1c6c <FLAGS+0x1c6b>
    1c03:	00 03                	add    %al,(%ebx)
    1c05:	1f                   	pop    %ds
    1c06:	0f 4d 00             	cmovge (%eax),%eax
    1c09:	00 00                	add    %al,(%eax)
    1c0b:	08 06                	or     %al,(%esi)
    1c0d:	65 62 70 00          	bound  %esi,%gs:0x0(%eax)
    1c11:	03 1f                	add    (%edi),%ebx
    1c13:	13 4d 00             	adc    0x0(%ebp),%ecx
    1c16:	00 00                	add    %al,(%eax)
    1c18:	0c 06                	or     $0x6,%al
    1c1a:	65 73 70             	gs jae 1c8d <FLAGS+0x1c8c>
    1c1d:	00 03                	add    %al,(%ebx)
    1c1f:	1f                   	pop    %ds
    1c20:	17                   	pop    %ss
    1c21:	4d                   	dec    %ebp
    1c22:	00 00                	add    %al,(%eax)
    1c24:	00 10                	add    %dl,(%eax)
    1c26:	06                   	push   %es
    1c27:	65 62 78 00          	bound  %edi,%gs:0x0(%eax)
    1c2b:	03 1f                	add    (%edi),%ebx
    1c2d:	1b 4d 00             	sbb    0x0(%ebp),%ecx
    1c30:	00 00                	add    %al,(%eax)
    1c32:	14 06                	adc    $0x6,%al
    1c34:	65 64 78 00          	gs fs js 1c38 <FLAGS+0x1c37>
    1c38:	03 1f                	add    (%edi),%ebx
    1c3a:	1f                   	pop    %ds
    1c3b:	4d                   	dec    %ebp
    1c3c:	00 00                	add    %al,(%eax)
    1c3e:	00 18                	add    %bl,(%eax)
    1c40:	06                   	push   %es
    1c41:	65 63 78 00          	arpl   %di,%gs:0x0(%eax)
    1c45:	03 1f                	add    (%edi),%ebx
    1c47:	23 4d 00             	and    0x0(%ebp),%ecx
    1c4a:	00 00                	add    %al,(%eax)
    1c4c:	1c 06                	sbb    $0x6,%al
    1c4e:	65 61                	gs popa 
    1c50:	78 00                	js     1c52 <FLAGS+0x1c51>
    1c52:	03 1f                	add    (%edi),%ebx
    1c54:	27                   	daa    
    1c55:	4d                   	dec    %ebp
    1c56:	00 00                	add    %al,(%eax)
    1c58:	00 20                	add    %ah,(%eax)
    1c5a:	07                   	pop    %es
    1c5b:	f3 03 00             	repz add (%eax),%eax
    1c5e:	00 03                	add    %al,(%ebx)
    1c60:	20 0b                	and    %cl,(%ebx)
    1c62:	4d                   	dec    %ebp
    1c63:	00 00                	add    %al,(%eax)
    1c65:	00 24 07             	add    %ah,(%edi,%eax,1)
    1c68:	17                   	pop    %ss
    1c69:	04 00                	add    $0x0,%al
    1c6b:	00 03                	add    %al,(%ebx)
    1c6d:	20 12                	and    %dl,(%edx)
    1c6f:	4d                   	dec    %ebp
    1c70:	00 00                	add    %al,(%eax)
    1c72:	00 28                	add    %ch,(%eax)
    1c74:	06                   	push   %es
    1c75:	65 69 70 00 03 21 0b 	imul   $0x4d0b2103,%gs:0x0(%eax),%esi
    1c7c:	4d 
    1c7d:	00 00                	add    %al,(%eax)
    1c7f:	00 2c 06             	add    %ch,(%esi,%eax,1)
    1c82:	63 73 00             	arpl   %si,0x0(%ebx)
    1c85:	03 21                	add    (%ecx),%esp
    1c87:	0f 4d 00             	cmovge (%eax),%eax
    1c8a:	00 00                	add    %al,(%eax)
    1c8c:	30 07                	xor    %al,(%edi)
    1c8e:	56                   	push   %esi
    1c8f:	03 00                	add    (%eax),%eax
    1c91:	00 03                	add    %al,(%ebx)
    1c93:	21 12                	and    %edx,(%edx)
    1c95:	4d                   	dec    %ebp
    1c96:	00 00                	add    %al,(%eax)
    1c98:	00 34 07             	add    %dh,(%edi,%eax,1)
    1c9b:	b9 03 00 00 03       	mov    $0x3000003,%ecx
    1ca0:	21 19                	and    %ebx,(%ecx)
    1ca2:	4d                   	dec    %ebp
    1ca3:	00 00                	add    %al,(%eax)
    1ca5:	00 38                	add    %bh,(%eax)
    1ca7:	06                   	push   %es
    1ca8:	73 73                	jae    1d1d <FLAGS+0x1d1c>
    1caa:	00 03                	add    %al,(%ebx)
    1cac:	21 21                	and    %esp,(%ecx)
    1cae:	4d                   	dec    %ebp
    1caf:	00 00                	add    %al,(%eax)
    1cb1:	00 3c 00             	add    %bh,(%eax,%eax,1)
    1cb4:	02 0d 03 00 00 03    	add    0x3000003,%cl
    1cba:	22 03                	and    (%ebx),%al
    1cbc:	67 00 00             	add    %al,(%bx,%si)
    1cbf:	00 08                	add    %cl,(%eax)
    1cc1:	b5 0a                	mov    $0xa,%ch
    1cc3:	00 00                	add    %al,(%eax)
    1cc5:	01 48 0d             	add    %ecx,0xd(%eax)
    1cc8:	ad                   	lods   %ds:(%esi),%eax
    1cc9:	1b 10                	sbb    (%eax),%edx
    1ccb:	00 35 00 00 00 01    	add    %dh,0x1000000
    1cd1:	9c                   	pushf  
    1cd2:	74 01                	je     1cd5 <FLAGS+0x1cd4>
    1cd4:	00 00                	add    %al,(%eax)
    1cd6:	09 63 61             	or     %esp,0x61(%ebx)
    1cd9:	70 00                	jo     1cdb <FLAGS+0x1cda>
    1cdb:	01 48 21             	add    %ecx,0x21(%eax)
    1cde:	25 00 00 00 02       	and    $0x2000000,%eax
    1ce3:	91                   	xchg   %eax,%ecx
    1ce4:	6c                   	insb   (%dx),%es:(%edi)
    1ce5:	00 0a                	add    %cl,(%edx)
    1ce7:	a5                   	movsl  %ds:(%esi),%es:(%edi)
    1ce8:	0a 00                	or     (%eax),%al
    1cea:	00 01                	add    %al,(%ecx)
    1cec:	44                   	inc    %esp
    1ced:	0d 25 00 00 00       	or     $0x25,%eax
    1cf2:	98                   	cwtl   
    1cf3:	1b 10                	sbb    (%eax),%edx
    1cf5:	00 15 00 00 00 01    	add    %dl,0x1000000
    1cfb:	9c                   	pushf  
    1cfc:	08 4c 0a 00          	or     %cl,0x0(%edx,%ecx,1)
    1d00:	00 01                	add    %al,(%ecx)
    1d02:	3b 0d 85 1b 10 00    	cmp    0x101b85,%ecx
    1d08:	13 00                	adc    (%eax),%eax
    1d0a:	00 00                	add    %al,(%eax)
    1d0c:	01 9c b0 01 00 00 09 	add    %ebx,0x9000001(%eax,%esi,4)
    1d13:	63 6d 64             	arpl   %bp,0x64(%ebp)
    1d16:	00 01                	add    %al,(%ecx)
    1d18:	3b 22                	cmp    (%edx),%esp
    1d1a:	25 00 00 00 02       	and    $0x2000000,%eax
    1d1f:	91                   	xchg   %eax,%ecx
    1d20:	6c                   	insb   (%dx),%es:(%edi)
    1d21:	00 08                	add    %cl,(%eax)
    1d23:	86 0a                	xchg   %cl,(%edx)
    1d25:	00 00                	add    %al,(%eax)
    1d27:	01 33                	add    %esi,(%ebx)
    1d29:	0d 72 1b 10 00       	or     $0x101b72,%eax
    1d2e:	13 00                	adc    (%eax),%eax
    1d30:	00 00                	add    %al,(%eax)
    1d32:	01 9c d6 01 00 00 09 	add    %ebx,0x9000001(%esi,%edx,8)
    1d39:	63 6d 64             	arpl   %bp,0x64(%ebp)
    1d3c:	00 01                	add    %al,(%ecx)
    1d3e:	33 23                	xor    (%ebx),%esp
    1d40:	25 00 00 00 02       	and    $0x2000000,%eax
    1d45:	91                   	xchg   %eax,%ecx
    1d46:	6c                   	insb   (%dx),%es:(%edi)
    1d47:	00 0a                	add    %cl,(%edx)
    1d49:	72 0a                	jb     1d55 <FLAGS+0x1d54>
    1d4b:	00 00                	add    %al,(%eax)
    1d4d:	01 2f                	add    %ebp,(%edi)
    1d4f:	0d 25 00 00 00       	or     $0x25,%eax
    1d54:	5d                   	pop    %ebp
    1d55:	1b 10                	sbb    (%eax),%edx
    1d57:	00 15 00 00 00 01    	add    %dl,0x1000000
    1d5d:	9c                   	pushf  
    1d5e:	0b 5c 0a 00          	or     0x0(%edx,%ecx,1),%ebx
    1d62:	00 01                	add    %al,(%ecx)
    1d64:	2c 0d                	sub    $0xd,%al
    1d66:	57                   	push   %edi
    1d67:	1b 10                	sbb    (%eax),%edx
    1d69:	00 06                	add    %al,(%esi)
    1d6b:	00 00                	add    %al,(%eax)
    1d6d:	00 01                	add    %al,(%ecx)
    1d6f:	9c                   	pushf  
    1d70:	08 66 0a             	or     %ah,0xa(%esi)
    1d73:	00 00                	add    %al,(%eax)
    1d75:	01 1d 0d b9 1a 10    	add    %ebx,0x101ab90d
    1d7b:	00 9e 00 00 00 01    	add    %bl,0x1000000(%esi)
    1d81:	9c                   	pushf  
    1d82:	33 02                	xor    (%edx),%eax
    1d84:	00 00                	add    %al,(%eax)
    1d86:	0c 54                	or     $0x54,%al
    1d88:	04 00                	add    $0x0,%al
    1d8a:	00 01                	add    %al,(%ecx)
    1d8c:	1d 25 42 01 00       	sbb    $0x14225,%eax
    1d91:	00 02                	add    %al,(%edx)
    1d93:	91                   	xchg   %eax,%ecx
    1d94:	00 0d 1b 04 00 00    	add    %cl,0x41b
    1d9a:	01 21                	add    %esp,(%ecx)
    1d9c:	09 60 00             	or     %esp,0x0(%eax)
    1d9f:	00 00                	add    %al,(%eax)
    1da1:	02 91 6c 00 0e 97    	add    -0x68f1ff94(%ecx),%dl
    1da7:	0a 00                	or     (%eax),%al
    1da9:	00 01                	add    %al,(%ecx)
    1dab:	17                   	pop    %ss
    1dac:	06                   	push   %es
    1dad:	9e                   	sahf   
    1dae:	1a 10                	sbb    (%eax),%dl
    1db0:	00 1b                	add    %bl,(%ebx)
    1db2:	00 00                	add    %al,(%eax)
    1db4:	00 01                	add    %al,(%ecx)
    1db6:	9c                   	pushf  
    1db7:	00 ce                	add    %cl,%dh
    1db9:	01 00                	add    %eax,(%eax)
    1dbb:	00 04 00             	add    %al,(%eax,%eax,1)
    1dbe:	0a 0a                	or     (%edx),%cl
    1dc0:	00 00                	add    %al,(%eax)
    1dc2:	04 01                	add    $0x1,%al
    1dc4:	24 00                	and    $0x0,%al
    1dc6:	00 00                	add    %al,(%eax)
    1dc8:	0c 0c                	or     $0xc,%al
    1dca:	0b 00                	or     (%eax),%eax
    1dcc:	00 42 02             	add    %al,0x2(%edx)
    1dcf:	00 00                	add    %al,(%eax)
    1dd1:	e2 1b                	loop   1dee <FLAGS+0x1ded>
    1dd3:	10 00                	adc    %al,(%eax)
    1dd5:	be 00 00 00 33       	mov    $0x33000000,%esi
    1dda:	0b 00                	or     (%eax),%eax
    1ddc:	00 02                	add    %al,(%edx)
    1dde:	70 02                	jo     1de2 <FLAGS+0x1de1>
    1de0:	00 00                	add    %al,(%eax)
    1de2:	02 04 17             	add    (%edi,%edx,1),%al
    1de5:	31 00                	xor    %eax,(%eax)
    1de7:	00 00                	add    %al,(%eax)
    1de9:	03 01                	add    (%ecx),%eax
    1deb:	08 6f 01             	or     %ch,0x1(%edi)
    1dee:	00 00                	add    %al,(%eax)
    1df0:	03 01                	add    (%ecx),%eax
    1df2:	06                   	push   %es
    1df3:	78 01                	js     1df6 <FLAGS+0x1df5>
    1df5:	00 00                	add    %al,(%eax)
    1df7:	03 02                	add    (%edx),%eax
    1df9:	07                   	pop    %es
    1dfa:	cc                   	int3   
    1dfb:	01 00                	add    %eax,(%eax)
    1dfd:	00 03                	add    %al,(%ebx)
    1dff:	02 05 65 00 00 00    	add    0x65,%al
    1e05:	02 75 02             	add    0x2(%ebp),%dh
    1e08:	00 00                	add    %al,(%eax)
    1e0a:	02 08                	add    (%eax),%cl
    1e0c:	16                   	push   %ss
    1e0d:	59                   	pop    %ecx
    1e0e:	00 00                	add    %al,(%eax)
    1e10:	00 03                	add    %al,(%ebx)
    1e12:	04 07                	add    $0x7,%al
    1e14:	fa                   	cli    
    1e15:	05 00 00 04 04       	add    $0x4040000,%eax
    1e1a:	05 69 6e 74 00       	add    $0x746e69,%eax
    1e1f:	05 2b 04 00 00       	add    $0x42b,%eax
    1e24:	40                   	inc    %eax
    1e25:	03 1d 10 42 01 00    	add    0x14210,%ebx
    1e2b:	00 06                	add    %al,(%esi)
    1e2d:	64 73 00             	fs jae 1e30 <FLAGS+0x1e2f>
    1e30:	03 1e                	add    (%esi),%ebx
    1e32:	0b 4d 00             	or     0x0(%ebp),%ecx
    1e35:	00 00                	add    %al,(%eax)
    1e37:	00 06                	add    %al,(%esi)
    1e39:	65 64 69 00 03 1f 0b 	gs imul $0x4d0b1f03,%fs:(%eax),%eax
    1e40:	4d 
    1e41:	00 00                	add    %al,(%eax)
    1e43:	00 04 06             	add    %al,(%esi,%eax,1)
    1e46:	65 73 69             	gs jae 1eb2 <FLAGS+0x1eb1>
    1e49:	00 03                	add    %al,(%ebx)
    1e4b:	1f                   	pop    %ds
    1e4c:	0f 4d 00             	cmovge (%eax),%eax
    1e4f:	00 00                	add    %al,(%eax)
    1e51:	08 06                	or     %al,(%esi)
    1e53:	65 62 70 00          	bound  %esi,%gs:0x0(%eax)
    1e57:	03 1f                	add    (%edi),%ebx
    1e59:	13 4d 00             	adc    0x0(%ebp),%ecx
    1e5c:	00 00                	add    %al,(%eax)
    1e5e:	0c 06                	or     $0x6,%al
    1e60:	65 73 70             	gs jae 1ed3 <FLAGS+0x1ed2>
    1e63:	00 03                	add    %al,(%ebx)
    1e65:	1f                   	pop    %ds
    1e66:	17                   	pop    %ss
    1e67:	4d                   	dec    %ebp
    1e68:	00 00                	add    %al,(%eax)
    1e6a:	00 10                	add    %dl,(%eax)
    1e6c:	06                   	push   %es
    1e6d:	65 62 78 00          	bound  %edi,%gs:0x0(%eax)
    1e71:	03 1f                	add    (%edi),%ebx
    1e73:	1b 4d 00             	sbb    0x0(%ebp),%ecx
    1e76:	00 00                	add    %al,(%eax)
    1e78:	14 06                	adc    $0x6,%al
    1e7a:	65 64 78 00          	gs fs js 1e7e <FLAGS+0x1e7d>
    1e7e:	03 1f                	add    (%edi),%ebx
    1e80:	1f                   	pop    %ds
    1e81:	4d                   	dec    %ebp
    1e82:	00 00                	add    %al,(%eax)
    1e84:	00 18                	add    %bl,(%eax)
    1e86:	06                   	push   %es
    1e87:	65 63 78 00          	arpl   %di,%gs:0x0(%eax)
    1e8b:	03 1f                	add    (%edi),%ebx
    1e8d:	23 4d 00             	and    0x0(%ebp),%ecx
    1e90:	00 00                	add    %al,(%eax)
    1e92:	1c 06                	sbb    $0x6,%al
    1e94:	65 61                	gs popa 
    1e96:	78 00                	js     1e98 <FLAGS+0x1e97>
    1e98:	03 1f                	add    (%edi),%ebx
    1e9a:	27                   	daa    
    1e9b:	4d                   	dec    %ebp
    1e9c:	00 00                	add    %al,(%eax)
    1e9e:	00 20                	add    %ah,(%eax)
    1ea0:	07                   	pop    %es
    1ea1:	f3 03 00             	repz add (%eax),%eax
    1ea4:	00 03                	add    %al,(%ebx)
    1ea6:	20 0b                	and    %cl,(%ebx)
    1ea8:	4d                   	dec    %ebp
    1ea9:	00 00                	add    %al,(%eax)
    1eab:	00 24 07             	add    %ah,(%edi,%eax,1)
    1eae:	17                   	pop    %ss
    1eaf:	04 00                	add    $0x0,%al
    1eb1:	00 03                	add    %al,(%ebx)
    1eb3:	20 12                	and    %dl,(%edx)
    1eb5:	4d                   	dec    %ebp
    1eb6:	00 00                	add    %al,(%eax)
    1eb8:	00 28                	add    %ch,(%eax)
    1eba:	06                   	push   %es
    1ebb:	65 69 70 00 03 21 0b 	imul   $0x4d0b2103,%gs:0x0(%eax),%esi
    1ec2:	4d 
    1ec3:	00 00                	add    %al,(%eax)
    1ec5:	00 2c 06             	add    %ch,(%esi,%eax,1)
    1ec8:	63 73 00             	arpl   %si,0x0(%ebx)
    1ecb:	03 21                	add    (%ecx),%esp
    1ecd:	0f 4d 00             	cmovge (%eax),%eax
    1ed0:	00 00                	add    %al,(%eax)
    1ed2:	30 07                	xor    %al,(%edi)
    1ed4:	56                   	push   %esi
    1ed5:	03 00                	add    (%eax),%eax
    1ed7:	00 03                	add    %al,(%ebx)
    1ed9:	21 12                	and    %edx,(%edx)
    1edb:	4d                   	dec    %ebp
    1edc:	00 00                	add    %al,(%eax)
    1ede:	00 34 07             	add    %dh,(%edi,%eax,1)
    1ee1:	b9 03 00 00 03       	mov    $0x3000003,%ecx
    1ee6:	21 19                	and    %ebx,(%ecx)
    1ee8:	4d                   	dec    %ebp
    1ee9:	00 00                	add    %al,(%eax)
    1eeb:	00 38                	add    %bh,(%eax)
    1eed:	06                   	push   %es
    1eee:	73 73                	jae    1f63 <FLAGS+0x1f62>
    1ef0:	00 03                	add    %al,(%ebx)
    1ef2:	21 21                	and    %esp,(%ecx)
    1ef4:	4d                   	dec    %ebp
    1ef5:	00 00                	add    %al,(%eax)
    1ef7:	00 3c 00             	add    %bh,(%eax,%eax,1)
    1efa:	02 0d 03 00 00 03    	add    0x3000003,%cl
    1f00:	22 03                	and    (%ebx),%al
    1f02:	67 00 00             	add    %al,(%bx,%si)
    1f05:	00 08                	add    %cl,(%eax)
    1f07:	ff 0a                	decl   (%edx)
    1f09:	00 00                	add    %al,(%eax)
    1f0b:	01 06                	add    %eax,(%esi)
    1f0d:	07                   	pop    %es
    1f0e:	4d                   	dec    %ebp
    1f0f:	00 00                	add    %al,(%eax)
    1f11:	00 05 03 0c 50 10    	add    %al,0x10500c03
    1f17:	00 09                	add    %cl,(%ecx)
    1f19:	f4                   	hlt    
    1f1a:	0a 00                	or     (%eax),%al
    1f1c:	00 01                	add    %al,(%ecx)
    1f1e:	12 06                	adc    (%esi),%al
    1f20:	33 1c 10             	xor    (%eax,%edx,1),%ebx
    1f23:	00 6d 00             	add    %ch,0x0(%ebp)
    1f26:	00 00                	add    %al,(%eax)
    1f28:	01 9c af 01 00 00 0a 	add    %ebx,0xa000001(%edi,%ebp,4)
    1f2f:	db 0a                	fisttpl (%edx)
    1f31:	00 00                	add    %al,(%eax)
    1f33:	01 12                	add    %edx,(%edx)
    1f35:	17                   	pop    %ss
    1f36:	4d                   	dec    %ebp
    1f37:	00 00                	add    %al,(%eax)
    1f39:	00 02                	add    %al,(%edx)
    1f3b:	91                   	xchg   %eax,%ecx
    1f3c:	00 0b                	add    %cl,(%ebx)
    1f3e:	04 0b                	add    $0xb,%al
    1f40:	00 00                	add    %al,(%eax)
    1f42:	01 14 0b             	add    %edx,(%ebx,%ecx,1)
    1f45:	4d                   	dec    %ebp
    1f46:	00 00                	add    %al,(%eax)
    1f48:	00 02                	add    %al,(%edx)
    1f4a:	91                   	xchg   %eax,%ecx
    1f4b:	6c                   	insb   (%dx),%es:(%edi)
    1f4c:	0c 6c                	or     $0x6c,%al
    1f4e:	00 01                	add    %al,(%ecx)
    1f50:	16                   	push   %ss
    1f51:	0a 25 00 00 00 02    	or     0x2000000,%ah
    1f57:	91                   	xchg   %eax,%ecx
    1f58:	6b 0c 68 00          	imul   $0x0,(%eax,%ebp,2),%ecx
    1f5c:	01 17                	add    %edx,(%edi)
    1f5e:	0a 25 00 00 00 02    	or     0x2000000,%ah
    1f64:	91                   	xchg   %eax,%ecx
    1f65:	6a 00                	push   $0x0
    1f67:	0d e5 0a 00 00       	or     $0xae5,%eax
    1f6c:	01 08                	add    %ecx,(%eax)
    1f6e:	0d e2 1b 10 00       	or     $0x101be2,%eax
    1f73:	51                   	push   %ecx
    1f74:	00 00                	add    %al,(%eax)
    1f76:	00 01                	add    %al,(%ecx)
    1f78:	9c                   	pushf  
    1f79:	0a 54 04 00          	or     0x0(%esp,%eax,1),%dl
    1f7d:	00 01                	add    %al,(%ecx)
    1f7f:	08 28                	or     %ch,(%eax)
    1f81:	42                   	inc    %edx
    1f82:	01 00                	add    %eax,(%eax)
    1f84:	00 02                	add    %al,(%edx)
    1f86:	91                   	xchg   %eax,%ecx
    1f87:	00 00                	add    %al,(%eax)
    1f89:	00 b1 02 00 00 04    	add    %dh,0x4000002(%ecx)
    1f8f:	00 f0                	add    %dh,%al
    1f91:	0a 00                	or     (%eax),%al
    1f93:	00 04 01             	add    %al,(%ecx,%eax,1)
    1f96:	24 00                	and    $0x0,%al
    1f98:	00 00                	add    %al,(%eax)
    1f9a:	0c 94                	or     $0x94,%al
    1f9c:	0b 00                	or     (%eax),%eax
    1f9e:	00 42 02             	add    %al,0x2(%edx)
    1fa1:	00 00                	add    %al,(%eax)
    1fa3:	a0 1c 10 00 3b       	mov    0x3b00101c,%al
    1fa8:	02 00                	add    (%eax),%al
    1faa:	00 d7                	add    %dl,%bh
    1fac:	0b 00                	or     (%eax),%eax
    1fae:	00 02                	add    %al,(%edx)
    1fb0:	70 02                	jo     1fb4 <FLAGS+0x1fb3>
    1fb2:	00 00                	add    %al,(%eax)
    1fb4:	02 04 17             	add    (%edi,%edx,1),%al
    1fb7:	31 00                	xor    %eax,(%eax)
    1fb9:	00 00                	add    %al,(%eax)
    1fbb:	03 01                	add    (%ecx),%eax
    1fbd:	08 6f 01             	or     %ch,0x1(%edi)
    1fc0:	00 00                	add    %al,(%eax)
    1fc2:	02 30                	add    (%eax),%dh
    1fc4:	01 00                	add    %eax,(%eax)
    1fc6:	00 02                	add    %al,(%edx)
    1fc8:	05 0e 44 00 00       	add    $0x440e,%eax
    1fcd:	00 03                	add    %al,(%ebx)
    1fcf:	01 06                	add    %eax,(%esi)
    1fd1:	78 01                	js     1fd4 <FLAGS+0x1fd3>
    1fd3:	00 00                	add    %al,(%eax)
    1fd5:	03 02                	add    (%edx),%eax
    1fd7:	07                   	pop    %es
    1fd8:	cc                   	int3   
    1fd9:	01 00                	add    %eax,(%eax)
    1fdb:	00 03                	add    %al,(%ebx)
    1fdd:	02 05 65 00 00 00    	add    0x65,%al
    1fe3:	02 75 02             	add    0x2(%ebp),%dh
    1fe6:	00 00                	add    %al,(%eax)
    1fe8:	02 08                	add    (%eax),%cl
    1fea:	16                   	push   %ss
    1feb:	65 00 00             	add    %al,%gs:(%eax)
    1fee:	00 03                	add    %al,(%ebx)
    1ff0:	04 07                	add    $0x7,%al
    1ff2:	fa                   	cli    
    1ff3:	05 00 00 04 04       	add    $0x4040000,%eax
    1ff8:	05 69 6e 74 00       	add    $0x746e69,%eax
    1ffd:	02 16                	add    (%esi),%dl
    1fff:	02 00                	add    (%eax),%al
    2001:	00 03                	add    %al,(%ebx)
    2003:	07                   	pop    %es
    2004:	0f 7f 00             	movq   %mm0,(%eax)
    2007:	00 00                	add    %al,(%eax)
    2009:	05 04 02 a3 02       	add    $0x2a30204,%eax
    200e:	00 00                	add    %al,(%eax)
    2010:	03 08                	add    (%eax),%ecx
    2012:	10 8d 00 00 00 06    	adc    %cl,0x6000000(%ebp)
    2018:	04 93                	add    $0x93,%al
    201a:	00 00                	add    %al,(%eax)
    201c:	00 07                	add    %al,(%edi)
    201e:	38 00                	cmp    %al,(%eax)
    2020:	00 00                	add    %al,(%eax)
    2022:	a7                   	cmpsl  %es:(%edi),%ds:(%esi)
    2023:	00 00                	add    %al,(%eax)
    2025:	00 08                	add    %cl,(%eax)
    2027:	73 00                	jae    2029 <FLAGS+0x2028>
    2029:	00 00                	add    %al,(%eax)
    202b:	08 73 00             	or     %dh,0x0(%ebx)
    202e:	00 00                	add    %al,(%eax)
    2030:	00 09                	add    %cl,(%ecx)
    2032:	10 03                	adc    %al,(%ebx)
    2034:	0a 09                	or     (%ecx),%cl
    2036:	e5 00                	in     $0x0,%eax
    2038:	00 00                	add    %al,(%eax)
    203a:	0a 48 0b             	or     0xb(%eax),%cl
    203d:	00 00                	add    %al,(%eax)
    203f:	03 0b                	add    (%ebx),%ecx
    2041:	0d e5 00 00 00       	or     $0xe5,%eax
    2046:	00 0a                	add    %cl,(%edx)
    2048:	d7                   	xlat   %ds:(%ebx)
    2049:	00 00                	add    %al,(%eax)
    204b:	00 03                	add    %al,(%ebx)
    204d:	0c 0b                	or     $0xb,%al
    204f:	59                   	pop    %ecx
    2050:	00 00                	add    %al,(%eax)
    2052:	00 04 0a             	add    %al,(%edx,%ecx,1)
    2055:	9a 02 00 00 03 0d 0b 	lcall  $0xb0d,$0x3000002
    205c:	59                   	pop    %ecx
    205d:	00 00                	add    %al,(%eax)
    205f:	00 08                	add    %cl,(%eax)
    2061:	0a 9f 01 00 00 03    	or     0x3000001(%edi),%bl
    2067:	0e                   	push   %cs
    2068:	11 81 00 00 00 0c    	adc    %eax,0xc000000(%ecx)
    206e:	00 06                	add    %al,(%esi)
    2070:	04 73                	add    $0x73,%al
    2072:	00 00                	add    %al,(%eax)
    2074:	00 02                	add    %al,(%edx)
    2076:	1d 02 00 00 03       	sbb    $0x3000002,%eax
    207b:	0f 03 a7 00 00 00 0b 	lsl    0xb000000(%edi),%esp
    2082:	7f 0b                	jg     208f <FLAGS+0x208e>
    2084:	00 00                	add    %al,(%eax)
    2086:	01 33                	add    %esi,(%ebx)
    2088:	06                   	push   %es
    2089:	90                   	nop
    208a:	1e                   	push   %ds
    208b:	10 00                	adc    %al,(%eax)
    208d:	4b                   	dec    %ebx
    208e:	00 00                	add    %al,(%eax)
    2090:	00 01                	add    %al,(%ecx)
    2092:	9c                   	pushf  
    2093:	2a 01                	sub    (%ecx),%al
    2095:	00 00                	add    %al,(%eax)
    2097:	0c 69                	or     $0x69,%al
    2099:	00 01                	add    %al,(%ecx)
    209b:	33 21                	xor    (%ecx),%esp
    209d:	59                   	pop    %ecx
    209e:	00 00                	add    %al,(%eax)
    20a0:	00 02                	add    %al,(%edx)
    20a2:	91                   	xchg   %eax,%ecx
    20a3:	00 0d 48 0b 00 00    	add    %cl,0xb48
    20a9:	01 33                	add    %esi,(%ebx)
    20ab:	35 2a 01 00 00       	xor    $0x12a,%eax
    20b0:	02 91 04 00 06 04    	add    0x4060004(%ecx),%dl
    20b6:	eb 00                	jmp    20b8 <FLAGS+0x20b7>
    20b8:	00 00                	add    %al,(%eax)
    20ba:	0e                   	push   %cs
    20bb:	4e                   	dec    %esi
    20bc:	0b 00                	or     (%eax),%eax
    20be:	00 01                	add    %al,(%ecx)
    20c0:	2d 08 73 00 00       	sub    $0x7308,%eax
    20c5:	00 57 1e             	add    %dl,0x1e(%edi)
    20c8:	10 00                	adc    %al,(%eax)
    20ca:	39 00                	cmp    %eax,(%eax)
    20cc:	00 00                	add    %al,(%eax)
    20ce:	01 9c 67 01 00 00 0c 	add    %ebx,0xc000001(%edi,%eiz,2)
    20d5:	69 00 01 2d 23 59    	imul   $0x59232d01,(%eax),%eax
    20db:	00 00                	add    %al,(%eax)
    20dd:	00 02                	add    %al,(%edx)
    20df:	91                   	xchg   %eax,%ecx
    20e0:	00 0d 48 0b 00 00    	add    %cl,0xb48
    20e6:	01 2d 37 2a 01 00    	add    %ebp,0x12a37
    20ec:	00 02                	add    %al,(%edx)
    20ee:	91                   	xchg   %eax,%ecx
    20ef:	04 00                	add    $0x0,%al
    20f1:	0f 20 0b             	mov    %cr1,%ebx
    20f4:	00 00                	add    %al,(%eax)
    20f6:	01 1e                	add    %ebx,(%esi)
    20f8:	06                   	push   %es
    20f9:	75 1d                	jne    2118 <FLAGS+0x2117>
    20fb:	10 00                	adc    %al,(%eax)
    20fd:	e2 00                	loop   20ff <FLAGS+0x20fe>
    20ff:	00 00                	add    %al,(%eax)
    2101:	01 9c b6 01 00 00 0d 	add    %ebx,0xd000001(%esi,%esi,4)
    2108:	35 0b 00 00 01       	xor    $0x100000b,%eax
    210d:	1e                   	push   %ds
    210e:	22 73 00             	and    0x0(%ebx),%dh
    2111:	00 00                	add    %al,(%eax)
    2113:	02 91 00 0d 48 0b    	add    0xb480d00(%ecx),%dl
    2119:	00 00                	add    %al,(%eax)
    211b:	01 1e                	add    %ebx,(%esi)
    211d:	39 2a                	cmp    %ebp,(%edx)
    211f:	01 00                	add    %eax,(%eax)
    2121:	00 02                	add    %al,(%edx)
    2123:	91                   	xchg   %eax,%ecx
    2124:	04 10                	add    $0x10,%al
    2126:	69 00 01 21 09 6c    	imul   $0x6c092101,(%eax),%eax
    212c:	00 00                	add    %al,(%eax)
    212e:	00 02                	add    %al,(%edx)
    2130:	91                   	xchg   %eax,%ecx
    2131:	6c                   	insb   (%dx),%es:(%edi)
    2132:	10 6a 00             	adc    %ch,0x0(%edx)
    2135:	01 24 09             	add    %esp,(%ecx,%ecx,1)
    2138:	6c                   	insb   (%dx),%es:(%edi)
    2139:	00 00                	add    %al,(%eax)
    213b:	00 02                	add    %al,(%edx)
    213d:	91                   	xchg   %eax,%ecx
    213e:	68 00 0e 3a 0b       	push   $0xb3a0e00
    2143:	00 00                	add    %al,(%eax)
    2145:	01 13                	add    %edx,(%ebx)
    2147:	11 eb                	adc    %ebp,%ebx
    2149:	00 00                	add    %al,(%eax)
    214b:	00 19                	add    %bl,(%ecx)
    214d:	1d 10 00 5c 00       	sbb    $0x5c0010,%eax
    2152:	00 00                	add    %al,(%eax)
    2154:	01 9c 1b 02 00 00 0d 	add    %ebx,0xd000002(%ebx,%ebx,1)
    215b:	fa                   	cli    
    215c:	07                   	pop    %es
    215d:	00 00                	add    %al,(%eax)
    215f:	01 13                	add    %edx,(%ebx)
    2161:	2b 7f 00             	sub    0x0(%edi),%edi
    2164:	00 00                	add    %al,(%eax)
    2166:	02 91 04 0d 9a 02    	add    0x29a0d04(%ecx),%dl
    216c:	00 00                	add    %al,(%eax)
    216e:	01 13                	add    %edx,(%ebx)
    2170:	36 59                	ss pop %ecx
    2172:	00 00                	add    %al,(%eax)
    2174:	00 02                	add    %al,(%edx)
    2176:	91                   	xchg   %eax,%ecx
    2177:	08 0d 9f 01 00 00    	or     %cl,0x19f
    217d:	01 13                	add    %edx,(%ebx)
    217f:	4c                   	dec    %esp
    2180:	81 00 00 00 02 91    	addl   $0x91020000,(%eax)
    2186:	0c 11                	or     $0x11,%al
    2188:	78 0b                	js     2195 <FLAGS+0x2194>
    218a:	00 00                	add    %al,(%eax)
    218c:	01 14 15 eb 00 00 00 	add    %edx,0xeb(,%edx,1)
    2193:	02 91 60 12 fe 08    	add    0x8fe1260(%ecx),%dl
    2199:	00 00                	add    %al,(%eax)
    219b:	01 0b                	add    %ecx,(%ebx)
    219d:	05 6c 00 00 00       	add    $0x6c,%eax
    21a2:	13 00                	adc    (%eax),%eax
    21a4:	00 0e                	add    %cl,(%esi)
    21a6:	63 0b                	arpl   %cx,(%ebx)
    21a8:	00 00                	add    %al,(%eax)
    21aa:	01 08                	add    %ecx,(%eax)
    21ac:	11 eb                	adc    %ebp,%ebx
    21ae:	00 00                	add    %al,(%eax)
    21b0:	00 ae 1c 10 00 6b    	add    %ch,0x6b00101c(%esi)
    21b6:	00 00                	add    %al,(%eax)
    21b8:	00 01                	add    %al,(%ecx)
    21ba:	9c                   	pushf  
    21bb:	83 02 00             	addl   $0x0,(%edx)
    21be:	00 0d 9a 02 00 00    	add    %cl,0x29a
    21c4:	01 08                	add    %ecx,(%eax)
    21c6:	2c 59                	sub    $0x59,%al
    21c8:	00 00                	add    %al,(%eax)
    21ca:	00 02                	add    %al,(%edx)
    21cc:	91                   	xchg   %eax,%ecx
    21cd:	04 0d                	add    $0xd,%al
    21cf:	9f                   	lahf   
    21d0:	01 00                	add    %eax,(%eax)
    21d2:	00 01                	add    %al,(%ecx)
    21d4:	08 42 81             	or     %al,-0x7f(%edx)
    21d7:	00 00                	add    %al,(%eax)
    21d9:	00 02                	add    %al,(%edx)
    21db:	91                   	xchg   %eax,%ecx
    21dc:	08 11                	or     %dl,(%ecx)
    21de:	78 0b                	js     21eb <FLAGS+0x21ea>
    21e0:	00 00                	add    %al,(%eax)
    21e2:	01 09                	add    %ecx,(%ecx)
    21e4:	15 eb 00 00 00       	adc    $0xeb,%eax
    21e9:	02 91 60 14 df 01    	add    0x1df1460(%ecx),%dl
    21ef:	00 00                	add    %al,(%eax)
    21f1:	01 0a                	add    %ecx,(%edx)
    21f3:	1e                   	push   %ds
    21f4:	6c                   	insb   (%dx),%es:(%edi)
    21f5:	00 00                	add    %al,(%eax)
    21f7:	00 74 02 00          	add    %dh,0x0(%edx,%eax,1)
    21fb:	00 13                	add    %dl,(%ebx)
    21fd:	00 12                	add    %dl,(%edx)
    21ff:	fe 08                	decb   (%eax)
    2201:	00 00                	add    %al,(%eax)
    2203:	01 0b                	add    %ecx,(%ebx)
    2205:	05 6c 00 00 00       	add    $0x6c,%eax
    220a:	13 00                	adc    (%eax),%eax
    220c:	00 15 9f 01 00 00    	add    %dl,0x19f
    2212:	01 04 06             	add    %eax,(%esi,%eax,1)
    2215:	38 00                	cmp    %al,(%eax)
    2217:	00 00                	add    %al,(%eax)
    2219:	a0 1c 10 00 0e       	mov    0xe00101c,%al
    221e:	00 00                	add    %al,(%eax)
    2220:	00 01                	add    %al,(%ecx)
    2222:	9c                   	pushf  
    2223:	0c 61                	or     $0x61,%al
    2225:	00 01                	add    %al,(%ecx)
    2227:	04 17                	add    $0x17,%al
    2229:	73 00                	jae    222b <FLAGS+0x222a>
    222b:	00 00                	add    %al,(%eax)
    222d:	02 91 00 0c 62 00    	add    0x620c00(%ecx),%dl
    2233:	01 04 21             	add    %eax,(%ecx,%eiz,1)
    2236:	73 00                	jae    2238 <FLAGS+0x2237>
    2238:	00 00                	add    %al,(%eax)
    223a:	02 91 04 00 00 42    	add    0x42000004(%ecx),%dl
    2240:	02 00                	add    (%eax),%al
    2242:	00 04 00             	add    %al,(%eax,%eax,1)
    2245:	4e                   	dec    %esi
    2246:	0c 00                	or     $0x0,%al
    2248:	00 04 01             	add    %al,(%ecx,%eax,1)
    224b:	24 00                	and    $0x0,%al
    224d:	00 00                	add    %al,(%eax)
    224f:	0c f4                	or     $0xf4,%al
    2251:	0b 00                	or     (%eax),%eax
    2253:	00 42 02             	add    %al,0x2(%edx)
    2256:	00 00                	add    %al,(%eax)
    2258:	db 1e                	fistpl (%esi)
    225a:	10 00                	adc    %al,(%eax)
    225c:	a3 03 00 00 4d       	mov    %eax,0x4d000003
    2261:	0d 00 00 02 01       	or     $0x1020000,%eax
    2266:	08 6f 01             	or     %ch,0x1(%edi)
    2269:	00 00                	add    %al,(%eax)
    226b:	02 01                	add    (%ecx),%al
    226d:	06                   	push   %es
    226e:	78 01                	js     2271 <FLAGS+0x2270>
    2270:	00 00                	add    %al,(%eax)
    2272:	03 2c 00             	add    (%eax,%eax,1),%ebp
    2275:	00 00                	add    %al,(%eax)
    2277:	04 bd                	add    $0xbd,%al
    2279:	08 00                	or     %al,(%eax)
    227b:	00 02                	add    %al,(%edx)
    227d:	06                   	push   %es
    227e:	18 44 00 00          	sbb    %al,0x0(%eax,%eax,1)
    2282:	00 02                	add    %al,(%edx)
    2284:	02 07                	add    (%edi),%al
    2286:	cc                   	int3   
    2287:	01 00                	add    %eax,(%eax)
    2289:	00 02                	add    %al,(%edx)
    228b:	02 05 65 00 00 00    	add    0x65,%al
    2291:	04 75                	add    $0x75,%al
    2293:	02 00                	add    (%eax),%al
    2295:	00 02                	add    %al,(%edx)
    2297:	08 16                	or     %dl,(%esi)
    2299:	5e                   	pop    %esi
    229a:	00 00                	add    %al,(%eax)
    229c:	00 02                	add    %al,(%edx)
    229e:	04 07                	add    $0x7,%al
    22a0:	fa                   	cli    
    22a1:	05 00 00 04 9c       	add    $0x9c040000,%eax
    22a6:	00 00                	add    %al,(%eax)
    22a8:	00 02                	add    %al,(%edx)
    22aa:	09 0d 71 00 00 00    	or     %ecx,0x71
    22b0:	05 04 05 69 6e       	add    $0x6e690504,%eax
    22b5:	74 00                	je     22b7 <FLAGS+0x22b6>
    22b7:	06                   	push   %es
    22b8:	d8 0b                	fmuls  (%ebx)
    22ba:	00 00                	add    %al,(%eax)
    22bc:	01 61 06             	add    %esp,0x6(%ecx)
    22bf:	0a 22                	or     (%edx),%ah
    22c1:	10 00                	adc    %al,(%eax)
    22c3:	74 00                	je     22c5 <FLAGS+0x22c4>
    22c5:	00 00                	add    %al,(%eax)
    22c7:	01 9c bc 00 00 00 07 	add    %ebx,0x7000000(%esp,%edi,4)
    22ce:	e5 0b                	in     $0xb,%eax
    22d0:	00 00                	add    %al,(%eax)
    22d2:	01 61 1f             	add    %esp,0x1f(%ecx)
    22d5:	bc 00 00 00 02       	mov    $0x2000000,%esp
    22da:	91                   	xchg   %eax,%ecx
    22db:	00 07                	add    %al,(%edi)
    22dd:	fa                   	cli    
    22de:	04 00                	add    $0x0,%al
    22e0:	00 01                	add    %al,(%ecx)
    22e2:	61                   	popa   
    22e3:	2b 52 00             	sub    0x0(%edx),%edx
    22e6:	00 00                	add    %al,(%eax)
    22e8:	02 91 04 07 10 0c    	add    0xc100704(%ecx),%dl
    22ee:	00 00                	add    %al,(%eax)
    22f0:	01 61 3d             	add    %esp,0x3d(%ecx)
    22f3:	bc 00 00 00 02       	mov    $0x2000000,%esp
    22f8:	91                   	xchg   %eax,%ecx
    22f9:	08 00                	or     %al,(%eax)
    22fb:	08 04 33             	or     %al,(%ebx,%esi,1)
    22fe:	00 00                	add    %al,(%eax)
    2300:	00 06                	add    %al,(%esi)
    2302:	d2 0b                	rorb   %cl,(%ebx)
    2304:	00 00                	add    %al,(%eax)
    2306:	01 54 06 96          	add    %edx,-0x6a(%esi,%eax,1)
    230a:	21 10                	and    %edx,(%eax)
    230c:	00 74 00 00          	add    %dh,0x0(%eax,%eax,1)
    2310:	00 01                	add    %al,(%ecx)
    2312:	9c                   	pushf  
    2313:	06                   	push   %es
    2314:	01 00                	add    %eax,(%eax)
    2316:	00 07                	add    %al,(%edi)
    2318:	af                   	scas   %es:(%edi),%eax
    2319:	0b 00                	or     (%eax),%eax
    231b:	00 01                	add    %al,(%ecx)
    231d:	54                   	push   %esp
    231e:	18 bc 00 00 00 02 91 	sbb    %bh,-0x6efe0000(%eax,%eax,1)
    2325:	00 07                	add    %al,(%edi)
    2327:	e5 0b                	in     $0xb,%eax
    2329:	00 00                	add    %al,(%eax)
    232b:	01 54 2d bc          	add    %edx,-0x44(%ebp,%ebp,1)
    232f:	00 00                	add    %al,(%eax)
    2331:	00 02                	add    %al,(%edx)
    2333:	91                   	xchg   %eax,%ecx
    2334:	04 07                	add    $0x7,%al
    2336:	fa                   	cli    
    2337:	04 00                	add    $0x0,%al
    2339:	00 01                	add    %al,(%ecx)
    233b:	54                   	push   %esp
    233c:	39 52 00             	cmp    %edx,0x0(%edx)
    233f:	00 00                	add    %al,(%eax)
    2341:	02 91 08 00 06 ea    	add    -0x15f9fff8(%ecx),%dl
    2347:	0b 00                	or     (%eax),%eax
    2349:	00 01                	add    %al,(%ecx)
    234b:	31 06                	xor    %eax,(%esi)
    234d:	c3                   	ret    
    234e:	20 10                	and    %dl,(%eax)
    2350:	00 d3                	add    %dl,%bl
    2352:	00 00                	add    %al,(%eax)
    2354:	00 01                	add    %al,(%ecx)
    2356:	9c                   	pushf  
    2357:	70 01                	jo     235a <FLAGS+0x2359>
    2359:	00 00                	add    %al,(%eax)
    235b:	09 6e 00             	or     %ebp,0x0(%esi)
    235e:	01 31                	add    %esi,(%ecx)
    2360:	16                   	push   %ss
    2361:	65 00 00             	add    %al,%gs:(%eax)
    2364:	00 02                	add    %al,(%edx)
    2366:	91                   	xchg   %eax,%ecx
    2367:	00 0a                	add    %cl,(%edx)
    2369:	73 74                	jae    23df <FLAGS+0x23de>
    236b:	72 00                	jb     236d <FLAGS+0x236c>
    236d:	01 32                	add    %esi,(%edx)
    236f:	0a 70 01             	or     0x1(%eax),%dh
    2372:	00 00                	add    %al,(%eax)
    2374:	02 91 44 0a 69 00    	add    0x690a44(%ecx),%dl
    237a:	01 33                	add    %esi,(%ebx)
    237c:	09 71 00             	or     %esi,0x0(%ecx)
    237f:	00 00                	add    %al,(%eax)
    2381:	02 91 6c 0a 68 00    	add    0x680a6c(%ecx),%dl
    2387:	01 34 09             	add    %esi,(%ecx,%ecx,1)
    238a:	71 00                	jno    238c <FLAGS+0x238b>
    238c:	00 00                	add    %al,(%eax)
    238e:	02 91 64 0b 15 0c    	add    0xc150b64(%ecx),%dl
    2394:	00 00                	add    %al,(%eax)
    2396:	01 46 0a             	add    %eax,0xa(%esi)
    2399:	70 01                	jo     239c <FLAGS+0x239b>
    239b:	00 00                	add    %al,(%eax)
    239d:	03 91 a4 7f 0a 6a    	add    0x6a0a7fa4(%ecx),%edx
    23a3:	00 01                	add    %al,(%ecx)
    23a5:	48                   	dec    %eax
    23a6:	09 71 00             	or     %esi,0x0(%ecx)
    23a9:	00 00                	add    %al,(%eax)
    23ab:	02 91 68 00 0c 2c    	add    0x2c0c0068(%ecx),%dl
    23b1:	00 00                	add    %al,(%eax)
    23b3:	00 80 01 00 00 0d    	add    %al,0xd000001(%eax)
    23b9:	80 01 00             	addb   $0x0,(%ecx)
    23bc:	00 1f                	add    %bl,(%edi)
    23be:	00 02                	add    %al,(%edx)
    23c0:	04 07                	add    $0x7,%al
    23c2:	f5                   	cmc    
    23c3:	05 00 00 06 b7       	add    $0xb7060000,%eax
    23c8:	0b 00                	or     (%eax),%eax
    23ca:	00 01                	add    %al,(%ecx)
    23cc:	13 06                	adc    (%esi),%eax
    23ce:	91                   	xchg   %eax,%ecx
    23cf:	1f                   	pop    %ds
    23d0:	10 00                	adc    %al,(%eax)
    23d2:	32 01                	xor    (%ecx),%al
    23d4:	00 00                	add    %al,(%eax)
    23d6:	01 9c f3 01 00 00 09 	add    %ebx,0x9000001(%ebx,%esi,8)
    23dd:	6e                   	outsb  %ds:(%esi),(%dx)
    23de:	00 01                	add    %al,(%ecx)
    23e0:	13 1a                	adc    (%edx),%ebx
    23e2:	65 00 00             	add    %al,%gs:(%eax)
    23e5:	00 02                	add    %al,(%edx)
    23e7:	91                   	xchg   %eax,%ecx
    23e8:	00 0a                	add    %cl,(%edx)
    23ea:	73 74                	jae    2460 <FLAGS+0x245f>
    23ec:	72 00                	jb     23ee <FLAGS+0x23ed>
    23ee:	01 14 0a             	add    %edx,(%edx,%ecx,1)
    23f1:	70 01                	jo     23f4 <FLAGS+0x23f3>
    23f3:	00 00                	add    %al,(%eax)
    23f5:	02 91 44 0b 07 0c    	add    0xc070b44(%ecx),%dl
    23fb:	00 00                	add    %al,(%eax)
    23fd:	01 15 09 71 00 00    	add    %edx,0x7109
    2403:	00 02                	add    %al,(%edx)
    2405:	91                   	xchg   %eax,%ecx
    2406:	6c                   	insb   (%dx),%es:(%edi)
    2407:	0a 69 00             	or     0x0(%ecx),%ch
    240a:	01 1a                	add    %ebx,(%edx)
    240c:	09 71 00             	or     %esi,0x0(%ecx)
    240f:	00 00                	add    %al,(%eax)
    2411:	02 91 68 0b 15 0c    	add    0xc150b68(%ecx),%dl
    2417:	00 00                	add    %al,(%eax)
    2419:	01 23                	add    %esp,(%ebx)
    241b:	0a 70 01             	or     0x1(%eax),%dh
    241e:	00 00                	add    %al,(%eax)
    2420:	03 91 a4 7f 0a 6a    	add    0x6a0a7fa4(%ecx),%edx
    2426:	00 01                	add    %al,(%ecx)
    2428:	25 09 71 00 00       	and    $0x7109,%eax
    242d:	00 02                	add    %al,(%edx)
    242f:	91                   	xchg   %eax,%ecx
    2430:	64 00 06             	add    %al,%fs:(%esi)
    2433:	c5 0b                	lds    (%ebx),%ecx
    2435:	00 00                	add    %al,(%eax)
    2437:	01 05 06 db 1e 10    	add    %eax,0x101edb06
    243d:	00 b6 00 00 00 01    	add    %dh,0x1000000(%esi)
    2443:	9c                   	pushf  
    2444:	3f                   	aas    
    2445:	02 00                	add    (%eax),%al
    2447:	00 09                	add    %cl,(%ecx)
    2449:	73 74                	jae    24bf <FLAGS+0x24be>
    244b:	72 00                	jb     244d <FLAGS+0x244c>
    244d:	01 05 19 3f 02 00    	add    %eax,0x23f19
    2453:	00 02                	add    %al,(%edx)
    2455:	91                   	xchg   %eax,%ecx
    2456:	00 0a                	add    %cl,(%edx)
    2458:	70 6f                	jo     24c9 <FLAGS+0x24c8>
    245a:	73 00                	jae    245c <FLAGS+0x245b>
    245c:	01 06                	add    %eax,(%esi)
    245e:	0b 38                	or     (%eax),%edi
    2460:	00 00                	add    %al,(%eax)
    2462:	00 02                	add    %al,(%edx)
    2464:	91                   	xchg   %eax,%ecx
    2465:	6e                   	outsb  %ds:(%esi),(%dx)
    2466:	0e                   	push   %cs
    2467:	ea 1e 10 00 94 00 00 	ljmp   $0x0,$0x9400101e
    246e:	00 0a                	add    %cl,(%edx)
    2470:	69 00 01 07 0d 71    	imul   $0x710d0701,(%eax),%eax
    2476:	00 00                	add    %al,(%eax)
    2478:	00 02                	add    %al,(%edx)
    247a:	91                   	xchg   %eax,%ecx
    247b:	68 00 00 08 04       	push   $0x4080000
    2480:	2c 00                	sub    $0x0,%al
    2482:	00 00                	add    %al,(%eax)
	...

Disassembly of section .debug_abbrev:

00000000 <.debug_abbrev>:
   0:	01 11                	add    %edx,(%ecx)
   2:	01 25 0e 13 0b 03    	add    %esp,0x30b130e
   8:	0e                   	push   %cs
   9:	1b 0e                	sbb    (%esi),%ecx
   b:	11 01                	adc    %eax,(%ecx)
   d:	12 06                	adc    (%esi),%al
   f:	10 17                	adc    %dl,(%edi)
  11:	00 00                	add    %al,(%eax)
  13:	02 16                	add    (%esi),%dl
  15:	00 03                	add    %al,(%ebx)
  17:	0e                   	push   %cs
  18:	3a 0b                	cmp    (%ebx),%cl
  1a:	3b 0b                	cmp    (%ebx),%ecx
  1c:	39 0b                	cmp    %ecx,(%ebx)
  1e:	49                   	dec    %ecx
  1f:	13 00                	adc    (%eax),%eax
  21:	00 03                	add    %al,(%ebx)
  23:	24 00                	and    $0x0,%al
  25:	0b 0b                	or     (%ebx),%ecx
  27:	3e 0b 03             	or     %ds:(%ebx),%eax
  2a:	0e                   	push   %cs
  2b:	00 00                	add    %al,(%eax)
  2d:	04 24                	add    $0x24,%al
  2f:	00 0b                	add    %cl,(%ebx)
  31:	0b 3e                	or     (%esi),%edi
  33:	0b 03                	or     (%ebx),%eax
  35:	08 00                	or     %al,(%eax)
  37:	00 05 0f 00 0b 0b    	add    %al,0xb0b000f
  3d:	00 00                	add    %al,(%eax)
  3f:	06                   	push   %es
  40:	0f 00 0b             	str    (%ebx)
  43:	0b 49 13             	or     0x13(%ecx),%ecx
  46:	00 00                	add    %al,(%eax)
  48:	07                   	pop    %es
  49:	15 01 27 19 49       	adc    $0x49192701,%eax
  4e:	13 01                	adc    (%ecx),%eax
  50:	13 00                	adc    (%eax),%eax
  52:	00 08                	add    %cl,(%eax)
  54:	05 00 49 13 00       	add    $0x134900,%eax
  59:	00 09                	add    %cl,(%ecx)
  5b:	13 01                	adc    (%ecx),%eax
  5d:	0b 0b                	or     (%ebx),%ecx
  5f:	3a 0b                	cmp    (%ebx),%cl
  61:	3b 0b                	cmp    (%ebx),%ecx
  63:	39 0b                	cmp    %ecx,(%ebx)
  65:	01 13                	add    %edx,(%ebx)
  67:	00 00                	add    %al,(%eax)
  69:	0a 0d 00 03 0e 3a    	or     0x3a0e0300,%cl
  6f:	0b 3b                	or     (%ebx),%edi
  71:	0b 39                	or     (%ecx),%edi
  73:	0b 49 13             	or     0x13(%ecx),%ecx
  76:	38 0b                	cmp    %cl,(%ebx)
  78:	00 00                	add    %al,(%eax)
  7a:	0b 13                	or     (%ebx),%edx
  7c:	01 03                	add    %eax,(%ebx)
  7e:	0e                   	push   %cs
  7f:	0b 0b                	or     (%ebx),%ecx
  81:	3a 0b                	cmp    (%ebx),%cl
  83:	3b 0b                	cmp    (%ebx),%ecx
  85:	39 0b                	cmp    %ecx,(%ebx)
  87:	01 13                	add    %edx,(%ebx)
  89:	00 00                	add    %al,(%eax)
  8b:	0c 0d                	or     $0xd,%al
  8d:	00 03                	add    %al,(%ebx)
  8f:	0e                   	push   %cs
  90:	3a 0b                	cmp    (%ebx),%cl
  92:	3b 0b                	cmp    (%ebx),%ecx
  94:	39 0b                	cmp    %ecx,(%ebx)
  96:	49                   	dec    %ecx
  97:	13 0b                	adc    (%ebx),%ecx
  99:	0b 0d 0b 0c 0b 38    	or     0x380b0c0b,%ecx
  9f:	0b 00                	or     (%eax),%eax
  a1:	00 0d 0d 00 03 08    	add    %cl,0x803000d
  a7:	3a 0b                	cmp    (%ebx),%cl
  a9:	3b 0b                	cmp    (%ebx),%ecx
  ab:	39 0b                	cmp    %ecx,(%ebx)
  ad:	49                   	dec    %ecx
  ae:	13 0b                	adc    (%ebx),%ecx
  b0:	0b 0d 0b 0c 0b 38    	or     0x380b0c0b,%ecx
  b6:	0b 00                	or     (%eax),%eax
  b8:	00 0e                	add    %cl,(%esi)
  ba:	13 01                	adc    (%ecx),%eax
  bc:	03 0e                	add    (%esi),%ecx
  be:	0b 05 3a 0b 3b 0b    	or     0xb3b0b3a,%eax
  c4:	39 0b                	cmp    %ecx,(%ebx)
  c6:	01 13                	add    %edx,(%ebx)
  c8:	00 00                	add    %al,(%eax)
  ca:	0f 01 01             	sgdtl  (%ecx)
  cd:	49                   	dec    %ecx
  ce:	13 01                	adc    (%ecx),%eax
  d0:	13 00                	adc    (%eax),%eax
  d2:	00 10                	add    %dl,(%eax)
  d4:	21 00                	and    %eax,(%eax)
  d6:	49                   	dec    %ecx
  d7:	13 2f                	adc    (%edi),%ebp
  d9:	05 00 00 11 0d       	add    $0xd110000,%eax
  de:	00 03                	add    %al,(%ebx)
  e0:	0e                   	push   %cs
  e1:	3a 0b                	cmp    (%ebx),%cl
  e3:	3b 0b                	cmp    (%ebx),%ecx
  e5:	39 0b                	cmp    %ecx,(%ebx)
  e7:	49                   	dec    %ecx
  e8:	13 38                	adc    (%eax),%edi
  ea:	05 00 00 12 34       	add    $0x34120000,%eax
  ef:	00 03                	add    %al,(%ebx)
  f1:	0e                   	push   %cs
  f2:	3a 0b                	cmp    (%ebx),%cl
  f4:	3b 0b                	cmp    (%ebx),%ecx
  f6:	39 0b                	cmp    %ecx,(%ebx)
  f8:	49                   	dec    %ecx
  f9:	13 3f                	adc    (%edi),%edi
  fb:	19 3c 19             	sbb    %edi,(%ecx,%ebx,1)
  fe:	00 00                	add    %al,(%eax)
 100:	13 34 00             	adc    (%eax,%eax,1),%esi
 103:	03 0e                	add    (%esi),%ecx
 105:	3a 0b                	cmp    (%ebx),%cl
 107:	3b 0b                	cmp    (%ebx),%ecx
 109:	39 0b                	cmp    %ecx,(%ebx)
 10b:	49                   	dec    %ecx
 10c:	13 3f                	adc    (%edi),%edi
 10e:	19 02                	sbb    %eax,(%edx)
 110:	18 00                	sbb    %al,(%eax)
 112:	00 14 2e             	add    %dl,(%esi,%ebp,1)
 115:	01 3f                	add    %edi,(%edi)
 117:	19 03                	sbb    %eax,(%ebx)
 119:	0e                   	push   %cs
 11a:	3a 0b                	cmp    (%ebx),%cl
 11c:	3b 0b                	cmp    (%ebx),%ecx
 11e:	39 0b                	cmp    %ecx,(%ebx)
 120:	27                   	daa    
 121:	19 49 13             	sbb    %ecx,0x13(%ecx)
 124:	11 01                	adc    %eax,(%ecx)
 126:	12 06                	adc    (%esi),%al
 128:	40                   	inc    %eax
 129:	18 96 42 19 01 13    	sbb    %dl,0x13011942(%esi)
 12f:	00 00                	add    %al,(%eax)
 131:	15 05 00 03 0e       	adc    $0xe030005,%eax
 136:	3a 0b                	cmp    (%ebx),%cl
 138:	3b 0b                	cmp    (%ebx),%ecx
 13a:	39 0b                	cmp    %ecx,(%ebx)
 13c:	49                   	dec    %ecx
 13d:	13 02                	adc    (%edx),%eax
 13f:	18 00                	sbb    %al,(%eax)
 141:	00 16                	add    %dl,(%esi)
 143:	34 00                	xor    $0x0,%al
 145:	03 0e                	add    (%esi),%ecx
 147:	3a 0b                	cmp    (%ebx),%cl
 149:	3b 0b                	cmp    (%ebx),%ecx
 14b:	39 0b                	cmp    %ecx,(%ebx)
 14d:	49                   	dec    %ecx
 14e:	13 02                	adc    (%edx),%eax
 150:	18 00                	sbb    %al,(%eax)
 152:	00 17                	add    %dl,(%edi)
 154:	34 00                	xor    $0x0,%al
 156:	03 08                	add    (%eax),%ecx
 158:	3a 0b                	cmp    (%ebx),%cl
 15a:	3b 0b                	cmp    (%ebx),%ecx
 15c:	39 0b                	cmp    %ecx,(%ebx)
 15e:	49                   	dec    %ecx
 15f:	13 02                	adc    (%edx),%eax
 161:	18 00                	sbb    %al,(%eax)
 163:	00 18                	add    %bl,(%eax)
 165:	0b 01                	or     (%ecx),%eax
 167:	11 01                	adc    %eax,(%ecx)
 169:	12 06                	adc    (%esi),%al
 16b:	01 13                	add    %edx,(%ebx)
 16d:	00 00                	add    %al,(%eax)
 16f:	19 0b                	sbb    %ecx,(%ebx)
 171:	01 11                	add    %edx,(%ecx)
 173:	01 12                	add    %edx,(%edx)
 175:	06                   	push   %es
 176:	00 00                	add    %al,(%eax)
 178:	1a 05 00 03 08 3a    	sbb    0x3a080300,%al
 17e:	0b 3b                	or     (%ebx),%edi
 180:	0b 39                	or     (%ecx),%edi
 182:	0b 49 13             	or     0x13(%ecx),%ecx
 185:	02 18                	add    (%eax),%bl
 187:	00 00                	add    %al,(%eax)
 189:	1b 2e                	sbb    (%esi),%ebp
 18b:	01 03                	add    %eax,(%ebx)
 18d:	0e                   	push   %cs
 18e:	3a 0b                	cmp    (%ebx),%cl
 190:	3b 0b                	cmp    (%ebx),%ecx
 192:	39 0b                	cmp    %ecx,(%ebx)
 194:	27                   	daa    
 195:	19 49 13             	sbb    %ecx,0x13(%ecx)
 198:	11 01                	adc    %eax,(%ecx)
 19a:	12 06                	adc    (%esi),%al
 19c:	40                   	inc    %eax
 19d:	18 97 42 19 01 13    	sbb    %dl,0x13011942(%edi)
 1a3:	00 00                	add    %al,(%eax)
 1a5:	1c 2e                	sbb    $0x2e,%al
 1a7:	01 03                	add    %eax,(%ebx)
 1a9:	0e                   	push   %cs
 1aa:	3a 0b                	cmp    (%ebx),%cl
 1ac:	3b 0b                	cmp    (%ebx),%ecx
 1ae:	39 0b                	cmp    %ecx,(%ebx)
 1b0:	27                   	daa    
 1b1:	19 49 13             	sbb    %ecx,0x13(%ecx)
 1b4:	11 01                	adc    %eax,(%ecx)
 1b6:	12 06                	adc    (%esi),%al
 1b8:	40                   	inc    %eax
 1b9:	18 96 42 19 01 13    	sbb    %dl,0x13011942(%esi)
 1bf:	00 00                	add    %al,(%eax)
 1c1:	1d 0b 01 55 17       	sbb    $0x1755010b,%eax
 1c6:	00 00                	add    %al,(%eax)
 1c8:	1e                   	push   %ds
 1c9:	2e 01 03             	add    %eax,%cs:(%ebx)
 1cc:	0e                   	push   %cs
 1cd:	3a 0b                	cmp    (%ebx),%cl
 1cf:	3b 0b                	cmp    (%ebx),%ecx
 1d1:	39 0b                	cmp    %ecx,(%ebx)
 1d3:	27                   	daa    
 1d4:	19 11                	sbb    %edx,(%ecx)
 1d6:	01 12                	add    %edx,(%edx)
 1d8:	06                   	push   %es
 1d9:	40                   	inc    %eax
 1da:	18 96 42 19 00 00    	sbb    %dl,0x1942(%esi)
 1e0:	00 01                	add    %al,(%ecx)
 1e2:	11 01                	adc    %eax,(%ecx)
 1e4:	25 0e 13 0b 03       	and    $0x30b130e,%eax
 1e9:	0e                   	push   %cs
 1ea:	1b 0e                	sbb    (%esi),%ecx
 1ec:	11 01                	adc    %eax,(%ecx)
 1ee:	12 06                	adc    (%esi),%al
 1f0:	10 17                	adc    %dl,(%edi)
 1f2:	00 00                	add    %al,(%eax)
 1f4:	02 16                	add    (%esi),%dl
 1f6:	00 03                	add    %al,(%ebx)
 1f8:	0e                   	push   %cs
 1f9:	3a 0b                	cmp    (%ebx),%cl
 1fb:	3b 0b                	cmp    (%ebx),%ecx
 1fd:	39 0b                	cmp    %ecx,(%ebx)
 1ff:	49                   	dec    %ecx
 200:	13 00                	adc    (%eax),%eax
 202:	00 03                	add    %al,(%ebx)
 204:	24 00                	and    $0x0,%al
 206:	0b 0b                	or     (%ebx),%ecx
 208:	3e 0b 03             	or     %ds:(%ebx),%eax
 20b:	0e                   	push   %cs
 20c:	00 00                	add    %al,(%eax)
 20e:	04 24                	add    $0x24,%al
 210:	00 0b                	add    %cl,(%ebx)
 212:	0b 3e                	or     (%esi),%edi
 214:	0b 03                	or     (%ebx),%eax
 216:	08 00                	or     %al,(%eax)
 218:	00 05 13 01 03 0e    	add    %al,0xe030113
 21e:	0b 0b                	or     (%ebx),%ecx
 220:	3a 0b                	cmp    (%ebx),%cl
 222:	3b 0b                	cmp    (%ebx),%ecx
 224:	39 0b                	cmp    %ecx,(%ebx)
 226:	01 13                	add    %edx,(%ebx)
 228:	00 00                	add    %al,(%eax)
 22a:	06                   	push   %es
 22b:	0d 00 03 08 3a       	or     $0x3a080300,%eax
 230:	0b 3b                	or     (%ebx),%edi
 232:	0b 39                	or     (%ecx),%edi
 234:	0b 49 13             	or     0x13(%ecx),%ecx
 237:	38 0b                	cmp    %cl,(%ebx)
 239:	00 00                	add    %al,(%eax)
 23b:	07                   	pop    %es
 23c:	0d 00 03 0e 3a       	or     $0x3a0e0300,%eax
 241:	0b 3b                	or     (%ebx),%edi
 243:	0b 39                	or     (%ecx),%edi
 245:	0b 49 13             	or     0x13(%ecx),%ecx
 248:	38 0b                	cmp    %cl,(%ebx)
 24a:	00 00                	add    %al,(%eax)
 24c:	08 0d 00 03 0e 3a    	or     %cl,0x3a0e0300
 252:	0b 3b                	or     (%ebx),%edi
 254:	0b 39                	or     (%ecx),%edi
 256:	0b 49 13             	or     0x13(%ecx),%ecx
 259:	0b 0b                	or     (%ebx),%ecx
 25b:	0d 0b 0c 0b 38       	or     $0x380b0c0b,%eax
 260:	0b 00                	or     (%eax),%eax
 262:	00 09                	add    %cl,(%ecx)
 264:	0d 00 03 08 3a       	or     $0x3a080300,%eax
 269:	0b 3b                	or     (%ebx),%edi
 26b:	0b 39                	or     (%ecx),%edi
 26d:	0b 49 13             	or     0x13(%ecx),%ecx
 270:	0b 0b                	or     (%ebx),%ecx
 272:	0d 0b 0c 0b 38       	or     $0x380b0c0b,%eax
 277:	0b 00                	or     (%eax),%eax
 279:	00 0a                	add    %cl,(%edx)
 27b:	13 01                	adc    (%ecx),%eax
 27d:	03 0e                	add    (%esi),%ecx
 27f:	0b 05 3a 0b 3b 0b    	or     0xb3b0b3a,%eax
 285:	39 0b                	cmp    %ecx,(%ebx)
 287:	01 13                	add    %edx,(%ebx)
 289:	00 00                	add    %al,(%eax)
 28b:	0b 01                	or     (%ecx),%eax
 28d:	01 49 13             	add    %ecx,0x13(%ecx)
 290:	01 13                	add    %edx,(%ebx)
 292:	00 00                	add    %al,(%eax)
 294:	0c 21                	or     $0x21,%al
 296:	00 49 13             	add    %cl,0x13(%ecx)
 299:	2f                   	das    
 29a:	05 00 00 0d 0d       	add    $0xd0d0000,%eax
 29f:	00 03                	add    %al,(%ebx)
 2a1:	0e                   	push   %cs
 2a2:	3a 0b                	cmp    (%ebx),%cl
 2a4:	3b 0b                	cmp    (%ebx),%ecx
 2a6:	39 0b                	cmp    %ecx,(%ebx)
 2a8:	49                   	dec    %ecx
 2a9:	13 38                	adc    (%eax),%edi
 2ab:	05 00 00 0e 0f       	add    $0xf0e0000,%eax
 2b0:	00 0b                	add    %cl,(%ebx)
 2b2:	0b 49 13             	or     0x13(%ecx),%ecx
 2b5:	00 00                	add    %al,(%eax)
 2b7:	0f                   	(bad)  
 2b8:	0f 00 0b             	str    (%ebx)
 2bb:	0b 00                	or     (%eax),%eax
 2bd:	00 10                	add    %dl,(%eax)
 2bf:	15 01 27 19 49       	adc    $0x49192701,%eax
 2c4:	13 01                	adc    (%ecx),%eax
 2c6:	13 00                	adc    (%eax),%eax
 2c8:	00 11                	add    %dl,(%ecx)
 2ca:	05 00 49 13 00       	add    $0x134900,%eax
 2cf:	00 12                	add    %dl,(%edx)
 2d1:	13 01                	adc    (%ecx),%eax
 2d3:	0b 0b                	or     (%ebx),%ecx
 2d5:	3a 0b                	cmp    (%ebx),%cl
 2d7:	3b 0b                	cmp    (%ebx),%ecx
 2d9:	39 0b                	cmp    %ecx,(%ebx)
 2db:	01 13                	add    %edx,(%ebx)
 2dd:	00 00                	add    %al,(%eax)
 2df:	13 34 00             	adc    (%eax,%eax,1),%esi
 2e2:	03 0e                	add    (%esi),%ecx
 2e4:	3a 0b                	cmp    (%ebx),%cl
 2e6:	3b 0b                	cmp    (%ebx),%ecx
 2e8:	39 0b                	cmp    %ecx,(%ebx)
 2ea:	49                   	dec    %ecx
 2eb:	13 3f                	adc    (%edi),%edi
 2ed:	19 02                	sbb    %eax,(%edx)
 2ef:	18 00                	sbb    %al,(%eax)
 2f1:	00 14 34             	add    %dl,(%esp,%esi,1)
 2f4:	00 03                	add    %al,(%ebx)
 2f6:	0e                   	push   %cs
 2f7:	3a 0b                	cmp    (%ebx),%cl
 2f9:	3b 0b                	cmp    (%ebx),%ecx
 2fb:	39 0b                	cmp    %ecx,(%ebx)
 2fd:	49                   	dec    %ecx
 2fe:	13 3f                	adc    (%edi),%edi
 300:	19 3c 19             	sbb    %edi,(%ecx,%ebx,1)
 303:	00 00                	add    %al,(%eax)
 305:	15 2e 01 3f 19       	adc    $0x193f012e,%eax
 30a:	03 0e                	add    (%esi),%ecx
 30c:	3a 0b                	cmp    (%ebx),%cl
 30e:	3b 0b                	cmp    (%ebx),%ecx
 310:	39 0b                	cmp    %ecx,(%ebx)
 312:	27                   	daa    
 313:	19 11                	sbb    %edx,(%ecx)
 315:	01 12                	add    %edx,(%edx)
 317:	06                   	push   %es
 318:	40                   	inc    %eax
 319:	18 96 42 19 01 13    	sbb    %dl,0x13011942(%esi)
 31f:	00 00                	add    %al,(%eax)
 321:	16                   	push   %ss
 322:	05 00 03 0e 3a       	add    $0x3a0e0300,%eax
 327:	0b 3b                	or     (%ebx),%edi
 329:	0b 39                	or     (%ecx),%edi
 32b:	0b 49 13             	or     0x13(%ecx),%ecx
 32e:	02 18                	add    (%eax),%bl
 330:	00 00                	add    %al,(%eax)
 332:	17                   	pop    %ss
 333:	34 00                	xor    $0x0,%al
 335:	03 0e                	add    (%esi),%ecx
 337:	3a 0b                	cmp    (%ebx),%cl
 339:	3b 0b                	cmp    (%ebx),%ecx
 33b:	39 0b                	cmp    %ecx,(%ebx)
 33d:	49                   	dec    %ecx
 33e:	13 02                	adc    (%edx),%eax
 340:	18 00                	sbb    %al,(%eax)
 342:	00 18                	add    %bl,(%eax)
 344:	2e 01 3f             	add    %edi,%cs:(%edi)
 347:	19 03                	sbb    %eax,(%ebx)
 349:	0e                   	push   %cs
 34a:	3a 0b                	cmp    (%ebx),%cl
 34c:	3b 0b                	cmp    (%ebx),%ecx
 34e:	39 0b                	cmp    %ecx,(%ebx)
 350:	27                   	daa    
 351:	19 49 13             	sbb    %ecx,0x13(%ecx)
 354:	11 01                	adc    %eax,(%ecx)
 356:	12 06                	adc    (%esi),%al
 358:	40                   	inc    %eax
 359:	18 96 42 19 01 13    	sbb    %dl,0x13011942(%esi)
 35f:	00 00                	add    %al,(%eax)
 361:	19 05 00 03 08 3a    	sbb    %eax,0x3a080300
 367:	0b 3b                	or     (%ebx),%edi
 369:	0b 39                	or     (%ecx),%edi
 36b:	0b 49 13             	or     0x13(%ecx),%ecx
 36e:	02 18                	add    (%eax),%bl
 370:	00 00                	add    %al,(%eax)
 372:	1a 0b                	sbb    (%ebx),%cl
 374:	01 11                	add    %edx,(%ecx)
 376:	01 12                	add    %edx,(%edx)
 378:	06                   	push   %es
 379:	00 00                	add    %al,(%eax)
 37b:	1b 34 00             	sbb    (%eax,%eax,1),%esi
 37e:	03 08                	add    (%eax),%ecx
 380:	3a 0b                	cmp    (%ebx),%cl
 382:	3b 0b                	cmp    (%ebx),%ecx
 384:	39 0b                	cmp    %ecx,(%ebx)
 386:	49                   	dec    %ecx
 387:	13 02                	adc    (%edx),%eax
 389:	18 00                	sbb    %al,(%eax)
 38b:	00 1c 2e             	add    %bl,(%esi,%ebp,1)
 38e:	01 3f                	add    %edi,(%edi)
 390:	19 03                	sbb    %eax,(%ebx)
 392:	0e                   	push   %cs
 393:	3a 0b                	cmp    (%ebx),%cl
 395:	3b 0b                	cmp    (%ebx),%ecx
 397:	39 0b                	cmp    %ecx,(%ebx)
 399:	11 01                	adc    %eax,(%ecx)
 39b:	12 06                	adc    (%esi),%al
 39d:	40                   	inc    %eax
 39e:	18 96 42 19 01 13    	sbb    %dl,0x13011942(%esi)
 3a4:	00 00                	add    %al,(%eax)
 3a6:	1d 2e 01 03 0e       	sbb    $0xe03012e,%eax
 3ab:	3a 0b                	cmp    (%ebx),%cl
 3ad:	3b 0b                	cmp    (%ebx),%ecx
 3af:	39 0b                	cmp    %ecx,(%ebx)
 3b1:	27                   	daa    
 3b2:	19 11                	sbb    %edx,(%ecx)
 3b4:	01 12                	add    %edx,(%edx)
 3b6:	06                   	push   %es
 3b7:	40                   	inc    %eax
 3b8:	18 96 42 19 01 13    	sbb    %dl,0x13011942(%esi)
 3be:	00 00                	add    %al,(%eax)
 3c0:	1e                   	push   %ds
 3c1:	2e 01 03             	add    %eax,%cs:(%ebx)
 3c4:	0e                   	push   %cs
 3c5:	3a 0b                	cmp    (%ebx),%cl
 3c7:	3b 0b                	cmp    (%ebx),%ecx
 3c9:	39 0b                	cmp    %ecx,(%ebx)
 3cb:	49                   	dec    %ecx
 3cc:	13 11                	adc    (%ecx),%edx
 3ce:	01 12                	add    %edx,(%edx)
 3d0:	06                   	push   %es
 3d1:	40                   	inc    %eax
 3d2:	18 97 42 19 01 13    	sbb    %dl,0x13011942(%edi)
 3d8:	00 00                	add    %al,(%eax)
 3da:	1f                   	pop    %ds
 3db:	2e 01 03             	add    %eax,%cs:(%ebx)
 3de:	0e                   	push   %cs
 3df:	3a 0b                	cmp    (%ebx),%cl
 3e1:	3b 0b                	cmp    (%ebx),%ecx
 3e3:	39 0b                	cmp    %ecx,(%ebx)
 3e5:	27                   	daa    
 3e6:	19 49 13             	sbb    %ecx,0x13(%ecx)
 3e9:	11 01                	adc    %eax,(%ecx)
 3eb:	12 06                	adc    (%esi),%al
 3ed:	40                   	inc    %eax
 3ee:	18 97 42 19 01 13    	sbb    %dl,0x13011942(%edi)
 3f4:	00 00                	add    %al,(%eax)
 3f6:	20 2e                	and    %ch,(%esi)
 3f8:	01 03                	add    %eax,(%ebx)
 3fa:	0e                   	push   %cs
 3fb:	3a 0b                	cmp    (%ebx),%cl
 3fd:	3b 0b                	cmp    (%ebx),%ecx
 3ff:	39 0b                	cmp    %ecx,(%ebx)
 401:	27                   	daa    
 402:	19 11                	sbb    %edx,(%ecx)
 404:	01 12                	add    %edx,(%edx)
 406:	06                   	push   %es
 407:	40                   	inc    %eax
 408:	18 97 42 19 01 13    	sbb    %dl,0x13011942(%edi)
 40e:	00 00                	add    %al,(%eax)
 410:	21 2e                	and    %ebp,(%esi)
 412:	01 03                	add    %eax,(%ebx)
 414:	0e                   	push   %cs
 415:	3a 0b                	cmp    (%ebx),%cl
 417:	3b 0b                	cmp    (%ebx),%ecx
 419:	39 0b                	cmp    %ecx,(%ebx)
 41b:	27                   	daa    
 41c:	19 11                	sbb    %edx,(%ecx)
 41e:	01 12                	add    %edx,(%edx)
 420:	06                   	push   %es
 421:	40                   	inc    %eax
 422:	18 97 42 19 00 00    	sbb    %dl,0x1942(%edi)
 428:	00 01                	add    %al,(%ecx)
 42a:	11 01                	adc    %eax,(%ecx)
 42c:	25 0e 13 0b 03       	and    $0x30b130e,%eax
 431:	0e                   	push   %cs
 432:	1b 0e                	sbb    (%esi),%ecx
 434:	11 01                	adc    %eax,(%ecx)
 436:	12 06                	adc    (%esi),%al
 438:	10 17                	adc    %dl,(%edi)
 43a:	00 00                	add    %al,(%eax)
 43c:	02 24 00             	add    (%eax,%eax,1),%ah
 43f:	0b 0b                	or     (%ebx),%ecx
 441:	3e 0b 03             	or     %ds:(%ebx),%eax
 444:	0e                   	push   %cs
 445:	00 00                	add    %al,(%eax)
 447:	03 16                	add    (%esi),%edx
 449:	00 03                	add    %al,(%ebx)
 44b:	0e                   	push   %cs
 44c:	3a 0b                	cmp    (%ebx),%cl
 44e:	3b 0b                	cmp    (%ebx),%ecx
 450:	39 0b                	cmp    %ecx,(%ebx)
 452:	49                   	dec    %ecx
 453:	13 00                	adc    (%eax),%eax
 455:	00 04 24             	add    %al,(%esp)
 458:	00 0b                	add    %cl,(%ebx)
 45a:	0b 3e                	or     (%esi),%edi
 45c:	0b 03                	or     (%ebx),%eax
 45e:	08 00                	or     %al,(%eax)
 460:	00 05 13 01 03 0e    	add    %al,0xe030113
 466:	0b 0b                	or     (%ebx),%ecx
 468:	3a 0b                	cmp    (%ebx),%cl
 46a:	3b 0b                	cmp    (%ebx),%ecx
 46c:	39 0b                	cmp    %ecx,(%ebx)
 46e:	01 13                	add    %edx,(%ebx)
 470:	00 00                	add    %al,(%eax)
 472:	06                   	push   %es
 473:	0d 00 03 0e 3a       	or     $0x3a0e0300,%eax
 478:	0b 3b                	or     (%ebx),%edi
 47a:	0b 39                	or     (%ecx),%edi
 47c:	0b 49 13             	or     0x13(%ecx),%ecx
 47f:	38 0b                	cmp    %cl,(%ebx)
 481:	00 00                	add    %al,(%eax)
 483:	07                   	pop    %es
 484:	0d 00 03 08 3a       	or     $0x3a080300,%eax
 489:	0b 3b                	or     (%ebx),%edi
 48b:	0b 39                	or     (%ecx),%edi
 48d:	0b 49 13             	or     0x13(%ecx),%ecx
 490:	38 0b                	cmp    %cl,(%ebx)
 492:	00 00                	add    %al,(%eax)
 494:	08 17                	or     %dl,(%edi)
 496:	01 0b                	add    %ecx,(%ebx)
 498:	0b 3a                	or     (%edx),%edi
 49a:	0b 3b                	or     (%ebx),%edi
 49c:	0b 39                	or     (%ecx),%edi
 49e:	0b 01                	or     (%ecx),%eax
 4a0:	13 00                	adc    (%eax),%eax
 4a2:	00 09                	add    %cl,(%ecx)
 4a4:	0d 00 03 0e 3a       	or     $0x3a0e0300,%eax
 4a9:	0b 3b                	or     (%ebx),%edi
 4ab:	0b 39                	or     (%ecx),%edi
 4ad:	0b 49 13             	or     0x13(%ecx),%ecx
 4b0:	00 00                	add    %al,(%eax)
 4b2:	0a 13                	or     (%ebx),%dl
 4b4:	01 0b                	add    %ecx,(%ebx)
 4b6:	0b 3a                	or     (%edx),%edi
 4b8:	0b 3b                	or     (%ebx),%edi
 4ba:	0b 39                	or     (%ecx),%edi
 4bc:	0b 01                	or     (%ecx),%eax
 4be:	13 00                	adc    (%eax),%eax
 4c0:	00 0b                	add    %cl,(%ebx)
 4c2:	0d 00 49 13 00       	or     $0x134900,%eax
 4c7:	00 0c 0d 00 49 13 38 	add    %cl,0x38134900(,%ecx,1)
 4ce:	0b 00                	or     (%eax),%eax
 4d0:	00 0d 2e 01 3f 19    	add    %cl,0x193f012e
 4d6:	03 0e                	add    (%esi),%ecx
 4d8:	3a 0b                	cmp    (%ebx),%cl
 4da:	3b 0b                	cmp    (%ebx),%ecx
 4dc:	39 0b                	cmp    %ecx,(%ebx)
 4de:	27                   	daa    
 4df:	19 49 13             	sbb    %ecx,0x13(%ecx)
 4e2:	11 01                	adc    %eax,(%ecx)
 4e4:	12 06                	adc    (%esi),%al
 4e6:	40                   	inc    %eax
 4e7:	18 96 42 19 01 13    	sbb    %dl,0x13011942(%esi)
 4ed:	00 00                	add    %al,(%eax)
 4ef:	0e                   	push   %cs
 4f0:	05 00 03 0e 3a       	add    $0x3a0e0300,%eax
 4f5:	0b 3b                	or     (%ebx),%edi
 4f7:	0b 39                	or     (%ecx),%edi
 4f9:	0b 49 13             	or     0x13(%ecx),%ecx
 4fc:	02 18                	add    (%eax),%bl
 4fe:	00 00                	add    %al,(%eax)
 500:	0f 34                	sysenter 
 502:	00 03                	add    %al,(%ebx)
 504:	0e                   	push   %cs
 505:	3a 0b                	cmp    (%ebx),%cl
 507:	3b 0b                	cmp    (%ebx),%ecx
 509:	39 0b                	cmp    %ecx,(%ebx)
 50b:	49                   	dec    %ecx
 50c:	13 02                	adc    (%edx),%eax
 50e:	18 00                	sbb    %al,(%eax)
 510:	00 10                	add    %dl,(%eax)
 512:	34 00                	xor    $0x0,%al
 514:	03 08                	add    (%eax),%ecx
 516:	3a 0b                	cmp    (%ebx),%cl
 518:	3b 0b                	cmp    (%ebx),%ecx
 51a:	39 0b                	cmp    %ecx,(%ebx)
 51c:	49                   	dec    %ecx
 51d:	13 02                	adc    (%edx),%eax
 51f:	18 00                	sbb    %al,(%eax)
 521:	00 11                	add    %dl,(%ecx)
 523:	2e 01 3f             	add    %edi,%cs:(%edi)
 526:	19 03                	sbb    %eax,(%ebx)
 528:	0e                   	push   %cs
 529:	3a 0b                	cmp    (%ebx),%cl
 52b:	3b 0b                	cmp    (%ebx),%ecx
 52d:	39 0b                	cmp    %ecx,(%ebx)
 52f:	49                   	dec    %ecx
 530:	13 3c 19             	adc    (%ecx,%ebx,1),%edi
 533:	01 13                	add    %edx,(%ebx)
 535:	00 00                	add    %al,(%eax)
 537:	12 18                	adc    (%eax),%bl
 539:	00 00                	add    %al,(%eax)
 53b:	00 13                	add    %dl,(%ebx)
 53d:	0f 00 0b             	str    (%ebx)
 540:	0b 49 13             	or     0x13(%ecx),%ecx
 543:	00 00                	add    %al,(%eax)
 545:	14 15                	adc    $0x15,%al
 547:	00 27                	add    %ah,(%edi)
 549:	19 00                	sbb    %eax,(%eax)
 54b:	00 00                	add    %al,(%eax)
 54d:	01 11                	add    %edx,(%ecx)
 54f:	01 25 0e 13 0b 03    	add    %esp,0x30b130e
 555:	0e                   	push   %cs
 556:	1b 0e                	sbb    (%esi),%ecx
 558:	11 01                	adc    %eax,(%ecx)
 55a:	12 06                	adc    (%esi),%al
 55c:	10 17                	adc    %dl,(%edi)
 55e:	00 00                	add    %al,(%eax)
 560:	02 16                	add    (%esi),%dl
 562:	00 03                	add    %al,(%ebx)
 564:	0e                   	push   %cs
 565:	3a 0b                	cmp    (%ebx),%cl
 567:	3b 0b                	cmp    (%ebx),%ecx
 569:	39 0b                	cmp    %ecx,(%ebx)
 56b:	49                   	dec    %ecx
 56c:	13 00                	adc    (%eax),%eax
 56e:	00 03                	add    %al,(%ebx)
 570:	24 00                	and    $0x0,%al
 572:	0b 0b                	or     (%ebx),%ecx
 574:	3e 0b 03             	or     %ds:(%ebx),%eax
 577:	0e                   	push   %cs
 578:	00 00                	add    %al,(%eax)
 57a:	04 24                	add    $0x24,%al
 57c:	00 0b                	add    %cl,(%ebx)
 57e:	0b 3e                	or     (%esi),%edi
 580:	0b 03                	or     (%ebx),%eax
 582:	08 00                	or     %al,(%eax)
 584:	00 05 13 01 03 0e    	add    %al,0xe030113
 58a:	0b 0b                	or     (%ebx),%ecx
 58c:	3a 0b                	cmp    (%ebx),%cl
 58e:	3b 0b                	cmp    (%ebx),%ecx
 590:	39 0b                	cmp    %ecx,(%ebx)
 592:	01 13                	add    %edx,(%ebx)
 594:	00 00                	add    %al,(%eax)
 596:	06                   	push   %es
 597:	0d 00 03 0e 3a       	or     $0x3a0e0300,%eax
 59c:	0b 3b                	or     (%ebx),%edi
 59e:	0b 39                	or     (%ecx),%edi
 5a0:	0b 49 13             	or     0x13(%ecx),%ecx
 5a3:	38 0b                	cmp    %cl,(%ebx)
 5a5:	00 00                	add    %al,(%eax)
 5a7:	07                   	pop    %es
 5a8:	34 00                	xor    $0x0,%al
 5aa:	03 08                	add    (%eax),%ecx
 5ac:	3a 0b                	cmp    (%ebx),%cl
 5ae:	3b 0b                	cmp    (%ebx),%ecx
 5b0:	39 0b                	cmp    %ecx,(%ebx)
 5b2:	49                   	dec    %ecx
 5b3:	13 3f                	adc    (%edi),%edi
 5b5:	19 02                	sbb    %eax,(%edx)
 5b7:	18 00                	sbb    %al,(%eax)
 5b9:	00 08                	add    %cl,(%eax)
 5bb:	01 01                	add    %eax,(%ecx)
 5bd:	49                   	dec    %ecx
 5be:	13 01                	adc    (%ecx),%eax
 5c0:	13 00                	adc    (%eax),%eax
 5c2:	00 09                	add    %cl,(%ecx)
 5c4:	21 00                	and    %eax,(%eax)
 5c6:	49                   	dec    %ecx
 5c7:	13 2f                	adc    (%edi),%ebp
 5c9:	0b 00                	or     (%eax),%eax
 5cb:	00 0a                	add    %cl,(%edx)
 5cd:	34 00                	xor    $0x0,%al
 5cf:	03 0e                	add    (%esi),%ecx
 5d1:	3a 0b                	cmp    (%ebx),%cl
 5d3:	3b 0b                	cmp    (%ebx),%ecx
 5d5:	39 0b                	cmp    %ecx,(%ebx)
 5d7:	49                   	dec    %ecx
 5d8:	13 3f                	adc    (%edi),%edi
 5da:	19 02                	sbb    %eax,(%edx)
 5dc:	18 00                	sbb    %al,(%eax)
 5de:	00 0b                	add    %cl,(%ebx)
 5e0:	2e 00 3f             	add    %bh,%cs:(%edi)
 5e3:	19 03                	sbb    %eax,(%ebx)
 5e5:	0e                   	push   %cs
 5e6:	3a 0b                	cmp    (%ebx),%cl
 5e8:	3b 0b                	cmp    (%ebx),%ecx
 5ea:	39 0b                	cmp    %ecx,(%ebx)
 5ec:	11 01                	adc    %eax,(%ecx)
 5ee:	12 06                	adc    (%esi),%al
 5f0:	40                   	inc    %eax
 5f1:	18 96 42 19 00 00    	sbb    %dl,0x1942(%esi)
 5f7:	0c 2e                	or     $0x2e,%al
 5f9:	01 03                	add    %eax,(%ebx)
 5fb:	0e                   	push   %cs
 5fc:	3a 0b                	cmp    (%ebx),%cl
 5fe:	3b 0b                	cmp    (%ebx),%ecx
 600:	39 0b                	cmp    %ecx,(%ebx)
 602:	27                   	daa    
 603:	19 11                	sbb    %edx,(%ecx)
 605:	01 12                	add    %edx,(%edx)
 607:	06                   	push   %es
 608:	40                   	inc    %eax
 609:	18 97 42 19 00 00    	sbb    %dl,0x1942(%edi)
 60f:	0d 05 00 03 08       	or     $0x8030005,%eax
 614:	3a 0b                	cmp    (%ebx),%cl
 616:	3b 0b                	cmp    (%ebx),%ecx
 618:	39 0b                	cmp    %ecx,(%ebx)
 61a:	49                   	dec    %ecx
 61b:	13 02                	adc    (%edx),%eax
 61d:	18 00                	sbb    %al,(%eax)
 61f:	00 0e                	add    %cl,(%esi)
 621:	05 00 03 0e 3a       	add    $0x3a0e0300,%eax
 626:	0b 3b                	or     (%ebx),%edi
 628:	0b 39                	or     (%ecx),%edi
 62a:	0b 49 13             	or     0x13(%ecx),%ecx
 62d:	02 18                	add    (%eax),%bl
 62f:	00 00                	add    %al,(%eax)
 631:	00 01                	add    %al,(%ecx)
 633:	11 01                	adc    %eax,(%ecx)
 635:	25 0e 13 0b 03       	and    $0x30b130e,%eax
 63a:	0e                   	push   %cs
 63b:	1b 0e                	sbb    (%esi),%ecx
 63d:	11 01                	adc    %eax,(%ecx)
 63f:	12 06                	adc    (%esi),%al
 641:	10 17                	adc    %dl,(%edi)
 643:	00 00                	add    %al,(%eax)
 645:	02 16                	add    (%esi),%dl
 647:	00 03                	add    %al,(%ebx)
 649:	0e                   	push   %cs
 64a:	3a 0b                	cmp    (%ebx),%cl
 64c:	3b 0b                	cmp    (%ebx),%ecx
 64e:	39 0b                	cmp    %ecx,(%ebx)
 650:	49                   	dec    %ecx
 651:	13 00                	adc    (%eax),%eax
 653:	00 03                	add    %al,(%ebx)
 655:	24 00                	and    $0x0,%al
 657:	0b 0b                	or     (%ebx),%ecx
 659:	3e 0b 03             	or     %ds:(%ebx),%eax
 65c:	0e                   	push   %cs
 65d:	00 00                	add    %al,(%eax)
 65f:	04 24                	add    $0x24,%al
 661:	00 0b                	add    %cl,(%ebx)
 663:	0b 3e                	or     (%esi),%edi
 665:	0b 03                	or     (%ebx),%eax
 667:	08 00                	or     %al,(%eax)
 669:	00 05 2e 01 3f 19    	add    %al,0x193f012e
 66f:	03 08                	add    (%eax),%ecx
 671:	3a 0b                	cmp    (%ebx),%cl
 673:	3b 0b                	cmp    (%ebx),%ecx
 675:	39 0b                	cmp    %ecx,(%ebx)
 677:	27                   	daa    
 678:	19 49 13             	sbb    %ecx,0x13(%ecx)
 67b:	11 01                	adc    %eax,(%ecx)
 67d:	12 06                	adc    (%esi),%al
 67f:	40                   	inc    %eax
 680:	18 97 42 19 01 13    	sbb    %dl,0x13011942(%edi)
 686:	00 00                	add    %al,(%eax)
 688:	06                   	push   %es
 689:	05 00 03 0e 3a       	add    $0x3a0e0300,%eax
 68e:	0b 3b                	or     (%ebx),%edi
 690:	0b 39                	or     (%ecx),%edi
 692:	0b 49 13             	or     0x13(%ecx),%ecx
 695:	02 18                	add    (%eax),%bl
 697:	00 00                	add    %al,(%eax)
 699:	07                   	pop    %es
 69a:	34 00                	xor    $0x0,%al
 69c:	03 0e                	add    (%esi),%ecx
 69e:	3a 0b                	cmp    (%ebx),%cl
 6a0:	3b 0b                	cmp    (%ebx),%ecx
 6a2:	39 0b                	cmp    %ecx,(%ebx)
 6a4:	49                   	dec    %ecx
 6a5:	13 02                	adc    (%edx),%eax
 6a7:	18 00                	sbb    %al,(%eax)
 6a9:	00 08                	add    %cl,(%eax)
 6ab:	2e 01 3f             	add    %edi,%cs:(%edi)
 6ae:	19 03                	sbb    %eax,(%ebx)
 6b0:	0e                   	push   %cs
 6b1:	3a 0b                	cmp    (%ebx),%cl
 6b3:	3b 0b                	cmp    (%ebx),%ecx
 6b5:	39 0b                	cmp    %ecx,(%ebx)
 6b7:	27                   	daa    
 6b8:	19 11                	sbb    %edx,(%ecx)
 6ba:	01 12                	add    %edx,(%edx)
 6bc:	06                   	push   %es
 6bd:	40                   	inc    %eax
 6be:	18 97 42 19 01 13    	sbb    %dl,0x13011942(%edi)
 6c4:	00 00                	add    %al,(%eax)
 6c6:	09 05 00 03 08 3a    	or     %eax,0x3a080300
 6cc:	0b 3b                	or     (%ebx),%edi
 6ce:	0b 39                	or     (%ecx),%edi
 6d0:	0b 49 13             	or     0x13(%ecx),%ecx
 6d3:	02 18                	add    (%eax),%bl
 6d5:	00 00                	add    %al,(%eax)
 6d7:	0a 0f                	or     (%edi),%cl
 6d9:	00 0b                	add    %cl,(%ebx)
 6db:	0b 49 13             	or     0x13(%ecx),%ecx
 6de:	00 00                	add    %al,(%eax)
 6e0:	0b 2e                	or     (%esi),%ebp
 6e2:	01 3f                	add    %edi,(%edi)
 6e4:	19 03                	sbb    %eax,(%ebx)
 6e6:	0e                   	push   %cs
 6e7:	3a 0b                	cmp    (%ebx),%cl
 6e9:	3b 0b                	cmp    (%ebx),%ecx
 6eb:	39 0b                	cmp    %ecx,(%ebx)
 6ed:	27                   	daa    
 6ee:	19 49 13             	sbb    %ecx,0x13(%ecx)
 6f1:	11 01                	adc    %eax,(%ecx)
 6f3:	12 06                	adc    (%esi),%al
 6f5:	40                   	inc    %eax
 6f6:	18 96 42 19 01 13    	sbb    %dl,0x13011942(%esi)
 6fc:	00 00                	add    %al,(%eax)
 6fe:	0c 34                	or     $0x34,%al
 700:	00 03                	add    %al,(%ebx)
 702:	08 3a                	or     %bh,(%edx)
 704:	0b 3b                	or     (%ebx),%edi
 706:	0b 39                	or     (%ecx),%edi
 708:	0b 49 13             	or     0x13(%ecx),%ecx
 70b:	02 18                	add    (%eax),%bl
 70d:	00 00                	add    %al,(%eax)
 70f:	0d 0b 01 11 01       	or     $0x111010b,%eax
 714:	12 06                	adc    (%esi),%al
 716:	00 00                	add    %al,(%eax)
 718:	0e                   	push   %cs
 719:	2e 01 3f             	add    %edi,%cs:(%edi)
 71c:	19 03                	sbb    %eax,(%ebx)
 71e:	0e                   	push   %cs
 71f:	3a 0b                	cmp    (%ebx),%cl
 721:	3b 0b                	cmp    (%ebx),%ecx
 723:	39 0b                	cmp    %ecx,(%ebx)
 725:	27                   	daa    
 726:	19 11                	sbb    %edx,(%ecx)
 728:	01 12                	add    %edx,(%edx)
 72a:	06                   	push   %es
 72b:	40                   	inc    %eax
 72c:	18 96 42 19 01 13    	sbb    %dl,0x13011942(%esi)
 732:	00 00                	add    %al,(%eax)
 734:	0f 2e 01             	ucomiss (%ecx),%xmm0
 737:	3f                   	aas    
 738:	19 03                	sbb    %eax,(%ebx)
 73a:	0e                   	push   %cs
 73b:	3a 0b                	cmp    (%ebx),%cl
 73d:	3b 0b                	cmp    (%ebx),%ecx
 73f:	39 0b                	cmp    %ecx,(%ebx)
 741:	49                   	dec    %ecx
 742:	13 11                	adc    (%ecx),%edx
 744:	01 12                	add    %edx,(%edx)
 746:	06                   	push   %es
 747:	40                   	inc    %eax
 748:	18 96 42 19 00 00    	sbb    %dl,0x1942(%esi)
 74e:	00 01                	add    %al,(%ecx)
 750:	11 01                	adc    %eax,(%ecx)
 752:	25 0e 13 0b 03       	and    $0x30b130e,%eax
 757:	0e                   	push   %cs
 758:	1b 0e                	sbb    (%esi),%ecx
 75a:	11 01                	adc    %eax,(%ecx)
 75c:	12 06                	adc    (%esi),%al
 75e:	10 17                	adc    %dl,(%edi)
 760:	00 00                	add    %al,(%eax)
 762:	02 16                	add    (%esi),%dl
 764:	00 03                	add    %al,(%ebx)
 766:	0e                   	push   %cs
 767:	3a 0b                	cmp    (%ebx),%cl
 769:	3b 0b                	cmp    (%ebx),%ecx
 76b:	39 0b                	cmp    %ecx,(%ebx)
 76d:	49                   	dec    %ecx
 76e:	13 00                	adc    (%eax),%eax
 770:	00 03                	add    %al,(%ebx)
 772:	24 00                	and    $0x0,%al
 774:	0b 0b                	or     (%ebx),%ecx
 776:	3e 0b 03             	or     %ds:(%ebx),%eax
 779:	0e                   	push   %cs
 77a:	00 00                	add    %al,(%eax)
 77c:	04 24                	add    $0x24,%al
 77e:	00 0b                	add    %cl,(%ebx)
 780:	0b 3e                	or     (%esi),%edi
 782:	0b 03                	or     (%ebx),%eax
 784:	08 00                	or     %al,(%eax)
 786:	00 05 13 01 03 0e    	add    %al,0xe030113
 78c:	0b 0b                	or     (%ebx),%ecx
 78e:	3a 0b                	cmp    (%ebx),%cl
 790:	3b 0b                	cmp    (%ebx),%ecx
 792:	39 0b                	cmp    %ecx,(%ebx)
 794:	01 13                	add    %edx,(%ebx)
 796:	00 00                	add    %al,(%eax)
 798:	06                   	push   %es
 799:	0d 00 03 0e 3a       	or     $0x3a0e0300,%eax
 79e:	0b 3b                	or     (%ebx),%edi
 7a0:	0b 39                	or     (%ecx),%edi
 7a2:	0b 49 13             	or     0x13(%ecx),%ecx
 7a5:	38 0b                	cmp    %cl,(%ebx)
 7a7:	00 00                	add    %al,(%eax)
 7a9:	07                   	pop    %es
 7aa:	0d 00 03 08 3a       	or     $0x3a080300,%eax
 7af:	0b 3b                	or     (%ebx),%edi
 7b1:	0b 39                	or     (%ecx),%edi
 7b3:	0b 49 13             	or     0x13(%ecx),%ecx
 7b6:	38 0b                	cmp    %cl,(%ebx)
 7b8:	00 00                	add    %al,(%eax)
 7ba:	08 0f                	or     %cl,(%edi)
 7bc:	00 0b                	add    %cl,(%ebx)
 7be:	0b 49 13             	or     0x13(%ecx),%ecx
 7c1:	00 00                	add    %al,(%eax)
 7c3:	09 15 01 27 19 01    	or     %edx,0x1192701
 7c9:	13 00                	adc    (%eax),%eax
 7cb:	00 0a                	add    %cl,(%edx)
 7cd:	05 00 49 13 00       	add    $0x134900,%eax
 7d2:	00 0b                	add    %cl,(%ebx)
 7d4:	34 00                	xor    $0x0,%al
 7d6:	03 08                	add    (%eax),%ecx
 7d8:	3a 0b                	cmp    (%ebx),%cl
 7da:	3b 0b                	cmp    (%ebx),%ecx
 7dc:	39 0b                	cmp    %ecx,(%ebx)
 7de:	49                   	dec    %ecx
 7df:	13 3f                	adc    (%edi),%edi
 7e1:	19 02                	sbb    %eax,(%edx)
 7e3:	18 00                	sbb    %al,(%eax)
 7e5:	00 0c 01             	add    %cl,(%ecx,%eax,1)
 7e8:	01 49 13             	add    %ecx,0x13(%ecx)
 7eb:	01 13                	add    %edx,(%ebx)
 7ed:	00 00                	add    %al,(%eax)
 7ef:	0d 21 00 49 13       	or     $0x13490021,%eax
 7f4:	2f                   	das    
 7f5:	0b 00                	or     (%eax),%eax
 7f7:	00 0e                	add    %cl,(%esi)
 7f9:	34 00                	xor    $0x0,%al
 7fb:	03 0e                	add    (%esi),%ecx
 7fd:	3a 0b                	cmp    (%ebx),%cl
 7ff:	3b 0b                	cmp    (%ebx),%ecx
 801:	39 0b                	cmp    %ecx,(%ebx)
 803:	49                   	dec    %ecx
 804:	13 3f                	adc    (%edi),%edi
 806:	19 02                	sbb    %eax,(%edx)
 808:	18 00                	sbb    %al,(%eax)
 80a:	00 0f                	add    %cl,(%edi)
 80c:	2e 01 3f             	add    %edi,%cs:(%edi)
 80f:	19 03                	sbb    %eax,(%ebx)
 811:	0e                   	push   %cs
 812:	3a 0b                	cmp    (%ebx),%cl
 814:	3b 0b                	cmp    (%ebx),%ecx
 816:	39 0b                	cmp    %ecx,(%ebx)
 818:	27                   	daa    
 819:	19 11                	sbb    %edx,(%ecx)
 81b:	01 12                	add    %edx,(%edx)
 81d:	06                   	push   %es
 81e:	40                   	inc    %eax
 81f:	18 97 42 19 01 13    	sbb    %dl,0x13011942(%edi)
 825:	00 00                	add    %al,(%eax)
 827:	10 05 00 03 0e 3a    	adc    %al,0x3a0e0300
 82d:	0b 3b                	or     (%ebx),%edi
 82f:	0b 39                	or     (%ecx),%edi
 831:	0b 49 13             	or     0x13(%ecx),%ecx
 834:	02 18                	add    (%eax),%bl
 836:	00 00                	add    %al,(%eax)
 838:	11 2e                	adc    %ebp,(%esi)
 83a:	01 3f                	add    %edi,(%edi)
 83c:	19 03                	sbb    %eax,(%ebx)
 83e:	0e                   	push   %cs
 83f:	3a 0b                	cmp    (%ebx),%cl
 841:	3b 0b                	cmp    (%ebx),%ecx
 843:	39 0b                	cmp    %ecx,(%ebx)
 845:	27                   	daa    
 846:	19 11                	sbb    %edx,(%ecx)
 848:	01 12                	add    %edx,(%edx)
 84a:	06                   	push   %es
 84b:	40                   	inc    %eax
 84c:	18 96 42 19 01 13    	sbb    %dl,0x13011942(%esi)
 852:	00 00                	add    %al,(%eax)
 854:	12 0b                	adc    (%ebx),%cl
 856:	01 11                	add    %edx,(%ecx)
 858:	01 12                	add    %edx,(%edx)
 85a:	06                   	push   %es
 85b:	00 00                	add    %al,(%eax)
 85d:	13 34 00             	adc    (%eax,%eax,1),%esi
 860:	03 0e                	add    (%esi),%ecx
 862:	3a 0b                	cmp    (%ebx),%cl
 864:	3b 0b                	cmp    (%ebx),%ecx
 866:	39 0b                	cmp    %ecx,(%ebx)
 868:	49                   	dec    %ecx
 869:	13 02                	adc    (%edx),%eax
 86b:	18 00                	sbb    %al,(%eax)
 86d:	00 14 2e             	add    %dl,(%esi,%ebp,1)
 870:	00 3f                	add    %bh,(%edi)
 872:	19 03                	sbb    %eax,(%ebx)
 874:	0e                   	push   %cs
 875:	3a 0b                	cmp    (%ebx),%cl
 877:	3b 0b                	cmp    (%ebx),%ecx
 879:	39 0b                	cmp    %ecx,(%ebx)
 87b:	11 01                	adc    %eax,(%ecx)
 87d:	12 06                	adc    (%esi),%al
 87f:	40                   	inc    %eax
 880:	18 96 42 19 00 00    	sbb    %dl,0x1942(%esi)
 886:	15 2e 01 03 0e       	adc    $0xe03012e,%eax
 88b:	3a 0b                	cmp    (%ebx),%cl
 88d:	3b 0b                	cmp    (%ebx),%ecx
 88f:	39 0b                	cmp    %ecx,(%ebx)
 891:	27                   	daa    
 892:	19 11                	sbb    %edx,(%ecx)
 894:	01 12                	add    %edx,(%edx)
 896:	06                   	push   %es
 897:	40                   	inc    %eax
 898:	18 97 42 19 01 13    	sbb    %dl,0x13011942(%edi)
 89e:	00 00                	add    %al,(%eax)
 8a0:	16                   	push   %ss
 8a1:	05 00 03 08 3a       	add    $0x3a080300,%eax
 8a6:	0b 3b                	or     (%ebx),%edi
 8a8:	0b 39                	or     (%ecx),%edi
 8aa:	0b 49 13             	or     0x13(%ecx),%ecx
 8ad:	02 18                	add    (%eax),%bl
 8af:	00 00                	add    %al,(%eax)
 8b1:	17                   	pop    %ss
 8b2:	2e 01 03             	add    %eax,%cs:(%ebx)
 8b5:	0e                   	push   %cs
 8b6:	3a 0b                	cmp    (%ebx),%cl
 8b8:	3b 0b                	cmp    (%ebx),%ecx
 8ba:	39 0b                	cmp    %ecx,(%ebx)
 8bc:	27                   	daa    
 8bd:	19 11                	sbb    %edx,(%ecx)
 8bf:	01 12                	add    %edx,(%edx)
 8c1:	06                   	push   %es
 8c2:	40                   	inc    %eax
 8c3:	18 96 42 19 01 13    	sbb    %dl,0x13011942(%esi)
 8c9:	00 00                	add    %al,(%eax)
 8cb:	18 2e                	sbb    %ch,(%esi)
 8cd:	00 03                	add    %al,(%ebx)
 8cf:	0e                   	push   %cs
 8d0:	3a 0b                	cmp    (%ebx),%cl
 8d2:	3b 0b                	cmp    (%ebx),%ecx
 8d4:	39 0b                	cmp    %ecx,(%ebx)
 8d6:	11 01                	adc    %eax,(%ecx)
 8d8:	12 06                	adc    (%esi),%al
 8da:	40                   	inc    %eax
 8db:	18 96 42 19 00 00    	sbb    %dl,0x1942(%esi)
 8e1:	19 2e                	sbb    %ebp,(%esi)
 8e3:	01 03                	add    %eax,(%ebx)
 8e5:	0e                   	push   %cs
 8e6:	3a 0b                	cmp    (%ebx),%cl
 8e8:	3b 0b                	cmp    (%ebx),%ecx
 8ea:	39 0b                	cmp    %ecx,(%ebx)
 8ec:	11 01                	adc    %eax,(%ecx)
 8ee:	12 06                	adc    (%esi),%al
 8f0:	40                   	inc    %eax
 8f1:	18 96 42 19 01 13    	sbb    %dl,0x13011942(%esi)
 8f7:	00 00                	add    %al,(%eax)
 8f9:	1a 34 00             	sbb    (%eax,%eax,1),%dh
 8fc:	03 08                	add    (%eax),%ecx
 8fe:	3a 0b                	cmp    (%ebx),%cl
 900:	3b 0b                	cmp    (%ebx),%ecx
 902:	39 0b                	cmp    %ecx,(%ebx)
 904:	49                   	dec    %ecx
 905:	13 02                	adc    (%edx),%eax
 907:	18 00                	sbb    %al,(%eax)
 909:	00 00                	add    %al,(%eax)
 90b:	01 11                	add    %edx,(%ecx)
 90d:	01 25 0e 13 0b 03    	add    %esp,0x30b130e
 913:	0e                   	push   %cs
 914:	1b 0e                	sbb    (%esi),%ecx
 916:	11 01                	adc    %eax,(%ecx)
 918:	12 06                	adc    (%esi),%al
 91a:	10 17                	adc    %dl,(%edi)
 91c:	00 00                	add    %al,(%eax)
 91e:	02 16                	add    (%esi),%dl
 920:	00 03                	add    %al,(%ebx)
 922:	0e                   	push   %cs
 923:	3a 0b                	cmp    (%ebx),%cl
 925:	3b 0b                	cmp    (%ebx),%ecx
 927:	39 0b                	cmp    %ecx,(%ebx)
 929:	49                   	dec    %ecx
 92a:	13 00                	adc    (%eax),%eax
 92c:	00 03                	add    %al,(%ebx)
 92e:	24 00                	and    $0x0,%al
 930:	0b 0b                	or     (%ebx),%ecx
 932:	3e 0b 03             	or     %ds:(%ebx),%eax
 935:	0e                   	push   %cs
 936:	00 00                	add    %al,(%eax)
 938:	04 24                	add    $0x24,%al
 93a:	00 0b                	add    %cl,(%ebx)
 93c:	0b 3e                	or     (%esi),%edi
 93e:	0b 03                	or     (%ebx),%eax
 940:	08 00                	or     %al,(%eax)
 942:	00 05 13 01 03 0e    	add    %al,0xe030113
 948:	0b 0b                	or     (%ebx),%ecx
 94a:	3a 0b                	cmp    (%ebx),%cl
 94c:	3b 0b                	cmp    (%ebx),%ecx
 94e:	39 0b                	cmp    %ecx,(%ebx)
 950:	01 13                	add    %edx,(%ebx)
 952:	00 00                	add    %al,(%eax)
 954:	06                   	push   %es
 955:	0d 00 03 08 3a       	or     $0x3a080300,%eax
 95a:	0b 3b                	or     (%ebx),%edi
 95c:	0b 39                	or     (%ecx),%edi
 95e:	0b 49 13             	or     0x13(%ecx),%ecx
 961:	38 0b                	cmp    %cl,(%ebx)
 963:	00 00                	add    %al,(%eax)
 965:	07                   	pop    %es
 966:	0d 00 03 0e 3a       	or     $0x3a0e0300,%eax
 96b:	0b 3b                	or     (%ebx),%edi
 96d:	0b 39                	or     (%ecx),%edi
 96f:	0b 49 13             	or     0x13(%ecx),%ecx
 972:	38 0b                	cmp    %cl,(%ebx)
 974:	00 00                	add    %al,(%eax)
 976:	08 2e                	or     %ch,(%esi)
 978:	01 03                	add    %eax,(%ebx)
 97a:	0e                   	push   %cs
 97b:	3a 0b                	cmp    (%ebx),%cl
 97d:	3b 0b                	cmp    (%ebx),%ecx
 97f:	39 0b                	cmp    %ecx,(%ebx)
 981:	27                   	daa    
 982:	19 11                	sbb    %edx,(%ecx)
 984:	01 12                	add    %edx,(%edx)
 986:	06                   	push   %es
 987:	40                   	inc    %eax
 988:	18 96 42 19 01 13    	sbb    %dl,0x13011942(%esi)
 98e:	00 00                	add    %al,(%eax)
 990:	09 05 00 03 08 3a    	or     %eax,0x3a080300
 996:	0b 3b                	or     (%ebx),%edi
 998:	0b 39                	or     (%ecx),%edi
 99a:	0b 49 13             	or     0x13(%ecx),%ecx
 99d:	02 18                	add    (%eax),%bl
 99f:	00 00                	add    %al,(%eax)
 9a1:	0a 2e                	or     (%esi),%ch
 9a3:	00 03                	add    %al,(%ebx)
 9a5:	0e                   	push   %cs
 9a6:	3a 0b                	cmp    (%ebx),%cl
 9a8:	3b 0b                	cmp    (%ebx),%ecx
 9aa:	39 0b                	cmp    %ecx,(%ebx)
 9ac:	49                   	dec    %ecx
 9ad:	13 11                	adc    (%ecx),%edx
 9af:	01 12                	add    %edx,(%edx)
 9b1:	06                   	push   %es
 9b2:	40                   	inc    %eax
 9b3:	18 96 42 19 00 00    	sbb    %dl,0x1942(%esi)
 9b9:	0b 2e                	or     (%esi),%ebp
 9bb:	00 03                	add    %al,(%ebx)
 9bd:	0e                   	push   %cs
 9be:	3a 0b                	cmp    (%ebx),%cl
 9c0:	3b 0b                	cmp    (%ebx),%ecx
 9c2:	39 0b                	cmp    %ecx,(%ebx)
 9c4:	11 01                	adc    %eax,(%ecx)
 9c6:	12 06                	adc    (%esi),%al
 9c8:	40                   	inc    %eax
 9c9:	18 97 42 19 00 00    	sbb    %dl,0x1942(%edi)
 9cf:	0c 05                	or     $0x5,%al
 9d1:	00 03                	add    %al,(%ebx)
 9d3:	0e                   	push   %cs
 9d4:	3a 0b                	cmp    (%ebx),%cl
 9d6:	3b 0b                	cmp    (%ebx),%ecx
 9d8:	39 0b                	cmp    %ecx,(%ebx)
 9da:	49                   	dec    %ecx
 9db:	13 02                	adc    (%edx),%eax
 9dd:	18 00                	sbb    %al,(%eax)
 9df:	00 0d 34 00 03 0e    	add    %cl,0xe030034
 9e5:	3a 0b                	cmp    (%ebx),%cl
 9e7:	3b 0b                	cmp    (%ebx),%ecx
 9e9:	39 0b                	cmp    %ecx,(%ebx)
 9eb:	49                   	dec    %ecx
 9ec:	13 02                	adc    (%edx),%eax
 9ee:	18 00                	sbb    %al,(%eax)
 9f0:	00 0e                	add    %cl,(%esi)
 9f2:	2e 00 3f             	add    %bh,%cs:(%edi)
 9f5:	19 03                	sbb    %eax,(%ebx)
 9f7:	0e                   	push   %cs
 9f8:	3a 0b                	cmp    (%ebx),%cl
 9fa:	3b 0b                	cmp    (%ebx),%ecx
 9fc:	39 0b                	cmp    %ecx,(%ebx)
 9fe:	11 01                	adc    %eax,(%ecx)
 a00:	12 06                	adc    (%esi),%al
 a02:	40                   	inc    %eax
 a03:	18 96 42 19 00 00    	sbb    %dl,0x1942(%esi)
 a09:	00 01                	add    %al,(%ecx)
 a0b:	11 01                	adc    %eax,(%ecx)
 a0d:	25 0e 13 0b 03       	and    $0x30b130e,%eax
 a12:	0e                   	push   %cs
 a13:	1b 0e                	sbb    (%esi),%ecx
 a15:	11 01                	adc    %eax,(%ecx)
 a17:	12 06                	adc    (%esi),%al
 a19:	10 17                	adc    %dl,(%edi)
 a1b:	00 00                	add    %al,(%eax)
 a1d:	02 16                	add    (%esi),%dl
 a1f:	00 03                	add    %al,(%ebx)
 a21:	0e                   	push   %cs
 a22:	3a 0b                	cmp    (%ebx),%cl
 a24:	3b 0b                	cmp    (%ebx),%ecx
 a26:	39 0b                	cmp    %ecx,(%ebx)
 a28:	49                   	dec    %ecx
 a29:	13 00                	adc    (%eax),%eax
 a2b:	00 03                	add    %al,(%ebx)
 a2d:	24 00                	and    $0x0,%al
 a2f:	0b 0b                	or     (%ebx),%ecx
 a31:	3e 0b 03             	or     %ds:(%ebx),%eax
 a34:	0e                   	push   %cs
 a35:	00 00                	add    %al,(%eax)
 a37:	04 24                	add    $0x24,%al
 a39:	00 0b                	add    %cl,(%ebx)
 a3b:	0b 3e                	or     (%esi),%edi
 a3d:	0b 03                	or     (%ebx),%eax
 a3f:	08 00                	or     %al,(%eax)
 a41:	00 05 13 01 03 0e    	add    %al,0xe030113
 a47:	0b 0b                	or     (%ebx),%ecx
 a49:	3a 0b                	cmp    (%ebx),%cl
 a4b:	3b 0b                	cmp    (%ebx),%ecx
 a4d:	39 0b                	cmp    %ecx,(%ebx)
 a4f:	01 13                	add    %edx,(%ebx)
 a51:	00 00                	add    %al,(%eax)
 a53:	06                   	push   %es
 a54:	0d 00 03 08 3a       	or     $0x3a080300,%eax
 a59:	0b 3b                	or     (%ebx),%edi
 a5b:	0b 39                	or     (%ecx),%edi
 a5d:	0b 49 13             	or     0x13(%ecx),%ecx
 a60:	38 0b                	cmp    %cl,(%ebx)
 a62:	00 00                	add    %al,(%eax)
 a64:	07                   	pop    %es
 a65:	0d 00 03 0e 3a       	or     $0x3a0e0300,%eax
 a6a:	0b 3b                	or     (%ebx),%edi
 a6c:	0b 39                	or     (%ecx),%edi
 a6e:	0b 49 13             	or     0x13(%ecx),%ecx
 a71:	38 0b                	cmp    %cl,(%ebx)
 a73:	00 00                	add    %al,(%eax)
 a75:	08 34 00             	or     %dh,(%eax,%eax,1)
 a78:	03 0e                	add    (%esi),%ecx
 a7a:	3a 0b                	cmp    (%ebx),%cl
 a7c:	3b 0b                	cmp    (%ebx),%ecx
 a7e:	39 0b                	cmp    %ecx,(%ebx)
 a80:	49                   	dec    %ecx
 a81:	13 3f                	adc    (%edi),%edi
 a83:	19 02                	sbb    %eax,(%edx)
 a85:	18 00                	sbb    %al,(%eax)
 a87:	00 09                	add    %cl,(%ecx)
 a89:	2e 01 3f             	add    %edi,%cs:(%edi)
 a8c:	19 03                	sbb    %eax,(%ebx)
 a8e:	0e                   	push   %cs
 a8f:	3a 0b                	cmp    (%ebx),%cl
 a91:	3b 0b                	cmp    (%ebx),%ecx
 a93:	39 0b                	cmp    %ecx,(%ebx)
 a95:	27                   	daa    
 a96:	19 11                	sbb    %edx,(%ecx)
 a98:	01 12                	add    %edx,(%edx)
 a9a:	06                   	push   %es
 a9b:	40                   	inc    %eax
 a9c:	18 96 42 19 01 13    	sbb    %dl,0x13011942(%esi)
 aa2:	00 00                	add    %al,(%eax)
 aa4:	0a 05 00 03 0e 3a    	or     0x3a0e0300,%al
 aaa:	0b 3b                	or     (%ebx),%edi
 aac:	0b 39                	or     (%ecx),%edi
 aae:	0b 49 13             	or     0x13(%ecx),%ecx
 ab1:	02 18                	add    (%eax),%bl
 ab3:	00 00                	add    %al,(%eax)
 ab5:	0b 34 00             	or     (%eax,%eax,1),%esi
 ab8:	03 0e                	add    (%esi),%ecx
 aba:	3a 0b                	cmp    (%ebx),%cl
 abc:	3b 0b                	cmp    (%ebx),%ecx
 abe:	39 0b                	cmp    %ecx,(%ebx)
 ac0:	49                   	dec    %ecx
 ac1:	13 02                	adc    (%edx),%eax
 ac3:	18 00                	sbb    %al,(%eax)
 ac5:	00 0c 34             	add    %cl,(%esp,%esi,1)
 ac8:	00 03                	add    %al,(%ebx)
 aca:	08 3a                	or     %bh,(%edx)
 acc:	0b 3b                	or     (%ebx),%edi
 ace:	0b 39                	or     (%ecx),%edi
 ad0:	0b 49 13             	or     0x13(%ecx),%ecx
 ad3:	02 18                	add    (%eax),%bl
 ad5:	00 00                	add    %al,(%eax)
 ad7:	0d 2e 01 03 0e       	or     $0xe03012e,%eax
 adc:	3a 0b                	cmp    (%ebx),%cl
 ade:	3b 0b                	cmp    (%ebx),%ecx
 ae0:	39 0b                	cmp    %ecx,(%ebx)
 ae2:	27                   	daa    
 ae3:	19 11                	sbb    %edx,(%ecx)
 ae5:	01 12                	add    %edx,(%edx)
 ae7:	06                   	push   %es
 ae8:	40                   	inc    %eax
 ae9:	18 96 42 19 00 00    	sbb    %dl,0x1942(%esi)
 aef:	00 01                	add    %al,(%ecx)
 af1:	11 01                	adc    %eax,(%ecx)
 af3:	25 0e 13 0b 03       	and    $0x30b130e,%eax
 af8:	0e                   	push   %cs
 af9:	1b 0e                	sbb    (%esi),%ecx
 afb:	11 01                	adc    %eax,(%ecx)
 afd:	12 06                	adc    (%esi),%al
 aff:	10 17                	adc    %dl,(%edi)
 b01:	00 00                	add    %al,(%eax)
 b03:	02 16                	add    (%esi),%dl
 b05:	00 03                	add    %al,(%ebx)
 b07:	0e                   	push   %cs
 b08:	3a 0b                	cmp    (%ebx),%cl
 b0a:	3b 0b                	cmp    (%ebx),%ecx
 b0c:	39 0b                	cmp    %ecx,(%ebx)
 b0e:	49                   	dec    %ecx
 b0f:	13 00                	adc    (%eax),%eax
 b11:	00 03                	add    %al,(%ebx)
 b13:	24 00                	and    $0x0,%al
 b15:	0b 0b                	or     (%ebx),%ecx
 b17:	3e 0b 03             	or     %ds:(%ebx),%eax
 b1a:	0e                   	push   %cs
 b1b:	00 00                	add    %al,(%eax)
 b1d:	04 24                	add    $0x24,%al
 b1f:	00 0b                	add    %cl,(%ebx)
 b21:	0b 3e                	or     (%esi),%edi
 b23:	0b 03                	or     (%ebx),%eax
 b25:	08 00                	or     %al,(%eax)
 b27:	00 05 0f 00 0b 0b    	add    %al,0xb0b000f
 b2d:	00 00                	add    %al,(%eax)
 b2f:	06                   	push   %es
 b30:	0f 00 0b             	str    (%ebx)
 b33:	0b 49 13             	or     0x13(%ecx),%ecx
 b36:	00 00                	add    %al,(%eax)
 b38:	07                   	pop    %es
 b39:	15 01 27 19 49       	adc    $0x49192701,%eax
 b3e:	13 01                	adc    (%ecx),%eax
 b40:	13 00                	adc    (%eax),%eax
 b42:	00 08                	add    %cl,(%eax)
 b44:	05 00 49 13 00       	add    $0x134900,%eax
 b49:	00 09                	add    %cl,(%ecx)
 b4b:	13 01                	adc    (%ecx),%eax
 b4d:	0b 0b                	or     (%ebx),%ecx
 b4f:	3a 0b                	cmp    (%ebx),%cl
 b51:	3b 0b                	cmp    (%ebx),%ecx
 b53:	39 0b                	cmp    %ecx,(%ebx)
 b55:	01 13                	add    %edx,(%ebx)
 b57:	00 00                	add    %al,(%eax)
 b59:	0a 0d 00 03 0e 3a    	or     0x3a0e0300,%cl
 b5f:	0b 3b                	or     (%ebx),%edi
 b61:	0b 39                	or     (%ecx),%edi
 b63:	0b 49 13             	or     0x13(%ecx),%ecx
 b66:	38 0b                	cmp    %cl,(%ebx)
 b68:	00 00                	add    %al,(%eax)
 b6a:	0b 2e                	or     (%esi),%ebp
 b6c:	01 3f                	add    %edi,(%edi)
 b6e:	19 03                	sbb    %eax,(%ebx)
 b70:	0e                   	push   %cs
 b71:	3a 0b                	cmp    (%ebx),%cl
 b73:	3b 0b                	cmp    (%ebx),%ecx
 b75:	39 0b                	cmp    %ecx,(%ebx)
 b77:	27                   	daa    
 b78:	19 11                	sbb    %edx,(%ecx)
 b7a:	01 12                	add    %edx,(%edx)
 b7c:	06                   	push   %es
 b7d:	40                   	inc    %eax
 b7e:	18 97 42 19 01 13    	sbb    %dl,0x13011942(%edi)
 b84:	00 00                	add    %al,(%eax)
 b86:	0c 05                	or     $0x5,%al
 b88:	00 03                	add    %al,(%ebx)
 b8a:	08 3a                	or     %bh,(%edx)
 b8c:	0b 3b                	or     (%ebx),%edi
 b8e:	0b 39                	or     (%ecx),%edi
 b90:	0b 49 13             	or     0x13(%ecx),%ecx
 b93:	02 18                	add    (%eax),%bl
 b95:	00 00                	add    %al,(%eax)
 b97:	0d 05 00 03 0e       	or     $0xe030005,%eax
 b9c:	3a 0b                	cmp    (%ebx),%cl
 b9e:	3b 0b                	cmp    (%ebx),%ecx
 ba0:	39 0b                	cmp    %ecx,(%ebx)
 ba2:	49                   	dec    %ecx
 ba3:	13 02                	adc    (%edx),%eax
 ba5:	18 00                	sbb    %al,(%eax)
 ba7:	00 0e                	add    %cl,(%esi)
 ba9:	2e 01 3f             	add    %edi,%cs:(%edi)
 bac:	19 03                	sbb    %eax,(%ebx)
 bae:	0e                   	push   %cs
 baf:	3a 0b                	cmp    (%ebx),%cl
 bb1:	3b 0b                	cmp    (%ebx),%ecx
 bb3:	39 0b                	cmp    %ecx,(%ebx)
 bb5:	27                   	daa    
 bb6:	19 49 13             	sbb    %ecx,0x13(%ecx)
 bb9:	11 01                	adc    %eax,(%ecx)
 bbb:	12 06                	adc    (%esi),%al
 bbd:	40                   	inc    %eax
 bbe:	18 96 42 19 01 13    	sbb    %dl,0x13011942(%esi)
 bc4:	00 00                	add    %al,(%eax)
 bc6:	0f 2e 01             	ucomiss (%ecx),%xmm0
 bc9:	3f                   	aas    
 bca:	19 03                	sbb    %eax,(%ebx)
 bcc:	0e                   	push   %cs
 bcd:	3a 0b                	cmp    (%ebx),%cl
 bcf:	3b 0b                	cmp    (%ebx),%ecx
 bd1:	39 0b                	cmp    %ecx,(%ebx)
 bd3:	27                   	daa    
 bd4:	19 11                	sbb    %edx,(%ecx)
 bd6:	01 12                	add    %edx,(%edx)
 bd8:	06                   	push   %es
 bd9:	40                   	inc    %eax
 bda:	18 96 42 19 01 13    	sbb    %dl,0x13011942(%esi)
 be0:	00 00                	add    %al,(%eax)
 be2:	10 34 00             	adc    %dh,(%eax,%eax,1)
 be5:	03 08                	add    (%eax),%ecx
 be7:	3a 0b                	cmp    (%ebx),%cl
 be9:	3b 0b                	cmp    (%ebx),%ecx
 beb:	39 0b                	cmp    %ecx,(%ebx)
 bed:	49                   	dec    %ecx
 bee:	13 02                	adc    (%edx),%eax
 bf0:	18 00                	sbb    %al,(%eax)
 bf2:	00 11                	add    %dl,(%ecx)
 bf4:	34 00                	xor    $0x0,%al
 bf6:	03 0e                	add    (%esi),%ecx
 bf8:	3a 0b                	cmp    (%ebx),%cl
 bfa:	3b 0b                	cmp    (%ebx),%ecx
 bfc:	39 0b                	cmp    %ecx,(%ebx)
 bfe:	49                   	dec    %ecx
 bff:	13 02                	adc    (%edx),%eax
 c01:	18 00                	sbb    %al,(%eax)
 c03:	00 12                	add    %dl,(%edx)
 c05:	2e 01 3f             	add    %edi,%cs:(%edi)
 c08:	19 03                	sbb    %eax,(%ebx)
 c0a:	0e                   	push   %cs
 c0b:	3a 0b                	cmp    (%ebx),%cl
 c0d:	3b 0b                	cmp    (%ebx),%ecx
 c0f:	39 0b                	cmp    %ecx,(%ebx)
 c11:	49                   	dec    %ecx
 c12:	13 3c 19             	adc    (%ecx,%ebx,1),%edi
 c15:	00 00                	add    %al,(%eax)
 c17:	13 18                	adc    (%eax),%ebx
 c19:	00 00                	add    %al,(%eax)
 c1b:	00 14 2e             	add    %dl,(%esi,%ebp,1)
 c1e:	01 3f                	add    %edi,(%edi)
 c20:	19 03                	sbb    %eax,(%ebx)
 c22:	0e                   	push   %cs
 c23:	3a 0b                	cmp    (%ebx),%cl
 c25:	3b 0b                	cmp    (%ebx),%ecx
 c27:	39 0b                	cmp    %ecx,(%ebx)
 c29:	49                   	dec    %ecx
 c2a:	13 3c 19             	adc    (%ecx,%ebx,1),%edi
 c2d:	01 13                	add    %edx,(%ebx)
 c2f:	00 00                	add    %al,(%eax)
 c31:	15 2e 01 3f 19       	adc    $0x193f012e,%eax
 c36:	03 0e                	add    (%esi),%ecx
 c38:	3a 0b                	cmp    (%ebx),%cl
 c3a:	3b 0b                	cmp    (%ebx),%ecx
 c3c:	39 0b                	cmp    %ecx,(%ebx)
 c3e:	27                   	daa    
 c3f:	19 49 13             	sbb    %ecx,0x13(%ecx)
 c42:	11 01                	adc    %eax,(%ecx)
 c44:	12 06                	adc    (%esi),%al
 c46:	40                   	inc    %eax
 c47:	18 97 42 19 00 00    	sbb    %dl,0x1942(%edi)
 c4d:	00 01                	add    %al,(%ecx)
 c4f:	11 01                	adc    %eax,(%ecx)
 c51:	25 0e 13 0b 03       	and    $0x30b130e,%eax
 c56:	0e                   	push   %cs
 c57:	1b 0e                	sbb    (%esi),%ecx
 c59:	11 01                	adc    %eax,(%ecx)
 c5b:	12 06                	adc    (%esi),%al
 c5d:	10 17                	adc    %dl,(%edi)
 c5f:	00 00                	add    %al,(%eax)
 c61:	02 24 00             	add    (%eax,%eax,1),%ah
 c64:	0b 0b                	or     (%ebx),%ecx
 c66:	3e 0b 03             	or     %ds:(%ebx),%eax
 c69:	0e                   	push   %cs
 c6a:	00 00                	add    %al,(%eax)
 c6c:	03 26                	add    (%esi),%esp
 c6e:	00 49 13             	add    %cl,0x13(%ecx)
 c71:	00 00                	add    %al,(%eax)
 c73:	04 16                	add    $0x16,%al
 c75:	00 03                	add    %al,(%ebx)
 c77:	0e                   	push   %cs
 c78:	3a 0b                	cmp    (%ebx),%cl
 c7a:	3b 0b                	cmp    (%ebx),%ecx
 c7c:	39 0b                	cmp    %ecx,(%ebx)
 c7e:	49                   	dec    %ecx
 c7f:	13 00                	adc    (%eax),%eax
 c81:	00 05 24 00 0b 0b    	add    %al,0xb0b0024
 c87:	3e 0b 03             	or     %ds:(%ebx),%eax
 c8a:	08 00                	or     %al,(%eax)
 c8c:	00 06                	add    %al,(%esi)
 c8e:	2e 01 3f             	add    %edi,%cs:(%edi)
 c91:	19 03                	sbb    %eax,(%ebx)
 c93:	0e                   	push   %cs
 c94:	3a 0b                	cmp    (%ebx),%cl
 c96:	3b 0b                	cmp    (%ebx),%ecx
 c98:	39 0b                	cmp    %ecx,(%ebx)
 c9a:	27                   	daa    
 c9b:	19 11                	sbb    %edx,(%ecx)
 c9d:	01 12                	add    %edx,(%edx)
 c9f:	06                   	push   %es
 ca0:	40                   	inc    %eax
 ca1:	18 96 42 19 01 13    	sbb    %dl,0x13011942(%esi)
 ca7:	00 00                	add    %al,(%eax)
 ca9:	07                   	pop    %es
 caa:	05 00 03 0e 3a       	add    $0x3a0e0300,%eax
 caf:	0b 3b                	or     (%ebx),%edi
 cb1:	0b 39                	or     (%ecx),%edi
 cb3:	0b 49 13             	or     0x13(%ecx),%ecx
 cb6:	02 18                	add    (%eax),%bl
 cb8:	00 00                	add    %al,(%eax)
 cba:	08 0f                	or     %cl,(%edi)
 cbc:	00 0b                	add    %cl,(%ebx)
 cbe:	0b 49 13             	or     0x13(%ecx),%ecx
 cc1:	00 00                	add    %al,(%eax)
 cc3:	09 05 00 03 08 3a    	or     %eax,0x3a080300
 cc9:	0b 3b                	or     (%ebx),%edi
 ccb:	0b 39                	or     (%ecx),%edi
 ccd:	0b 49 13             	or     0x13(%ecx),%ecx
 cd0:	02 18                	add    (%eax),%bl
 cd2:	00 00                	add    %al,(%eax)
 cd4:	0a 34 00             	or     (%eax,%eax,1),%dh
 cd7:	03 08                	add    (%eax),%ecx
 cd9:	3a 0b                	cmp    (%ebx),%cl
 cdb:	3b 0b                	cmp    (%ebx),%ecx
 cdd:	39 0b                	cmp    %ecx,(%ebx)
 cdf:	49                   	dec    %ecx
 ce0:	13 02                	adc    (%edx),%eax
 ce2:	18 00                	sbb    %al,(%eax)
 ce4:	00 0b                	add    %cl,(%ebx)
 ce6:	34 00                	xor    $0x0,%al
 ce8:	03 0e                	add    (%esi),%ecx
 cea:	3a 0b                	cmp    (%ebx),%cl
 cec:	3b 0b                	cmp    (%ebx),%ecx
 cee:	39 0b                	cmp    %ecx,(%ebx)
 cf0:	49                   	dec    %ecx
 cf1:	13 02                	adc    (%edx),%eax
 cf3:	18 00                	sbb    %al,(%eax)
 cf5:	00 0c 01             	add    %cl,(%ecx,%eax,1)
 cf8:	01 49 13             	add    %ecx,0x13(%ecx)
 cfb:	01 13                	add    %edx,(%ebx)
 cfd:	00 00                	add    %al,(%eax)
 cff:	0d 21 00 49 13       	or     $0x13490021,%eax
 d04:	2f                   	das    
 d05:	0b 00                	or     (%eax),%eax
 d07:	00 0e                	add    %cl,(%esi)
 d09:	0b 01                	or     (%ecx),%eax
 d0b:	11 01                	adc    %eax,(%ecx)
 d0d:	12 06                	adc    (%esi),%al
 d0f:	00 00                	add    %al,(%eax)
	...

Disassembly of section .debug_aranges:

00000000 <.debug_aranges>:
   0:	1c 00                	sbb    $0x0,%al
   2:	00 00                	add    %al,(%eax)
   4:	02 00                	add    (%eax),%al
   6:	00 00                	add    %al,(%eax)
   8:	00 00                	add    %al,(%eax)
   a:	04 00                	add    $0x0,%al
   c:	00 00                	add    %al,(%eax)
   e:	00 00                	add    %al,(%eax)
  10:	19 00                	sbb    %eax,(%eax)
  12:	10 00                	adc    %al,(%eax)
  14:	ed                   	in     (%dx),%eax
  15:	07                   	pop    %es
	...
  1e:	00 00                	add    %al,(%eax)
  20:	1c 00                	sbb    $0x0,%al
  22:	00 00                	add    %al,(%eax)
  24:	02 00                	add    (%eax),%al
  26:	5f                   	pop    %edi
  27:	08 00                	or     %al,(%eax)
  29:	00 04 00             	add    %al,(%eax,%eax,1)
  2c:	00 00                	add    %al,(%eax)
  2e:	00 00                	add    %al,(%eax)
  30:	06                   	push   %es
  31:	08 10                	or     %dl,(%eax)
  33:	00 93 06 00 00 00    	add    %dl,0x6(%ebx)
  39:	00 00                	add    %al,(%eax)
  3b:	00 00                	add    %al,(%eax)
  3d:	00 00                	add    %al,(%eax)
  3f:	00 1c 00             	add    %bl,(%eax,%eax,1)
  42:	00 00                	add    %al,(%eax)
  44:	02 00                	add    (%eax),%al
  46:	1e                   	push   %ds
  47:	0f 00 00             	sldt   (%eax)
  4a:	04 00                	add    $0x0,%al
  4c:	00 00                	add    %al,(%eax)
  4e:	00 00                	add    %al,(%eax)
  50:	99                   	cltd   
  51:	0e                   	push   %cs
  52:	10 00                	adc    %al,(%eax)
  54:	33 01                	xor    (%ecx),%eax
	...
  5e:	00 00                	add    %al,(%eax)
  60:	1c 00                	sbb    $0x0,%al
  62:	00 00                	add    %al,(%eax)
  64:	02 00                	add    (%eax),%al
  66:	32 13                	xor    (%ebx),%dl
  68:	00 00                	add    %al,(%eax)
  6a:	04 00                	add    $0x0,%al
  6c:	00 00                	add    %al,(%eax)
  6e:	00 00                	add    %al,(%eax)
  70:	cc                   	int3   
  71:	0f 10 00             	movups (%eax),%xmm0
  74:	45                   	inc    %ebp
  75:	01 00                	add    %eax,(%eax)
	...
  7f:	00 1c 00             	add    %bl,(%eax,%eax,1)
  82:	00 00                	add    %al,(%eax)
  84:	02 00                	add    (%eax),%al
  86:	eb 14                	jmp    9c <FLAGS+0x9b>
  88:	00 00                	add    %al,(%eax)
  8a:	04 00                	add    $0x0,%al
  8c:	00 00                	add    %al,(%eax)
  8e:	00 00                	add    %al,(%eax)
  90:	11 11                	adc    %edx,(%ecx)
  92:	10 00                	adc    %al,(%eax)
  94:	0c 02                	or     $0x2,%al
	...
  9e:	00 00                	add    %al,(%eax)
  a0:	1c 00                	sbb    $0x0,%al
  a2:	00 00                	add    %al,(%eax)
  a4:	02 00                	add    (%eax),%al
  a6:	45                   	inc    %ebp
  a7:	17                   	pop    %ss
  a8:	00 00                	add    %al,(%eax)
  aa:	04 00                	add    $0x0,%al
  ac:	00 00                	add    %al,(%eax)
  ae:	00 00                	add    %al,(%eax)
  b0:	1d 13 10 00 81       	sbb    $0x81001013,%eax
  b5:	07                   	pop    %es
	...
  be:	00 00                	add    %al,(%eax)
  c0:	1c 00                	sbb    $0x0,%al
  c2:	00 00                	add    %al,(%eax)
  c4:	02 00                	add    (%eax),%al
  c6:	72 1b                	jb     e3 <FLAGS+0xe2>
  c8:	00 00                	add    %al,(%eax)
  ca:	04 00                	add    $0x0,%al
  cc:	00 00                	add    %al,(%eax)
  ce:	00 00                	add    %al,(%eax)
  d0:	9e                   	sahf   
  d1:	1a 10                	sbb    (%eax),%dl
  d3:	00 44 01 00          	add    %al,0x0(%ecx,%eax,1)
	...
  df:	00 1c 00             	add    %bl,(%eax,%eax,1)
  e2:	00 00                	add    %al,(%eax)
  e4:	02 00                	add    (%eax),%al
  e6:	b8 1d 00 00 04       	mov    $0x400001d,%eax
  eb:	00 00                	add    %al,(%eax)
  ed:	00 00                	add    %al,(%eax)
  ef:	00 e2                	add    %ah,%dl
  f1:	1b 10                	sbb    (%eax),%edx
  f3:	00 be 00 00 00 00    	add    %bh,0x0(%esi)
  f9:	00 00                	add    %al,(%eax)
  fb:	00 00                	add    %al,(%eax)
  fd:	00 00                	add    %al,(%eax)
  ff:	00 1c 00             	add    %bl,(%eax,%eax,1)
 102:	00 00                	add    %al,(%eax)
 104:	02 00                	add    (%eax),%al
 106:	8a 1f                	mov    (%edi),%bl
 108:	00 00                	add    %al,(%eax)
 10a:	04 00                	add    $0x0,%al
 10c:	00 00                	add    %al,(%eax)
 10e:	00 00                	add    %al,(%eax)
 110:	a0 1c 10 00 3b       	mov    0x3b00101c,%al
 115:	02 00                	add    (%eax),%al
	...
 11f:	00 1c 00             	add    %bl,(%eax,%eax,1)
 122:	00 00                	add    %al,(%eax)
 124:	02 00                	add    (%eax),%al
 126:	3f                   	aas    
 127:	22 00                	and    (%eax),%al
 129:	00 04 00             	add    %al,(%eax,%eax,1)
 12c:	00 00                	add    %al,(%eax)
 12e:	00 00                	add    %al,(%eax)
 130:	db 1e                	fistpl (%esi)
 132:	10 00                	adc    %al,(%eax)
 134:	a3 03 00 00 00       	mov    %eax,0x3
 139:	00 00                	add    %al,(%eax)
 13b:	00 00                	add    %al,(%eax)
 13d:	00 00                	add    %al,(%eax)
	...

Disassembly of section .debug_ranges:

00000000 <.debug_ranges>:
   0:	3c 03                	cmp    $0x3,%al
   2:	00 00                	add    %al,(%eax)
   4:	ab                   	stos   %eax,%es:(%edi)
   5:	03 00                	add    (%eax),%eax
   7:	00 ba 03 00 00 bb    	add    %bh,-0x44fffffd(%edx)
   d:	03 00                	add    (%eax),%eax
	...

Disassembly of section .debug_line:

00000000 <.debug_line>:
   0:	7d 03                	jge    5 <FLAGS+0x4>
   2:	00 00                	add    %al,(%eax)
   4:	03 00                	add    (%eax),%eax
   6:	73 00                	jae    8 <FLAGS+0x7>
   8:	00 00                	add    %al,(%eax)
   a:	01 01                	add    %eax,(%ecx)
   c:	fb                   	sti    
   d:	0e                   	push   %cs
   e:	0d 00 01 01 01       	or     $0x1010100,%eax
  13:	01 00                	add    %eax,(%eax)
  15:	00 00                	add    %al,(%eax)
  17:	01 00                	add    %eax,(%eax)
  19:	00 01                	add    %al,(%ecx)
  1b:	73 72                	jae    8f <FLAGS+0x8e>
  1d:	63 2f                	arpl   %bp,(%edi)
  1f:	6b 65 72 6e          	imul   $0x6e,0x72(%ebp),%esp
  23:	65 6c                	gs insb (%dx),%es:(%edi)
  25:	00 73 72             	add    %dh,0x72(%ebx)
  28:	63 2f                	arpl   %bp,(%edi)
  2a:	6b 65 72 6e          	imul   $0x6e,0x72(%ebp),%esp
  2e:	65 6c                	gs insb (%dx),%es:(%edi)
  30:	2f                   	das    
  31:	2e 2e 2f             	cs cs das 
  34:	63 6f 6d             	arpl   %bp,0x6d(%edi)
  37:	6d                   	insl   (%dx),%es:(%edi)
  38:	6f                   	outsl  %ds:(%esi),(%dx)
  39:	6e                   	outsb  %ds:(%esi),(%dx)
  3a:	00 00                	add    %al,(%eax)
  3c:	6b 68 65 61          	imul   $0x61,0x65(%eax),%ebp
  40:	70 2e                	jo     70 <FLAGS+0x6f>
  42:	63 00                	arpl   %ax,(%eax)
  44:	01 00                	add    %eax,(%eax)
  46:	00 74 79 70          	add    %dh,0x70(%ecx,%edi,2)
  4a:	65 73 2e             	gs jae 7b <FLAGS+0x7a>
  4d:	68 00 02 00 00       	push   $0x200
  52:	6f                   	outsl  %ds:(%esi),(%dx)
  53:	72 64                	jb     b9 <FLAGS+0xb8>
  55:	65 72 65             	gs jb  bd <FLAGS+0xbc>
  58:	64 5f                	fs pop %edi
  5a:	61                   	popa   
  5b:	72 72                	jb     cf <FLAGS+0xce>
  5d:	61                   	popa   
  5e:	79 2e                	jns    8e <FLAGS+0x8d>
  60:	68 00 02 00 00       	push   $0x200
  65:	6b 68 65 61          	imul   $0x61,0x65(%eax),%ebp
  69:	70 2e                	jo     99 <FLAGS+0x98>
  6b:	68 00 01 00 00       	push   $0x100
  70:	70 61                	jo     d3 <FLAGS+0xd2>
  72:	67 69 6e 67 2e 68 00 	imul   $0x100682e,0x67(%bp),%ebp
  79:	01 
  7a:	00 00                	add    %al,(%eax)
  7c:	00 05 32 00 05 02    	add    %al,0x2050032
  82:	19 00                	sbb    %eax,(%eax)
  84:	10 00                	adc    %al,(%eax)
  86:	03 09                	add    (%ecx),%ecx
  88:	01 05 05 83 00 02    	add    %eax,0x2008305
  8e:	04 01                	add    $0x1,%al
  90:	06                   	push   %es
  91:	08 4a 05             	or     %cl,0x5(%edx)
  94:	11 06                	adc    %eax,(%esi)
  96:	08 68 05             	or     %ch,0x5(%eax)
  99:	07                   	pop    %es
  9a:	82 05 0b 4b 75 05 05 	addb   $0x5,0x5754b0b
  a1:	76 00                	jbe    a3 <FLAGS+0xa2>
  a3:	02 04 01             	add    (%ecx,%eax,1),%al
  a6:	06                   	push   %es
  a7:	08 4a 05             	or     %cl,0x5(%edx)
  aa:	1a 06                	sbb    (%esi),%al
  ac:	08 68 05             	or     %ch,0x5(%eax)
  af:	2e 66 05 0b 66       	cs add $0x660b,%ax
  b4:	75 05                	jne    bb <FLAGS+0xba>
  b6:	0a 67 05             	or     0x5(%edi),%ah
  b9:	5f                   	pop    %edi
  ba:	2f                   	das    
  bb:	05 02 74 05 48       	add    $0x48057402,%eax
  c0:	82 05 02 74 05 1b c8 	addb   $0xc8,0x1b057402
  c7:	05 02 66 05 04       	add    $0x4056602,%eax
  cc:	02 22                	add    (%edx),%ah
  ce:	13 05 0a 72 05 1d    	adc    0x1d05720a,%eax
  d4:	86 05 2c 66 05 17    	xchg   %al,0x1705662c
  da:	58                   	pop    %eax
  db:	05 01 67 05 43       	add    $0x43056701,%eax
  e0:	85 05 05 67 f3 08    	test   %eax,0x8f36705
  e6:	13 05 0e f3 05 07    	adc    0x705f30e,%eax
  ec:	58                   	pop    %eax
  ed:	05 05 83 f3 05       	add    $0x5f38305,%eax
  f2:	0f f3 05 1b 66 05 0f 	psllq  0xf05661b,%mm0
  f9:	3c 05                	cmp    $0x5,%al
  fb:	04 08                	add    $0x8,%al
  fd:	59                   	pop    %ecx
  fe:	05 15 67 05 12       	add    $0x12056715,%eax
 103:	08 9f 05 19 82 05    	or     %bl,0x5821905(%edi)
 109:	23 58 05             	and    0x5(%eax),%ebx
 10c:	21 3c 05 2e 2e 05 0c 	and    %edi,0xc052e2e(,%eax,1)
 113:	74 05                	je     11a <FLAGS+0x119>
 115:	09 5a 05             	or     %ebx,0x5(%edx)
 118:	05 85 08 13 05       	add    $0x5130885,%eax
 11d:	0b f3                	or     %ebx,%esi
 11f:	05 2d 00 02 04       	add    $0x402002d,%eax
 124:	01 9e 05 17 00 02    	add    %ebx,0x2001705(%esi)
 12a:	04 01                	add    $0x1,%al
 12c:	9e                   	sahf   
 12d:	05 05 83 f3 08       	add    $0x8f38305,%eax
 132:	13 05 18 f3 e5 05    	adc    0x5e5f318,%eax
 138:	05 e5 f3 08 13       	add    $0x1308f3e5,%eax
 13d:	05 0b f4 05 0c       	add    $0xc05f40b,%eax
 142:	67 05 0f ae 05 1b    	addr16 add $0x1b05ae0f,%eax
 148:	83 05 12 f6 05 01 3f 	addl   $0x3f,0x105f612
 14f:	05 1b 30 05 0c       	add    $0xc05301b,%eax
 154:	67 05 01 08 21 05    	addr16 add $0x5210801,%eax
 15a:	1d 30 05 0c 67       	sbb    $0x670c0530,%eax
 15f:	05 01 08 21 05       	add    $0x5210801,%eax
 164:	2a 30                	sub    (%eax),%dh
 166:	05 0c 67 05 01       	add    $0x105670c,%eax
 16b:	08 2f                	or     %ch,(%edi)
 16d:	05 2b 30 05 0c       	add    $0xc05302b,%eax
 172:	67 05 01 08 2f 05    	addr16 add $0x52f0801,%eax
 178:	4c                   	dec    %esp
 179:	30 05 09 bb 05 0a    	xor    %al,0xa05bb09
 17f:	75 05                	jne    186 <FLAGS+0x185>
 181:	21 2f                	and    %ebp,(%edi)
 183:	05 04 08 59 05       	add    $0x5590804,%eax
 188:	0c 67                	or     $0x67,%al
 18a:	05 0a 67 05 25       	add    $0x2505670a,%eax
 18f:	75 05                	jne    196 <FLAGS+0x195>
 191:	08 66 05             	or     %ah,0x5(%esi)
 194:	1f                   	pop    %ds
 195:	4b                   	dec    %ebx
 196:	05 32 66 05 13       	add    $0x13056632,%eax
 19b:	58                   	pop    %eax
 19c:	05 0a 90 05 22       	add    $0x2205900a,%eax
 1a1:	3d 05 09 66 05       	cmp    $0x5660905,%eax
 1a6:	10 67 05             	adc    %ah,0x5(%edi)
 1a9:	05 3c 05 07 59       	add    $0x5907053c,%eax
 1ae:	05 12 31 05 0b       	add    $0xb053112,%eax
 1b3:	66 05 07 5b          	add    $0x5b07,%ax
 1b7:	05 1a 03 71 4a       	add    $0x4a71031a,%eax
 1bc:	05 0d 66 05 0a       	add    $0xa05660d,%eax
 1c1:	3c 05                	cmp    $0x5,%al
 1c3:	06                   	push   %es
 1c4:	03 0d 66 05 18 25    	add    0x25180566,%ecx
 1ca:	05 0a 66 05 07       	add    $0x705660a,%eax
 1cf:	3c 05                	cmp    $0x5,%al
 1d1:	09 4b 05             	or     %ecx,0x5(%ebx)
 1d4:	0c 76                	or     $0x76,%al
 1d6:	05 01 3d 05 32       	add    $0x32053d01,%eax
 1db:	30 05 1b 3d 05 33    	xor    %al,0x33053d1b
 1e1:	66 05 3e 66          	add    $0x663e,%ax
 1e5:	05 01 59 05 58       	add    $0x58055901,%eax
 1ea:	2f                   	das    
 1eb:	05 1e 08 2f 05       	add    $0x52f081e,%eax
 1f0:	0d c8 05 13 3d       	or     $0x3d1305c8,%eax
 1f5:	05 0b 02 34 13       	add    $0x1334020b,%eax
 1fa:	05 0e 75 05 07       	add    $0x705750e,%eax
 1ff:	66 05 08 4b          	add    $0x4b08,%ax
 203:	75 05                	jne    20a <FLAGS+0x209>
 205:	19 76 05             	sbb    %esi,0x5(%esi)
 208:	17                   	pop    %ss
 209:	91                   	xchg   %eax,%ecx
 20a:	91                   	xchg   %eax,%ecx
 20b:	05 16 91 05 14       	add    $0x14059116,%eax
 210:	9f                   	lahf   
 211:	05 0f a0 05 16       	add    $0x1605a00f,%eax
 216:	67 05 10 82 05 11    	addr16 add $0x11058210,%eax
 21c:	67 05 13 91 05 05    	addr16 add $0x5059113,%eax
 222:	75 05                	jne    229 <FLAGS+0x228>
 224:	0c 08                	or     $0x8,%al
 226:	21 05 01 3e 05 38    	and    %eax,0x38053e01
 22c:	5a                   	pop    %edx
 22d:	05 0b bb 05 0f       	add    $0xf05bb0b,%eax
 232:	91                   	xchg   %eax,%ecx
 233:	05 07 08 83 05       	add    $0x5830807,%eax
 238:	19 9f 05 2d 66 05    	sbb    %ebx,0x5662d05(%edi)
 23e:	08 66 75             	or     %ah,0x75(%esi)
 241:	05 02 91 05 19       	add    $0x19059102,%eax
 246:	08 67 05             	or     %ah,0x5(%edi)
 249:	2d 66 05 08 66       	sub    $0x66080566,%eax
 24e:	05 04 75 05 08       	add    $0x8057504,%eax
 253:	75 05                	jne    25a <FLAGS+0x259>
 255:	18 74 05 07          	sbb    %dh,0x7(%ebp,%eax,1)
 259:	75 05                	jne    260 <FLAGS+0x25f>
 25b:	19 2f                	sbb    %ebp,(%edi)
 25d:	05 0c 08 2e 05       	add    $0x52e080c,%eax
 262:	08 3d 05 09 83 05    	or     %bh,0x5830905
 268:	07                   	pop    %es
 269:	67 68 05 17 03 7a    	addr16 push $0x7a031705
 26f:	4a                   	dec    %edx
 270:	05 0a 66 05 07       	add    $0x705660a,%eax
 275:	3c 05                	cmp    $0x5,%al
 277:	04 52                	add    $0x52,%al
 279:	05 10 67 05 14       	add    $0x14056710,%eax
 27e:	67 05 20 91 05 13    	addr16 add $0x13059120,%eax
 284:	82 05 16 67 05 3c 75 	addb   $0x75,0x3c056716
 28b:	05 35 66 05 43       	add    $0x43056635,%eax
 290:	58                   	pop    %eax
 291:	05 10 3c 05 14       	add    $0x14053c10,%eax
 296:	3d 05 15 91 05       	cmp    $0x5911505,%eax
 29b:	06                   	push   %es
 29c:	91                   	xchg   %eax,%ecx
 29d:	05 19 08 3e 05       	add    $0x53e0819,%eax
 2a2:	13 08                	adc    (%eax),%ecx
 2a4:	4b                   	dec    %ebx
 2a5:	05 21 66 05 13       	add    $0x13056621,%eax
 2aa:	66 05 3a 83          	add    $0x833a,%ax
 2ae:	05 26 66 05 33       	add    $0x33056626,%eax
 2b3:	3c 05                	cmp    $0x5,%al
 2b5:	40                   	inc    %eax
 2b6:	2e 05 10 3c 05 15    	cs add $0x15053c10,%eax
 2bc:	3d 05 14 91 05       	cmp    $0x5911405,%eax
 2c1:	09 93 05 2e 08 a0    	or     %edx,-0x5ff7d1fb(%ebx)
 2c7:	05 0b 08 59 67       	add    $0x6759080b,%eax
 2cc:	05 16 91 05 07       	add    $0x7059116,%eax
 2d1:	66 05 19 59          	add    $0x5919,%ax
 2d5:	05 07 66 05 0b       	add    $0xb056607,%eax
 2da:	3d 05 07 68 05       	cmp    $0x5680705,%eax
 2df:	24 00                	and    $0x0,%al
 2e1:	02 04 01             	add    (%ecx,%eax,1),%al
 2e4:	66 05 13 00          	add    $0x13,%ax
 2e8:	02 04 01             	add    (%ecx,%eax,1),%al
 2eb:	82 05 46 4b 05 08 82 	addb   $0x82,0x8054b46
 2f2:	05 0c 83 05 32       	add    $0x3205830c,%eax
 2f7:	67 05 14 e4 05 15    	addr16 add $0x1505e414,%eax
 2fd:	67 05 17 91 05 3b    	addr16 add $0x3b059117,%eax
 303:	75 05                	jne    30a <FLAGS+0x309>
 305:	0c 66                	or     $0x66,%al
 307:	05 15 3d 05 16       	add    $0x16053d15,%eax
 30c:	91                   	xchg   %eax,%ecx
 30d:	05 10 91 05 2f       	add    $0x2f059110,%eax
 312:	67 05 11 66 05 32    	addr16 add $0x32056611,%eax
 318:	03 76 3c             	add    0x3c(%esi),%esi
 31b:	05 02 03 0c 2e       	add    $0x2e0c0302,%eax
 320:	05 0f 08 30 05       	add    $0x530080f,%eax
 325:	19 67 05             	sbb    %esp,0x5(%edi)
 328:	1b 91 05 18 75 05    	sbb    0x5751805(%ecx),%edx
 32e:	49                   	dec    %ecx
 32f:	91                   	xchg   %eax,%ecx
 330:	05 0f ac 05 19       	add    $0x1905ac0f,%eax
 335:	3d 05 1a 91 05       	cmp    $0x5911a05,%eax
 33a:	07                   	pop    %es
 33b:	91                   	xchg   %eax,%ecx
 33c:	05 43 83 05 48       	add    $0x48058343,%eax
 341:	82 05 0c 3c 05 15 3d 	addb   $0x3d,0x15053c0c
 348:	05 17 91 05 25       	add    $0x25059117,%eax
 34d:	75 05                	jne    354 <FLAGS+0x353>
 34f:	14 82                	adc    $0x82,%al
 351:	05 27 67 05 39       	add    $0x39056727,%eax
 356:	3c 05                	cmp    $0x5,%al
 358:	48                   	dec    %eax
 359:	58                   	pop    %eax
 35a:	05 51 3c 05 0c       	add    $0xc053c51,%eax
 35f:	3c 05                	cmp    $0x5,%al
 361:	1e                   	push   %ds
 362:	3d 05 18 66 05       	cmp    $0x5661805,%eax
 367:	04 3c                	add    $0x3c,%al
 369:	05 19 4b 05 1a       	add    $0x1a054b19,%eax
 36e:	91                   	xchg   %eax,%ecx
 36f:	05 02 92 05 15       	add    $0x15059202,%eax
 374:	08 22                	or     %ah,(%edx)
 376:	05 28 3c 05 01       	add    $0x1053c28,%eax
 37b:	3d 02 02 00 01       	cmp    $0x1000202,%eax
 380:	01 65 02             	add    %esp,0x2(%ebp)
 383:	00 00                	add    %al,(%eax)
 385:	03 00                	add    (%eax),%eax
 387:	99                   	cltd   
 388:	00 00                	add    %al,(%eax)
 38a:	00 01                	add    %al,(%ecx)
 38c:	01 fb                	add    %edi,%ebx
 38e:	0e                   	push   %cs
 38f:	0d 00 01 01 01       	or     $0x1010100,%eax
 394:	01 00                	add    %eax,(%eax)
 396:	00 00                	add    %al,(%eax)
 398:	01 00                	add    %eax,(%eax)
 39a:	00 01                	add    %al,(%ecx)
 39c:	73 72                	jae    410 <FLAGS+0x40f>
 39e:	63 2f                	arpl   %bp,(%edi)
 3a0:	6b 65 72 6e          	imul   $0x6e,0x72(%ebp),%esp
 3a4:	65 6c                	gs insb (%dx),%es:(%edi)
 3a6:	00 73 72             	add    %dh,0x72(%ebx)
 3a9:	63 2f                	arpl   %bp,(%edi)
 3ab:	6b 65 72 6e          	imul   $0x6e,0x72(%ebp),%esp
 3af:	65 6c                	gs insb (%dx),%es:(%edi)
 3b1:	2f                   	das    
 3b2:	2e 2e 2f             	cs cs das 
 3b5:	63 6f 6d             	arpl   %bp,0x6d(%edi)
 3b8:	6d                   	insl   (%dx),%es:(%edi)
 3b9:	6f                   	outsl  %ds:(%esi),(%dx)
 3ba:	6e                   	outsb  %ds:(%esi),(%dx)
 3bb:	00 73 72             	add    %dh,0x72(%ebx)
 3be:	63 2f                	arpl   %bp,(%edi)
 3c0:	6b 65 72 6e          	imul   $0x6e,0x72(%ebp),%esp
 3c4:	65 6c                	gs insb (%dx),%es:(%edi)
 3c6:	2f                   	das    
 3c7:	2e 2e 2f             	cs cs das 
 3ca:	64 72 69             	fs jb  436 <FLAGS+0x435>
 3cd:	76 65                	jbe    434 <FLAGS+0x433>
 3cf:	72 73                	jb     444 <FLAGS+0x443>
 3d1:	00 00                	add    %al,(%eax)
 3d3:	70 61                	jo     436 <FLAGS+0x435>
 3d5:	67 69 6e 67 2e 63 00 	imul   $0x100632e,0x67(%bp),%ebp
 3dc:	01 
 3dd:	00 00                	add    %al,(%eax)
 3df:	74 79                	je     45a <FLAGS+0x459>
 3e1:	70 65                	jo     448 <FLAGS+0x447>
 3e3:	73 2e                	jae    413 <FLAGS+0x412>
 3e5:	68 00 02 00 00       	push   $0x200
 3ea:	69 6e 74 65 72 72 75 	imul   $0x75727265,0x74(%esi),%ebp
 3f1:	70 74                	jo     467 <FLAGS+0x466>
 3f3:	2e 68 00 03 00 00    	cs push $0x300
 3f9:	70 61                	jo     45c <FLAGS+0x45b>
 3fb:	67 69 6e 67 2e 68 00 	imul   $0x100682e,0x67(%bp),%ebp
 402:	01 
 403:	00 00                	add    %al,(%eax)
 405:	6f                   	outsl  %ds:(%esi),(%dx)
 406:	72 64                	jb     46c <FLAGS+0x46b>
 408:	65 72 65             	gs jb  470 <FLAGS+0x46f>
 40b:	64 5f                	fs pop %edi
 40d:	61                   	popa   
 40e:	72 72                	jb     482 <FLAGS+0x481>
 410:	61                   	popa   
 411:	79 2e                	jns    441 <FLAGS+0x440>
 413:	68 00 02 00 00       	push   $0x200
 418:	6b 68 65 61          	imul   $0x61,0x65(%eax),%ebp
 41c:	70 2e                	jo     44c <FLAGS+0x44b>
 41e:	68 00 01 00 00       	push   $0x100
 423:	00 05 29 00 05 02    	add    %al,0x2050029
 429:	06                   	push   %es
 42a:	08 10                	or     %dl,(%eax)
 42c:	00 03                	add    %al,(%ebx)
 42e:	14 01                	adc    $0x1,%al
 430:	05 0b 75 91 91       	add    $0x9191750b,%eax
 435:	05 1a 91 05 22       	add    $0x2205911a,%eax
 43a:	e4 05                	in     $0x5,%al
 43c:	1a f2                	sbb    %dl,%dh
 43e:	05 01 08 13 05       	add    $0x5130801,%eax
 443:	2b 76 05             	sub    0x5(%esi),%esi
 446:	0b 75 91             	or     -0x6f(%ebp),%esi
 449:	91                   	xchg   %eax,%ecx
 44a:	05 1a 91 05 23       	add    $0x2305911a,%eax
 44f:	e4 05                	in     $0x5,%al
 451:	1d d6 05 1a 4a       	sbb    $0x4a1a05d6,%eax
 456:	05 01 08 13 05       	add    $0x5130801,%eax
 45b:	2b 76 05             	sub    0x5(%esi),%esi
 45e:	0b 75 91             	or     -0x6f(%ebp),%esi
 461:	91                   	xchg   %eax,%ecx
 462:	05 1a 91 05 29       	add    $0x2905911a,%eax
 467:	e4 05                	in     $0x5,%al
 469:	22 d6                	and    %dh,%dl
 46b:	05 01 2f 05 23       	add    $0x23052f01,%eax
 470:	68 05 0a 76 05       	push   $0x5760a05
 475:	05 74 05 12 2f       	add    $0x2f120574,%eax
 47a:	05 04 e4 05 0b       	add    $0xb05e404,%eax
 47f:	59                   	pop    %ecx
 480:	05 06 74 05 15       	add    $0x15057406,%eax
 485:	2f                   	das    
 486:	05 20 e4 05 19       	add    $0x1905e420,%eax
 48b:	d6                   	(bad)  
 48c:	05 05 2e 05 0c       	add    $0xc052e05,%eax
 491:	4b                   	dec    %ebx
 492:	05 0f 82 05 14       	add    $0x1405820f,%eax
 497:	00 02                	add    %al,(%edx)
 499:	04 02                	add    $0x2,%al
 49b:	72 05                	jb     4a2 <FLAGS+0x4a1>
 49d:	06                   	push   %es
 49e:	00 02                	add    %al,(%edx)
 4a0:	04 01                	add    $0x1,%al
 4a2:	4a                   	dec    %edx
 4a3:	05 2a 00 02 04       	add    $0x402002a,%eax
 4a8:	02 64 05 10          	add    0x10(%ebp,%eax,1),%ah
 4ac:	00 02                	add    %al,(%edx)
 4ae:	04 01                	add    $0x1,%al
 4b0:	4a                   	dec    %edx
 4b1:	05 05 00 02 04       	add    $0x4020005,%eax
 4b6:	01 82 05 01 03 09    	add    %eax,0x9030105(%edx)
 4bc:	58                   	pop    %eax
 4bd:	05 41 68 05 14       	add    $0x14056841,%eax
 4c2:	67 05 07 9e 05 13    	addr16 add $0x13059e07,%eax
 4c8:	83 05 07 83 05 02 67 	addl   $0x67,0x2058307
 4cf:	f3 05 05 30 05 13    	repz add $0x13053005,%eax
 4d5:	08 21                	or     %ah,(%ecx)
 4d7:	05 20 ad 05 0e       	add    $0xe05ad20,%eax
 4dc:	74 05                	je     4e3 <FLAGS+0x4e2>
 4de:	1f                   	pop    %ds
 4df:	08 2f                	or     %ch,(%edi)
 4e1:	05 10 74 05 11       	add    $0x11057410,%eax
 4e6:	08 67 05             	or     %ah,0x5(%edi)
 4e9:	1a 03                	sbb    (%ebx),%al
 4eb:	76 08                	jbe    4f5 <FLAGS+0x4f4>
 4ed:	e4 05                	in     $0x5,%al
 4ef:	01 03                	add    %eax,(%ebx)
 4f1:	0b 20                	or     (%eax),%esp
 4f3:	05 26 30 05 17       	add    $0x17053026,%eax
 4f8:	67 05 0b 82 05 07    	addr16 add $0x705820b,%eax
 4fe:	3d 05 05 67 05       	cmp    $0x5670505,%eax
 503:	11 ad 05 10 e2 05    	adc    %ebp,0x5e21005(%ebp)
 509:	01 23                	add    %esp,(%ebx)
 50b:	05 14 30 05 0b       	add    $0xb053014,%eax
 510:	67 05 1b 75 05 0d    	addr16 add $0xd05751b,%eax
 516:	66 05 02 5a          	add    $0x5a02,%ax
 51a:	f3 08 13             	repz or %dl,(%ebx)
 51d:	f3 f3 08 13          	repz repz or %dl,(%ebx)
 521:	05 1d f3 05 13       	add    $0x1305f31d,%eax
 526:	08 3c 05 02 5a f3 08 	or     %bh,0x8f35a02(,%eax,1)
 52d:	13 f4                	adc    %esp,%esi
 52f:	f3 08 13             	repz or %dl,(%ebx)
 532:	05 2b f3 05 16       	add    $0x1605f32b,%eax
 537:	f2 05 17 5a 05 05    	repnz add $0x5055a17,%eax
 53d:	9f                   	lahf   
 53e:	f3 08 13             	repz or %dl,(%ebx)
 541:	05 02 f3 f3 08       	add    $0x8f3f302,%eax
 546:	13 05 09 f4 05 0a    	adc    0xa05f409,%eax
 54c:	75 05                	jne    553 <FLAGS+0x552>
 54e:	02 2f                	add    (%edi),%ch
 550:	05 04 02 28 13       	add    $0x13280204,%eax
 555:	05 0c 72 05 0a       	add    $0xa05720c,%eax
 55a:	82 05 05 4e f3 08 13 	addb   $0x13,0x8f34e05
 561:	f3 f3 08 22          	repz repz or %ah,(%edx)
 565:	f3 08 13             	repz or %dl,(%ebx)
 568:	f3 08 13             	repz or %dl,(%ebx)
 56b:	05 0d f3 05 0b       	add    $0xb05f30d,%eax
 570:	08 c8                	or     %cl,%al
 572:	05 01 59 05 33       	add    $0x33055901,%eax
 577:	3e 05 17 67 05 28    	ds add $0x28056717,%eax
 57d:	88 05 07 82 05 05    	mov    %al,0x5058207
 583:	3e 05 09 67 05 05    	ds add $0x5056709,%eax
 589:	75 f3                	jne    57e <FLAGS+0x57d>
 58b:	e5 f3                	in     $0xf3,%eax
 58d:	67 05 01 f3 05 42    	addr16 add $0x4205f301,%eax
 593:	3e 05 0d 67 05 0b    	ds add $0xb05670d,%eax
 599:	91                   	xchg   %eax,%ecx
 59a:	05 18 91 05 07       	add    $0x7059118,%eax
 59f:	90                   	nop
 5a0:	05 1a 4b 05 36       	add    $0x36054b1a,%eax
 5a5:	90                   	nop
 5a6:	05 09 90 05 0e       	add    $0xe059009,%eax
 5ab:	9f                   	lahf   
 5ac:	05 05 a0 f3 08       	add    $0x8f3a005,%eax
 5b1:	13 05 31 f3 05 22    	adc    0x2205f331,%eax
 5b7:	08 3c 05 20 2e 05 05 	or     %bh,0x5052e20(,%eax,1)
 5be:	92                   	xchg   %eax,%edx
 5bf:	f3 08 13             	repz or %dl,(%ebx)
 5c2:	05 29 f3 05 24       	add    $0x2405f329,%eax
 5c7:	82 05 1a e5 05 36 90 	addb   $0x90,0x3605e51a
 5ce:	05 09 90 77 05       	add    $0x5779009,%eax
 5d3:	01 00                	add    %eax,(%eax)
 5d5:	02 04 01             	add    (%ecx,%eax,1),%al
 5d8:	5a                   	pop    %edx
 5d9:	05 23 30 05 05       	add    $0x5053023,%eax
 5de:	68 67 f3 e5 05       	push   $0x5e5f367
 5e3:	01 f4                	add    %esi,%esp
 5e5:	02 03                	add    (%ebx),%al
 5e7:	00 01                	add    %al,(%ecx)
 5e9:	01 b1 00 00 00 03    	add    %esi,0x3000000(%ecx)
 5ef:	00 59 00             	add    %bl,0x0(%ecx)
 5f2:	00 00                	add    %al,(%eax)
 5f4:	01 01                	add    %eax,(%ecx)
 5f6:	fb                   	sti    
 5f7:	0e                   	push   %cs
 5f8:	0d 00 01 01 01       	or     $0x1010100,%eax
 5fd:	01 00                	add    %eax,(%eax)
 5ff:	00 00                	add    %al,(%eax)
 601:	01 00                	add    %eax,(%eax)
 603:	00 01                	add    %al,(%ecx)
 605:	73 72                	jae    679 <FLAGS+0x678>
 607:	63 2f                	arpl   %bp,(%edi)
 609:	6b 65 72 6e          	imul   $0x6e,0x72(%ebp),%esp
 60d:	65 6c                	gs insb (%dx),%es:(%edi)
 60f:	00 73 72             	add    %dh,0x72(%ebx)
 612:	63 2f                	arpl   %bp,(%edi)
 614:	6b 65 72 6e          	imul   $0x6e,0x72(%ebp),%esp
 618:	65 6c                	gs insb (%dx),%es:(%edi)
 61a:	2f                   	das    
 61b:	2e 2e 2f             	cs cs das 
 61e:	63 6f 6d             	arpl   %bp,0x6d(%edi)
 621:	6d                   	insl   (%dx),%es:(%edi)
 622:	6f                   	outsl  %ds:(%esi),(%dx)
 623:	6e                   	outsb  %ds:(%esi),(%dx)
 624:	00 00                	add    %al,(%eax)
 626:	6b 65 72 6e          	imul   $0x6e,0x72(%ebp),%esp
 62a:	65 6c                	gs insb (%dx),%es:(%edi)
 62c:	2e 63 00             	arpl   %ax,%cs:(%eax)
 62f:	01 00                	add    %eax,(%eax)
 631:	00 74 79 70          	add    %dh,0x70(%ecx,%edi,2)
 635:	65 73 2e             	gs jae 666 <FLAGS+0x665>
 638:	68 00 02 00 00       	push   $0x200
 63d:	6d                   	insl   (%dx),%es:(%edi)
 63e:	75 6c                	jne    6ac <FLAGS+0x6ab>
 640:	74 69                	je     6ab <FLAGS+0x6aa>
 642:	62 6f 6f             	bound  %ebp,0x6f(%edi)
 645:	74 2e                	je     675 <FLAGS+0x674>
 647:	68 00 01 00 00       	push   $0x100
 64c:	00 05 2c 00 05 02    	add    %al,0x205002c
 652:	99                   	cltd   
 653:	0e                   	push   %cs
 654:	10 00                	adc    %al,(%eax)
 656:	1a 05 05 08 3e 59    	sbb    0x593e0805,%al
 65c:	f3 59                	repz pop %ecx
 65e:	c9                   	leave  
 65f:	59                   	pop    %ecx
 660:	05 0b f4 05 05       	add    $0x505f40b,%eax
 665:	83 f3 e5             	xor    $0xffffffe5,%ebx
 668:	05 21 f3 05 05       	add    $0x505f321,%eax
 66d:	58                   	pop    %eax
 66e:	05 13 bc 05 05       	add    $0x505bc13,%eax
 673:	69 05 0f 59 05 0b c8 	imul   $0x3d0505c8,0xb05590f,%eax
 67a:	05 05 3d 
 67d:	f3 e5 05             	repz in $0x5,%eax
 680:	0f f3 05 0b c8 05 05 	psllq  0x505c80b,%mm0
 687:	3d f3 e5 05 07       	cmp    $0x705e5f3,%eax
 68c:	f7 05 0c 21 05 0b 75 	testl  $0xa0575,0xb05210c
 693:	05 0a 00 
 696:	02 04 01             	add    (%ecx,%eax,1),%al
 699:	83 02 02             	addl   $0x2,(%edx)
 69c:	00 01                	add    %al,(%ecx)
 69e:	01 bc 00 00 00 03 00 	add    %edi,0x30000(%eax,%eax,1)
 6a5:	4c                   	dec    %esp
 6a6:	00 00                	add    %al,(%eax)
 6a8:	00 01                	add    %al,(%ecx)
 6aa:	01 fb                	add    %edi,%ebx
 6ac:	0e                   	push   %cs
 6ad:	0d 00 01 01 01       	or     $0x1010100,%eax
 6b2:	01 00                	add    %eax,(%eax)
 6b4:	00 00                	add    %al,(%eax)
 6b6:	01 00                	add    %eax,(%eax)
 6b8:	00 01                	add    %al,(%ecx)
 6ba:	73 72                	jae    72e <FLAGS+0x72d>
 6bc:	63 2f                	arpl   %bp,(%edi)
 6be:	62 6f 6f             	bound  %ebp,0x6f(%edi)
 6c1:	74 00                	je     6c3 <FLAGS+0x6c2>
 6c3:	73 72                	jae    737 <FLAGS+0x736>
 6c5:	63 2f                	arpl   %bp,(%edi)
 6c7:	62 6f 6f             	bound  %ebp,0x6f(%edi)
 6ca:	74 2f                	je     6fb <FLAGS+0x6fa>
 6cc:	2e 2e 2f             	cs cs das 
 6cf:	63 6f 6d             	arpl   %bp,0x6d(%edi)
 6d2:	6d                   	insl   (%dx),%es:(%edi)
 6d3:	6f                   	outsl  %ds:(%esi),(%dx)
 6d4:	6e                   	outsb  %ds:(%esi),(%dx)
 6d5:	00 00                	add    %al,(%eax)
 6d7:	67 64 74 2e          	addr16 fs je 709 <FLAGS+0x708>
 6db:	63 00                	arpl   %ax,(%eax)
 6dd:	01 00                	add    %eax,(%eax)
 6df:	00 74 79 70          	add    %dh,0x70(%ecx,%edi,2)
 6e3:	65 73 2e             	gs jae 714 <FLAGS+0x713>
 6e6:	68 00 02 00 00       	push   $0x200
 6eb:	67 64 74 2e          	addr16 fs je 71d <FLAGS+0x71c>
 6ef:	68 00 01 00 00       	push   $0x100
 6f4:	00 05 4f 00 05 02    	add    %al,0x205004f
 6fa:	cc                   	int3   
 6fb:	0f 10 00             	movups (%eax),%xmm0
 6fe:	18 05 13 08 75 05    	sbb    %al,0x5750813
 704:	1d 4a 05 28 ad       	sbb    $0xad28054a,%eax
 709:	05 13 82 05 20       	add    $0x20058213,%eax
 70e:	4a                   	dec    %edx
 70f:	05 2d 75 05 13       	add    $0x1305752d,%eax
 714:	82 05 1e 4a 05 13 76 	addb   $0x76,0x13054a1e
 71b:	05 1e 4a 05 29       	add    $0x29054a1e,%eax
 720:	ad                   	lods   %ds:(%esi),%eax
 721:	05 30 66 05 13       	add    $0x13056630,%eax
 726:	2e 05 30 4a 05 20    	cs add $0x20054a30,%eax
 72c:	3c 75                	cmp    $0x75,%al
 72e:	05 28 d6 05 20       	add    $0x2005d628,%eax
 733:	74 05                	je     73a <FLAGS+0x739>
 735:	13 c9                	adc    %ecx,%ecx
 737:	05 1b 4a 05 01       	add    $0x1054a1b,%eax
 73c:	af                   	scas   %es:(%edi),%eax
 73d:	05 11 3e 05 10       	add    $0x10053e11,%eax
 742:	67 05 0e 58 05 0f    	addr16 add $0xf05580e,%eax
 748:	59                   	pop    %ecx
 749:	05 05 92 08 21       	add    $0x21089205,%eax
 74e:	08 75 08             	or     %dh,0x8(%ebp)
 751:	75 08                	jne    75b <FLAGS+0x75a>
 753:	75 08                	jne    75d <FLAGS+0x75c>
 755:	75 05                	jne    75c <FLAGS+0x75b>
 757:	01 08                	add    %ecx,(%eax)
 759:	13 02                	adc    (%edx),%eax
 75b:	03 00                	add    (%eax),%eax
 75d:	01 01                	add    %eax,(%ecx)
 75f:	39 01                	cmp    %eax,(%ecx)
 761:	00 00                	add    %al,(%eax)
 763:	03 00                	add    (%eax),%eax
 765:	48                   	dec    %eax
 766:	00 00                	add    %al,(%eax)
 768:	00 01                	add    %al,(%ecx)
 76a:	01 fb                	add    %edi,%ebx
 76c:	0e                   	push   %cs
 76d:	0d 00 01 01 01       	or     $0x1010100,%eax
 772:	01 00                	add    %eax,(%eax)
 774:	00 00                	add    %al,(%eax)
 776:	01 00                	add    %eax,(%eax)
 778:	00 01                	add    %al,(%ecx)
 77a:	73 72                	jae    7ee <FLAGS+0x7ed>
 77c:	63 2f                	arpl   %bp,(%edi)
 77e:	64 72 69             	fs jb  7ea <FLAGS+0x7e9>
 781:	76 65                	jbe    7e8 <FLAGS+0x7e7>
 783:	72 73                	jb     7f8 <FLAGS+0x7f7>
 785:	00 73 72             	add    %dh,0x72(%ebx)
 788:	63 2f                	arpl   %bp,(%edi)
 78a:	64 72 69             	fs jb  7f6 <FLAGS+0x7f5>
 78d:	76 65                	jbe    7f4 <FLAGS+0x7f3>
 78f:	72 73                	jb     804 <FLAGS+0x803>
 791:	2f                   	das    
 792:	2e 2e 2f             	cs cs das 
 795:	63 6f 6d             	arpl   %bp,0x6d(%edi)
 798:	6d                   	insl   (%dx),%es:(%edi)
 799:	6f                   	outsl  %ds:(%esi),(%dx)
 79a:	6e                   	outsb  %ds:(%esi),(%dx)
 79b:	00 00                	add    %al,(%eax)
 79d:	69 6f 2e 63 00 01 00 	imul   $0x10063,0x2e(%edi),%ebp
 7a4:	00 74 79 70          	add    %dh,0x70(%ecx,%edi,2)
 7a8:	65 73 2e             	gs jae 7d9 <FLAGS+0x7d8>
 7ab:	68 00 02 00 00       	push   $0x200
 7b0:	00 05 17 00 05 02    	add    %al,0x2050017
 7b6:	11 11                	adc    %edx,(%ecx)
 7b8:	10 00                	adc    %al,(%eax)
 7ba:	03 09                	add    (%ecx),%ecx
 7bc:	01 05 05 68 05 0b    	add    %eax,0xb056805
 7c2:	08 21                	or     %ah,(%ecx)
 7c4:	05 09 08 2e 05       	add    $0x52e0809,%eax
 7c9:	05 75 05 0c 08       	add    $0x80c0575,%eax
 7ce:	21 05 09 08 2e 05    	and    %eax,0x52e0809
 7d4:	0c 4b                	or     $0x4b,%al
 7d6:	05 01 4b 05 24       	add    $0x24054b01,%eax
 7db:	30 05 05 c9 08 21    	xor    %al,0x2108c905
 7e1:	08 ad 08 21 05 01    	or     %ch,0x1052108(%ebp)
 7e7:	08 76 05             	or     %dh,0x5(%esi)
 7ea:	30 3e                	xor    %bh,(%esi)
 7ec:	05 0c 08 2f 05       	add    $0x52f080c,%eax
 7f1:	2a 75 05             	sub    0x5(%ebp),%dh
 7f4:	07                   	pop    %es
 7f5:	9e                   	sahf   
 7f6:	05 12 ba 05 01       	add    $0x105ba12,%eax
 7fb:	3e 05 21 3e 05 0b    	ds add $0xb053e21,%eax
 801:	c9                   	leave  
 802:	05 07 75 05 2d       	add    $0x2d057507,%eax
 807:	00 02                	add    %al,(%edx)
 809:	04 01                	add    $0x1,%al
 80b:	82 05 0d 67 05 05 74 	addb   $0x74,0x505670d
 812:	05 3e 00 02 04       	add    $0x402003e,%eax
 817:	03 2f                	add    (%edi),%ebp
 819:	05 29 00 02 04       	add    $0x4020029,%eax
 81e:	03 e4                	add    %esp,%esp
 820:	05 23 00 02 04       	add    $0x4020023,%eax
 825:	03 66 05             	add    0x5(%esi),%esp
 828:	20 00                	and    %al,(%eax)
 82a:	02 04 03             	add    (%ebx,%eax,1),%al
 82d:	66 05 0b 00          	add    $0xb,%ax
 831:	02 04 03             	add    (%ebx,%eax,1),%al
 834:	ba 05 02 00 02       	mov    $0x2000205,%edx
 839:	04 03                	add    $0x3,%al
 83b:	58                   	pop    %eax
 83c:	05 20 00 02 04       	add    $0x4020020,%eax
 841:	03 08                	add    (%eax),%ecx
 843:	1f                   	pop    %ds
 844:	05 05 00 02 04       	add    $0x4020005,%eax
 849:	01 4a 05             	add    %ecx,0x5(%edx)
 84c:	0c 69                	or     $0x69,%al
 84e:	05 01 59 05 31       	add    $0x31055901,%eax
 853:	30 05 0a 3d 05 13    	xor    %al,0x13053d0a
 859:	2f                   	das    
 85a:	05 08 90 05 0e       	add    $0xe059008,%eax
 85f:	90                   	nop
 860:	05 0c 3c 05 05       	add    $0x5053c0c,%eax
 865:	2f                   	das    
 866:	05 0a 48 05 01       	add    $0x105480a,%eax
 86b:	6a 05                	push   $0x5
 86d:	35 4c 05 0a bb       	xor    $0xbb0a054c,%eax
 872:	05 08 2f 05 0c       	add    $0xc052f08,%eax
 877:	90                   	nop
 878:	05 05 67 05 0a       	add    $0xa056705,%eax
 87d:	48                   	dec    %eax
 87e:	05 01 6a 05 22       	add    $0x22056a01,%eax
 883:	4c                   	dec    %esp
 884:	05 05 08 4b 05       	add    $0x54b0805,%eax
 889:	01 92 05 16 3e 05    	add    %edx,0x53e1605(%edx)
 88f:	05 ca 05 0c 9f       	add    $0x9f0c05ca,%eax
 894:	05 01 4b 02 02       	add    $0x2024b01,%eax
 899:	00 01                	add    %al,(%ecx)
 89b:	01 b5 01 00 00 03    	add    %esi,0x3000001(%ebp)
 8a1:	00 5e 00             	add    %bl,0x0(%esi)
 8a4:	00 00                	add    %al,(%eax)
 8a6:	01 01                	add    %eax,(%ecx)
 8a8:	fb                   	sti    
 8a9:	0e                   	push   %cs
 8aa:	0d 00 01 01 01       	or     $0x1010100,%eax
 8af:	01 00                	add    %eax,(%eax)
 8b1:	00 00                	add    %al,(%eax)
 8b3:	01 00                	add    %eax,(%eax)
 8b5:	00 01                	add    %al,(%ecx)
 8b7:	73 72                	jae    92b <FLAGS+0x92a>
 8b9:	63 2f                	arpl   %bp,(%edi)
 8bb:	64 72 69             	fs jb  927 <FLAGS+0x926>
 8be:	76 65                	jbe    925 <FLAGS+0x924>
 8c0:	72 73                	jb     935 <FLAGS+0x934>
 8c2:	00 73 72             	add    %dh,0x72(%ebx)
 8c5:	63 2f                	arpl   %bp,(%edi)
 8c7:	64 72 69             	fs jb  933 <FLAGS+0x932>
 8ca:	76 65                	jbe    931 <FLAGS+0x930>
 8cc:	72 73                	jb     941 <FLAGS+0x940>
 8ce:	2f                   	das    
 8cf:	2e 2e 2f             	cs cs das 
 8d2:	63 6f 6d             	arpl   %bp,0x6d(%edi)
 8d5:	6d                   	insl   (%dx),%es:(%edi)
 8d6:	6f                   	outsl  %ds:(%esi),(%dx)
 8d7:	6e                   	outsb  %ds:(%esi),(%dx)
 8d8:	00 00                	add    %al,(%eax)
 8da:	69 6e 74 65 72 72 75 	imul   $0x75727265,0x74(%esi),%ebp
 8e1:	70 74                	jo     957 <FLAGS+0x956>
 8e3:	2e 63 00             	arpl   %ax,%cs:(%eax)
 8e6:	01 00                	add    %eax,(%eax)
 8e8:	00 74 79 70          	add    %dh,0x70(%ecx,%edi,2)
 8ec:	65 73 2e             	gs jae 91d <FLAGS+0x91c>
 8ef:	68 00 02 00 00       	push   $0x200
 8f4:	69 6e 74 65 72 72 75 	imul   $0x75727265,0x74(%esi),%ebp
 8fb:	70 74                	jo     971 <FLAGS+0x970>
 8fd:	2e 68 00 01 00 00    	cs push $0x100
 903:	00 05 31 00 05 02    	add    %al,0x2050031
 909:	1d 13 10 00 03       	sbb    $0x3001013,%eax
 90e:	0e                   	push   %cs
 90f:	01 05 05 59 05 01    	add    %eax,0x1055905
 915:	08 13                	or     %dl,(%ebx)
 917:	05 22 5a 05 05       	add    $0x5055a22,%eax
 91c:	69 05 0c 08 22 05 07 	imul   $0x2058207,0x522080c,%eax
 923:	82 05 02 
 926:	4b                   	dec    %ebx
 927:	05 09 f3 05 04       	add    $0x405f309,%eax
 92c:	66 05 06 4b          	add    $0x4b06,%ax
 930:	59                   	pop    %ecx
 931:	05 01 f8 05 06       	add    $0x605f801,%eax
 936:	2a 05 01 f6 05 18    	sub    0x1805f601,%al
 93c:	3f                   	aas    
 93d:	05 05 68 59 e5       	add    $0xe5596805,%eax
 942:	08 21                	or     %ah,(%ecx)
 944:	e5 08                	in     $0x8,%eax
 946:	21 e5                	and    %esp,%ebp
 948:	08 21                	or     %ah,(%ecx)
 94a:	e5 08                	in     $0x8,%eax
 94c:	21 e5                	and    %esp,%ebp
 94e:	08 21                	or     %ah,(%ecx)
 950:	05 01 21 05 2b       	add    $0x2b052101,%eax
 955:	3e 05 07 67 05 26    	ds add $0x26056707,%eax
 95b:	00 02                	add    %al,(%edx)
 95d:	04 01                	add    $0x1,%al
 95f:	66 05 07 69          	add    $0x6907,%ax
 963:	05 02 67 08 14       	add    $0x14086702,%eax
 968:	08 37                	or     %dh,(%edi)
 96a:	05 01 27 05 48       	add    $0x48052701,%eax
 96f:	30 05 1d 08 4b 05    	xor    %al,0x54b081d
 975:	2d f3 05 1e 66       	sub    $0x661e05f3,%eax
 97a:	05 1c c9 e5 05       	add    $0x5e5c91c,%eax
 97f:	1a ad 05 01 d7 05    	sbb    0x5d70105(%ebp),%ch
 985:	11 3e                	adc    %edi,(%esi)
 987:	05 0f 67 05 10       	add    $0x1005670f,%eax
 98c:	91                   	xchg   %eax,%ecx
 98d:	05 0e 58 05 05       	add    $0x505580e,%eax
 992:	5a                   	pop    %edx
 993:	5a                   	pop    %edx
 994:	08 67 08             	or     %ah,0x8(%edi)
 997:	67 08 67 08          	or     %ah,0x8(%bx)
 99b:	67 08 67 08          	or     %ah,0x8(%bx)
 99f:	67 08 67 08          	or     %ah,0x8(%bx)
 9a3:	67 08 67 08          	or     %ah,0x8(%bx)
 9a7:	67 08 67 08          	or     %ah,0x8(%bx)
 9ab:	67 08 67 08          	or     %ah,0x8(%bx)
 9af:	67 08 67 08          	or     %ah,0x8(%bx)
 9b3:	67 08 67 08          	or     %ah,0x8(%bx)
 9b7:	67 08 67 08          	or     %ah,0x8(%bx)
 9bb:	67 08 67 08          	or     %ah,0x8(%bx)
 9bf:	67 08 67 08          	or     %ah,0x8(%bx)
 9c3:	67 08 67 08          	or     %ah,0x8(%bx)
 9c7:	67 08 67 08          	or     %ah,0x8(%bx)
 9cb:	67 08 67 08          	or     %ah,0x8(%bx)
 9cf:	67 08 67 08          	or     %ah,0x8(%bx)
 9d3:	67 08 67 08          	or     %ah,0x8(%bx)
 9d7:	67 08 67 08          	or     %ah,0x8(%bx)
 9db:	67 08 67 08          	or     %ah,0x8(%bx)
 9df:	67 08 67 08          	or     %ah,0x8(%bx)
 9e3:	67 08 67 08          	or     %ah,0x8(%bx)
 9e7:	67 08 67 08          	or     %ah,0x8(%bx)
 9eb:	67 08 67 08          	or     %ah,0x8(%bx)
 9ef:	67 08 68 05          	or     %ch,0x5(%bx,%si)
 9f3:	01 08                	add    %ecx,(%eax)
 9f5:	14 05                	adc    $0x5,%al
 9f7:	24 3e                	and    $0x3e,%al
 9f9:	05 26 67 05 21       	add    $0x21056726,%eax
 9fe:	3c 05                	cmp    $0x5,%al
 a00:	07                   	pop    %es
 a01:	74 05                	je     a08 <FLAGS+0xa07>
 a03:	3e 4b                	ds dec %ebx
 a05:	05 16 3c 05 02       	add    $0x2053c16,%eax
 a0a:	9f                   	lahf   
 a0b:	05 01 02 38 18       	add    $0x18380201,%eax
 a10:	05 02 2a 05 14       	add    $0x14052a02,%eax
 a15:	f3 05 02 3c bb 05    	repz add $0x5bb3c02,%eax
 a1b:	01 f4                	add    %esi,%esp
 a1d:	05 24 3e 05 05       	add    $0x5053e24,%eax
 a22:	67 05 26 e5 05 21    	addr16 add $0x2105e526,%eax
 a28:	3c 05                	cmp    $0x5,%al
 a2a:	07                   	pop    %es
 a2b:	74 05                	je     a32 <FLAGS+0xa31>
 a2d:	3e 4b                	ds dec %ebx
 a2f:	05 16 3c 05 02       	add    $0x2053c16,%eax
 a34:	9f                   	lahf   
 a35:	05 01 02 38 19       	add    $0x19380201,%eax
 a3a:	05 02 29 05 14       	add    $0x14052902,%eax
 a3f:	f3 05 02 3c bb 05    	repz add $0x5bb3c02,%eax
 a45:	01 f5                	add    %esi,%ebp
 a47:	05 4c 3e 05 27       	add    $0x27053e4c,%eax
 a4c:	3d 05 01 c9 02       	cmp    $0x2c90105,%eax
 a51:	03 00                	add    (%eax),%eax
 a53:	01 01                	add    %eax,(%ecx)
 a55:	da 00                	fiaddl (%eax)
 a57:	00 00                	add    %al,(%eax)
 a59:	03 00                	add    (%eax),%eax
 a5b:	5d                   	pop    %ebp
 a5c:	00 00                	add    %al,(%eax)
 a5e:	00 01                	add    %al,(%ecx)
 a60:	01 fb                	add    %edi,%ebx
 a62:	0e                   	push   %cs
 a63:	0d 00 01 01 01       	or     $0x1010100,%eax
 a68:	01 00                	add    %eax,(%eax)
 a6a:	00 00                	add    %al,(%eax)
 a6c:	01 00                	add    %eax,(%eax)
 a6e:	00 01                	add    %al,(%ecx)
 a70:	73 72                	jae    ae4 <FLAGS+0xae3>
 a72:	63 2f                	arpl   %bp,(%edi)
 a74:	64 72 69             	fs jb  ae0 <FLAGS+0xadf>
 a77:	76 65                	jbe    ade <FLAGS+0xadd>
 a79:	72 73                	jb     aee <FLAGS+0xaed>
 a7b:	00 73 72             	add    %dh,0x72(%ebx)
 a7e:	63 2f                	arpl   %bp,(%edi)
 a80:	64 72 69             	fs jb  aec <FLAGS+0xaeb>
 a83:	76 65                	jbe    aea <FLAGS+0xae9>
 a85:	72 73                	jb     afa <FLAGS+0xaf9>
 a87:	2f                   	das    
 a88:	2e 2e 2f             	cs cs das 
 a8b:	63 6f 6d             	arpl   %bp,0x6d(%edi)
 a8e:	6d                   	insl   (%dx),%es:(%edi)
 a8f:	6f                   	outsl  %ds:(%esi),(%dx)
 a90:	6e                   	outsb  %ds:(%esi),(%dx)
 a91:	00 00                	add    %al,(%eax)
 a93:	6b 65 79 62          	imul   $0x62,0x79(%ebp),%esp
 a97:	6f                   	outsl  %ds:(%esi),(%dx)
 a98:	61                   	popa   
 a99:	72 64                	jb     aff <FLAGS+0xafe>
 a9b:	2e 63 00             	arpl   %ax,%cs:(%eax)
 a9e:	01 00                	add    %eax,(%eax)
 aa0:	00 74 79 70          	add    %dh,0x70(%ecx,%edi,2)
 aa4:	65 73 2e             	gs jae ad5 <FLAGS+0xad4>
 aa7:	68 00 02 00 00       	push   $0x200
 aac:	69 6e 74 65 72 72 75 	imul   $0x75727265,0x74(%esi),%ebp
 ab3:	70 74                	jo     b29 <FLAGS+0xb28>
 ab5:	2e 68 00 01 00 00    	cs push $0x100
 abb:	00 05 16 00 05 02    	add    %al,0x2050016
 ac1:	9e                   	sahf   
 ac2:	1a 10                	sbb    (%eax),%dl
 ac4:	00 03                	add    %al,(%ebx)
 ac6:	16                   	push   %ss
 ac7:	01 05 05 67 05 01    	add    %eax,0x1056705
 acd:	08 23                	or     %ah,(%ebx)
 acf:	05 2b 3e 05 05       	add    $0x5053e2b,%eax
 ad4:	67 05 17 f3 05 05    	addr16 add $0x505f317,%eax
 ada:	3c bb                	cmp    $0xbb,%al
 adc:	05 08 f4 05 1e       	add    $0x1e05f408,%eax
 ae1:	58                   	pop    %eax
 ae2:	05 07 66 05 09       	add    $0x9056607,%eax
 ae7:	4b                   	dec    %ebx
 ae8:	05 07 58 05 02       	add    $0x2055807,%eax
 aed:	67 f3 d7             	repz xlat %ds:(%bx)
 af0:	f3 d7                	repz xlat %ds:(%ebx)
 af2:	05 01 f4 05 19       	add    $0x1905f401,%eax
 af7:	3e 05 01 3d 05 23    	ds add $0x23053d01,%eax
 afd:	3e 05 0c 67 05 01    	ds add $0x105670c,%eax
 b03:	c9                   	leave  
 b04:	05 28 30 05 05       	add    $0x5053028,%eax
 b09:	bc 05 04 58 05       	mov    $0x5580405,%esp
 b0e:	27                   	daa    
 b0f:	34 05                	xor    $0x5,%al
 b11:	05 bc 05 04 58       	add    $0x580405bc,%eax
 b16:	05 1f 35 05 0c       	add    $0xc05351f,%eax
 b1b:	67 05 01 c9 05 26    	addr16 add $0x2605c901,%eax
 b21:	30 05 05 bb 05 19    	xor    %al,0x1905bb05
 b27:	f3 05 05 74 05 01    	repz add $0x1057405,%eax
 b2d:	e5 02                	in     $0x2,%eax
 b2f:	03 00                	add    (%eax),%eax
 b31:	01 01                	add    %eax,(%ecx)
 b33:	a0 00 00 00 03       	mov    0x3000000,%al
 b38:	00 5a 00             	add    %bl,0x0(%edx)
 b3b:	00 00                	add    %al,(%eax)
 b3d:	01 01                	add    %eax,(%ecx)
 b3f:	fb                   	sti    
 b40:	0e                   	push   %cs
 b41:	0d 00 01 01 01       	or     $0x1010100,%eax
 b46:	01 00                	add    %eax,(%eax)
 b48:	00 00                	add    %al,(%eax)
 b4a:	01 00                	add    %eax,(%eax)
 b4c:	00 01                	add    %al,(%ecx)
 b4e:	73 72                	jae    bc2 <FLAGS+0xbc1>
 b50:	63 2f                	arpl   %bp,(%edi)
 b52:	64 72 69             	fs jb  bbe <FLAGS+0xbbd>
 b55:	76 65                	jbe    bbc <FLAGS+0xbbb>
 b57:	72 73                	jb     bcc <FLAGS+0xbcb>
 b59:	00 73 72             	add    %dh,0x72(%ebx)
 b5c:	63 2f                	arpl   %bp,(%edi)
 b5e:	64 72 69             	fs jb  bca <FLAGS+0xbc9>
 b61:	76 65                	jbe    bc8 <FLAGS+0xbc7>
 b63:	72 73                	jb     bd8 <FLAGS+0xbd7>
 b65:	2f                   	das    
 b66:	2e 2e 2f             	cs cs das 
 b69:	63 6f 6d             	arpl   %bp,0x6d(%edi)
 b6c:	6d                   	insl   (%dx),%es:(%edi)
 b6d:	6f                   	outsl  %ds:(%esi),(%dx)
 b6e:	6e                   	outsb  %ds:(%esi),(%dx)
 b6f:	00 00                	add    %al,(%eax)
 b71:	74 69                	je     bdc <FLAGS+0xbdb>
 b73:	6d                   	insl   (%dx),%es:(%edi)
 b74:	65 72 2e             	gs jb  ba5 <FLAGS+0xba4>
 b77:	63 00                	arpl   %ax,(%eax)
 b79:	01 00                	add    %eax,(%eax)
 b7b:	00 74 79 70          	add    %dh,0x70(%ecx,%edi,2)
 b7f:	65 73 2e             	gs jae bb0 <FLAGS+0xbaf>
 b82:	68 00 02 00 00       	push   $0x200
 b87:	69 6e 74 65 72 72 75 	imul   $0x75727265,0x74(%esi),%ebp
 b8e:	70 74                	jo     c04 <FLAGS+0xc03>
 b90:	2e 68 00 01 00 00    	cs push $0x100
 b96:	00 05 2e 00 05 02    	add    %al,0x205002e
 b9c:	e2 1b                	loop   bb9 <FLAGS+0xbb8>
 b9e:	10 00                	adc    %al,(%eax)
 ba0:	19 05 09 67 05 0d    	sbb    %eax,0xd056709
 ba6:	c9                   	leave  
 ba7:	05 07 58 05 09       	add    $0x9055807,%eax
 bac:	59                   	pop    %ecx
 bad:	f3 08 13             	repz or %dl,(%ebx)
 bb0:	05 01 f5 05 22       	add    $0x2205f501,%eax
 bb5:	3e 05 05 67 05 0b    	ds add $0xb056705,%eax
 bbb:	08 21                	or     %ah,(%ecx)
 bbd:	05 05 f3 05 0a       	add    $0xa05f305,%eax
 bc2:	e5 05                	in     $0x5,%eax
 bc4:	1e                   	push   %ds
 bc5:	67 05 0a 66 05 05    	addr16 add $0x505660a,%eax
 bcb:	3d 08 21 05 01       	cmp    $0x1052108,%eax
 bd0:	08 22                	or     %ah,(%edx)
 bd2:	02 03                	add    (%ebx),%al
 bd4:	00 01                	add    %al,(%ecx)
 bd6:	01 72 01             	add    %esi,0x1(%edx)
 bd9:	00 00                	add    %al,(%eax)
 bdb:	03 00                	add    (%eax),%eax
 bdd:	4f                   	dec    %edi
 bde:	00 00                	add    %al,(%eax)
 be0:	00 01                	add    %al,(%ecx)
 be2:	01 fb                	add    %edi,%ebx
 be4:	0e                   	push   %cs
 be5:	0d 00 01 01 01       	or     $0x1010100,%eax
 bea:	01 00                	add    %eax,(%eax)
 bec:	00 00                	add    %al,(%eax)
 bee:	01 00                	add    %eax,(%eax)
 bf0:	00 01                	add    %al,(%ecx)
 bf2:	73 72                	jae    c66 <FLAGS+0xc65>
 bf4:	63 2f                	arpl   %bp,(%edi)
 bf6:	63 6f 6d             	arpl   %bp,0x6d(%edi)
 bf9:	6d                   	insl   (%dx),%es:(%edi)
 bfa:	6f                   	outsl  %ds:(%esi),(%dx)
 bfb:	6e                   	outsb  %ds:(%esi),(%dx)
 bfc:	00 00                	add    %al,(%eax)
 bfe:	6f                   	outsl  %ds:(%esi),(%dx)
 bff:	72 64                	jb     c65 <FLAGS+0xc64>
 c01:	65 72 65             	gs jb  c69 <FLAGS+0xc68>
 c04:	64 5f                	fs pop %edi
 c06:	61                   	popa   
 c07:	72 72                	jb     c7b <FLAGS+0xc7a>
 c09:	61                   	popa   
 c0a:	79 2e                	jns    c3a <FLAGS+0xc39>
 c0c:	63 00                	arpl   %ax,(%eax)
 c0e:	01 00                	add    %eax,(%eax)
 c10:	00 74 79 70          	add    %dh,0x70(%ecx,%edi,2)
 c14:	65 73 2e             	gs jae c45 <FLAGS+0xc44>
 c17:	68 00 01 00 00       	push   $0x100
 c1c:	6f                   	outsl  %ds:(%esi),(%dx)
 c1d:	72 64                	jb     c83 <FLAGS+0xc82>
 c1f:	65 72 65             	gs jb  c87 <FLAGS+0xc86>
 c22:	64 5f                	fs pop %edi
 c24:	61                   	popa   
 c25:	72 72                	jb     c99 <FLAGS+0xc98>
 c27:	61                   	popa   
 c28:	79 2e                	jns    c58 <FLAGS+0xc57>
 c2a:	68 00 01 00 00       	push   $0x100
 c2f:	00 05 24 00 05 02    	add    %al,0x2050024
 c35:	a0 1c 10 00 15       	mov    0x1500101c,%al
 c3a:	05 18 3d 05 01       	add    $0x1053d18,%eax
 c3f:	91                   	xchg   %eax,%ecx
 c40:	05 4d 30 05 1e       	add    $0x1e05304d,%eax
 c45:	68 05 12 08 20       	push   $0x20081205
 c4a:	05 05 3d 05 1b       	add    $0x1b053d05,%eax
 c4f:	9e                   	sahf   
 c50:	05 05 3c 05 11       	add    $0x11053c05,%eax
 c55:	e5 05                	in     $0x5,%eax
 c57:	15 75 05 16 67       	adc    $0x67160575,%eax
 c5c:	05 0c 67 05 01       	add    $0x105670c,%eax
 c61:	08 92 05 57 76 05    	or     %dl,0x5765705(%edx)
 c67:	12 68 05             	adc    0x5(%eax),%ch
 c6a:	05 67 05 1b 9e       	add    $0x9e1b0567,%eax
 c6f:	05 05 3c 05 11       	add    $0x11053c05,%eax
 c74:	e5 05                	in     $0x5,%eax
 c76:	15 75 05 16 67       	adc    $0x67160575,%eax
 c7b:	05 0c 67 05 01       	add    $0x105670c,%eax
 c80:	08 92 05 40 76 05    	or     %dl,0x5764005(%edx)
 c86:	05 67 00 02 04       	add    $0x4020067,%eax
 c8b:	01 06                	add    %eax,(%esi)
 c8d:	f2 05 0d 06 08 67    	repnz add $0x6708060d,%eax
 c93:	05 1c 66 05 07       	add    $0x705661c,%eax
 c98:	66 05 09 83          	add    $0x8309,%ax
 c9c:	05 0a 75 05 03       	add    $0x305750a,%eax
 ca1:	2f                   	das    
 ca2:	05 14 49 05 0d       	add    $0xd054914,%eax
 ca7:	66 05 0a 3c          	add    $0x3c0a,%ax
 cab:	05 23 00 02 04       	add    $0x4020023,%eax
 cb0:	01 4a 05             	add    %ecx,0x5(%edx)
 cb3:	34 00                	xor    $0x0,%al
 cb5:	02 04 01             	add    (%ecx,%eax,1),%al
 cb8:	66 05 3b 00          	add    $0x3b,%ax
 cbc:	02 04 01             	add    (%ecx,%eax,1),%al
 cbf:	58                   	pop    %eax
 cc0:	05 1e 00 02 04       	add    $0x402001e,%eax
 cc5:	01 82 05 1b 00 02    	add    %eax,0x2001b05(%edx)
 ccb:	04 01                	add    $0x1,%al
 ccd:	d6                   	(bad)  
 cce:	05 12 4c 05 09       	add    $0x9054c12,%eax
 cd3:	66 05 0a 3d          	add    $0x3d0a,%ax
 cd7:	05 19 2f 05 20       	add    $0x20052f19,%eax
 cdc:	58                   	pop    %eax
 cdd:	05 07 e4 05 0e       	add    $0xe05e407,%eax
 ce2:	58                   	pop    %eax
 ce3:	05 20 82 05 12       	add    $0x12058220,%eax
 ce8:	2e 05 03 2f 05 0a    	cs add $0xa052f03,%eax
 cee:	48                   	dec    %eax
 cef:	86 05 11 58 05 15    	xchg   %al,0x15055811
 cf5:	82 05 0a 59 05 10 66 	addb   $0x66,0x1005590a
 cfc:	05 28 03 76 ac       	add    $0xac760328,%eax
 d01:	05 01 03 0b 20       	add    $0x200b0301,%eax
 d06:	05 3e 30 05 05       	add    $0x505303e,%eax
 d0b:	67 00 02             	add    %al,(%bp,%si)
 d0e:	04 01                	add    $0x1,%al
 d10:	06                   	push   %es
 d11:	ac                   	lods   %ds:(%esi),%al
 d12:	05 11 06 08 67       	add    $0x67080611,%eax
 d17:	05 18 58 05 01       	add    $0x1055818,%eax
 d1c:	a0 05 3c 30 05       	mov    0x5303c05,%al
 d21:	0a 3d 05 19 2f 05    	or     0x52f1905,%bh
 d27:	20 58 05             	and    %bl,0x5(%eax)
 d2a:	07                   	pop    %es
 d2b:	ba 05 0e 58 05       	mov    $0x5580e05,%edx
 d30:	20 82 05 12 2e 05    	and    %al,0x52e1205(%edx)
 d36:	03 2f                	add    (%edi),%ebp
 d38:	05 14 48 05 1a       	add    $0x1a054814,%eax
 d3d:	66 05 0a 3c          	add    $0x3c0a,%ax
 d41:	5c                   	pop    %esp
 d42:	05 10 66 05 01       	add    $0x1056610,%eax
 d47:	91                   	xchg   %eax,%ecx
 d48:	02 03                	add    (%ebx),%al
 d4a:	00 01                	add    %al,(%ecx)
 d4c:	01 72 01             	add    %esi,0x1(%edx)
 d4f:	00 00                	add    %al,(%eax)
 d51:	03 00                	add    (%eax),%eax
 d53:	34 00                	xor    $0x0,%al
 d55:	00 00                	add    %al,(%eax)
 d57:	01 01                	add    %eax,(%ecx)
 d59:	fb                   	sti    
 d5a:	0e                   	push   %cs
 d5b:	0d 00 01 01 01       	or     $0x1010100,%eax
 d60:	01 00                	add    %eax,(%eax)
 d62:	00 00                	add    %al,(%eax)
 d64:	01 00                	add    %eax,(%eax)
 d66:	00 01                	add    %al,(%ecx)
 d68:	73 72                	jae    ddc <FLAGS+0xddb>
 d6a:	63 2f                	arpl   %bp,(%edi)
 d6c:	63 6f 6d             	arpl   %bp,0x6d(%edi)
 d6f:	6d                   	insl   (%dx),%es:(%edi)
 d70:	6f                   	outsl  %ds:(%esi),(%dx)
 d71:	6e                   	outsb  %ds:(%esi),(%dx)
 d72:	00 00                	add    %al,(%eax)
 d74:	75 74                	jne    dea <FLAGS+0xde9>
 d76:	69 6c 73 2e 63 00 01 	imul   $0x10063,0x2e(%ebx,%esi,2),%ebp
 d7d:	00 
 d7e:	00 74 79 70          	add    %dh,0x70(%ecx,%edi,2)
 d82:	65 73 2e             	gs jae db3 <FLAGS+0xdb2>
 d85:	68 00 01 00 00       	push   $0x100
 d8a:	00 05 1e 00 05 02    	add    %al,0x205001e
 d90:	db 1e                	fistpl (%esi)
 d92:	10 00                	adc    %al,(%eax)
 d94:	16                   	push   %ss
 d95:	05 11 67 05 0d       	add    $0xd056711,%eax
 d9a:	91                   	xchg   %eax,%ecx
 d9b:	05 05 74 05 08       	add    $0x8057405,%eax
 da0:	2f                   	das    
 da1:	05 04 ac 05 0a       	add    $0xa05ac04,%eax
 da6:	4b                   	dec    %ebx
 da7:	05 06 02 27 14       	add    $0x14270206,%eax
 dac:	05 12 4a 05 06       	add    $0x6054a12,%eax
 db1:	ac                   	lods   %ds:(%esi),%al
 db2:	05 09 f3 05 08       	add    $0x805f309,%eax
 db7:	00 02                	add    %al,(%edx)
 db9:	04 02                	add    $0x2,%al
 dbb:	ae                   	scas   %es:(%edi),%al
 dbc:	05 20 00 02 04       	add    $0x4020020,%eax
 dc1:	02 03                	add    (%ebx),%al
 dc3:	79 08                	jns    dcd <FLAGS+0xdcc>
 dc5:	3c 05                	cmp    $0x5,%al
 dc7:	15 00 02 04 01       	adc    $0x1040200,%eax
 dcc:	4a                   	dec    %edx
 dcd:	05 05 00 02 04       	add    $0x4020005,%eax
 dd2:	01 ac 03 09 82 05 01 	add    %ebp,0x1058209(%ebx,%eax,1)
 dd9:	f3 05 1d 3e 05 09    	repz add $0x9053e1d,%eax
 ddf:	68 05 07 75 67       	push   $0x67750705
 de4:	05 0e 3d 05 09       	add    $0x9053d0e,%eax
 de9:	76 05                	jbe    df0 <FLAGS+0xdef>
 deb:	0f 75 05 12 02 23 12 	pcmpeqw 0x12230212,%mm0
 df2:	05 0c 74 05 06       	add    $0x605740c,%eax
 df7:	9f                   	lahf   
 df8:	05 07 4b 05 0a       	add    $0xa054b07,%eax
 dfd:	08 9f 05 0c 2f 05    	or     %bl,0x52f0c05(%edi)
 e03:	0f 02 23             	lar    (%ebx),%esp
 e06:	12 05 09 74 05 04    	adc    0x4057409,%al
 e0c:	9f                   	lahf   
 e0d:	05 03 08 9f 05       	add    $0x59f0803,%eax
 e12:	0a 47 05             	or     0x5(%edi),%al
 e15:	06                   	push   %es
 e16:	6c                   	insb   (%dx),%es:(%edi)
 e17:	05 09 4b 05 07       	add    $0x7054b09,%eax
 e1c:	75 05                	jne    e23 <FLAGS+0xe22>
 e1e:	0a 67 05             	or     0x5(%edi),%ah
 e21:	03 ad 05 0a 4c 05    	add    0x54c0a05(%ebp),%ebp
 e27:	13 2f                	adc    (%edi),%ebp
 e29:	05 08 90 05 11       	add    $0x11059008,%eax
 e2e:	90                   	nop
 e2f:	05 0c 58 05 0a       	add    $0xa05580c,%eax
 e34:	49                   	dec    %ecx
 e35:	05 0d 69 05 05       	add    $0x505690d,%eax
 e3a:	ad                   	lods   %ds:(%esi),%eax
 e3b:	05 01 e5 05 19       	add    $0x1905e501,%eax
 e40:	3e 05 09 68 75 05    	ds add $0x5756809,%eax
 e46:	07                   	pop    %es
 e47:	75 05                	jne    e4e <FLAGS+0xe4d>
 e49:	08 67 4b             	or     %ah,0x4b(%edi)
 e4c:	4b                   	dec    %ebx
 e4d:	05 02 4b 05 04       	add    $0x4054b02,%eax
 e52:	08 40 91             	or     %al,-0x6f(%eax)
 e55:	05 11 67 05 0d       	add    $0xd056711,%eax
 e5a:	82 05 16 bc 05 0d 82 	addb   $0x82,0xd05bc16
 e61:	05 04 a0 05 03       	add    $0x305a004,%eax
 e66:	4b                   	dec    %ebx
 e67:	05 0a 03 78 4a       	add    $0x4a78030a,%eax
 e6c:	05 06 03 0b 66       	add    $0x660b0306,%eax
 e71:	05 09 4b 05 0d       	add    $0xd054b09,%eax
 e76:	75 4b                	jne    ec3 <FLAGS+0xec2>
 e78:	05 07 4b 05 0a       	add    $0xa054b07,%eax
 e7d:	4b                   	dec    %ebx
 e7e:	05 13 2f 05 08       	add    $0x8052f13,%eax
 e83:	90                   	nop
 e84:	05 11 90 05 0c       	add    $0xc059011,%eax
 e89:	58                   	pop    %eax
 e8a:	05 0a 49 05 0d       	add    $0xd05490a,%eax
 e8f:	69 05 05 ad 05 01 e5 	imul   $0x313f05e5,0x105ad05,%eax
 e96:	05 3f 31 
 e99:	05 05 67 21 f3       	add    $0xf3216705,%eax
 e9e:	d7                   	xlat   %ds:(%ebx)
 e9f:	f3 d7                	repz xlat %ds:(%ebx)
 ea1:	f3 e5 05             	repz in $0x5,%eax
 ea4:	0a 00                	or     (%eax),%al
 ea6:	02 04 01             	add    (%ecx,%eax,1),%al
 ea9:	f3 05 43 32 05 05    	repz add $0x5053243,%eax
 eaf:	67 21 f3             	addr16 and %esi,%ebx
 eb2:	d7                   	xlat   %ds:(%ebx)
 eb3:	f3 d7                	repz xlat %ds:(%ebx)
 eb5:	f3 e5 05             	repz in $0x5,%eax
 eb8:	0a 00                	or     (%eax),%al
 eba:	02 04 01             	add    (%ecx,%eax,1),%al
 ebd:	f3 02 02             	repz add (%edx),%al
 ec0:	00 01                	add    %al,(%ecx)
 ec2:	01                   	.byte 0x1

Disassembly of section .debug_str:

00000000 <.debug_str>:
   0:	73 75                	jae    77 <FLAGS+0x76>
   2:	70 65                	jo     69 <FLAGS+0x68>
   4:	72 76                	jb     7c <FLAGS+0x7b>
   6:	69 73 6f 72 00 68 65 	imul   $0x65680072,0x6f(%ebx),%esi
   d:	61                   	popa   
   e:	70 5f                	jo     6f <FLAGS+0x6e>
  10:	74 00                	je     12 <FLAGS+0x11>
  12:	70 6c                	jo     80 <FLAGS+0x7f>
  14:	61                   	popa   
  15:	63 65 6d             	arpl   %sp,0x6d(%ebp)
  18:	65 6e                	outsb  %gs:(%esi),(%dx)
  1a:	74 5f                	je     7b <FLAGS+0x7a>
  1c:	61                   	popa   
  1d:	64 64 72 65          	fs fs jb 86 <FLAGS+0x85>
  21:	73 73                	jae    96 <FLAGS+0x95>
  23:	00 47 4e             	add    %al,0x4e(%edi)
  26:	55                   	push   %ebp
  27:	20 43 31             	and    %al,0x31(%ebx)
  2a:	37                   	aaa    
  2b:	20 39                	and    %bh,(%ecx)
  2d:	2e 32 2e             	xor    %cs:(%esi),%ch
  30:	30 20                	xor    %ah,(%eax)
  32:	2d 6d 74 75 6e       	sub    $0x6e75746d,%eax
  37:	65 3d 67 65 6e 65    	gs cmp $0x656e6567,%eax
  3d:	72 69                	jb     a8 <FLAGS+0xa7>
  3f:	63 20                	arpl   %sp,(%eax)
  41:	2d 6d 61 72 63       	sub    $0x6372616d,%eax
  46:	68 3d 70 65 6e       	push   $0x6e65703d
  4b:	74 69                	je     b6 <FLAGS+0xb5>
  4d:	75 6d                	jne    bc <FLAGS+0xbb>
  4f:	70 72                	jo     c3 <FLAGS+0xc2>
  51:	6f                   	outsl  %ds:(%esi),(%dx)
  52:	20 2d 67 20 2d 66    	and    %ch,0x662d2067
  58:	66 72 65             	data16 jb c0 <FLAGS+0xbf>
  5b:	65 73 74             	gs jae d2 <FLAGS+0xd1>
  5e:	61                   	popa   
  5f:	6e                   	outsb  %ds:(%esi),(%dx)
  60:	64 69 6e 67 00 73 68 	imul   $0x6f687300,%fs:0x67(%esi),%ebp
  67:	6f 
  68:	72 74                	jb     de <FLAGS+0xdd>
  6a:	20 69 6e             	and    %ch,0x6e(%ecx)
  6d:	74 00                	je     6f <FLAGS+0x6e>
  6f:	6b 65 72 6e          	imul   $0x6e,0x72(%ebp),%esp
  73:	65 6c                	gs insb (%dx),%es:(%edi)
  75:	5f                   	pop    %edi
  76:	64 69 72 65 63 74 6f 	imul   $0x726f7463,%fs:0x65(%edx),%esi
  7d:	72 
  7e:	79 00                	jns    80 <FLAGS+0x7f>
  80:	72 65                	jb     e7 <FLAGS+0xe6>
  82:	61                   	popa   
  83:	64 6f                	outsl  %fs:(%esi),(%dx)
  85:	6e                   	outsb  %ds:(%esi),(%dx)
  86:	6c                   	insb   (%dx),%es:(%edi)
  87:	79 00                	jns    89 <FLAGS+0x88>
  89:	66 69 6e 64 5f 73    	imul   $0x735f,0x64(%esi),%bp
  8f:	6d                   	insl   (%dx),%es:(%edi)
  90:	61                   	popa   
  91:	6c                   	insb   (%dx),%es:(%edi)
  92:	6c                   	insb   (%dx),%es:(%edi)
  93:	65 73 74             	gs jae 10a <FLAGS+0x109>
  96:	5f                   	pop    %edi
  97:	68 6f 6c 65 00       	push   $0x656c6f
  9c:	73 33                	jae    d1 <FLAGS+0xd0>
  9e:	32 5f 74             	xor    0x74(%edi),%bl
  a1:	00 70 61             	add    %dh,0x61(%eax)
  a4:	67 65 5f             	addr16 gs pop %edi
  a7:	64 69 72 65 63 74 6f 	imul   $0x726f7463,%fs:0x65(%edx),%esi
  ae:	72 
  af:	79 5f                	jns    110 <FLAGS+0x10f>
  b1:	74 00                	je     b3 <FLAGS+0xb2>
  b3:	70 61                	jo     116 <FLAGS+0x115>
  b5:	67 65 5f             	addr16 gs pop %edi
  b8:	74 61                	je     11b <FLAGS+0x11a>
  ba:	62 6c 65 5f          	bound  %ebp,0x5f(%ebp,%eiz,2)
  be:	74 00                	je     c0 <FLAGS+0xbf>
  c0:	6e                   	outsb  %ds:(%esi),(%dx)
  c1:	65 77 5f             	gs ja  123 <FLAGS+0x122>
  c4:	6c                   	insb   (%dx),%es:(%edi)
  c5:	6f                   	outsl  %ds:(%esi),(%dx)
  c6:	63 61 74             	arpl   %sp,0x74(%ecx)
  c9:	69 6f 6e 00 6b 68 65 	imul   $0x65686b00,0x6e(%edi),%ebp
  d0:	61                   	popa   
  d1:	70 00                	jo     d3 <FLAGS+0xd2>
  d3:	6f                   	outsl  %ds:(%esi),(%dx)
  d4:	6c                   	insb   (%dx),%es:(%edi)
  d5:	64 5f                	fs pop %edi
  d7:	73 69                	jae    142 <FLAGS+0x141>
  d9:	7a 65                	jp     140 <FLAGS+0x13f>
  db:	00 76 61             	add    %dh,0x61(%esi)
  de:	6c                   	insb   (%dx),%es:(%edi)
  df:	75 65                	jne    146 <FLAGS+0x145>
  e1:	00 6b 6d             	add    %ch,0x6d(%ebx)
  e4:	61                   	popa   
  e5:	6c                   	insb   (%dx),%es:(%edi)
  e6:	6c                   	insb   (%dx),%es:(%edi)
  e7:	6f                   	outsl  %ds:(%esi),(%dx)
  e8:	63 5f 61             	arpl   %bx,0x61(%edi)
  eb:	70 00                	jo     ed <FLAGS+0xec>
  ed:	6b 65 72 6e          	imul   $0x6e,0x72(%ebp),%esp
  f1:	65 6c                	gs insb (%dx),%es:(%edi)
  f3:	65 6e                	outsb  %gs:(%esi),(%dx)
  f5:	64 00 70 68          	add    %dh,%fs:0x68(%eax)
  f9:	79 73                	jns    16e <FLAGS+0x16d>
  fb:	69 63 61 6c 5f 61 64 	imul   $0x64615f6c,0x61(%ebx),%esp
 102:	64 72 00             	fs jb  105 <FLAGS+0x104>
 105:	73 72                	jae    179 <FLAGS+0x178>
 107:	63 2f                	arpl   %bp,(%edi)
 109:	6b 65 72 6e          	imul   $0x6e,0x72(%ebp),%esp
 10d:	65 6c                	gs insb (%dx),%es:(%edi)
 10f:	2f                   	das    
 110:	6b 68 65 61          	imul   $0x61,0x65(%eax),%ebp
 114:	70 2e                	jo     144 <FLAGS+0x143>
 116:	63 00                	arpl   %ax,(%eax)
 118:	70 61                	jo     17b <FLAGS+0x17a>
 11a:	67 65 5f             	addr16 gs pop %edi
 11d:	74 61                	je     180 <FLAGS+0x17f>
 11f:	62 6c 65 73          	bound  %ebp,0x73(%ebp,%eiz,2)
 123:	00 68 6f             	add    %ch,0x6f(%eax)
 126:	6c                   	insb   (%dx),%es:(%edi)
 127:	65 5f                	gs pop %edi
 129:	66 6f                	outsw  %ds:(%esi),(%dx)
 12b:	6f                   	outsl  %ds:(%esi),(%dx)
 12c:	74 65                	je     193 <FLAGS+0x192>
 12e:	72 00                	jb     130 <FLAGS+0x12f>
 130:	73 38                	jae    16a <FLAGS+0x169>
 132:	5f                   	pop    %edi
 133:	74 00                	je     135 <FLAGS+0x134>
 135:	62 6c 6f 63          	bound  %ebp,0x63(%edi,%ebp,2)
 139:	6b 5f 68 65          	imul   $0x65,0x68(%edi),%ebx
 13d:	61                   	popa   
 13e:	64 65 72 00          	fs gs jb 142 <FLAGS+0x141>
 142:	6f                   	outsl  %ds:(%esi),(%dx)
 143:	66 66 73 65          	data16 data16 jae 1ac <FLAGS+0x1ab>
 147:	74 00                	je     149 <FLAGS+0x148>
 149:	70 61                	jo     1ac <FLAGS+0x1ab>
 14b:	67 65 5f             	addr16 gs pop %edi
 14e:	74 00                	je     150 <FLAGS+0x14f>
 150:	70 68                	jo     1ba <FLAGS+0x1b9>
 152:	79 73                	jns    1c7 <FLAGS+0x1c6>
 154:	00 68 65             	add    %ch,0x65(%eax)
 157:	61                   	popa   
 158:	64 65 72 5f          	fs gs jb 1bb <FLAGS+0x1ba>
 15c:	74 00                	je     15e <FLAGS+0x15d>
 15e:	70 61                	jo     1c1 <FLAGS+0x1c0>
 160:	67 65 5f             	addr16 gs pop %edi
 163:	74 61                	je     1c6 <FLAGS+0x1c5>
 165:	62 6c 65 00          	bound  %ebp,0x0(%ebp,%eiz,2)
 169:	73 74                	jae    1df <FLAGS+0x1de>
 16b:	61                   	popa   
 16c:	72 74                	jb     1e2 <FLAGS+0x1e1>
 16e:	00 75 6e             	add    %dh,0x6e(%ebp)
 171:	73 69                	jae    1dc <FLAGS+0x1db>
 173:	67 6e                	outsb  %ds:(%si),(%dx)
 175:	65 64 20 63 68       	gs and %ah,%fs:0x68(%ebx)
 17a:	61                   	popa   
 17b:	72 00                	jb     17d <FLAGS+0x17c>
 17d:	73 74                	jae    1f3 <FLAGS+0x1f2>
 17f:	61                   	popa   
 180:	72 74                	jb     1f6 <FLAGS+0x1f5>
 182:	5f                   	pop    %edi
 183:	61                   	popa   
 184:	64 64 72 65          	fs fs jb 1ed <FLAGS+0x1ec>
 188:	73 73                	jae    1fd <FLAGS+0x1fc>
 18a:	00 70 61             	add    %dh,0x61(%eax)
 18d:	67 65 5f             	addr16 gs pop %edi
 190:	61                   	popa   
 191:	6c                   	insb   (%dx),%es:(%edi)
 192:	69 67 6e 00 68 65 61 	imul   $0x61656800,0x6e(%edi),%esp
 199:	64 65 72 5f          	fs gs jb 1fc <FLAGS+0x1fb>
 19d:	74 5f                	je     1fe <FLAGS+0x1fd>
 19f:	6c                   	insb   (%dx),%es:(%edi)
 1a0:	65 73 73             	gs jae 216 <FLAGS+0x215>
 1a3:	5f                   	pop    %edi
 1a4:	74 68                	je     20e <FLAGS+0x20d>
 1a6:	61                   	popa   
 1a7:	6e                   	outsb  %ds:(%esi),(%dx)
 1a8:	00 6d 61             	add    %ch,0x61(%ebp)
 1ab:	78 5f                	js     20c <FLAGS+0x20b>
 1ad:	61                   	popa   
 1ae:	64 64 72 65          	fs fs jb 217 <FLAGS+0x216>
 1b2:	73 73                	jae    227 <FLAGS+0x226>
 1b4:	00 64 69 72          	add    %ah,0x72(%ecx,%ebp,2)
 1b8:	74 79                	je     233 <FLAGS+0x232>
 1ba:	00 63 72             	add    %ah,0x72(%ebx)
 1bd:	65 61                	gs popa 
 1bf:	74 65                	je     226 <FLAGS+0x225>
 1c1:	5f                   	pop    %edi
 1c2:	68 65 61 70 00       	push   $0x706165
 1c7:	75 73                	jne    23c <FLAGS+0x23b>
 1c9:	65 72 00             	gs jb  1cc <FLAGS+0x1cb>
 1cc:	73 68                	jae    236 <FLAGS+0x235>
 1ce:	6f                   	outsl  %ds:(%esi),(%dx)
 1cf:	72 74                	jb     245 <FLAGS+0x244>
 1d1:	20 75 6e             	and    %dh,0x6e(%ebp)
 1d4:	73 69                	jae    23f <FLAGS+0x23e>
 1d6:	67 6e                	outsb  %ds:(%si),(%dx)
 1d8:	65 64 20 69 6e       	gs and %ch,%fs:0x6e(%ecx)
 1dd:	74 00                	je     1df <FLAGS+0x1de>
 1df:	6b 6d 61 6c          	imul   $0x6c,0x61(%ebp),%ebp
 1e3:	6c                   	insb   (%dx),%es:(%edi)
 1e4:	6f                   	outsl  %ds:(%esi),(%dx)
 1e5:	63 00                	arpl   %ax,(%eax)
 1e7:	62 6c 6f 63          	bound  %ebp,0x63(%edi,%ebp,2)
 1eb:	6b 5f 66 6f          	imul   $0x6f,0x66(%edi),%ebx
 1ef:	6f                   	outsl  %ds:(%esi),(%dx)
 1f0:	74 65                	je     257 <FLAGS+0x256>
 1f2:	72 00                	jb     1f4 <FLAGS+0x1f3>
 1f4:	6e                   	outsb  %ds:(%esi),(%dx)
 1f5:	65 77 5f             	gs ja  257 <FLAGS+0x256>
 1f8:	6c                   	insb   (%dx),%es:(%edi)
 1f9:	65 6e                	outsb  %gs:(%esi),(%dx)
 1fb:	67 74 68             	addr16 je 266 <FLAGS+0x265>
 1fe:	00 66 6f             	add    %ah,0x6f(%esi)
 201:	6f                   	outsl  %ds:(%esi),(%dx)
 202:	74 65                	je     269 <FLAGS+0x268>
 204:	72 5f                	jb     265 <FLAGS+0x264>
 206:	74 00                	je     208 <FLAGS+0x207>
 208:	6f                   	outsl  %ds:(%esi),(%dx)
 209:	72 69                	jb     274 <FLAGS+0x273>
 20b:	67 5f                	addr16 pop %edi
 20d:	68 6f 6c 65 5f       	push   $0x5f656c6f
 212:	70 6f                	jo     283 <FLAGS+0x282>
 214:	73 00                	jae    216 <FLAGS+0x215>
 216:	74 79                	je     291 <FLAGS+0x290>
 218:	70 65                	jo     27f <FLAGS+0x27e>
 21a:	5f                   	pop    %edi
 21b:	74 00                	je     21d <FLAGS+0x21c>
 21d:	6f                   	outsl  %ds:(%esi),(%dx)
 21e:	72 64                	jb     284 <FLAGS+0x283>
 220:	65 72 65             	gs jb  288 <FLAGS+0x287>
 223:	64 5f                	fs pop %edi
 225:	61                   	popa   
 226:	72 72                	jb     29a <FLAGS+0x299>
 228:	61                   	popa   
 229:	79 5f                	jns    28a <FLAGS+0x289>
 22b:	74 00                	je     22d <FLAGS+0x22c>
 22d:	6b 6d 61 6c          	imul   $0x6c,0x61(%ebp),%ebp
 231:	6c                   	insb   (%dx),%es:(%edi)
 232:	6f                   	outsl  %ds:(%esi),(%dx)
 233:	63 5f 61             	arpl   %bx,0x61(%edi)
 236:	00 6f 6c             	add    %ch,0x6c(%edi)
 239:	64 5f                	fs pop %edi
 23b:	6c                   	insb   (%dx),%es:(%edi)
 23c:	65 6e                	outsb  %gs:(%esi),(%dx)
 23e:	67 74 68             	addr16 je 2a9 <FLAGS+0x2a8>
 241:	00 2f                	add    %ch,(%edi)
 243:	68 6f 6d 65 2f       	push   $0x2f656d6f
 248:	77 65                	ja     2af <FLAGS+0x2ae>
 24a:	6e                   	outsb  %ds:(%esi),(%dx)
 24b:	7a 61                	jp     2ae <FLAGS+0x2ad>
 24d:	70 65                	jo     2b4 <FLAGS+0x2b3>
 24f:	6e                   	outsb  %ds:(%esi),(%dx)
 250:	2f                   	das    
 251:	6d                   	insl   (%dx),%es:(%edi)
 252:	79 6f                	jns    2c3 <FLAGS+0x2c2>
 254:	73 00                	jae    256 <FLAGS+0x255>
 256:	6b 6d 61 6c          	imul   $0x6c,0x61(%ebp),%ebp
 25a:	6c                   	insb   (%dx),%es:(%edi)
 25b:	6f                   	outsl  %ds:(%esi),(%dx)
 25c:	63 5f 70             	arpl   %bx,0x70(%edi)
 25f:	00 65 78             	add    %ah,0x78(%ebp)
 262:	70 61                	jo     2c5 <FLAGS+0x2c4>
 264:	6e                   	outsb  %ds:(%esi),(%dx)
 265:	64 00 61 63          	add    %ah,%fs:0x63(%ecx)
 269:	63 65 73             	arpl   %sp,0x73(%ebp)
 26c:	73 65                	jae    2d3 <FLAGS+0x2d2>
 26e:	64 00 75 38          	add    %dh,%fs:0x38(%ebp)
 272:	5f                   	pop    %edi
 273:	74 00                	je     275 <FLAGS+0x274>
 275:	75 33                	jne    2aa <FLAGS+0x2a9>
 277:	32 5f 74             	xor    0x74(%edi),%bl
 27a:	00 69 73             	add    %ch,0x73(%ecx)
 27d:	5f                   	pop    %edi
 27e:	68 6f 6c 65 00       	push   $0x656c6f
 283:	70 72                	jo     2f7 <FLAGS+0x2f6>
 285:	65 73 65             	gs jae 2ed <FLAGS+0x2ec>
 288:	6e                   	outsb  %ds:(%esi),(%dx)
 289:	74 00                	je     28b <FLAGS+0x28a>
 28b:	6f                   	outsl  %ds:(%esi),(%dx)
 28c:	72 69                	jb     2f7 <FLAGS+0x2f6>
 28e:	67 5f                	addr16 pop %edi
 290:	68 6f 6c 65 5f       	push   $0x5f656c6f
 295:	73 69                	jae    300 <FLAGS+0x2ff>
 297:	7a 65                	jp     2fe <FLAGS+0x2fd>
 299:	00 6d 61             	add    %ch,0x61(%ebp)
 29c:	78 5f                	js     2fd <FLAGS+0x2fc>
 29e:	73 69                	jae    309 <FLAGS+0x308>
 2a0:	7a 65                	jp     307 <FLAGS+0x306>
 2a2:	00 6c 65 73          	add    %ch,0x73(%ebp,%eiz,2)
 2a6:	73 5f                	jae    307 <FLAGS+0x306>
 2a8:	74 68                	je     312 <FLAGS+0x311>
 2aa:	61                   	popa   
 2ab:	6e                   	outsb  %ds:(%esi),(%dx)
 2ac:	5f                   	pop    %edi
 2ad:	74 00                	je     2af <FLAGS+0x2ae>
 2af:	6e                   	outsb  %ds:(%esi),(%dx)
 2b0:	65 77 5f             	gs ja  312 <FLAGS+0x311>
 2b3:	73 69                	jae    31e <FLAGS+0x31d>
 2b5:	7a 65                	jp     31c <FLAGS+0x31b>
 2b7:	00 6d 61             	add    %ch,0x61(%ebp)
 2ba:	67 69 63 00 74 61 62 	imul   $0x6c626174,0x0(%bp,%di),%esp
 2c1:	6c 
 2c2:	65 73 5f             	gs jae 324 <FLAGS+0x323>
 2c5:	70 68                	jo     32f <FLAGS+0x32e>
 2c7:	79 73                	jns    33c <FLAGS+0x33b>
 2c9:	69 63 61 6c 00 6b 6d 	imul   $0x6d6b006c,0x61(%ebx),%esp
 2d0:	61                   	popa   
 2d1:	6c                   	insb   (%dx),%es:(%edi)
 2d2:	6c                   	insb   (%dx),%es:(%edi)
 2d3:	6f                   	outsl  %ds:(%esi),(%dx)
 2d4:	63 5f 69             	arpl   %bx,0x69(%edi)
 2d7:	6e                   	outsb  %ds:(%esi),(%dx)
 2d8:	74 65                	je     33f <FLAGS+0x33e>
 2da:	72 6e                	jb     34a <FLAGS+0x349>
 2dc:	61                   	popa   
 2dd:	6c                   	insb   (%dx),%es:(%edi)
 2de:	00 70 61             	add    %dh,0x61(%eax)
 2e1:	67 65 73 00          	addr16 gs jae 2e5 <FLAGS+0x2e4>
 2e5:	75 6e                	jne    355 <FLAGS+0x354>
 2e7:	75 73                	jne    35c <FLAGS+0x35b>
 2e9:	65 64 00 6f 72       	gs add %ch,%fs:0x72(%edi)
 2ee:	69 67 5f 68 6f 6c 65 	imul   $0x656c6f68,0x5f(%edi),%esp
 2f5:	5f                   	pop    %edi
 2f6:	68 65 61 64 65       	push   $0x65646165
 2fb:	72 00                	jb     2fd <FLAGS+0x2fc>
 2fd:	6f                   	outsl  %ds:(%esi),(%dx)
 2fe:	6c                   	insb   (%dx),%es:(%edi)
 2ff:	64 5f                	fs pop %edi
 301:	65 6e                	outsb  %gs:(%esi),(%dx)
 303:	64 5f                	fs pop %edi
 305:	61                   	popa   
 306:	64 64 72 65          	fs fs jb 36f <FLAGS+0x36e>
 30a:	73 73                	jae    37f <FLAGS+0x37e>
 30c:	00 72 65             	add    %dh,0x65(%edx)
 30f:	67 69 73 74 65 72 73 	imul   $0x5f737265,0x74(%bp,%di),%esi
 316:	5f 
 317:	74 00                	je     319 <FLAGS+0x318>
 319:	6b 65 72 6e          	imul   $0x6e,0x72(%ebp),%esp
 31d:	65 6c                	gs insb (%dx),%es:(%edi)
 31f:	5f                   	pop    %edi
 320:	65 6e                	outsb  %gs:(%esi),(%dx)
 322:	64 00 66 61          	add    %ah,%fs:0x61(%esi)
 326:	75 6c                	jne    394 <FLAGS+0x393>
 328:	74 5f                	je     389 <FLAGS+0x388>
 32a:	61                   	popa   
 32b:	64 64 72 65          	fs fs jb 394 <FLAGS+0x393>
 32f:	73 73                	jae    3a4 <FLAGS+0x3a3>
 331:	00 66 72             	add    %ah,0x72(%esi)
 334:	61                   	popa   
 335:	6d                   	insl   (%dx),%es:(%edi)
 336:	65 73 5f             	gs jae 398 <FLAGS+0x397>
 339:	62 69 74             	bound  %ebp,0x74(%ecx)
 33c:	6d                   	insl   (%dx),%es:(%edi)
 33d:	61                   	popa   
 33e:	70 00                	jo     340 <FLAGS+0x33f>
 340:	73 77                	jae    3b9 <FLAGS+0x3b8>
 342:	69 74 63 68 5f 70 61 	imul   $0x6761705f,0x68(%ebx,%eiz,2),%esi
 349:	67 
 34a:	65 5f                	gs pop %edi
 34c:	64 69 72 65 63 74 6f 	imul   $0x726f7463,%fs:0x65(%edx),%esi
 353:	72 
 354:	79 00                	jns    356 <FLAGS+0x355>
 356:	65 66 6c             	gs data16 insb (%dx),%es:(%edi)
 359:	61                   	popa   
 35a:	67 73 00             	addr16 jae 35d <FLAGS+0x35c>
 35d:	66 69 72 73 74 5f    	imul   $0x5f74,0x73(%edx),%si
 363:	75 6e                	jne    3d3 <FLAGS+0x3d2>
 365:	75 73                	jne    3da <FLAGS+0x3d9>
 367:	65 64 5f             	gs fs pop %edi
 36a:	66 72 61             	data16 jb 3ce <FLAGS+0x3cd>
 36d:	6d                   	insl   (%dx),%es:(%edi)
 36e:	65 00 63 6c          	add    %ah,%gs:0x6c(%ebx)
 372:	65 61                	gs popa 
 374:	72 5f                	jb     3d5 <FLAGS+0x3d4>
 376:	66 72 61             	data16 jb 3da <FLAGS+0x3d9>
 379:	6d                   	insl   (%dx),%es:(%edi)
 37a:	65 00 61 6c          	add    %ah,%gs:0x6c(%ecx)
 37e:	6c                   	insb   (%dx),%es:(%edi)
 37f:	6f                   	outsl  %ds:(%esi),(%dx)
 380:	63 5f 66             	arpl   %bx,0x66(%edi)
 383:	72 61                	jb     3e6 <FLAGS+0x3e5>
 385:	6d                   	insl   (%dx),%es:(%edi)
 386:	65 00 73 65          	add    %dh,%gs:0x65(%ebx)
 38a:	74 5f                	je     3eb <FLAGS+0x3ea>
 38c:	66 72 61             	data16 jb 3f0 <FLAGS+0x3ef>
 38f:	6d                   	insl   (%dx),%es:(%edi)
 390:	65 00 63 75          	add    %ah,%gs:0x75(%ebx)
 394:	72 72                	jb     408 <FLAGS+0x407>
 396:	65 6e                	outsb  %gs:(%esi),(%dx)
 398:	74 5f                	je     3f9 <FLAGS+0x3f8>
 39a:	64 69 72 65 63 74 6f 	imul   $0x726f7463,%fs:0x65(%edx),%esi
 3a1:	72 
 3a2:	79 00                	jns    3a4 <FLAGS+0x3a3>
 3a4:	74 65                	je     40b <FLAGS+0x40a>
 3a6:	73 74                	jae    41c <FLAGS+0x41b>
 3a8:	5f                   	pop    %edi
 3a9:	66 72 61             	data16 jb 40d <FLAGS+0x40c>
 3ac:	6d                   	insl   (%dx),%es:(%edi)
 3ad:	65 00 69 73          	add    %ch,%gs:0x73(%ecx)
 3b1:	5f                   	pop    %edi
 3b2:	6b 65 72 6e          	imul   $0x6e,0x72(%ebp),%esp
 3b6:	65 6c                	gs insb (%dx),%es:(%edi)
 3b8:	00 75 73             	add    %dh,0x73(%ebp)
 3bb:	65 72 65             	gs jb  423 <FLAGS+0x422>
 3be:	73 70                	jae    430 <FLAGS+0x42f>
 3c0:	00 6e 66             	add    %ch,0x66(%esi)
 3c3:	72 61                	jb     426 <FLAGS+0x425>
 3c5:	6d                   	insl   (%dx),%es:(%edi)
 3c6:	65 73 00             	gs jae 3c9 <FLAGS+0x3c8>
 3c9:	73 72                	jae    43d <FLAGS+0x43c>
 3cb:	63 2f                	arpl   %bp,(%edi)
 3cd:	6b 65 72 6e          	imul   $0x6e,0x72(%ebp),%esp
 3d1:	65 6c                	gs insb (%dx),%es:(%edi)
 3d3:	2f                   	das    
 3d4:	70 61                	jo     437 <FLAGS+0x436>
 3d6:	67 69 6e 67 2e 63 00 	imul   $0x6700632e,0x67(%bp),%ebp
 3dd:	67 
 3de:	65 74 5f             	gs je  440 <FLAGS+0x43f>
 3e1:	70 61                	jo     444 <FLAGS+0x443>
 3e3:	67 65 00 69 73       	add    %ch,%gs:0x73(%bx,%di)
 3e8:	5f                   	pop    %edi
 3e9:	77 72                	ja     45d <FLAGS+0x45c>
 3eb:	69 74 65 61 62 6c 65 	imul   $0x656c62,0x61(%ebp,%eiz,2),%esi
 3f2:	00 
 3f3:	69 6e 74 5f 6e 6f 00 	imul   $0x6f6e5f,0x74(%esi),%ebp
 3fa:	66 72 61             	data16 jb 45e <FLAGS+0x45d>
 3fd:	6d                   	insl   (%dx),%es:(%edi)
 3fe:	65 5f                	gs pop %edi
 400:	61                   	popa   
 401:	64 64 72 00          	fs fs jb 405 <FLAGS+0x404>
 405:	6d                   	insl   (%dx),%es:(%edi)
 406:	61                   	popa   
 407:	6b 65 00 6d          	imul   $0x6d,0x0(%ebp),%esp
 40b:	65 6d                	gs insl (%dx),%es:(%edi)
 40d:	5f                   	pop    %edi
 40e:	65 6e                	outsb  %gs:(%esi),(%dx)
 410:	64 5f                	fs pop %edi
 412:	70 61                	jo     475 <FLAGS+0x474>
 414:	67 65 00 65 72       	add    %ah,%gs:0x72(%di)
 419:	72 5f                	jb     47a <FLAGS+0x479>
 41b:	63 6f 64             	arpl   %bp,0x64(%edi)
 41e:	65 00 66 72          	add    %ah,%gs:0x72(%esi)
 422:	65 65 5f             	gs gs pop %edi
 425:	66 72 61             	data16 jb 489 <FLAGS+0x488>
 428:	6d                   	insl   (%dx),%es:(%edi)
 429:	65 00 72 65          	add    %dh,%gs:0x65(%edx)
 42d:	67 69 73 74 65 72 73 	imul   $0x5f737265,0x74(%bp,%di),%esi
 434:	5f 
 435:	73 74                	jae    4ab <FLAGS+0x4aa>
 437:	72 75                	jb     4ae <FLAGS+0x4ad>
 439:	63 74 00 74          	arpl   %si,0x74(%eax,%eax,1)
 43d:	61                   	popa   
 43e:	62 6c 65 5f          	bound  %ebp,0x5f(%ebp,%eiz,2)
 442:	69 6e 64 65 78 00 69 	imul   $0x69007865,0x64(%esi),%ebp
 449:	6e                   	outsb  %ds:(%esi),(%dx)
 44a:	69 74 5f 70 61 67 69 	imul   $0x6e696761,0x70(%edi,%ebx,2),%esi
 451:	6e 
 452:	67 00 72 65          	add    %dh,0x65(%bp,%si)
 456:	67 73 00             	addr16 jae 459 <FLAGS+0x458>
 459:	66 72 61             	data16 jb 4bd <FLAGS+0x4bc>
 45c:	6d                   	insl   (%dx),%es:(%edi)
 45d:	65 62 75 66          	bound  %esi,%gs:0x66(%ebp)
 461:	66 65 72 5f          	data16 gs jb 4c4 <FLAGS+0x4c3>
 465:	62 6c 75 65          	bound  %ebp,0x65(%ebp,%esi,2)
 469:	5f                   	pop    %edi
 46a:	6d                   	insl   (%dx),%es:(%edi)
 46b:	61                   	popa   
 46c:	73 6b                	jae    4d9 <FLAGS+0x4d8>
 46e:	5f                   	pop    %edi
 46f:	73 69                	jae    4da <FLAGS+0x4d9>
 471:	7a 65                	jp     4d8 <FLAGS+0x4d7>
 473:	00 66 72             	add    %ah,0x72(%esi)
 476:	61                   	popa   
 477:	6d                   	insl   (%dx),%es:(%edi)
 478:	65 62 75 66          	bound  %esi,%gs:0x66(%ebp)
 47c:	66 65 72 5f          	data16 gs jb 4df <FLAGS+0x4de>
 480:	61                   	popa   
 481:	64 64 72 00          	fs fs jb 485 <FLAGS+0x484>
 485:	66 72 61             	data16 jb 4e9 <FLAGS+0x4e8>
 488:	6d                   	insl   (%dx),%es:(%edi)
 489:	65 62 75 66          	bound  %esi,%gs:0x66(%ebp)
 48d:	66 65 72 5f          	data16 gs jb 4f0 <FLAGS+0x4ef>
 491:	67 72 65             	addr16 jb 4f9 <FLAGS+0x4f8>
 494:	65 6e                	outsb  %gs:(%esi),(%dx)
 496:	5f                   	pop    %edi
 497:	66 69 65 6c 64 5f    	imul   $0x5f64,0x6c(%ebp),%sp
 49d:	70 6f                	jo     50e <FLAGS+0x50d>
 49f:	73 69                	jae    50a <FLAGS+0x509>
 4a1:	74 69                	je     50c <FLAGS+0x50b>
 4a3:	6f                   	outsl  %ds:(%esi),(%dx)
 4a4:	6e                   	outsb  %ds:(%esi),(%dx)
 4a5:	00 6d 75             	add    %ch,0x75(%ebp)
 4a8:	6c                   	insb   (%dx),%es:(%edi)
 4a9:	74 69                	je     514 <FLAGS+0x513>
 4ab:	62 6f 6f             	bound  %ebp,0x6f(%edi)
 4ae:	74 5f                	je     50f <FLAGS+0x50e>
 4b0:	75 69                	jne    51b <FLAGS+0x51a>
 4b2:	6e                   	outsb  %ds:(%esi),(%dx)
 4b3:	74 36                	je     4eb <FLAGS+0x4ea>
 4b5:	34 5f                	xor    $0x5f,%al
 4b7:	74 00                	je     4b9 <FLAGS+0x4b8>
 4b9:	6d                   	insl   (%dx),%es:(%edi)
 4ba:	75 6c                	jne    528 <FLAGS+0x527>
 4bc:	74 69                	je     527 <FLAGS+0x526>
 4be:	62 6f 6f             	bound  %ebp,0x6f(%edi)
 4c1:	74 5f                	je     522 <FLAGS+0x521>
 4c3:	75 69                	jne    52e <FLAGS+0x52d>
 4c5:	6e                   	outsb  %ds:(%esi),(%dx)
 4c6:	74 31                	je     4f9 <FLAGS+0x4f8>
 4c8:	36 5f                	ss pop %edi
 4ca:	74 00                	je     4cc <FLAGS+0x4cb>
 4cc:	66 72 61             	data16 jb 530 <FLAGS+0x52f>
 4cf:	6d                   	insl   (%dx),%es:(%edi)
 4d0:	65 62 75 66          	bound  %esi,%gs:0x66(%ebp)
 4d4:	66 65 72 5f          	data16 gs jb 537 <FLAGS+0x536>
 4d8:	72 65                	jb     53f <FLAGS+0x53e>
 4da:	64 5f                	fs pop %edi
 4dc:	66 69 65 6c 64 5f    	imul   $0x5f64,0x6c(%ebp),%sp
 4e2:	70 6f                	jo     553 <FLAGS+0x552>
 4e4:	73 69                	jae    54f <FLAGS+0x54e>
 4e6:	74 69                	je     551 <FLAGS+0x550>
 4e8:	6f                   	outsl  %ds:(%esi),(%dx)
 4e9:	6e                   	outsb  %ds:(%esi),(%dx)
 4ea:	00 64 72 69          	add    %ah,0x69(%edx,%esi,2)
 4ee:	76 65                	jbe    555 <FLAGS+0x554>
 4f0:	73 5f                	jae    551 <FLAGS+0x550>
 4f2:	61                   	popa   
 4f3:	64 64 72 00          	fs fs jb 4f7 <FLAGS+0x4f6>
 4f7:	63 6d 64             	arpl   %bp,0x64(%ebp)
 4fa:	6c                   	insb   (%dx),%es:(%edi)
 4fb:	69 6e 65 00 6d 61 69 	imul   $0x69616d00,0x65(%esi),%ebp
 502:	6e                   	outsb  %ds:(%esi),(%dx)
 503:	00 73 72             	add    %dh,0x72(%ebx)
 506:	63 2f                	arpl   %bp,(%edi)
 508:	6b 65 72 6e          	imul   $0x6e,0x72(%ebp),%esp
 50c:	65 6c                	gs insb (%dx),%es:(%edi)
 50e:	2f                   	das    
 50f:	6b 65 72 6e          	imul   $0x6e,0x72(%ebp),%esp
 513:	65 6c                	gs insb (%dx),%es:(%edi)
 515:	2e 63 00             	arpl   %ax,%cs:(%eax)
 518:	6d                   	insl   (%dx),%es:(%edi)
 519:	6f                   	outsl  %ds:(%esi),(%dx)
 51a:	64 73 5f             	fs jae 57c <FLAGS+0x57b>
 51d:	61                   	popa   
 51e:	64 64 72 00          	fs fs jb 522 <FLAGS+0x521>
 522:	73 74                	jae    598 <FLAGS+0x597>
 524:	72 73                	jb     599 <FLAGS+0x598>
 526:	69 7a 65 00 73 74 61 	imul   $0x61747300,0x65(%edx),%edi
 52d:	72 74                	jb     5a3 <FLAGS+0x5a2>
 52f:	5f                   	pop    %edi
 530:	70 72                	jo     5a4 <FLAGS+0x5a3>
 532:	6f                   	outsl  %ds:(%esi),(%dx)
 533:	67 72 61             	addr16 jb 597 <FLAGS+0x596>
 536:	6d                   	insl   (%dx),%es:(%edi)
 537:	00 6d 75             	add    %ch,0x75(%ebp)
 53a:	6c                   	insb   (%dx),%es:(%edi)
 53b:	74 69                	je     5a6 <FLAGS+0x5a5>
 53d:	62 6f 6f             	bound  %ebp,0x6f(%edi)
 540:	74 5f                	je     5a1 <FLAGS+0x5a0>
 542:	65 6c                	gs insb (%dx),%es:(%edi)
 544:	66 5f                	pop    %di
 546:	73 65                	jae    5ad <FLAGS+0x5ac>
 548:	63 74 69 6f          	arpl   %si,0x6f(%ecx,%ebp,2)
 54c:	6e                   	outsb  %ds:(%esi),(%dx)
 54d:	5f                   	pop    %edi
 54e:	68 65 61 64 65       	push   $0x65646165
 553:	72 5f                	jb     5b4 <FLAGS+0x5b3>
 555:	74 61                	je     5b8 <FLAGS+0x5b7>
 557:	62 6c 65 5f          	bound  %ebp,0x5f(%ebp,%eiz,2)
 55b:	74 00                	je     55d <FLAGS+0x55c>
 55d:	73 68                	jae    5c7 <FLAGS+0x5c6>
 55f:	6e                   	outsb  %ds:(%esi),(%dx)
 560:	64 78 00             	fs js  563 <FLAGS+0x562>
 563:	61                   	popa   
 564:	70 6d                	jo     5d3 <FLAGS+0x5d2>
 566:	5f                   	pop    %edi
 567:	74 61                	je     5ca <FLAGS+0x5c9>
 569:	62 6c 65 00          	bound  %ebp,0x0(%ebp,%eiz,2)
 56d:	66 72 61             	data16 jb 5d1 <FLAGS+0x5d0>
 570:	6d                   	insl   (%dx),%es:(%edi)
 571:	65 62 75 66          	bound  %esi,%gs:0x66(%ebp)
 575:	66 65 72 5f          	data16 gs jb 5d8 <FLAGS+0x5d7>
 579:	70 61                	jo     5dc <FLAGS+0x5db>
 57b:	6c                   	insb   (%dx),%es:(%edi)
 57c:	65 74 74             	gs je  5f3 <FLAGS+0x5f2>
 57f:	65 5f                	gs pop %edi
 581:	6e                   	outsb  %ds:(%esi),(%dx)
 582:	75 6d                	jne    5f1 <FLAGS+0x5f0>
 584:	5f                   	pop    %edi
 585:	63 6f 6c             	arpl   %bp,0x6c(%edi)
 588:	6f                   	outsl  %ds:(%esi),(%dx)
 589:	72 73                	jb     5fe <FLAGS+0x5fd>
 58b:	00 62 6f             	add    %ah,0x6f(%edx)
 58e:	6f                   	outsl  %ds:(%esi),(%dx)
 58f:	74 5f                	je     5f0 <FLAGS+0x5ef>
 591:	64 65 76 69          	fs gs jbe 5fe <FLAGS+0x5fd>
 595:	63 65 00             	arpl   %sp,0x0(%ebp)
 598:	66 72 61             	data16 jb 5fc <FLAGS+0x5fb>
 59b:	6d                   	insl   (%dx),%es:(%edi)
 59c:	65 62 75 66          	bound  %esi,%gs:0x66(%ebp)
 5a0:	66 65 72 5f          	data16 gs jb 603 <FLAGS+0x602>
 5a4:	62 70 70             	bound  %esi,0x70(%eax)
 5a7:	00 6d 6d             	add    %ch,0x6d(%ebp)
 5aa:	61                   	popa   
 5ab:	70 5f                	jo     60c <FLAGS+0x60b>
 5ad:	61                   	popa   
 5ae:	64 64 72 00          	fs fs jb 5b2 <FLAGS+0x5b1>
 5b2:	76 62                	jbe    616 <FLAGS+0x615>
 5b4:	65 5f                	gs pop %edi
 5b6:	63 6f 6e             	arpl   %bp,0x6e(%edi)
 5b9:	74 72                	je     62d <FLAGS+0x62c>
 5bb:	6f                   	outsl  %ds:(%esi),(%dx)
 5bc:	6c                   	insb   (%dx),%es:(%edi)
 5bd:	5f                   	pop    %edi
 5be:	69 6e 66 6f 00 65 6c 	imul   $0x6c65006f,0x66(%esi),%ebp
 5c5:	66 5f                	pop    %di
 5c7:	73 65                	jae    62e <FLAGS+0x62d>
 5c9:	63 00                	arpl   %ax,(%eax)
 5cb:	6d                   	insl   (%dx),%es:(%edi)
 5cc:	65 6d                	gs insl (%dx),%es:(%edi)
 5ce:	5f                   	pop    %edi
 5cf:	6c                   	insb   (%dx),%es:(%edi)
 5d0:	6f                   	outsl  %ds:(%esi),(%dx)
 5d1:	77 65                	ja     638 <FLAGS+0x637>
 5d3:	72 00                	jb     5d5 <FLAGS+0x5d4>
 5d5:	76 62                	jbe    639 <FLAGS+0x638>
 5d7:	65 5f                	gs pop %edi
 5d9:	69 6e 74 65 72 66 61 	imul   $0x61667265,0x74(%esi),%ebp
 5e0:	63 65 5f             	arpl   %sp,0x5f(%ebp)
 5e3:	6f                   	outsl  %ds:(%esi),(%dx)
 5e4:	66 66 00 76 62       	data16 data16 add %dh,0x62(%esi)
 5e9:	65 5f                	gs pop %edi
 5eb:	6d                   	insl   (%dx),%es:(%edi)
 5ec:	6f                   	outsl  %ds:(%esi),(%dx)
 5ed:	64 65 00 6c 6f 6e    	fs add %ch,%gs:0x6e(%edi,%ebp,2)
 5f3:	67 20 6c 6f          	and    %ch,0x6f(%si)
 5f7:	6e                   	outsb  %ds:(%esi),(%dx)
 5f8:	67 20 75 6e          	and    %dh,0x6e(%di)
 5fc:	73 69                	jae    667 <FLAGS+0x666>
 5fe:	67 6e                	outsb  %ds:(%si),(%dx)
 600:	65 64 20 69 6e       	gs and %ch,%fs:0x6e(%ecx)
 605:	74 00                	je     607 <FLAGS+0x606>
 607:	66 72 61             	data16 jb 66b <FLAGS+0x66a>
 60a:	6d                   	insl   (%dx),%es:(%edi)
 60b:	65 62 75 66          	bound  %esi,%gs:0x66(%ebp)
 60f:	66 65 72 5f          	data16 gs jb 672 <FLAGS+0x671>
 613:	77 69                	ja     67e <FLAGS+0x67d>
 615:	64 74 68             	fs je  680 <FLAGS+0x67f>
 618:	00 6d 6d             	add    %ch,0x6d(%ebp)
 61b:	61                   	popa   
 61c:	70 5f                	jo     67d <FLAGS+0x67c>
 61e:	6c                   	insb   (%dx),%es:(%edi)
 61f:	65 6e                	outsb  %gs:(%esi),(%dx)
 621:	67 74 68             	addr16 je 68c <FLAGS+0x68b>
 624:	00 6d 75             	add    %ch,0x75(%ebp)
 627:	6c                   	insb   (%dx),%es:(%edi)
 628:	74 69                	je     693 <FLAGS+0x692>
 62a:	62 6f 6f             	bound  %ebp,0x6f(%edi)
 62d:	74 5f                	je     68e <FLAGS+0x68d>
 62f:	75 69                	jne    69a <FLAGS+0x699>
 631:	6e                   	outsb  %ds:(%esi),(%dx)
 632:	74 33                	je     667 <FLAGS+0x666>
 634:	32 5f 74             	xor    0x74(%edi),%bl
 637:	00 64 6f 5f          	add    %ah,0x5f(%edi,%ebp,2)
 63b:	70 61                	jo     69e <FLAGS+0x69d>
 63d:	67 65 5f             	addr16 gs pop %edi
 640:	66 61                	popaw  
 642:	75 6c                	jne    6b0 <FLAGS+0x6af>
 644:	74 00                	je     646 <FLAGS+0x645>
 646:	61                   	popa   
 647:	6f                   	outsl  %ds:(%esi),(%dx)
 648:	75 74                	jne    6be <FLAGS+0x6bd>
 64a:	5f                   	pop    %edi
 64b:	73 79                	jae    6c6 <FLAGS+0x6c5>
 64d:	6d                   	insl   (%dx),%es:(%edi)
 64e:	00 66 72             	add    %ah,0x72(%esi)
 651:	61                   	popa   
 652:	6d                   	insl   (%dx),%es:(%edi)
 653:	65 62 75 66          	bound  %esi,%gs:0x66(%ebp)
 657:	66 65 72 5f          	data16 gs jb 6ba <FLAGS+0x6b9>
 65b:	62 6c 75 65          	bound  %ebp,0x65(%ebp,%esi,2)
 65f:	5f                   	pop    %edi
 660:	66 69 65 6c 64 5f    	imul   $0x5f64,0x6c(%ebp),%sp
 666:	70 6f                	jo     6d7 <FLAGS+0x6d6>
 668:	73 69                	jae    6d3 <FLAGS+0x6d2>
 66a:	74 69                	je     6d5 <FLAGS+0x6d4>
 66c:	6f                   	outsl  %ds:(%esi),(%dx)
 66d:	6e                   	outsb  %ds:(%esi),(%dx)
 66e:	00 6d 75             	add    %ch,0x75(%ebp)
 671:	6c                   	insb   (%dx),%es:(%edi)
 672:	74 69                	je     6dd <FLAGS+0x6dc>
 674:	62 6f 6f             	bound  %ebp,0x6f(%edi)
 677:	74 5f                	je     6d8 <FLAGS+0x6d7>
 679:	69 6e 66 6f 00 6d 75 	imul   $0x756d006f,0x66(%esi),%ebp
 680:	6c                   	insb   (%dx),%es:(%edi)
 681:	74 69                	je     6ec <FLAGS+0x6eb>
 683:	62 6f 6f             	bound  %ebp,0x6f(%edi)
 686:	74 5f                	je     6e7 <FLAGS+0x6e6>
 688:	65 6c                	gs insb (%dx),%es:(%edi)
 68a:	66 5f                	pop    %di
 68c:	73 65                	jae    6f3 <FLAGS+0x6f2>
 68e:	63 74 69 6f          	arpl   %si,0x6f(%ecx,%ebp,2)
 692:	6e                   	outsb  %ds:(%esi),(%dx)
 693:	5f                   	pop    %edi
 694:	68 65 61 64 65       	push   $0x65646165
 699:	72 5f                	jb     6fa <FLAGS+0x6f9>
 69b:	74 61                	je     6fe <FLAGS+0x6fd>
 69d:	62 6c 65 00          	bound  %ebp,0x0(%ebp,%eiz,2)
 6a1:	63 61 6c             	arpl   %sp,0x6c(%ecx)
 6a4:	6c                   	insb   (%dx),%es:(%edi)
 6a5:	5f                   	pop    %edi
 6a6:	6d                   	insl   (%dx),%es:(%edi)
 6a7:	6f                   	outsl  %ds:(%esi),(%dx)
 6a8:	64 75 6c             	fs jne 717 <FLAGS+0x716>
 6ab:	65 5f                	gs pop %edi
 6ad:	74 00                	je     6af <FLAGS+0x6ae>
 6af:	66 72 61             	data16 jb 713 <FLAGS+0x712>
 6b2:	6d                   	insl   (%dx),%es:(%edi)
 6b3:	65 62 75 66          	bound  %esi,%gs:0x66(%ebp)
 6b7:	66 65 72 5f          	data16 gs jb 71a <FLAGS+0x719>
 6bb:	70 69                	jo     726 <FLAGS+0x725>
 6bd:	74 63                	je     722 <FLAGS+0x721>
 6bf:	68 00 66 72 61       	push   $0x61726600
 6c4:	6d                   	insl   (%dx),%es:(%edi)
 6c5:	65 62 75 66          	bound  %esi,%gs:0x66(%ebp)
 6c9:	66 65 72 5f          	data16 gs jb 72c <FLAGS+0x72b>
 6cd:	74 79                	je     748 <FLAGS+0x747>
 6cf:	70 65                	jo     736 <FLAGS+0x735>
 6d1:	00 6d 75             	add    %ch,0x75(%ebp)
 6d4:	6c                   	insb   (%dx),%es:(%edi)
 6d5:	74 69                	je     740 <FLAGS+0x73f>
 6d7:	62 6f 6f             	bound  %ebp,0x6f(%edi)
 6da:	74 5f                	je     73b <FLAGS+0x73a>
 6dc:	61                   	popa   
 6dd:	6f                   	outsl  %ds:(%esi),(%dx)
 6de:	75 74                	jne    754 <FLAGS+0x753>
 6e0:	5f                   	pop    %edi
 6e1:	73 79                	jae    75c <FLAGS+0x75b>
 6e3:	6d                   	insl   (%dx),%es:(%edi)
 6e4:	62 6f 6c             	bound  %ebp,0x6c(%edi)
 6e7:	5f                   	pop    %edi
 6e8:	74 61                	je     74b <FLAGS+0x74a>
 6ea:	62 6c 65 5f          	bound  %ebp,0x5f(%ebp,%eiz,2)
 6ee:	74 00                	je     6f0 <FLAGS+0x6ef>
 6f0:	6d                   	insl   (%dx),%es:(%edi)
 6f1:	65 6d                	gs insl (%dx),%es:(%edi)
 6f3:	5f                   	pop    %edi
 6f4:	75 70                	jne    766 <FLAGS+0x765>
 6f6:	70 65                	jo     75d <FLAGS+0x75c>
 6f8:	72 00                	jb     6fa <FLAGS+0x6f9>
 6fa:	76 62                	jbe    75e <FLAGS+0x75d>
 6fc:	65 5f                	gs pop %edi
 6fe:	6d                   	insl   (%dx),%es:(%edi)
 6ff:	6f                   	outsl  %ds:(%esi),(%dx)
 700:	64 65 5f             	fs gs pop %edi
 703:	69 6e 66 6f 00 74 61 	imul   $0x6174006f,0x66(%esi),%ebp
 70a:	62 73 69             	bound  %esi,0x69(%ebx)
 70d:	7a 65                	jp     774 <FLAGS+0x773>
 70f:	00 66 72             	add    %ah,0x72(%esi)
 712:	61                   	popa   
 713:	6d                   	insl   (%dx),%es:(%edi)
 714:	65 62 75 66          	bound  %esi,%gs:0x66(%ebp)
 718:	66 65 72 5f          	data16 gs jb 77b <FLAGS+0x77a>
 71c:	72 65                	jb     783 <FLAGS+0x782>
 71e:	64 5f                	fs pop %edi
 720:	6d                   	insl   (%dx),%es:(%edi)
 721:	61                   	popa   
 722:	73 6b                	jae    78f <FLAGS+0x78e>
 724:	5f                   	pop    %edi
 725:	73 69                	jae    790 <FLAGS+0x78f>
 727:	7a 65                	jp     78e <FLAGS+0x78d>
 729:	00 64 72 69          	add    %ah,0x69(%edx,%esi,2)
 72d:	76 65                	jbe    794 <FLAGS+0x793>
 72f:	73 5f                	jae    790 <FLAGS+0x78f>
 731:	6c                   	insb   (%dx),%es:(%edi)
 732:	65 6e                	outsb  %gs:(%esi),(%dx)
 734:	67 74 68             	addr16 je 79f <FLAGS+0x79e>
 737:	00 63 6f             	add    %ah,0x6f(%ebx)
 73a:	6e                   	outsb  %ds:(%esi),(%dx)
 73b:	66 69 67 5f 74 61    	imul   $0x6174,0x5f(%edi),%sp
 741:	62 6c 65 00          	bound  %ebp,0x0(%ebp,%eiz,2)
 745:	66 72 61             	data16 jb 7a9 <FLAGS+0x7a8>
 748:	6d                   	insl   (%dx),%es:(%edi)
 749:	65 62 75 66          	bound  %esi,%gs:0x66(%ebp)
 74d:	66 65 72 5f          	data16 gs jb 7b0 <FLAGS+0x7af>
 751:	67 72 65             	addr16 jb 7b9 <FLAGS+0x7b8>
 754:	65 6e                	outsb  %gs:(%esi),(%dx)
 756:	5f                   	pop    %edi
 757:	6d                   	insl   (%dx),%es:(%edi)
 758:	61                   	popa   
 759:	73 6b                	jae    7c6 <FLAGS+0x7c5>
 75b:	5f                   	pop    %edi
 75c:	73 69                	jae    7c7 <FLAGS+0x7c6>
 75e:	7a 65                	jp     7c5 <FLAGS+0x7c4>
 760:	00 6d 75             	add    %ch,0x75(%ebp)
 763:	6c                   	insb   (%dx),%es:(%edi)
 764:	74 69                	je     7cf <FLAGS+0x7ce>
 766:	62 6f 6f             	bound  %ebp,0x6f(%edi)
 769:	74 5f                	je     7ca <FLAGS+0x7c9>
 76b:	69 6e 66 6f 5f 74 00 	imul   $0x745f6f,0x66(%esi),%ebp
 772:	66 72 61             	data16 jb 7d6 <FLAGS+0x7d5>
 775:	6d                   	insl   (%dx),%es:(%edi)
 776:	65 62 75 66          	bound  %esi,%gs:0x66(%ebp)
 77a:	66 65 72 5f          	data16 gs jb 7dd <FLAGS+0x7dc>
 77e:	68 65 69 67 68       	push   $0x68676965
 783:	74 00                	je     785 <FLAGS+0x784>
 785:	6d                   	insl   (%dx),%es:(%edi)
 786:	75 6c                	jne    7f4 <FLAGS+0x7f3>
 788:	74 69                	je     7f3 <FLAGS+0x7f2>
 78a:	62 6f 6f             	bound  %ebp,0x6f(%edi)
 78d:	74 5f                	je     7ee <FLAGS+0x7ed>
 78f:	61                   	popa   
 790:	6f                   	outsl  %ds:(%esi),(%dx)
 791:	75 74                	jne    807 <FLAGS+0x806>
 793:	5f                   	pop    %edi
 794:	73 79                	jae    80f <FLAGS+0x80e>
 796:	6d                   	insl   (%dx),%es:(%edi)
 797:	62 6f 6c             	bound  %ebp,0x6c(%edi)
 79a:	5f                   	pop    %edi
 79b:	74 61                	je     7fe <FLAGS+0x7fd>
 79d:	62 6c 65 00          	bound  %ebp,0x0(%ebp,%eiz,2)
 7a1:	76 62                	jbe    805 <FLAGS+0x804>
 7a3:	65 5f                	gs pop %edi
 7a5:	69 6e 74 65 72 66 61 	imul   $0x61667265,0x74(%esi),%ebp
 7ac:	63 65 5f             	arpl   %sp,0x5f(%ebp)
 7af:	6c                   	insb   (%dx),%es:(%edi)
 7b0:	65 6e                	outsb  %gs:(%esi),(%dx)
 7b2:	00 6d 6f             	add    %ch,0x6f(%ebp)
 7b5:	64 73 5f             	fs jae 817 <FLAGS+0x816>
 7b8:	63 6f 75             	arpl   %bp,0x75(%edi)
 7bb:	6e                   	outsb  %ds:(%esi),(%dx)
 7bc:	74 00                	je     7be <FLAGS+0x7bd>
 7be:	6d                   	insl   (%dx),%es:(%edi)
 7bf:	75 6c                	jne    82d <FLAGS+0x82c>
 7c1:	74 69                	je     82c <FLAGS+0x82b>
 7c3:	62 6f 6f             	bound  %ebp,0x6f(%edi)
 7c6:	74 5f                	je     827 <FLAGS+0x826>
 7c8:	75 69                	jne    833 <FLAGS+0x832>
 7ca:	6e                   	outsb  %ds:(%esi),(%dx)
 7cb:	74 38                	je     805 <FLAGS+0x804>
 7cd:	5f                   	pop    %edi
 7ce:	74 00                	je     7d0 <FLAGS+0x7cf>
 7d0:	62 6f 6f             	bound  %ebp,0x6f(%edi)
 7d3:	74 5f                	je     834 <FLAGS+0x833>
 7d5:	6c                   	insb   (%dx),%es:(%edi)
 7d6:	6f                   	outsl  %ds:(%esi),(%dx)
 7d7:	61                   	popa   
 7d8:	64 65 72 5f          	fs gs jb 83b <FLAGS+0x83a>
 7dc:	6e                   	outsb  %ds:(%esi),(%dx)
 7dd:	61                   	popa   
 7de:	6d                   	insl   (%dx),%es:(%edi)
 7df:	65 00 76 62          	add    %dh,%gs:0x62(%esi)
 7e3:	65 5f                	gs pop %edi
 7e5:	69 6e 74 65 72 66 61 	imul   $0x61667265,0x74(%esi),%ebp
 7ec:	63 65 5f             	arpl   %sp,0x5f(%ebp)
 7ef:	73 65                	jae    856 <FLAGS+0x855>
 7f1:	67 00 6d 6f          	add    %ch,0x6f(%di)
 7f5:	64 75 6c             	fs jne 864 <FLAGS+0x863>
 7f8:	65 5f                	gs pop %edi
 7fa:	61                   	popa   
 7fb:	64 64 72 00          	fs fs jb 7ff <FLAGS+0x7fe>
 7ff:	72 65                	jb     866 <FLAGS+0x865>
 801:	73 65                	jae    868 <FLAGS+0x867>
 803:	72 76                	jb     87b <FLAGS+0x87a>
 805:	65 64 00 66 72       	gs add %ah,%fs:0x72(%esi)
 80a:	61                   	popa   
 80b:	6d                   	insl   (%dx),%es:(%edi)
 80c:	65 62 75 66          	bound  %esi,%gs:0x66(%ebp)
 810:	66 65 72 5f          	data16 gs jb 873 <FLAGS+0x872>
 814:	70 61                	jo     877 <FLAGS+0x876>
 816:	6c                   	insb   (%dx),%es:(%edi)
 817:	65 74 74             	gs je  88e <FLAGS+0x88d>
 81a:	65 5f                	gs pop %edi
 81c:	61                   	popa   
 81d:	64 64 72 00          	fs fs jb 821 <FLAGS+0x820>
 821:	69 6e 69 74 5f 67 64 	imul   $0x64675f74,0x69(%esi),%ebp
 828:	74 00                	je     82a <FLAGS+0x829>
 82a:	67 64 74 5f          	addr16 fs je 88d <FLAGS+0x88c>
 82e:	65 6e                	outsb  %gs:(%esi),(%dx)
 830:	74 72                	je     8a4 <FLAGS+0x8a3>
 832:	79 5f                	jns    893 <FLAGS+0x892>
 834:	73 74                	jae    8aa <FLAGS+0x8a9>
 836:	72 75                	jb     8ad <FLAGS+0x8ac>
 838:	63 74 00 61          	arpl   %si,0x61(%eax,%eax,1)
 83c:	63 63 65             	arpl   %sp,0x65(%ebx)
 83f:	73 73                	jae    8b4 <FLAGS+0x8b3>
 841:	00 67 64             	add    %ah,0x64(%edi)
 844:	74 5f                	je     8a5 <FLAGS+0x8a4>
 846:	74 00                	je     848 <FLAGS+0x847>
 848:	67 64 74 5f          	addr16 fs je 8ab <FLAGS+0x8aa>
 84c:	65 6e                	outsb  %gs:(%esi),(%dx)
 84e:	74 72                	je     8c2 <FLAGS+0x8c1>
 850:	79 5f                	jns    8b1 <FLAGS+0x8b0>
 852:	74 00                	je     854 <FLAGS+0x853>
 854:	6c                   	insb   (%dx),%es:(%edi)
 855:	69 6d 69 74 00 67 64 	imul   $0x64670074,0x69(%ebp),%ebp
 85c:	74 5f                	je     8bd <FLAGS+0x8bc>
 85e:	65 6e                	outsb  %gs:(%esi),(%dx)
 860:	74 72                	je     8d4 <FLAGS+0x8d3>
 862:	69 65 73 00 62 61 73 	imul   $0x73616200,0x73(%ebp),%esp
 869:	65 00 67 72          	add    %ah,%gs:0x72(%edi)
 86d:	61                   	popa   
 86e:	6e                   	outsb  %ds:(%esi),(%dx)
 86f:	00 6c 69 6d          	add    %ch,0x6d(%ecx,%ebp,2)
 873:	69 74 5f 6c 6f 77 00 	imul   $0x6200776f,0x6c(%edi,%ebx,2),%esi
 87a:	62 
 87b:	61                   	popa   
 87c:	73 65                	jae    8e3 <FLAGS+0x8e2>
 87e:	5f                   	pop    %edi
 87f:	68 69 67 68 00       	push   $0x686769
 884:	62 61 73             	bound  %esp,0x73(%ecx)
 887:	65 5f                	gs pop %edi
 889:	6d                   	insl   (%dx),%es:(%edi)
 88a:	69 64 64 6c 65 00 67 	imul   $0x72670065,0x6c(%esp,%eiz,2),%esp
 891:	72 
 892:	61                   	popa   
 893:	6e                   	outsb  %ds:(%esi),(%dx)
 894:	75 6c                	jne    902 <FLAGS+0x901>
 896:	61                   	popa   
 897:	72 69                	jb     902 <FLAGS+0x901>
 899:	74 79                	je     914 <FLAGS+0x913>
 89b:	00 67 64             	add    %ah,0x64(%edi)
 89e:	74 5f                	je     8ff <FLAGS+0x8fe>
 8a0:	73 74                	jae    916 <FLAGS+0x915>
 8a2:	72 75                	jb     919 <FLAGS+0x918>
 8a4:	63 74 00 62          	arpl   %si,0x62(%eax,%eax,1)
 8a8:	61                   	popa   
 8a9:	73 65                	jae    910 <FLAGS+0x90f>
 8ab:	5f                   	pop    %edi
 8ac:	6c                   	insb   (%dx),%es:(%edi)
 8ad:	6f                   	outsl  %ds:(%esi),(%dx)
 8ae:	77 00                	ja     8b0 <FLAGS+0x8af>
 8b0:	67 64 74 5f          	addr16 fs je 913 <FLAGS+0x912>
 8b4:	73 65                	jae    91b <FLAGS+0x91a>
 8b6:	74 5f                	je     917 <FLAGS+0x916>
 8b8:	67 61                	addr16 popa 
 8ba:	74 65                	je     921 <FLAGS+0x920>
 8bc:	00 75 31             	add    %dh,0x31(%ebp)
 8bf:	36 5f                	ss pop %edi
 8c1:	74 00                	je     8c3 <FLAGS+0x8c2>
 8c3:	73 72                	jae    937 <FLAGS+0x936>
 8c5:	63 2f                	arpl   %bp,(%edi)
 8c7:	62 6f 6f             	bound  %ebp,0x6f(%edi)
 8ca:	74 2f                	je     8fb <FLAGS+0x8fa>
 8cc:	67 64 74 2e          	addr16 fs je 8fe <FLAGS+0x8fd>
 8d0:	63 00                	arpl   %ax,(%eax)
 8d2:	63 68 61             	arpl   %bp,0x61(%eax)
 8d5:	72 61                	jb     938 <FLAGS+0x937>
 8d7:	63 74 65 72          	arpl   %si,0x72(%ebp,%eiz,2)
 8db:	00 64 65 73          	add    %ah,0x73(%ebp,%eiz,2)
 8df:	74 00                	je     8e1 <FLAGS+0x8e0>
 8e1:	66 62 5f 67          	bound  %bx,0x67(%edi)
 8e5:	65 74 5f             	gs je  947 <FLAGS+0x946>
 8e8:	63 75 72             	arpl   %si,0x72(%ebp)
 8eb:	73 6f                	jae    95c <FLAGS+0x95b>
 8ed:	72 00                	jb     8ef <FLAGS+0x8ee>
 8ef:	6f                   	outsl  %ds:(%esi),(%dx)
 8f0:	75 74                	jne    966 <FLAGS+0x965>
 8f2:	62 00                	bound  %eax,(%eax)
 8f4:	64 61                	fs popa 
 8f6:	74 61                	je     959 <FLAGS+0x958>
 8f8:	00 70 6f             	add    %dh,0x6f(%eax)
 8fb:	72 74                	jb     971 <FLAGS+0x970>
 8fd:	00 6d 65             	add    %ch,0x65(%ebp)
 900:	6d                   	insl   (%dx),%es:(%edi)
 901:	5f                   	pop    %edi
 902:	73 65                	jae    969 <FLAGS+0x968>
 904:	74 00                	je     906 <FLAGS+0x905>
 906:	66 62 5f 73          	bound  %bx,0x73(%edi)
 90a:	63 72 6f             	arpl   %si,0x6f(%edx)
 90d:	6c                   	insb   (%dx),%es:(%edi)
 90e:	6c                   	insb   (%dx),%es:(%edi)
 90f:	00 6d 65             	add    %ch,0x65(%ebp)
 912:	6d                   	insl   (%dx),%es:(%edi)
 913:	5f                   	pop    %edi
 914:	63 6f 70             	arpl   %bp,0x70(%edi)
 917:	79 00                	jns    919 <FLAGS+0x918>
 919:	66 62 5f 77          	bound  %bx,0x77(%edi)
 91d:	72 69                	jb     988 <FLAGS+0x987>
 91f:	74 65                	je     986 <FLAGS+0x985>
 921:	00 66 62             	add    %ah,0x62(%esi)
 924:	5f                   	pop    %edi
 925:	73 65                	jae    98c <FLAGS+0x98b>
 927:	74 5f                	je     988 <FLAGS+0x987>
 929:	63 75 72             	arpl   %si,0x72(%ebp)
 92c:	73 6f                	jae    99d <FLAGS+0x99c>
 92e:	72 00                	jb     930 <FLAGS+0x92f>
 930:	73 72                	jae    9a4 <FLAGS+0x9a3>
 932:	63 2f                	arpl   %bp,(%edi)
 934:	64 72 69             	fs jb  9a0 <FLAGS+0x99f>
 937:	76 65                	jbe    99e <FLAGS+0x99d>
 939:	72 73                	jb     9ae <FLAGS+0x9ad>
 93b:	2f                   	das    
 93c:	69 6f 2e 63 00 69 6e 	imul   $0x6e690063,0x2e(%edi),%ebp
 943:	69 74 5f 70 69 63 00 	imul   $0x69006369,0x70(%edi,%ebx,2),%esi
 94a:	69 
 94b:	73 72                	jae    9bf <FLAGS+0x9be>
 94d:	5f                   	pop    %edi
 94e:	68 61 6e 64 6c       	push   $0x6c646e61
 953:	65 72 00             	gs jb  956 <FLAGS+0x955>
 956:	69 64 74 5f 73 65 74 	imul   $0x5f746573,0x5f(%esp,%esi,2),%esp
 95d:	5f 
 95e:	67 61                	addr16 popa 
 960:	74 65                	je     9c7 <FLAGS+0x9c6>
 962:	00 69 6e             	add    %ch,0x6e(%ecx)
 965:	74 65                	je     9cc <FLAGS+0x9cb>
 967:	72 72                	jb     9db <FLAGS+0x9da>
 969:	75 70                	jne    9db <FLAGS+0x9da>
 96b:	74 5f                	je     9cc <FLAGS+0x9cb>
 96d:	68 61 6e 64 6c       	push   $0x6c646e61
 972:	65 72 5f             	gs jb  9d4 <FLAGS+0x9d3>
 975:	74 00                	je     977 <FLAGS+0x976>
 977:	69 64 74 5f 65 6e 74 	imul   $0x72746e65,0x5f(%esp,%esi,2),%esp
 97e:	72 
 97f:	79 5f                	jns    9e0 <FLAGS+0x9df>
 981:	74 00                	je     983 <FLAGS+0x982>
 983:	72 65                	jb     9ea <FLAGS+0x9e9>
 985:	67 69 73 74 65 72 5f 	imul   $0x695f7265,0x74(%bp,%di),%esi
 98c:	69 
 98d:	6e                   	outsb  %ds:(%esi),(%dx)
 98e:	74 65                	je     9f5 <FLAGS+0x9f4>
 990:	72 72                	jb     a04 <FLAGS+0xa03>
 992:	75 70                	jne    a04 <FLAGS+0xa03>
 994:	74 5f                	je     9f5 <FLAGS+0x9f4>
 996:	68 61 6e 64 6c       	push   $0x6c646e61
 99b:	65 72 00             	gs jb  99e <FLAGS+0x99d>
 99e:	69 72 71 5f 68 61 6e 	imul   $0x6e61685f,0x71(%edx),%esi
 9a5:	64 6c                	fs insb (%dx),%es:(%edi)
 9a7:	65 72 00             	gs jb  9aa <FLAGS+0x9a9>
 9aa:	69 6e 74 65 72 72 75 	imul   $0x75727265,0x74(%esi),%ebp
 9b1:	70 74                	jo     a27 <FLAGS+0xa26>
 9b3:	5f                   	pop    %edi
 9b4:	68 61 6e 64 6c       	push   $0x6c646e61
 9b9:	65 72 5f             	gs jb  a1b <FLAGS+0xa1a>
 9bc:	65 6e                	outsb  %gs:(%esi),(%dx)
 9be:	74 72                	je     a32 <FLAGS+0xa31>
 9c0:	69 65 73 00 73 65 67 	imul   $0x67657300,0x73(%ebp),%esp
 9c7:	6d                   	insl   (%dx),%es:(%edi)
 9c8:	65 6e                	outsb  %gs:(%esi),(%dx)
 9ca:	74 00                	je     9cc <FLAGS+0x9cb>
 9cc:	70 69                	jo     a37 <FLAGS+0xa36>
 9ce:	63 5f 61             	arpl   %bx,0x61(%edi)
 9d1:	63 6b 6e             	arpl   %bp,0x6e(%ebx)
 9d4:	6f                   	outsl  %ds:(%esi),(%dx)
 9d5:	77 6c                	ja     a43 <FLAGS+0xa42>
 9d7:	65 64 67 65 00 61 6c 	gs fs add %ah,%gs:0x6c(%bx,%di)
 9de:	77 61                	ja     a41 <FLAGS+0xa40>
 9e0:	79 73                	jns    a55 <FLAGS+0xa54>
 9e2:	30 00                	xor    %al,(%eax)
 9e4:	63 70 75             	arpl   %si,0x75(%eax)
 9e7:	69 64 00 69 64 74 5f 	imul   $0x735f7464,0x69(%eax,%eax,1),%esp
 9ee:	73 
 9ef:	74 72                	je     a63 <FLAGS+0xa62>
 9f1:	75 63                	jne    a56 <FLAGS+0xa55>
 9f3:	74 00                	je     9f5 <FLAGS+0x9f4>
 9f5:	69 64 74 5f 65 6e 74 	imul   $0x72746e65,0x5f(%esp,%esi,2),%esp
 9fc:	72 
 9fd:	79 5f                	jns    a5e <FLAGS+0xa5d>
 9ff:	73 74                	jae    a75 <FLAGS+0xa74>
 a01:	72 75                	jb     a78 <FLAGS+0xa77>
 a03:	63 74 00 69          	arpl   %si,0x69(%eax,%eax,1)
 a07:	64 74 5f             	fs je  a69 <FLAGS+0xa68>
 a0a:	65 6e                	outsb  %gs:(%esi),(%dx)
 a0c:	74 72                	je     a80 <FLAGS+0xa7f>
 a0e:	69 65 73 00 73 72 63 	imul   $0x63727300,0x73(%ebp),%esp
 a15:	2f                   	das    
 a16:	64 72 69             	fs jb  a82 <FLAGS+0xa81>
 a19:	76 65                	jbe    a80 <FLAGS+0xa7f>
 a1b:	72 73                	jb     a90 <FLAGS+0xa8f>
 a1d:	2f                   	das    
 a1e:	69 6e 74 65 72 72 75 	imul   $0x75727265,0x74(%esi),%ebp
 a25:	70 74                	jo     a9b <FLAGS+0xa9a>
 a27:	2e 63 00             	arpl   %ax,%cs:(%eax)
 a2a:	69 6e 69 74 5f 69 64 	imul   $0x64695f74,0x69(%esi),%ebp
 a31:	74 00                	je     a33 <FLAGS+0xa32>
 a33:	64 69 73 61 62 6c 65 	imul   $0x5f656c62,%fs:0x61(%ebx),%esi
 a3a:	5f 
 a3b:	6c                   	insb   (%dx),%es:(%edi)
 a3c:	6f                   	outsl  %ds:(%esi),(%dx)
 a3d:	63 61 6c             	arpl   %sp,0x6c(%ecx)
 a40:	5f                   	pop    %edi
 a41:	61                   	popa   
 a42:	70 69                	jo     aad <FLAGS+0xaac>
 a44:	63 00                	arpl   %ax,(%eax)
 a46:	69 64 74 5f 74 00 6b 	imul   $0x626b0074,0x5f(%esp,%esi,2),%esp
 a4d:	62 
 a4e:	5f                   	pop    %edi
 a4f:	65 6e                	outsb  %gs:(%esi),(%dx)
 a51:	63 5f 73             	arpl   %bx,0x73(%edi)
 a54:	65 6e                	outsb  %gs:(%esi),(%dx)
 a56:	64 5f                	fs pop %edi
 a58:	63 6d 64             	arpl   %bp,0x64(%ebp)
 a5b:	00 6b 62             	add    %ch,0x62(%ebx)
 a5e:	5f                   	pop    %edi
 a5f:	65 6e                	outsb  %gs:(%esi),(%dx)
 a61:	61                   	popa   
 a62:	62 6c 65 00          	bound  %ebp,0x0(%ebp,%eiz,2)
 a66:	6b 62 5f 63          	imul   $0x63,0x5f(%edx),%esp
 a6a:	61                   	popa   
 a6b:	6c                   	insb   (%dx),%es:(%edi)
 a6c:	6c                   	insb   (%dx),%es:(%edi)
 a6d:	62 61 63             	bound  %esp,0x63(%ecx)
 a70:	6b 00 6b             	imul   $0x6b,(%eax),%eax
 a73:	62 5f 63             	bound  %ebx,0x63(%edi)
 a76:	74 72                	je     aea <FLAGS+0xae9>
 a78:	6c                   	insb   (%dx),%es:(%edi)
 a79:	5f                   	pop    %edi
 a7a:	72 65                	jb     ae1 <FLAGS+0xae0>
 a7c:	61                   	popa   
 a7d:	64 5f                	fs pop %edi
 a7f:	73 74                	jae    af5 <FLAGS+0xaf4>
 a81:	61                   	popa   
 a82:	74 75                	je     af9 <FLAGS+0xaf8>
 a84:	73 00                	jae    a86 <FLAGS+0xa85>
 a86:	6b 62 5f 63          	imul   $0x63,0x5f(%edx),%esp
 a8a:	74 72                	je     afe <FLAGS+0xafd>
 a8c:	6c                   	insb   (%dx),%es:(%edi)
 a8d:	5f                   	pop    %edi
 a8e:	73 65                	jae    af5 <FLAGS+0xaf4>
 a90:	6e                   	outsb  %ds:(%esi),(%dx)
 a91:	64 5f                	fs pop %edi
 a93:	63 6d 64             	arpl   %bp,0x64(%ebp)
 a96:	00 69 6e             	add    %ch,0x6e(%ecx)
 a99:	69 74 5f 6b 65 79 62 	imul   $0x6f627965,0x6b(%edi,%ebx,2),%esi
 aa0:	6f 
 aa1:	61                   	popa   
 aa2:	72 64                	jb     b08 <FLAGS+0xb07>
 aa4:	00 6b 62             	add    %ch,0x62(%ebx)
 aa7:	5f                   	pop    %edi
 aa8:	65 6e                	outsb  %gs:(%esi),(%dx)
 aaa:	63 5f 72             	arpl   %bx,0x72(%edi)
 aad:	65 61                	gs popa 
 aaf:	64 5f                	fs pop %edi
 ab1:	62 75 66             	bound  %esi,0x66(%ebp)
 ab4:	00 6b 62             	add    %ch,0x62(%ebx)
 ab7:	5f                   	pop    %edi
 ab8:	73 65                	jae    b1f <FLAGS+0xb1e>
 aba:	74 5f                	je     b1b <FLAGS+0xb1a>
 abc:	63 61 70             	arpl   %sp,0x70(%ecx)
 abf:	5f                   	pop    %edi
 ac0:	6c                   	insb   (%dx),%es:(%edi)
 ac1:	65 64 00 73 72       	gs add %dh,%fs:0x72(%ebx)
 ac6:	63 2f                	arpl   %bp,(%edi)
 ac8:	64 72 69             	fs jb  b34 <FLAGS+0xb33>
 acb:	76 65                	jbe    b32 <FLAGS+0xb31>
 acd:	72 73                	jb     b42 <FLAGS+0xb41>
 acf:	2f                   	das    
 ad0:	6b 65 79 62          	imul   $0x62,0x79(%ebp),%esp
 ad4:	6f                   	outsl  %ds:(%esi),(%dx)
 ad5:	61                   	popa   
 ad6:	72 64                	jb     b3c <FLAGS+0xb3b>
 ad8:	2e 63 00             	arpl   %ax,%cs:(%eax)
 adb:	66 72 65             	data16 jb b43 <FLAGS+0xb42>
 ade:	71 75                	jno    b55 <FLAGS+0xb54>
 ae0:	65 6e                	outsb  %gs:(%esi),(%dx)
 ae2:	63 79 00             	arpl   %di,0x0(%ecx)
 ae5:	74 69                	je     b50 <FLAGS+0xb4f>
 ae7:	6d                   	insl   (%dx),%es:(%edi)
 ae8:	65 72 5f             	gs jb  b4a <FLAGS+0xb49>
 aeb:	63 61 6c             	arpl   %sp,0x6c(%ecx)
 aee:	6c                   	insb   (%dx),%es:(%edi)
 aef:	62 61 63             	bound  %esp,0x63(%ecx)
 af2:	6b 00 69             	imul   $0x69,(%eax),%eax
 af5:	6e                   	outsb  %ds:(%esi),(%dx)
 af6:	69 74 5f 74 69 6d 65 	imul   $0x72656d69,0x74(%edi,%ebx,2),%esi
 afd:	72 
 afe:	00 74 69 63          	add    %dh,0x63(%ecx,%ebp,2)
 b02:	6b 00 64             	imul   $0x64,(%eax),%eax
 b05:	69 76 69 73 6f 72 00 	imul   $0x726f73,0x69(%esi),%esi
 b0c:	73 72                	jae    b80 <FLAGS+0xb7f>
 b0e:	63 2f                	arpl   %bp,(%edi)
 b10:	64 72 69             	fs jb  b7c <FLAGS+0xb7b>
 b13:	76 65                	jbe    b7a <FLAGS+0xb79>
 b15:	72 73                	jb     b8a <FLAGS+0xb89>
 b17:	2f                   	das    
 b18:	74 69                	je     b83 <FLAGS+0xb82>
 b1a:	6d                   	insl   (%dx),%es:(%edi)
 b1b:	65 72 2e             	gs jb  b4c <FLAGS+0xb4b>
 b1e:	63 00                	arpl   %ax,(%eax)
 b20:	69 6e 73 65 72 74 5f 	imul   $0x5f747265,0x73(%esi),%ebp
 b27:	6f                   	outsl  %ds:(%esi),(%dx)
 b28:	72 64                	jb     b8e <FLAGS+0xb8d>
 b2a:	65 72 65             	gs jb  b92 <FLAGS+0xb91>
 b2d:	64 5f                	fs pop %edi
 b2f:	61                   	popa   
 b30:	72 72                	jb     ba4 <FLAGS+0xba3>
 b32:	61                   	popa   
 b33:	79 00                	jns    b35 <FLAGS+0xb34>
 b35:	69 74 65 6d 00 70 6c 	imul   $0x616c7000,0x6d(%ebp,%eiz,2),%esi
 b3c:	61 
 b3d:	63 65 5f             	arpl   %sp,0x5f(%ebp)
 b40:	6f                   	outsl  %ds:(%esi),(%dx)
 b41:	72 64                	jb     ba7 <FLAGS+0xba6>
 b43:	65 72 65             	gs jb  bab <FLAGS+0xbaa>
 b46:	64 5f                	fs pop %edi
 b48:	61                   	popa   
 b49:	72 72                	jb     bbd <FLAGS+0xbbc>
 b4b:	61                   	popa   
 b4c:	79 00                	jns    b4e <FLAGS+0xb4d>
 b4e:	6c                   	insb   (%dx),%es:(%edi)
 b4f:	6f                   	outsl  %ds:(%esi),(%dx)
 b50:	6f                   	outsl  %ds:(%esi),(%dx)
 b51:	6b 75 70 5f          	imul   $0x5f,0x70(%ebp),%esi
 b55:	6f                   	outsl  %ds:(%esi),(%dx)
 b56:	72 64                	jb     bbc <FLAGS+0xbbb>
 b58:	65 72 65             	gs jb  bc0 <FLAGS+0xbbf>
 b5b:	64 5f                	fs pop %edi
 b5d:	61                   	popa   
 b5e:	72 72                	jb     bd2 <FLAGS+0xbd1>
 b60:	61                   	popa   
 b61:	79 00                	jns    b63 <FLAGS+0xb62>
 b63:	63 72 65             	arpl   %si,0x65(%edx)
 b66:	61                   	popa   
 b67:	74 65                	je     bce <FLAGS+0xbcd>
 b69:	5f                   	pop    %edi
 b6a:	6f                   	outsl  %ds:(%esi),(%dx)
 b6b:	72 64                	jb     bd1 <FLAGS+0xbd0>
 b6d:	65 72 65             	gs jb  bd5 <FLAGS+0xbd4>
 b70:	64 5f                	fs pop %edi
 b72:	61                   	popa   
 b73:	72 72                	jb     be7 <FLAGS+0xbe6>
 b75:	61                   	popa   
 b76:	79 00                	jns    b78 <FLAGS+0xb77>
 b78:	74 6f                	je     be9 <FLAGS+0xbe8>
 b7a:	5f                   	pop    %edi
 b7b:	72 65                	jb     be2 <FLAGS+0xbe1>
 b7d:	74 00                	je     b7f <FLAGS+0xb7e>
 b7f:	72 65                	jb     be6 <FLAGS+0xbe5>
 b81:	6d                   	insl   (%dx),%es:(%edi)
 b82:	6f                   	outsl  %ds:(%esi),(%dx)
 b83:	76 65                	jbe    bea <FLAGS+0xbe9>
 b85:	5f                   	pop    %edi
 b86:	6f                   	outsl  %ds:(%esi),(%dx)
 b87:	72 64                	jb     bed <FLAGS+0xbec>
 b89:	65 72 65             	gs jb  bf1 <FLAGS+0xbf0>
 b8c:	64 5f                	fs pop %edi
 b8e:	61                   	popa   
 b8f:	72 72                	jb     c03 <FLAGS+0xc02>
 b91:	61                   	popa   
 b92:	79 00                	jns    b94 <FLAGS+0xb93>
 b94:	73 72                	jae    c08 <FLAGS+0xc07>
 b96:	63 2f                	arpl   %bp,(%edi)
 b98:	63 6f 6d             	arpl   %bp,0x6d(%edi)
 b9b:	6d                   	insl   (%dx),%es:(%edi)
 b9c:	6f                   	outsl  %ds:(%esi),(%dx)
 b9d:	6e                   	outsb  %ds:(%esi),(%dx)
 b9e:	2f                   	das    
 b9f:	6f                   	outsl  %ds:(%esi),(%dx)
 ba0:	72 64                	jb     c06 <FLAGS+0xc05>
 ba2:	65 72 65             	gs jb  c0a <FLAGS+0xc09>
 ba5:	64 5f                	fs pop %edi
 ba7:	61                   	popa   
 ba8:	72 72                	jb     c1c <FLAGS+0xc1b>
 baa:	61                   	popa   
 bab:	79 2e                	jns    bdb <FLAGS+0xbda>
 bad:	63 00                	arpl   %ax,(%eax)
 baf:	6d                   	insl   (%dx),%es:(%edi)
 bb0:	65 73 73             	gs jae c26 <FLAGS+0xc25>
 bb3:	61                   	popa   
 bb4:	67 65 00 70 72       	add    %dh,%gs:0x72(%bx,%si)
 bb9:	69 6e 74 5f 64 65 63 	imul   $0x6365645f,0x74(%esi),%ebp
 bc0:	69 6d 61 6c 00 70 72 	imul   $0x7270006c,0x61(%ebp),%ebp
 bc7:	69 6e 74 5f 73 74 72 	imul   $0x7274735f,0x74(%esi),%ebp
 bce:	69 6e 67 00 70 61 6e 	imul   $0x6e617000,0x67(%esi),%ebp
 bd5:	69 63 00 70 61 6e 69 	imul   $0x696e6170,0x0(%ebx),%esp
 bdc:	63 5f 61             	arpl   %bx,0x61(%edi)
 bdf:	73 73                	jae    c54 <FLAGS+0xc53>
 be1:	65 72 74             	gs jb  c58 <FLAGS+0xc57>
 be4:	00 66 69             	add    %ah,0x69(%esi)
 be7:	6c                   	insb   (%dx),%es:(%edi)
 be8:	65 00 70 72          	add    %dh,%gs:0x72(%eax)
 bec:	69 6e 74 5f 68 65 78 	imul   $0x7865685f,0x74(%esi),%ebp
 bf3:	00 73 72             	add    %dh,0x72(%ebx)
 bf6:	63 2f                	arpl   %bp,(%edi)
 bf8:	63 6f 6d             	arpl   %bp,0x6d(%edi)
 bfb:	6d                   	insl   (%dx),%es:(%edi)
 bfc:	6f                   	outsl  %ds:(%esi),(%dx)
 bfd:	6e                   	outsb  %ds:(%esi),(%dx)
 bfe:	2f                   	das    
 bff:	75 74                	jne    c75 <FLAGS+0xc74>
 c01:	69 6c 73 2e 63 00 6e 	imul   $0x656e0063,0x2e(%ebx,%esi,2),%ebp
 c08:	65 
 c09:	67 61                	addr16 popa 
 c0b:	74 69                	je     c76 <FLAGS+0xc75>
 c0d:	76 65                	jbe    c74 <FLAGS+0xc73>
 c0f:	00 64 65 73          	add    %ah,0x73(%ebp,%eiz,2)
 c13:	63 00                	arpl   %ax,(%eax)
 c15:	73 74                	jae    c8b <FLAGS+0xc8a>
 c17:	72 32                	jb     c4b <FLAGS+0xc4a>
	...

Disassembly of section .comment:

00000000 <.comment>:
   0:	47                   	inc    %edi
   1:	43                   	inc    %ebx
   2:	43                   	inc    %ebx
   3:	3a 20                	cmp    (%eax),%ah
   5:	28 47 4e             	sub    %al,0x4e(%edi)
   8:	55                   	push   %ebp
   9:	29 20                	sub    %esp,(%eax)
   b:	39 2e                	cmp    %ebp,(%esi)
   d:	32 2e                	xor    (%esi),%ch
   f:	30 00                	xor    %al,(%eax)
