
kernel.elf:     file format elf32-i386


Disassembly of section .text:

00100000 <start-0xc>:
  100000:	02 b0 ad 1b 01 00    	add    0x11bad(%eax),%dh
  100006:	00 00                	add    %al,(%eax)
  100008:	fd                   	std    
  100009:	4f                   	dec    %edi
  10000a:	52                   	push   %edx
  10000b:	e4                 	in     $0xb8,%al

0010000c <start>:
  10000c:	b8 be ba fe ca       	mov    $0xcafebabe,%eax
  100011:	54                   	push   %esp
  100012:	53                   	push   %ebx
  100013:	e8 69 1b 00 00       	call   101b81 <main>

00100018 <start.loop>:
  100018:	eb fe                	jmp    100018 <start.loop>

0010001a <expand>:
  10001a:	55                   	push   %ebp
  10001b:	89 e5                	mov    %esp,%ebp
  10001d:	56                   	push   %esi
  10001e:	53                   	push   %ebx
  10001f:	83 ec 10             	sub    $0x10,%esp
  100022:	8b 45 0c             	mov    0xc(%ebp),%eax
  100025:	8b 50 14             	mov    0x14(%eax),%edx
  100028:	8b 45 0c             	mov    0xc(%ebp),%eax
  10002b:	8b 40 10             	mov    0x10(%eax),%eax
  10002e:	29 c2                	sub    %eax,%edx
  100030:	89 d0                	mov    %edx,%eax
  100032:	39 45 08             	cmp    %eax,0x8(%ebp)
  100035:	77 17                	ja     10004e <expand+0x34>
  100037:	83 ec 04             	sub    $0x4,%esp
  10003a:	68 00 40 10 00       	push   $0x104000
  10003f:	6a 0b                	push   $0xb
  100041:	68 33 40 10 00       	push   $0x104033
  100046:	e8 27 31 00 00       	call   103172 <panic_assert>
  10004b:	83 c4 10             	add    $0x10,%esp
  10004e:	8b 45 08             	mov    0x8(%ebp),%eax
  100051:	25 ff 0f 00 00       	and    $0xfff,%eax
  100056:	85 c0                	test   %eax,%eax
  100058:	74 0e                	je     100068 <expand+0x4e>
  10005a:	81 65 08 00 f0 ff ff 	andl   $0xfffff000,0x8(%ebp)
  100061:	81 45 08 00 10 00 00 	addl   $0x1000,0x8(%ebp)
  100068:	8b 45 0c             	mov    0xc(%ebp),%eax
  10006b:	8b 50 10             	mov    0x10(%eax),%edx
  10006e:	8b 45 08             	mov    0x8(%ebp),%eax
  100071:	01 c2                	add    %eax,%edx
  100073:	8b 45 0c             	mov    0xc(%ebp),%eax
  100076:	8b 40 18             	mov    0x18(%eax),%eax
  100079:	39 c2                	cmp    %eax,%edx
  10007b:	76 17                	jbe    100094 <expand+0x7a>
  10007d:	83 ec 04             	sub    $0x4,%esp
  100080:	68 48 40 10 00       	push   $0x104048
  100085:	6a 11                	push   $0x11
  100087:	68 33 40 10 00       	push   $0x104033
  10008c:	e8 e1 30 00 00       	call   103172 <panic_assert>
  100091:	83 c4 10             	add    $0x10,%esp
  100094:	8b 45 0c             	mov    0xc(%ebp),%eax
  100097:	8b 50 14             	mov    0x14(%eax),%edx
  10009a:	8b 45 0c             	mov    0xc(%ebp),%eax
  10009d:	8b 40 10             	mov    0x10(%eax),%eax
  1000a0:	29 c2                	sub    %eax,%edx
  1000a2:	89 d0                	mov    %edx,%eax
  1000a4:	89 45 f0             	mov    %eax,-0x10(%ebp)
  1000a7:	8b 45 f0             	mov    -0x10(%ebp),%eax
  1000aa:	89 45 f4             	mov    %eax,-0xc(%ebp)
  1000ad:	eb 52                	jmp    100101 <expand+0xe7>
  1000af:	8b 45 0c             	mov    0xc(%ebp),%eax
  1000b2:	0f b6 40 1d          	movzbl 0x1d(%eax),%eax
  1000b6:	84 c0                	test   %al,%al
  1000b8:	0f 94 c0             	sete   %al
  1000bb:	0f b6 f0             	movzbl %al,%esi
  1000be:	8b 45 0c             	mov    0xc(%ebp),%eax
  1000c1:	0f b6 40 1c          	movzbl 0x1c(%eax),%eax
  1000c5:	84 c0                	test   %al,%al
  1000c7:	0f 95 c0             	setne  %al
  1000ca:	0f b6 d8             	movzbl %al,%ebx
  1000cd:	a1 04 60 10 00       	mov    0x106004,%eax
  1000d2:	8b 55 0c             	mov    0xc(%ebp),%edx
  1000d5:	8b 4a 10             	mov    0x10(%edx),%ecx
  1000d8:	8b 55 f4             	mov    -0xc(%ebp),%edx
  1000db:	01 ca                	add    %ecx,%edx
  1000dd:	83 ec 04             	sub    $0x4,%esp
  1000e0:	50                   	push   %eax
  1000e1:	6a 01                	push   $0x1
  1000e3:	52                   	push   %edx
  1000e4:	e8 64 16 00 00       	call   10174d <get_page>
  1000e9:	83 c4 10             	add    $0x10,%esp
  1000ec:	83 ec 04             	sub    $0x4,%esp
  1000ef:	56                   	push   %esi
  1000f0:	53                   	push   %ebx
  1000f1:	50                   	push   %eax
  1000f2:	e8 2e 13 00 00       	call   101425 <alloc_frame>
  1000f7:	83 c4 10             	add    $0x10,%esp
  1000fa:	81 45 f4 00 10 00 00 	addl   $0x1000,-0xc(%ebp)
  100101:	8b 45 f4             	mov    -0xc(%ebp),%eax
  100104:	3b 45 08             	cmp    0x8(%ebp),%eax
  100107:	72 a6                	jb     1000af <expand+0x95>
  100109:	8b 45 0c             	mov    0xc(%ebp),%eax
  10010c:	8b 50 10             	mov    0x10(%eax),%edx
  10010f:	8b 45 08             	mov    0x8(%ebp),%eax
  100112:	01 c2                	add    %eax,%edx
  100114:	8b 45 0c             	mov    0xc(%ebp),%eax
  100117:	89 50 14             	mov    %edx,0x14(%eax)
  10011a:	90                   	nop
  10011b:	8d 65 f8             	lea    -0x8(%ebp),%esp
  10011e:	5b                   	pop    %ebx
  10011f:	5e                   	pop    %esi
  100120:	5d                   	pop    %ebp
  100121:	c3                   	ret    

00100122 <kmalloc_internal>:
  100122:	55                   	push   %ebp
  100123:	89 e5                	mov    %esp,%ebp
  100125:	83 ec 18             	sub    $0x18,%esp
  100128:	a1 00 60 10 00       	mov    0x106000,%eax
  10012d:	85 c0                	test   %eax,%eax
  10012f:	0f 84 9f 00 00 00    	je     1001d4 <kmalloc_internal+0xb2>
  100135:	83 ec 0c             	sub    $0xc,%esp
  100138:	68 7c 40 10 00       	push   $0x10407c
  10013d:	e8 01 2d 00 00       	call   102e43 <print_string>
  100142:	83 c4 10             	add    $0x10,%esp
  100145:	8b 15 00 60 10 00    	mov    0x106000,%edx
  10014b:	8b 45 0c             	mov    0xc(%ebp),%eax
  10014e:	0f b6 c0             	movzbl %al,%eax
  100151:	83 ec 04             	sub    $0x4,%esp
  100154:	52                   	push   %edx
  100155:	50                   	push   %eax
  100156:	ff 75 08             	pushl  0x8(%ebp)
  100159:	e8 44 03 00 00       	call   1004a2 <alloc>
  10015e:	83 c4 10             	add    $0x10,%esp
  100161:	89 45 f0             	mov    %eax,-0x10(%ebp)
  100164:	83 ec 0c             	sub    $0xc,%esp
  100167:	68 94 40 10 00       	push   $0x104094
  10016c:	e8 d2 2c 00 00       	call   102e43 <print_string>
  100171:	83 c4 10             	add    $0x10,%esp
  100174:	8b 45 f0             	mov    -0x10(%ebp),%eax
  100177:	83 ec 0c             	sub    $0xc,%esp
  10017a:	50                   	push   %eax
  10017b:	e8 ab 2e 00 00       	call   10302b <print_hex>
  100180:	83 c4 10             	add    $0x10,%esp
  100183:	83 ec 0c             	sub    $0xc,%esp
  100186:	6a 0a                	push   $0xa
  100188:	e8 2d 2c 00 00       	call   102dba <print_char>
  10018d:	83 c4 10             	add    $0x10,%esp
  100190:	83 7d 10 00          	cmpl   $0x0,0x10(%ebp)
  100194:	74 39                	je     1001cf <kmalloc_internal+0xad>
  100196:	8b 15 04 60 10 00    	mov    0x106004,%edx
  10019c:	8b 45 f0             	mov    -0x10(%ebp),%eax
  10019f:	83 ec 04             	sub    $0x4,%esp
  1001a2:	52                   	push   %edx
  1001a3:	6a 00                	push   $0x0
  1001a5:	50                   	push   %eax
  1001a6:	e8 a2 15 00 00       	call   10174d <get_page>
  1001ab:	83 c4 10             	add    $0x10,%esp
  1001ae:	89 45 ec             	mov    %eax,-0x14(%ebp)
  1001b1:	8b 45 ec             	mov    -0x14(%ebp),%eax
  1001b4:	8b 00                	mov    (%eax),%eax
  1001b6:	c1 e8 0c             	shr    $0xc,%eax
  1001b9:	c1 e0 0c             	shl    $0xc,%eax
  1001bc:	89 c2                	mov    %eax,%edx
  1001be:	8b 45 f0             	mov    -0x10(%ebp),%eax
  1001c1:	01 d0                	add    %edx,%eax
  1001c3:	25 ff 0f 00 00       	and    $0xfff,%eax
  1001c8:	89 c2                	mov    %eax,%edx
  1001ca:	8b 45 10             	mov    0x10(%ebp),%eax
  1001cd:	89 10                	mov    %edx,(%eax)
  1001cf:	8b 45 f0             	mov    -0x10(%ebp),%eax
  1001d2:	eb 5e                	jmp    100232 <kmalloc_internal+0x110>
  1001d4:	83 7d 0c 01          	cmpl   $0x1,0xc(%ebp)
  1001d8:	75 2c                	jne    100206 <kmalloc_internal+0xe4>
  1001da:	a1 00 50 10 00       	mov    0x105000,%eax
  1001df:	25 ff 0f 00 00       	and    $0xfff,%eax
  1001e4:	85 c0                	test   %eax,%eax
  1001e6:	74 1e                	je     100206 <kmalloc_internal+0xe4>
  1001e8:	a1 00 50 10 00       	mov    0x105000,%eax
  1001ed:	25 00 f0 ff ff       	and    $0xfffff000,%eax
  1001f2:	a3 00 50 10 00       	mov    %eax,0x105000
  1001f7:	a1 00 50 10 00       	mov    0x105000,%eax
  1001fc:	05 00 10 00 00       	add    $0x1000,%eax
  100201:	a3 00 50 10 00       	mov    %eax,0x105000
  100206:	83 7d 10 00          	cmpl   $0x0,0x10(%ebp)
  10020a:	74 0b                	je     100217 <kmalloc_internal+0xf5>
  10020c:	8b 15 00 50 10 00    	mov    0x105000,%edx
  100212:	8b 45 10             	mov    0x10(%ebp),%eax
  100215:	89 10                	mov    %edx,(%eax)
  100217:	a1 00 50 10 00       	mov    0x105000,%eax
  10021c:	89 45 f4             	mov    %eax,-0xc(%ebp)
  10021f:	8b 15 00 50 10 00    	mov    0x105000,%edx
  100225:	8b 45 08             	mov    0x8(%ebp),%eax
  100228:	01 d0                	add    %edx,%eax
  10022a:	a3 00 50 10 00       	mov    %eax,0x105000
  10022f:	8b 45 f4             	mov    -0xc(%ebp),%eax
  100232:	c9                   	leave  
  100233:	c3                   	ret    

00100234 <kmalloc>:
  100234:	55                   	push   %ebp
  100235:	89 e5                	mov    %esp,%ebp
  100237:	83 ec 08             	sub    $0x8,%esp
  10023a:	83 ec 04             	sub    $0x4,%esp
  10023d:	6a 00                	push   $0x0
  10023f:	6a 00                	push   $0x0
  100241:	ff 75 08             	pushl  0x8(%ebp)
  100244:	e8 d9 fe ff ff       	call   100122 <kmalloc_internal>
  100249:	83 c4 10             	add    $0x10,%esp
  10024c:	c9                   	leave  
  10024d:	c3                   	ret    

0010024e <kmalloc_a>:
  10024e:	55                   	push   %ebp
  10024f:	89 e5                	mov    %esp,%ebp
  100251:	83 ec 08             	sub    $0x8,%esp
  100254:	83 ec 04             	sub    $0x4,%esp
  100257:	6a 00                	push   $0x0
  100259:	6a 01                	push   $0x1
  10025b:	ff 75 08             	pushl  0x8(%ebp)
  10025e:	e8 bf fe ff ff       	call   100122 <kmalloc_internal>
  100263:	83 c4 10             	add    $0x10,%esp
  100266:	c9                   	leave  
  100267:	c3                   	ret    

00100268 <kmalloc_p>:
  100268:	55                   	push   %ebp
  100269:	89 e5                	mov    %esp,%ebp
  10026b:	83 ec 08             	sub    $0x8,%esp
  10026e:	83 ec 04             	sub    $0x4,%esp
  100271:	ff 75 0c             	pushl  0xc(%ebp)
  100274:	6a 00                	push   $0x0
  100276:	ff 75 08             	pushl  0x8(%ebp)
  100279:	e8 a4 fe ff ff       	call   100122 <kmalloc_internal>
  10027e:	83 c4 10             	add    $0x10,%esp
  100281:	c9                   	leave  
  100282:	c3                   	ret    

00100283 <kmalloc_ap>:
  100283:	55                   	push   %ebp
  100284:	89 e5                	mov    %esp,%ebp
  100286:	83 ec 08             	sub    $0x8,%esp
  100289:	83 ec 04             	sub    $0x4,%esp
  10028c:	ff 75 0c             	pushl  0xc(%ebp)
  10028f:	6a 01                	push   $0x1
  100291:	ff 75 08             	pushl  0x8(%ebp)
  100294:	e8 89 fe ff ff       	call   100122 <kmalloc_internal>
  100299:	83 c4 10             	add    $0x10,%esp
  10029c:	c9                   	leave  
  10029d:	c3                   	ret    

0010029e <find_smallest_hole>:
  10029e:	55                   	push   %ebp
  10029f:	89 e5                	mov    %esp,%ebp
  1002a1:	83 ec 38             	sub    $0x38,%esp
  1002a4:	8b 45 0c             	mov    0xc(%ebp),%eax
  1002a7:	88 45 d4             	mov    %al,-0x2c(%ebp)
  1002aa:	c7 45 f4 00 00 00 00 	movl   $0x0,-0xc(%ebp)
  1002b1:	e9 c6 00 00 00       	jmp    10037c <find_smallest_hole+0xde>
  1002b6:	8b 55 10             	mov    0x10(%ebp),%edx
  1002b9:	8b 45 f4             	mov    -0xc(%ebp),%eax
  1002bc:	83 ec 08             	sub    $0x8,%esp
  1002bf:	52                   	push   %edx
  1002c0:	50                   	push   %eax
  1002c1:	e8 70 2a 00 00       	call   102d36 <lookup_ordered_array>
  1002c6:	83 c4 10             	add    $0x10,%esp
  1002c9:	89 45 f0             	mov    %eax,-0x10(%ebp)
  1002cc:	80 7d d4 00          	cmpb   $0x0,-0x2c(%ebp)
  1002d0:	0f 84 97 00 00 00    	je     10036d <find_smallest_hole+0xcf>
  1002d6:	8b 45 f0             	mov    -0x10(%ebp),%eax
  1002d9:	89 45 ec             	mov    %eax,-0x14(%ebp)
  1002dc:	c7 45 e8 00 00 00 00 	movl   $0x0,-0x18(%ebp)
  1002e3:	8b 45 ec             	mov    -0x14(%ebp),%eax
  1002e6:	83 c0 0c             	add    $0xc,%eax
  1002e9:	25 ff 0f 00 00       	and    $0xfff,%eax
  1002ee:	85 c0                	test   %eax,%eax
  1002f0:	0f 84 82 00 00 00    	je     100378 <find_smallest_hole+0xda>
  1002f6:	8b 45 ec             	mov    -0x14(%ebp),%eax
  1002f9:	83 c0 0c             	add    $0xc,%eax
  1002fc:	25 ff 0f 00 00       	and    $0xfff,%eax
  100301:	ba 00 10 00 00       	mov    $0x1000,%edx
  100306:	29 c2                	sub    %eax,%edx
  100308:	89 d0                	mov    %edx,%eax
  10030a:	89 45 e8             	mov    %eax,-0x18(%ebp)
  10030d:	8b 45 f0             	mov    -0x10(%ebp),%eax
  100310:	8b 40 08             	mov    0x8(%eax),%eax
  100313:	2b 45 e8             	sub    -0x18(%ebp),%eax
  100316:	89 45 e4             	mov    %eax,-0x1c(%ebp)
  100319:	83 ec 0c             	sub    $0xc,%esp
  10031c:	68 b3 40 10 00       	push   $0x1040b3
  100321:	e8 1d 2b 00 00       	call   102e43 <print_string>
  100326:	83 c4 10             	add    $0x10,%esp
  100329:	83 ec 0c             	sub    $0xc,%esp
  10032c:	ff 75 e4             	pushl  -0x1c(%ebp)
  10032f:	e8 c5 2b 00 00       	call   102ef9 <print_decimal>
  100334:	83 c4 10             	add    $0x10,%esp
  100337:	83 ec 0c             	sub    $0xc,%esp
  10033a:	68 d0 40 10 00       	push   $0x1040d0
  10033f:	e8 ff 2a 00 00       	call   102e43 <print_string>
  100344:	83 c4 10             	add    $0x10,%esp
  100347:	8b 45 08             	mov    0x8(%ebp),%eax
  10034a:	83 ec 0c             	sub    $0xc,%esp
  10034d:	50                   	push   %eax
  10034e:	e8 a6 2b 00 00       	call   102ef9 <print_decimal>
  100353:	83 c4 10             	add    $0x10,%esp
  100356:	83 ec 0c             	sub    $0xc,%esp
  100359:	6a 0a                	push   $0xa
  10035b:	e8 5a 2a 00 00       	call   102dba <print_char>
  100360:	83 c4 10             	add    $0x10,%esp
  100363:	8b 45 08             	mov    0x8(%ebp),%eax
  100366:	39 45 e4             	cmp    %eax,-0x1c(%ebp)
  100369:	7c 0d                	jl     100378 <find_smallest_hole+0xda>
  10036b:	eb 23                	jmp    100390 <find_smallest_hole+0xf2>
  10036d:	8b 45 f0             	mov    -0x10(%ebp),%eax
  100370:	8b 40 08             	mov    0x8(%eax),%eax
  100373:	39 45 08             	cmp    %eax,0x8(%ebp)
  100376:	76 17                	jbe    10038f <find_smallest_hole+0xf1>
  100378:	83 45 f4 01          	addl   $0x1,-0xc(%ebp)
  10037c:	8b 45 10             	mov    0x10(%ebp),%eax
  10037f:	8b 50 04             	mov    0x4(%eax),%edx
  100382:	8b 45 f4             	mov    -0xc(%ebp),%eax
  100385:	39 c2                	cmp    %eax,%edx
  100387:	0f 87 29 ff ff ff    	ja     1002b6 <find_smallest_hole+0x18>
  10038d:	eb 01                	jmp    100390 <find_smallest_hole+0xf2>
  10038f:	90                   	nop
  100390:	8b 45 10             	mov    0x10(%ebp),%eax
  100393:	8b 50 04             	mov    0x4(%eax),%edx
  100396:	8b 45 f4             	mov    -0xc(%ebp),%eax
  100399:	39 c2                	cmp    %eax,%edx
  10039b:	77 07                	ja     1003a4 <find_smallest_hole+0x106>
  10039d:	b8 ff ff ff ff       	mov    $0xffffffff,%eax
  1003a2:	eb 03                	jmp    1003a7 <find_smallest_hole+0x109>
  1003a4:	8b 45 f4             	mov    -0xc(%ebp),%eax
  1003a7:	c9                   	leave  
  1003a8:	c3                   	ret    

001003a9 <header_t_less_than>:
  1003a9:	55                   	push   %ebp
  1003aa:	89 e5                	mov    %esp,%ebp
  1003ac:	8b 45 08             	mov    0x8(%ebp),%eax
  1003af:	8b 50 08             	mov    0x8(%eax),%edx
  1003b2:	8b 45 0c             	mov    0xc(%ebp),%eax
  1003b5:	8b 40 08             	mov    0x8(%eax),%eax
  1003b8:	39 c2                	cmp    %eax,%edx
  1003ba:	0f 92 c0             	setb   %al
  1003bd:	5d                   	pop    %ebp
  1003be:	c3                   	ret    

001003bf <create_heap>:
  1003bf:	55                   	push   %ebp
  1003c0:	89 e5                	mov    %esp,%ebp
  1003c2:	53                   	push   %ebx
  1003c3:	83 ec 34             	sub    $0x34,%esp
  1003c6:	8b 55 14             	mov    0x14(%ebp),%edx
  1003c9:	8b 45 18             	mov    0x18(%ebp),%eax
  1003cc:	88 55 e4             	mov    %dl,-0x1c(%ebp)
  1003cf:	88 45 e0             	mov    %al,-0x20(%ebp)
  1003d2:	83 ec 0c             	sub    $0xc,%esp
  1003d5:	6a 20                	push   $0x20
  1003d7:	e8 58 fe ff ff       	call   100234 <kmalloc>
  1003dc:	83 c4 10             	add    $0x10,%esp
  1003df:	89 45 f4             	mov    %eax,-0xc(%ebp)
  1003e2:	8b 55 08             	mov    0x8(%ebp),%edx
  1003e5:	8b 5d f4             	mov    -0xc(%ebp),%ebx
  1003e8:	8d 45 c8             	lea    -0x38(%ebp),%eax
  1003eb:	68 a9 03 10 00       	push   $0x1003a9
  1003f0:	68 00 00 02 00       	push   $0x20000
  1003f5:	52                   	push   %edx
  1003f6:	50                   	push   %eax
  1003f7:	e8 cd 27 00 00       	call   102bc9 <place_ordered_array>
  1003fc:	83 c4 0c             	add    $0xc,%esp
  1003ff:	8b 45 c8             	mov    -0x38(%ebp),%eax
  100402:	89 03                	mov    %eax,(%ebx)
  100404:	8b 45 cc             	mov    -0x34(%ebp),%eax
  100407:	89 43 04             	mov    %eax,0x4(%ebx)
  10040a:	8b 45 d0             	mov    -0x30(%ebp),%eax
  10040d:	89 43 08             	mov    %eax,0x8(%ebx)
  100410:	8b 45 d4             	mov    -0x2c(%ebp),%eax
  100413:	89 43 0c             	mov    %eax,0xc(%ebx)
  100416:	81 45 08 00 00 08 00 	addl   $0x80000,0x8(%ebp)
  10041d:	8b 45 08             	mov    0x8(%ebp),%eax
  100420:	83 e0 01             	and    $0x1,%eax
  100423:	85 c0                	test   %eax,%eax
  100425:	74 0e                	je     100435 <create_heap+0x76>
  100427:	81 65 08 00 f0 ff ff 	andl   $0xfffff000,0x8(%ebp)
  10042e:	81 45 08 00 10 00 00 	addl   $0x1000,0x8(%ebp)
  100435:	8b 45 f4             	mov    -0xc(%ebp),%eax
  100438:	8b 55 08             	mov    0x8(%ebp),%edx
  10043b:	89 50 10             	mov    %edx,0x10(%eax)
  10043e:	8b 45 f4             	mov    -0xc(%ebp),%eax
  100441:	8b 55 0c             	mov    0xc(%ebp),%edx
  100444:	89 50 14             	mov    %edx,0x14(%eax)
  100447:	8b 45 f4             	mov    -0xc(%ebp),%eax
  10044a:	8b 55 10             	mov    0x10(%ebp),%edx
  10044d:	89 50 18             	mov    %edx,0x18(%eax)
  100450:	8b 45 f4             	mov    -0xc(%ebp),%eax
  100453:	0f b6 55 e4          	movzbl -0x1c(%ebp),%edx
  100457:	88 50 1c             	mov    %dl,0x1c(%eax)
  10045a:	8b 45 f4             	mov    -0xc(%ebp),%eax
  10045d:	0f b6 55 e0          	movzbl -0x20(%ebp),%edx
  100461:	88 50 1d             	mov    %dl,0x1d(%eax)
  100464:	8b 45 08             	mov    0x8(%ebp),%eax
  100467:	89 45 f0             	mov    %eax,-0x10(%ebp)
  10046a:	8b 45 0c             	mov    0xc(%ebp),%eax
  10046d:	2b 45 08             	sub    0x8(%ebp),%eax
  100470:	89 c2                	mov    %eax,%edx
  100472:	8b 45 f0             	mov    -0x10(%ebp),%eax
  100475:	89 50 08             	mov    %edx,0x8(%eax)
  100478:	8b 45 f0             	mov    -0x10(%ebp),%eax
  10047b:	c7 00 ab 90 38 12    	movl   $0x123890ab,(%eax)
  100481:	8b 45 f0             	mov    -0x10(%ebp),%eax
  100484:	c6 40 04 01          	movb   $0x1,0x4(%eax)
  100488:	8b 45 f4             	mov    -0xc(%ebp),%eax
  10048b:	83 ec 08             	sub    $0x8,%esp
  10048e:	50                   	push   %eax
  10048f:	ff 75 f0             	pushl  -0x10(%ebp)
  100492:	e8 bd 27 00 00       	call   102c54 <insert_ordered_array>
  100497:	83 c4 10             	add    $0x10,%esp
  10049a:	8b 45 f4             	mov    -0xc(%ebp),%eax
  10049d:	8b 5d fc             	mov    -0x4(%ebp),%ebx
  1004a0:	c9                   	leave  
  1004a1:	c3                   	ret    

001004a2 <alloc>:
  1004a2:	55                   	push   %ebp
  1004a3:	89 e5                	mov    %esp,%ebp
  1004a5:	83 ec 78             	sub    $0x78,%esp
  1004a8:	8b 45 0c             	mov    0xc(%ebp),%eax
  1004ab:	88 45 94             	mov    %al,-0x6c(%ebp)
  1004ae:	8b 45 08             	mov    0x8(%ebp),%eax
  1004b1:	83 c0 14             	add    $0x14,%eax
  1004b4:	89 45 f4             	mov    %eax,-0xc(%ebp)
  1004b7:	0f b6 45 94          	movzbl -0x6c(%ebp),%eax
  1004bb:	83 ec 04             	sub    $0x4,%esp
  1004be:	ff 75 10             	pushl  0x10(%ebp)
  1004c1:	50                   	push   %eax
  1004c2:	ff 75 f4             	pushl  -0xc(%ebp)
  1004c5:	e8 d4 fd ff ff       	call   10029e <find_smallest_hole>
  1004ca:	83 c4 10             	add    $0x10,%esp
  1004cd:	89 45 f0             	mov    %eax,-0x10(%ebp)
  1004d0:	83 ec 0c             	sub    $0xc,%esp
  1004d3:	68 e1 40 10 00       	push   $0x1040e1
  1004d8:	e8 66 29 00 00       	call   102e43 <print_string>
  1004dd:	83 c4 10             	add    $0x10,%esp
  1004e0:	0f b6 45 94          	movzbl -0x6c(%ebp),%eax
  1004e4:	83 ec 0c             	sub    $0xc,%esp
  1004e7:	50                   	push   %eax
  1004e8:	e8 0c 2a 00 00       	call   102ef9 <print_decimal>
  1004ed:	83 c4 10             	add    $0x10,%esp
  1004f0:	83 ec 0c             	sub    $0xc,%esp
  1004f3:	68 ee 40 10 00       	push   $0x1040ee
  1004f8:	e8 46 29 00 00       	call   102e43 <print_string>
  1004fd:	83 c4 10             	add    $0x10,%esp
  100500:	83 ec 0c             	sub    $0xc,%esp
  100503:	ff 75 f0             	pushl  -0x10(%ebp)
  100506:	e8 ee 29 00 00       	call   102ef9 <print_decimal>
  10050b:	83 c4 10             	add    $0x10,%esp
  10050e:	83 ec 0c             	sub    $0xc,%esp
  100511:	6a 0a                	push   $0xa
  100513:	e8 a2 28 00 00       	call   102dba <print_char>
  100518:	83 c4 10             	add    $0x10,%esp
  10051b:	83 7d f0 ff          	cmpl   $0xffffffff,-0x10(%ebp)
  10051f:	0f 85 60 01 00 00    	jne    100685 <alloc+0x1e3>
  100525:	8b 45 10             	mov    0x10(%ebp),%eax
  100528:	8b 50 14             	mov    0x14(%eax),%edx
  10052b:	8b 45 10             	mov    0x10(%ebp),%eax
  10052e:	8b 40 10             	mov    0x10(%eax),%eax
  100531:	29 c2                	sub    %eax,%edx
  100533:	89 d0                	mov    %edx,%eax
  100535:	89 45 bc             	mov    %eax,-0x44(%ebp)
  100538:	8b 45 10             	mov    0x10(%ebp),%eax
  10053b:	8b 40 14             	mov    0x14(%eax),%eax
  10053e:	89 45 b8             	mov    %eax,-0x48(%ebp)
  100541:	8b 55 bc             	mov    -0x44(%ebp),%edx
  100544:	8b 45 f4             	mov    -0xc(%ebp),%eax
  100547:	01 d0                	add    %edx,%eax
  100549:	83 ec 08             	sub    $0x8,%esp
  10054c:	ff 75 10             	pushl  0x10(%ebp)
  10054f:	50                   	push   %eax
  100550:	e8 c5 fa ff ff       	call   10001a <expand>
  100555:	83 c4 10             	add    $0x10,%esp
  100558:	8b 45 10             	mov    0x10(%ebp),%eax
  10055b:	8b 50 14             	mov    0x14(%eax),%edx
  10055e:	8b 45 10             	mov    0x10(%ebp),%eax
  100561:	8b 40 10             	mov    0x10(%eax),%eax
  100564:	29 c2                	sub    %eax,%edx
  100566:	89 d0                	mov    %edx,%eax
  100568:	89 45 b4             	mov    %eax,-0x4c(%ebp)
  10056b:	c7 45 f0 00 00 00 00 	movl   $0x0,-0x10(%ebp)
  100572:	c7 45 ec ff ff ff ff 	movl   $0xffffffff,-0x14(%ebp)
  100579:	c7 45 e8 00 00 00 00 	movl   $0x0,-0x18(%ebp)
  100580:	eb 2e                	jmp    1005b0 <alloc+0x10e>
  100582:	8b 55 10             	mov    0x10(%ebp),%edx
  100585:	8b 45 f0             	mov    -0x10(%ebp),%eax
  100588:	83 ec 08             	sub    $0x8,%esp
  10058b:	52                   	push   %edx
  10058c:	50                   	push   %eax
  10058d:	e8 a4 27 00 00       	call   102d36 <lookup_ordered_array>
  100592:	83 c4 10             	add    $0x10,%esp
  100595:	89 45 a0             	mov    %eax,-0x60(%ebp)
  100598:	8b 45 a0             	mov    -0x60(%ebp),%eax
  10059b:	3b 45 e8             	cmp    -0x18(%ebp),%eax
  10059e:	76 0c                	jbe    1005ac <alloc+0x10a>
  1005a0:	8b 45 a0             	mov    -0x60(%ebp),%eax
  1005a3:	89 45 e8             	mov    %eax,-0x18(%ebp)
  1005a6:	8b 45 f0             	mov    -0x10(%ebp),%eax
  1005a9:	89 45 ec             	mov    %eax,-0x14(%ebp)
  1005ac:	83 45 f0 01          	addl   $0x1,-0x10(%ebp)
  1005b0:	8b 45 10             	mov    0x10(%ebp),%eax
  1005b3:	8b 50 04             	mov    0x4(%eax),%edx
  1005b6:	8b 45 f0             	mov    -0x10(%ebp),%eax
  1005b9:	39 c2                	cmp    %eax,%edx
  1005bb:	77 c5                	ja     100582 <alloc+0xe0>
  1005bd:	83 7d ec ff          	cmpl   $0xffffffff,-0x14(%ebp)
  1005c1:	75 5b                	jne    10061e <alloc+0x17c>
  1005c3:	8b 45 b8             	mov    -0x48(%ebp),%eax
  1005c6:	89 45 a8             	mov    %eax,-0x58(%ebp)
  1005c9:	8b 45 a8             	mov    -0x58(%ebp),%eax
  1005cc:	c7 00 ab 90 38 12    	movl   $0x123890ab,(%eax)
  1005d2:	8b 45 b4             	mov    -0x4c(%ebp),%eax
  1005d5:	2b 45 bc             	sub    -0x44(%ebp),%eax
  1005d8:	89 c2                	mov    %eax,%edx
  1005da:	8b 45 a8             	mov    -0x58(%ebp),%eax
  1005dd:	89 50 08             	mov    %edx,0x8(%eax)
  1005e0:	8b 45 a8             	mov    -0x58(%ebp),%eax
  1005e3:	c6 40 04 01          	movb   $0x1,0x4(%eax)
  1005e7:	8b 45 a8             	mov    -0x58(%ebp),%eax
  1005ea:	8b 50 08             	mov    0x8(%eax),%edx
  1005ed:	8b 45 b8             	mov    -0x48(%ebp),%eax
  1005f0:	01 d0                	add    %edx,%eax
  1005f2:	83 e8 08             	sub    $0x8,%eax
  1005f5:	89 45 a4             	mov    %eax,-0x5c(%ebp)
  1005f8:	8b 45 a4             	mov    -0x5c(%ebp),%eax
  1005fb:	c7 00 ab 90 38 12    	movl   $0x123890ab,(%eax)
  100601:	8b 45 a4             	mov    -0x5c(%ebp),%eax
  100604:	8b 55 a8             	mov    -0x58(%ebp),%edx
  100607:	89 50 04             	mov    %edx,0x4(%eax)
  10060a:	8b 45 10             	mov    0x10(%ebp),%eax
  10060d:	83 ec 08             	sub    $0x8,%esp
  100610:	50                   	push   %eax
  100611:	ff 75 a8             	pushl  -0x58(%ebp)
  100614:	e8 3b 26 00 00       	call   102c54 <insert_ordered_array>
  100619:	83 c4 10             	add    $0x10,%esp
  10061c:	eb 4c                	jmp    10066a <alloc+0x1c8>
  10061e:	8b 45 10             	mov    0x10(%ebp),%eax
  100621:	83 ec 08             	sub    $0x8,%esp
  100624:	50                   	push   %eax
  100625:	ff 75 ec             	pushl  -0x14(%ebp)
  100628:	e8 09 27 00 00       	call   102d36 <lookup_ordered_array>
  10062d:	83 c4 10             	add    $0x10,%esp
  100630:	89 45 b0             	mov    %eax,-0x50(%ebp)
  100633:	8b 45 b0             	mov    -0x50(%ebp),%eax
  100636:	8b 50 08             	mov    0x8(%eax),%edx
  100639:	8b 45 b4             	mov    -0x4c(%ebp),%eax
  10063c:	2b 45 bc             	sub    -0x44(%ebp),%eax
  10063f:	01 c2                	add    %eax,%edx
  100641:	8b 45 b0             	mov    -0x50(%ebp),%eax
  100644:	89 50 08             	mov    %edx,0x8(%eax)
  100647:	8b 45 b0             	mov    -0x50(%ebp),%eax
  10064a:	8b 50 08             	mov    0x8(%eax),%edx
  10064d:	8b 45 b0             	mov    -0x50(%ebp),%eax
  100650:	01 d0                	add    %edx,%eax
  100652:	83 e8 08             	sub    $0x8,%eax
  100655:	89 45 ac             	mov    %eax,-0x54(%ebp)
  100658:	8b 45 ac             	mov    -0x54(%ebp),%eax
  10065b:	8b 55 b0             	mov    -0x50(%ebp),%edx
  10065e:	89 50 04             	mov    %edx,0x4(%eax)
  100661:	8b 45 ac             	mov    -0x54(%ebp),%eax
  100664:	c7 00 ab 90 38 12    	movl   $0x123890ab,(%eax)
  10066a:	0f b6 45 94          	movzbl -0x6c(%ebp),%eax
  10066e:	83 ec 04             	sub    $0x4,%esp
  100671:	ff 75 10             	pushl  0x10(%ebp)
  100674:	50                   	push   %eax
  100675:	ff 75 08             	pushl  0x8(%ebp)
  100678:	e8 25 fe ff ff       	call   1004a2 <alloc>
  10067d:	83 c4 10             	add    $0x10,%esp
  100680:	e9 c8 01 00 00       	jmp    10084d <alloc+0x3ab>
  100685:	8b 55 10             	mov    0x10(%ebp),%edx
  100688:	8b 45 f0             	mov    -0x10(%ebp),%eax
  10068b:	83 ec 08             	sub    $0x8,%esp
  10068e:	52                   	push   %edx
  10068f:	50                   	push   %eax
  100690:	e8 a1 26 00 00       	call   102d36 <lookup_ordered_array>
  100695:	83 c4 10             	add    $0x10,%esp
  100698:	89 45 dc             	mov    %eax,-0x24(%ebp)
  10069b:	8b 45 dc             	mov    -0x24(%ebp),%eax
  10069e:	89 45 e4             	mov    %eax,-0x1c(%ebp)
  1006a1:	8b 45 dc             	mov    -0x24(%ebp),%eax
  1006a4:	8b 40 08             	mov    0x8(%eax),%eax
  1006a7:	89 45 e0             	mov    %eax,-0x20(%ebp)
  1006aa:	8b 45 e0             	mov    -0x20(%ebp),%eax
  1006ad:	2b 45 f4             	sub    -0xc(%ebp),%eax
  1006b0:	83 f8 13             	cmp    $0x13,%eax
  1006b3:	77 0f                	ja     1006c4 <alloc+0x222>
  1006b5:	8b 45 e0             	mov    -0x20(%ebp),%eax
  1006b8:	2b 45 f4             	sub    -0xc(%ebp),%eax
  1006bb:	01 45 08             	add    %eax,0x8(%ebp)
  1006be:	8b 45 e0             	mov    -0x20(%ebp),%eax
  1006c1:	89 45 f4             	mov    %eax,-0xc(%ebp)
  1006c4:	83 ec 0c             	sub    $0xc,%esp
  1006c7:	68 f7 40 10 00       	push   $0x1040f7
  1006cc:	e8 72 27 00 00       	call   102e43 <print_string>
  1006d1:	83 c4 10             	add    $0x10,%esp
  1006d4:	83 ec 0c             	sub    $0xc,%esp
  1006d7:	ff 75 e4             	pushl  -0x1c(%ebp)
  1006da:	e8 4c 29 00 00       	call   10302b <print_hex>
  1006df:	83 c4 10             	add    $0x10,%esp
  1006e2:	83 ec 0c             	sub    $0xc,%esp
  1006e5:	6a 0a                	push   $0xa
  1006e7:	e8 ce 26 00 00       	call   102dba <print_char>
  1006ec:	83 c4 10             	add    $0x10,%esp
  1006ef:	80 7d 94 00          	cmpb   $0x0,-0x6c(%ebp)
  1006f3:	0f 84 86 00 00 00    	je     10077f <alloc+0x2dd>
  1006f9:	8b 45 e4             	mov    -0x1c(%ebp),%eax
  1006fc:	83 c0 0c             	add    $0xc,%eax
  1006ff:	25 ff 0f 00 00       	and    $0xfff,%eax
  100704:	85 c0                	test   %eax,%eax
  100706:	74 77                	je     10077f <alloc+0x2dd>
  100708:	83 ec 0c             	sub    $0xc,%esp
  10070b:	68 09 41 10 00       	push   $0x104109
  100710:	e8 2e 27 00 00       	call   102e43 <print_string>
  100715:	83 c4 10             	add    $0x10,%esp
  100718:	8b 45 e4             	mov    -0x1c(%ebp),%eax
  10071b:	25 00 f0 ff ff       	and    $0xfffff000,%eax
  100720:	05 f4 0f 00 00       	add    $0xff4,%eax
  100725:	89 45 d8             	mov    %eax,-0x28(%ebp)
  100728:	8b 45 e4             	mov    -0x1c(%ebp),%eax
  10072b:	89 45 d4             	mov    %eax,-0x2c(%ebp)
  10072e:	8b 45 e4             	mov    -0x1c(%ebp),%eax
  100731:	25 ff 0f 00 00       	and    $0xfff,%eax
  100736:	ba f4 0f 00 00       	mov    $0xff4,%edx
  10073b:	29 c2                	sub    %eax,%edx
  10073d:	8b 45 d4             	mov    -0x2c(%ebp),%eax
  100740:	89 50 08             	mov    %edx,0x8(%eax)
  100743:	8b 45 d4             	mov    -0x2c(%ebp),%eax
  100746:	c7 00 ab 90 38 12    	movl   $0x123890ab,(%eax)
  10074c:	8b 45 d4             	mov    -0x2c(%ebp),%eax
  10074f:	c6 40 04 01          	movb   $0x1,0x4(%eax)
  100753:	8b 45 d8             	mov    -0x28(%ebp),%eax
  100756:	83 e8 08             	sub    $0x8,%eax
  100759:	89 45 d0             	mov    %eax,-0x30(%ebp)
  10075c:	8b 45 d0             	mov    -0x30(%ebp),%eax
  10075f:	c7 00 ab 90 38 12    	movl   $0x123890ab,(%eax)
  100765:	8b 45 d0             	mov    -0x30(%ebp),%eax
  100768:	8b 55 d4             	mov    -0x2c(%ebp),%edx
  10076b:	89 50 04             	mov    %edx,0x4(%eax)
  10076e:	8b 45 d8             	mov    -0x28(%ebp),%eax
  100771:	89 45 e4             	mov    %eax,-0x1c(%ebp)
  100774:	8b 45 d4             	mov    -0x2c(%ebp),%eax
  100777:	8b 40 08             	mov    0x8(%eax),%eax
  10077a:	29 45 e0             	sub    %eax,-0x20(%ebp)
  10077d:	eb 13                	jmp    100792 <alloc+0x2f0>
  10077f:	8b 55 10             	mov    0x10(%ebp),%edx
  100782:	8b 45 f0             	mov    -0x10(%ebp),%eax
  100785:	83 ec 08             	sub    $0x8,%esp
  100788:	52                   	push   %edx
  100789:	50                   	push   %eax
  10078a:	e8 e0 25 00 00       	call   102d6f <remove_ordered_array>
  10078f:	83 c4 10             	add    $0x10,%esp
  100792:	8b 45 e4             	mov    -0x1c(%ebp),%eax
  100795:	89 45 cc             	mov    %eax,-0x34(%ebp)
  100798:	8b 45 cc             	mov    -0x34(%ebp),%eax
  10079b:	c7 00 ab 90 38 12    	movl   $0x123890ab,(%eax)
  1007a1:	8b 45 cc             	mov    -0x34(%ebp),%eax
  1007a4:	c6 40 04 00          	movb   $0x0,0x4(%eax)
  1007a8:	8b 45 cc             	mov    -0x34(%ebp),%eax
  1007ab:	8b 55 f4             	mov    -0xc(%ebp),%edx
  1007ae:	89 50 08             	mov    %edx,0x8(%eax)
  1007b1:	8b 55 e4             	mov    -0x1c(%ebp),%edx
  1007b4:	8b 45 08             	mov    0x8(%ebp),%eax
  1007b7:	01 d0                	add    %edx,%eax
  1007b9:	83 c0 0c             	add    $0xc,%eax
  1007bc:	89 45 c8             	mov    %eax,-0x38(%ebp)
  1007bf:	8b 45 c8             	mov    -0x38(%ebp),%eax
  1007c2:	c7 00 ab 90 38 12    	movl   $0x123890ab,(%eax)
  1007c8:	8b 45 c8             	mov    -0x38(%ebp),%eax
  1007cb:	8b 55 cc             	mov    -0x34(%ebp),%edx
  1007ce:	89 50 04             	mov    %edx,0x4(%eax)
  1007d1:	8b 45 e0             	mov    -0x20(%ebp),%eax
  1007d4:	3b 45 f4             	cmp    -0xc(%ebp),%eax
  1007d7:	74 6e                	je     100847 <alloc+0x3a5>
  1007d9:	8b 55 e4             	mov    -0x1c(%ebp),%edx
  1007dc:	8b 45 08             	mov    0x8(%ebp),%eax
  1007df:	01 d0                	add    %edx,%eax
  1007e1:	83 c0 14             	add    $0x14,%eax
  1007e4:	89 45 c4             	mov    %eax,-0x3c(%ebp)
  1007e7:	8b 45 c4             	mov    -0x3c(%ebp),%eax
  1007ea:	c7 00 ab 90 38 12    	movl   $0x123890ab,(%eax)
  1007f0:	8b 45 c4             	mov    -0x3c(%ebp),%eax
  1007f3:	c6 40 04 01          	movb   $0x1,0x4(%eax)
  1007f7:	8b 45 e0             	mov    -0x20(%ebp),%eax
  1007fa:	2b 45 f4             	sub    -0xc(%ebp),%eax
  1007fd:	89 c2                	mov    %eax,%edx
  1007ff:	8b 45 c4             	mov    -0x3c(%ebp),%eax
  100802:	89 50 08             	mov    %edx,0x8(%eax)
  100805:	8b 55 c4             	mov    -0x3c(%ebp),%edx
  100808:	8b 45 e0             	mov    -0x20(%ebp),%eax
  10080b:	01 d0                	add    %edx,%eax
  10080d:	2b 45 f4             	sub    -0xc(%ebp),%eax
  100810:	83 e8 08             	sub    $0x8,%eax
  100813:	89 45 c0             	mov    %eax,-0x40(%ebp)
  100816:	8b 45 10             	mov    0x10(%ebp),%eax
  100819:	8b 50 14             	mov    0x14(%eax),%edx
  10081c:	8b 45 c0             	mov    -0x40(%ebp),%eax
  10081f:	39 c2                	cmp    %eax,%edx
  100821:	76 12                	jbe    100835 <alloc+0x393>
  100823:	8b 45 c0             	mov    -0x40(%ebp),%eax
  100826:	c7 00 ab 90 38 12    	movl   $0x123890ab,(%eax)
  10082c:	8b 45 c0             	mov    -0x40(%ebp),%eax
  10082f:	8b 55 c4             	mov    -0x3c(%ebp),%edx
  100832:	89 50 04             	mov    %edx,0x4(%eax)
  100835:	8b 45 10             	mov    0x10(%ebp),%eax
  100838:	83 ec 08             	sub    $0x8,%esp
  10083b:	50                   	push   %eax
  10083c:	ff 75 c4             	pushl  -0x3c(%ebp)
  10083f:	e8 10 24 00 00       	call   102c54 <insert_ordered_array>
  100844:	83 c4 10             	add    $0x10,%esp
  100847:	8b 45 cc             	mov    -0x34(%ebp),%eax
  10084a:	83 c0 0c             	add    $0xc,%eax
  10084d:	c9                   	leave  
  10084e:	c3                   	ret    

0010084f <initrd_read>:
  10084f:	55                   	push   %ebp
  100850:	89 e5                	mov    %esp,%ebp
  100852:	57                   	push   %edi
  100853:	56                   	push   %esi
  100854:	53                   	push   %ebx
  100855:	83 ec 5c             	sub    $0x5c,%esp
  100858:	8b 15 c4 60 10 00    	mov    0x1060c4,%edx
  10085e:	8b 45 08             	mov    0x8(%ebp),%eax
  100861:	8b 80 90 00 00 00    	mov    0x90(%eax),%eax
  100867:	6b c0 4c             	imul   $0x4c,%eax,%eax
  10086a:	01 c2                	add    %eax,%edx
  10086c:	8d 45 9c             	lea    -0x64(%ebp),%eax
  10086f:	89 d3                	mov    %edx,%ebx
  100871:	ba 13 00 00 00       	mov    $0x13,%edx
  100876:	89 c7                	mov    %eax,%edi
  100878:	89 de                	mov    %ebx,%esi
  10087a:	89 d1                	mov    %edx,%ecx
  10087c:	f3 a5                	rep movsl %ds:(%esi),%es:(%edi)
  10087e:	8b 45 e4             	mov    -0x1c(%ebp),%eax
  100881:	39 45 0c             	cmp    %eax,0xc(%ebp)
  100884:	76 07                	jbe    10088d <initrd_read+0x3e>
  100886:	b8 00 00 00 00       	mov    $0x0,%eax
  10088b:	eb 35                	jmp    1008c2 <initrd_read+0x73>
  10088d:	8b 55 0c             	mov    0xc(%ebp),%edx
  100890:	8b 45 10             	mov    0x10(%ebp),%eax
  100893:	01 c2                	add    %eax,%edx
  100895:	8b 45 e4             	mov    -0x1c(%ebp),%eax
  100898:	39 c2                	cmp    %eax,%edx
  10089a:	76 09                	jbe    1008a5 <initrd_read+0x56>
  10089c:	8b 45 e4             	mov    -0x1c(%ebp),%eax
  10089f:	2b 45 0c             	sub    0xc(%ebp),%eax
  1008a2:	89 45 10             	mov    %eax,0x10(%ebp)
  1008a5:	8b 55 e0             	mov    -0x20(%ebp),%edx
  1008a8:	8b 45 0c             	mov    0xc(%ebp),%eax
  1008ab:	01 d0                	add    %edx,%eax
  1008ad:	83 ec 04             	sub    $0x4,%esp
  1008b0:	ff 75 10             	pushl  0x10(%ebp)
  1008b3:	50                   	push   %eax
  1008b4:	ff 75 14             	pushl  0x14(%ebp)
  1008b7:	e8 ed 29 00 00       	call   1032a9 <memcpy>
  1008bc:	83 c4 10             	add    $0x10,%esp
  1008bf:	8b 45 10             	mov    0x10(%ebp),%eax
  1008c2:	8d 65 f4             	lea    -0xc(%ebp),%esp
  1008c5:	5b                   	pop    %ebx
  1008c6:	5e                   	pop    %esi
  1008c7:	5f                   	pop    %edi
  1008c8:	5d                   	pop    %ebp
  1008c9:	c3                   	ret    

001008ca <initrd_readdir>:
  1008ca:	55                   	push   %ebp
  1008cb:	89 e5                	mov    %esp,%ebp
  1008cd:	83 ec 08             	sub    $0x8,%esp
  1008d0:	a1 c8 60 10 00       	mov    0x1060c8,%eax
  1008d5:	39 45 08             	cmp    %eax,0x8(%ebp)
  1008d8:	75 2c                	jne    100906 <initrd_readdir+0x3c>
  1008da:	83 7d 0c 00          	cmpl   $0x0,0xc(%ebp)
  1008de:	75 26                	jne    100906 <initrd_readdir+0x3c>
  1008e0:	83 ec 08             	sub    $0x8,%esp
  1008e3:	68 22 41 10 00       	push   $0x104122
  1008e8:	68 40 60 10 00       	push   $0x106040
  1008ed:	e8 f4 28 00 00       	call   1031e6 <strcpy>
  1008f2:	83 c4 10             	add    $0x10,%esp
  1008f5:	c7 05 c0 60 10 00 00 	movl   $0x0,0x1060c0
  1008fc:	00 00 00 
  1008ff:	b8 40 60 10 00       	mov    $0x106040,%eax
  100904:	eb 63                	jmp    100969 <initrd_readdir+0x9f>
  100906:	8b 45 0c             	mov    0xc(%ebp),%eax
  100909:	8d 50 ff             	lea    -0x1(%eax),%edx
  10090c:	a1 20 60 10 00       	mov    0x106020,%eax
  100911:	39 c2                	cmp    %eax,%edx
  100913:	72 07                	jb     10091c <initrd_readdir+0x52>
  100915:	b8 00 00 00 00       	mov    $0x0,%eax
  10091a:	eb 4d                	jmp    100969 <initrd_readdir+0x9f>
  10091c:	a1 cc 60 10 00       	mov    0x1060cc,%eax
  100921:	8b 55 0c             	mov    0xc(%ebp),%edx
  100924:	69 d2 b8 00 00 00    	imul   $0xb8,%edx,%edx
  10092a:	81 ea b8 00 00 00    	sub    $0xb8,%edx
  100930:	01 d0                	add    %edx,%eax
  100932:	83 ec 08             	sub    $0x8,%esp
  100935:	50                   	push   %eax
  100936:	68 40 60 10 00       	push   $0x106040
  10093b:	e8 a6 28 00 00       	call   1031e6 <strcpy>
  100940:	83 c4 10             	add    $0x10,%esp
  100943:	a1 cc 60 10 00       	mov    0x1060cc,%eax
  100948:	8b 55 0c             	mov    0xc(%ebp),%edx
  10094b:	69 d2 b8 00 00 00    	imul   $0xb8,%edx,%edx
  100951:	81 ea b8 00 00 00    	sub    $0xb8,%edx
  100957:	01 d0                	add    %edx,%eax
  100959:	8b 80 90 00 00 00    	mov    0x90(%eax),%eax
  10095f:	a3 c0 60 10 00       	mov    %eax,0x1060c0
  100964:	b8 40 60 10 00       	mov    $0x106040,%eax
  100969:	c9                   	leave  
  10096a:	c3                   	ret    

0010096b <initrd_finddir>:
  10096b:	55                   	push   %ebp
  10096c:	89 e5                	mov    %esp,%ebp
  10096e:	83 ec 18             	sub    $0x18,%esp
  100971:	a1 c8 60 10 00       	mov    0x1060c8,%eax
  100976:	39 45 08             	cmp    %eax,0x8(%ebp)
  100979:	75 1e                	jne    100999 <initrd_finddir+0x2e>
  10097b:	83 ec 08             	sub    $0x8,%esp
  10097e:	68 22 41 10 00       	push   $0x104122
  100983:	ff 75 0c             	pushl  0xc(%ebp)
  100986:	e8 9c 28 00 00       	call   103227 <strcmp>
  10098b:	83 c4 10             	add    $0x10,%esp
  10098e:	85 c0                	test   %eax,%eax
  100990:	75 07                	jne    100999 <initrd_finddir+0x2e>
  100992:	a1 24 60 10 00       	mov    0x106024,%eax
  100997:	eb 53                	jmp    1009ec <initrd_finddir+0x81>
  100999:	c7 45 f4 00 00 00 00 	movl   $0x0,-0xc(%ebp)
  1009a0:	eb 3b                	jmp    1009dd <initrd_finddir+0x72>
  1009a2:	8b 15 cc 60 10 00    	mov    0x1060cc,%edx
  1009a8:	8b 45 f4             	mov    -0xc(%ebp),%eax
  1009ab:	69 c0 b8 00 00 00    	imul   $0xb8,%eax,%eax
  1009b1:	01 d0                	add    %edx,%eax
  1009b3:	83 ec 08             	sub    $0x8,%esp
  1009b6:	50                   	push   %eax
  1009b7:	ff 75 0c             	pushl  0xc(%ebp)
  1009ba:	e8 68 28 00 00       	call   103227 <strcmp>
  1009bf:	83 c4 10             	add    $0x10,%esp
  1009c2:	85 c0                	test   %eax,%eax
  1009c4:	75 13                	jne    1009d9 <initrd_finddir+0x6e>
  1009c6:	8b 15 cc 60 10 00    	mov    0x1060cc,%edx
  1009cc:	8b 45 f4             	mov    -0xc(%ebp),%eax
  1009cf:	69 c0 b8 00 00 00    	imul   $0xb8,%eax,%eax
  1009d5:	01 d0                	add    %edx,%eax
  1009d7:	eb 13                	jmp    1009ec <initrd_finddir+0x81>
  1009d9:	83 45 f4 01          	addl   $0x1,-0xc(%ebp)
  1009dd:	a1 20 60 10 00       	mov    0x106020,%eax
  1009e2:	39 45 f4             	cmp    %eax,-0xc(%ebp)
  1009e5:	7c bb                	jl     1009a2 <initrd_finddir+0x37>
  1009e7:	b8 00 00 00 00       	mov    $0x0,%eax
  1009ec:	c9                   	leave  
  1009ed:	c3                   	ret    

001009ee <init_initrd>:
  1009ee:	55                   	push   %ebp
  1009ef:	89 e5                	mov    %esp,%ebp
  1009f1:	83 ec 18             	sub    $0x18,%esp
  1009f4:	8b 45 08             	mov    0x8(%ebp),%eax
  1009f7:	a3 d0 60 10 00       	mov    %eax,0x1060d0
  1009fc:	8b 45 08             	mov    0x8(%ebp),%eax
  1009ff:	83 c0 04             	add    $0x4,%eax
  100a02:	a3 c4 60 10 00       	mov    %eax,0x1060c4
  100a07:	83 ec 0c             	sub    $0xc,%esp
  100a0a:	68 b8 00 00 00       	push   $0xb8
  100a0f:	e8 20 f8 ff ff       	call   100234 <kmalloc>
  100a14:	83 c4 10             	add    $0x10,%esp
  100a17:	a3 c8 60 10 00       	mov    %eax,0x1060c8
  100a1c:	a1 c8 60 10 00       	mov    0x1060c8,%eax
  100a21:	83 ec 08             	sub    $0x8,%esp
  100a24:	68 26 41 10 00       	push   $0x104126
  100a29:	50                   	push   %eax
  100a2a:	e8 b7 27 00 00       	call   1031e6 <strcpy>
  100a2f:	83 c4 10             	add    $0x10,%esp
  100a32:	8b 15 c8 60 10 00    	mov    0x1060c8,%edx
  100a38:	c7 82 94 00 00 00 00 	movl   $0x0,0x94(%edx)
  100a3f:	00 00 00 
  100a42:	a1 c8 60 10 00       	mov    0x1060c8,%eax
  100a47:	8b 92 94 00 00 00    	mov    0x94(%edx),%edx
  100a4d:	89 90 90 00 00 00    	mov    %edx,0x90(%eax)
  100a53:	8b 15 c8 60 10 00    	mov    0x1060c8,%edx
  100a59:	8b 80 90 00 00 00    	mov    0x90(%eax),%eax
  100a5f:	89 82 88 00 00 00    	mov    %eax,0x88(%edx)
  100a65:	a1 c8 60 10 00       	mov    0x1060c8,%eax
  100a6a:	8b 92 88 00 00 00    	mov    0x88(%edx),%edx
  100a70:	89 90 84 00 00 00    	mov    %edx,0x84(%eax)
  100a76:	8b 15 c8 60 10 00    	mov    0x1060c8,%edx
  100a7c:	8b 80 84 00 00 00    	mov    0x84(%eax),%eax
  100a82:	89 82 80 00 00 00    	mov    %eax,0x80(%edx)
  100a88:	a1 c8 60 10 00       	mov    0x1060c8,%eax
  100a8d:	c7 80 8c 00 00 00 02 	movl   $0x2,0x8c(%eax)
  100a94:	00 00 00 
  100a97:	a1 c8 60 10 00       	mov    0x1060c8,%eax
  100a9c:	c7 80 9c 00 00 00 00 	movl   $0x0,0x9c(%eax)
  100aa3:	00 00 00 
  100aa6:	a1 c8 60 10 00       	mov    0x1060c8,%eax
  100aab:	c7 80 a0 00 00 00 00 	movl   $0x0,0xa0(%eax)
  100ab2:	00 00 00 
  100ab5:	a1 c8 60 10 00       	mov    0x1060c8,%eax
  100aba:	c7 80 a4 00 00 00 00 	movl   $0x0,0xa4(%eax)
  100ac1:	00 00 00 
  100ac4:	a1 c8 60 10 00       	mov    0x1060c8,%eax
  100ac9:	c7 80 a8 00 00 00 00 	movl   $0x0,0xa8(%eax)
  100ad0:	00 00 00 
  100ad3:	a1 c8 60 10 00       	mov    0x1060c8,%eax
  100ad8:	c7 80 ac 00 00 00 ca 	movl   $0x1008ca,0xac(%eax)
  100adf:	08 10 00 
  100ae2:	a1 c8 60 10 00       	mov    0x1060c8,%eax
  100ae7:	c7 80 b0 00 00 00 6b 	movl   $0x10096b,0xb0(%eax)
  100aee:	09 10 00 
  100af1:	a1 c8 60 10 00       	mov    0x1060c8,%eax
  100af6:	c7 80 b4 00 00 00 00 	movl   $0x0,0xb4(%eax)
  100afd:	00 00 00 
  100b00:	a1 c8 60 10 00       	mov    0x1060c8,%eax
  100b05:	c7 80 98 00 00 00 00 	movl   $0x0,0x98(%eax)
  100b0c:	00 00 00 
  100b0f:	83 ec 0c             	sub    $0xc,%esp
  100b12:	68 b8 00 00 00       	push   $0xb8
  100b17:	e8 18 f7 ff ff       	call   100234 <kmalloc>
  100b1c:	83 c4 10             	add    $0x10,%esp
  100b1f:	a3 24 60 10 00       	mov    %eax,0x106024
  100b24:	a1 24 60 10 00       	mov    0x106024,%eax
  100b29:	83 ec 08             	sub    $0x8,%esp
  100b2c:	68 22 41 10 00       	push   $0x104122
  100b31:	50                   	push   %eax
  100b32:	e8 af 26 00 00       	call   1031e6 <strcpy>
  100b37:	83 c4 10             	add    $0x10,%esp
  100b3a:	8b 15 24 60 10 00    	mov    0x106024,%edx
  100b40:	c7 82 94 00 00 00 00 	movl   $0x0,0x94(%edx)
  100b47:	00 00 00 
  100b4a:	a1 24 60 10 00       	mov    0x106024,%eax
  100b4f:	8b 92 94 00 00 00    	mov    0x94(%edx),%edx
  100b55:	89 90 90 00 00 00    	mov    %edx,0x90(%eax)
  100b5b:	8b 15 24 60 10 00    	mov    0x106024,%edx
  100b61:	8b 80 90 00 00 00    	mov    0x90(%eax),%eax
  100b67:	89 82 88 00 00 00    	mov    %eax,0x88(%edx)
  100b6d:	a1 24 60 10 00       	mov    0x106024,%eax
  100b72:	8b 92 88 00 00 00    	mov    0x88(%edx),%edx
  100b78:	89 90 84 00 00 00    	mov    %edx,0x84(%eax)
  100b7e:	8b 15 24 60 10 00    	mov    0x106024,%edx
  100b84:	8b 80 84 00 00 00    	mov    0x84(%eax),%eax
  100b8a:	89 82 80 00 00 00    	mov    %eax,0x80(%edx)
  100b90:	a1 24 60 10 00       	mov    0x106024,%eax
  100b95:	c7 80 8c 00 00 00 02 	movl   $0x2,0x8c(%eax)
  100b9c:	00 00 00 
  100b9f:	a1 24 60 10 00       	mov    0x106024,%eax
  100ba4:	c7 80 9c 00 00 00 00 	movl   $0x0,0x9c(%eax)
  100bab:	00 00 00 
  100bae:	a1 24 60 10 00       	mov    0x106024,%eax
  100bb3:	c7 80 a0 00 00 00 00 	movl   $0x0,0xa0(%eax)
  100bba:	00 00 00 
  100bbd:	a1 24 60 10 00       	mov    0x106024,%eax
  100bc2:	c7 80 a4 00 00 00 00 	movl   $0x0,0xa4(%eax)
  100bc9:	00 00 00 
  100bcc:	a1 24 60 10 00       	mov    0x106024,%eax
  100bd1:	c7 80 a8 00 00 00 00 	movl   $0x0,0xa8(%eax)
  100bd8:	00 00 00 
  100bdb:	a1 24 60 10 00       	mov    0x106024,%eax
  100be0:	c7 80 ac 00 00 00 ca 	movl   $0x1008ca,0xac(%eax)
  100be7:	08 10 00 
  100bea:	a1 24 60 10 00       	mov    0x106024,%eax
  100bef:	c7 80 b0 00 00 00 6b 	movl   $0x10096b,0xb0(%eax)
  100bf6:	09 10 00 
  100bf9:	a1 24 60 10 00       	mov    0x106024,%eax
  100bfe:	c7 80 b4 00 00 00 00 	movl   $0x0,0xb4(%eax)
  100c05:	00 00 00 
  100c08:	a1 24 60 10 00       	mov    0x106024,%eax
  100c0d:	c7 80 98 00 00 00 00 	movl   $0x0,0x98(%eax)
  100c14:	00 00 00 
  100c17:	a1 d0 60 10 00       	mov    0x1060d0,%eax
  100c1c:	8b 00                	mov    (%eax),%eax
  100c1e:	69 c0 b8 00 00 00    	imul   $0xb8,%eax,%eax
  100c24:	83 ec 0c             	sub    $0xc,%esp
  100c27:	50                   	push   %eax
  100c28:	e8 07 f6 ff ff       	call   100234 <kmalloc>
  100c2d:	83 c4 10             	add    $0x10,%esp
  100c30:	a3 cc 60 10 00       	mov    %eax,0x1060cc
  100c35:	a1 d0 60 10 00       	mov    0x1060d0,%eax
  100c3a:	8b 00                	mov    (%eax),%eax
  100c3c:	a3 20 60 10 00       	mov    %eax,0x106020
  100c41:	c7 45 f4 00 00 00 00 	movl   $0x0,-0xc(%ebp)
  100c48:	e9 c9 01 00 00       	jmp    100e16 <init_initrd+0x428>
  100c4d:	8b 15 c4 60 10 00    	mov    0x1060c4,%edx
  100c53:	8b 45 f4             	mov    -0xc(%ebp),%eax
  100c56:	6b c0 4c             	imul   $0x4c,%eax,%eax
  100c59:	01 d0                	add    %edx,%eax
  100c5b:	8b 48 44             	mov    0x44(%eax),%ecx
  100c5e:	8b 15 c4 60 10 00    	mov    0x1060c4,%edx
  100c64:	8b 45 f4             	mov    -0xc(%ebp),%eax
  100c67:	6b c0 4c             	imul   $0x4c,%eax,%eax
  100c6a:	01 d0                	add    %edx,%eax
  100c6c:	8b 55 08             	mov    0x8(%ebp),%edx
  100c6f:	01 ca                	add    %ecx,%edx
  100c71:	89 50 44             	mov    %edx,0x44(%eax)
  100c74:	8b 15 c4 60 10 00    	mov    0x1060c4,%edx
  100c7a:	8b 45 f4             	mov    -0xc(%ebp),%eax
  100c7d:	6b c0 4c             	imul   $0x4c,%eax,%eax
  100c80:	01 d0                	add    %edx,%eax
  100c82:	83 c0 01             	add    $0x1,%eax
  100c85:	8b 0d cc 60 10 00    	mov    0x1060cc,%ecx
  100c8b:	8b 55 f4             	mov    -0xc(%ebp),%edx
  100c8e:	69 d2 b8 00 00 00    	imul   $0xb8,%edx,%edx
  100c94:	01 ca                	add    %ecx,%edx
  100c96:	83 ec 08             	sub    $0x8,%esp
  100c99:	50                   	push   %eax
  100c9a:	52                   	push   %edx
  100c9b:	e8 46 25 00 00       	call   1031e6 <strcpy>
  100ca0:	83 c4 10             	add    $0x10,%esp
  100ca3:	8b 15 cc 60 10 00    	mov    0x1060cc,%edx
  100ca9:	8b 45 f4             	mov    -0xc(%ebp),%eax
  100cac:	69 c0 b8 00 00 00    	imul   $0xb8,%eax,%eax
  100cb2:	01 c2                	add    %eax,%edx
  100cb4:	c7 82 88 00 00 00 00 	movl   $0x0,0x88(%edx)
  100cbb:	00 00 00 
  100cbe:	8b 0d cc 60 10 00    	mov    0x1060cc,%ecx
  100cc4:	8b 45 f4             	mov    -0xc(%ebp),%eax
  100cc7:	69 c0 b8 00 00 00    	imul   $0xb8,%eax,%eax
  100ccd:	01 c8                	add    %ecx,%eax
  100ccf:	8b 92 88 00 00 00    	mov    0x88(%edx),%edx
  100cd5:	89 90 84 00 00 00    	mov    %edx,0x84(%eax)
  100cdb:	8b 0d cc 60 10 00    	mov    0x1060cc,%ecx
  100ce1:	8b 55 f4             	mov    -0xc(%ebp),%edx
  100ce4:	69 d2 b8 00 00 00    	imul   $0xb8,%edx,%edx
  100cea:	01 ca                	add    %ecx,%edx
  100cec:	8b 80 84 00 00 00    	mov    0x84(%eax),%eax
  100cf2:	89 82 80 00 00 00    	mov    %eax,0x80(%edx)
  100cf8:	8b 15 c4 60 10 00    	mov    0x1060c4,%edx
  100cfe:	8b 45 f4             	mov    -0xc(%ebp),%eax
  100d01:	6b c0 4c             	imul   $0x4c,%eax,%eax
  100d04:	01 d0                	add    %edx,%eax
  100d06:	8b 0d cc 60 10 00    	mov    0x1060cc,%ecx
  100d0c:	8b 55 f4             	mov    -0xc(%ebp),%edx
  100d0f:	69 d2 b8 00 00 00    	imul   $0xb8,%edx,%edx
  100d15:	01 ca                	add    %ecx,%edx
  100d17:	8b 40 48             	mov    0x48(%eax),%eax
  100d1a:	89 82 94 00 00 00    	mov    %eax,0x94(%edx)
  100d20:	8b 15 cc 60 10 00    	mov    0x1060cc,%edx
  100d26:	8b 45 f4             	mov    -0xc(%ebp),%eax
  100d29:	69 c0 b8 00 00 00    	imul   $0xb8,%eax,%eax
  100d2f:	01 c2                	add    %eax,%edx
  100d31:	8b 45 f4             	mov    -0xc(%ebp),%eax
  100d34:	89 82 90 00 00 00    	mov    %eax,0x90(%edx)
  100d3a:	8b 15 cc 60 10 00    	mov    0x1060cc,%edx
  100d40:	8b 45 f4             	mov    -0xc(%ebp),%eax
  100d43:	69 c0 b8 00 00 00    	imul   $0xb8,%eax,%eax
  100d49:	01 d0                	add    %edx,%eax
  100d4b:	c7 80 8c 00 00 00 01 	movl   $0x1,0x8c(%eax)
  100d52:	00 00 00 
  100d55:	8b 15 cc 60 10 00    	mov    0x1060cc,%edx
  100d5b:	8b 45 f4             	mov    -0xc(%ebp),%eax
  100d5e:	69 c0 b8 00 00 00    	imul   $0xb8,%eax,%eax
  100d64:	01 d0                	add    %edx,%eax
  100d66:	c7 80 9c 00 00 00 4f 	movl   $0x10084f,0x9c(%eax)
  100d6d:	08 10 00 
  100d70:	8b 15 cc 60 10 00    	mov    0x1060cc,%edx
  100d76:	8b 45 f4             	mov    -0xc(%ebp),%eax
  100d79:	69 c0 b8 00 00 00    	imul   $0xb8,%eax,%eax
  100d7f:	01 d0                	add    %edx,%eax
  100d81:	c7 80 a0 00 00 00 00 	movl   $0x0,0xa0(%eax)
  100d88:	00 00 00 
  100d8b:	8b 15 cc 60 10 00    	mov    0x1060cc,%edx
  100d91:	8b 45 f4             	mov    -0xc(%ebp),%eax
  100d94:	69 c0 b8 00 00 00    	imul   $0xb8,%eax,%eax
  100d9a:	01 d0                	add    %edx,%eax
  100d9c:	c7 80 ac 00 00 00 00 	movl   $0x0,0xac(%eax)
  100da3:	00 00 00 
  100da6:	8b 15 cc 60 10 00    	mov    0x1060cc,%edx
  100dac:	8b 45 f4             	mov    -0xc(%ebp),%eax
  100daf:	69 c0 b8 00 00 00    	imul   $0xb8,%eax,%eax
  100db5:	01 d0                	add    %edx,%eax
  100db7:	c7 80 b0 00 00 00 00 	movl   $0x0,0xb0(%eax)
  100dbe:	00 00 00 
  100dc1:	8b 15 cc 60 10 00    	mov    0x1060cc,%edx
  100dc7:	8b 45 f4             	mov    -0xc(%ebp),%eax
  100dca:	69 c0 b8 00 00 00    	imul   $0xb8,%eax,%eax
  100dd0:	01 d0                	add    %edx,%eax
  100dd2:	c7 80 a4 00 00 00 00 	movl   $0x0,0xa4(%eax)
  100dd9:	00 00 00 
  100ddc:	8b 15 cc 60 10 00    	mov    0x1060cc,%edx
  100de2:	8b 45 f4             	mov    -0xc(%ebp),%eax
  100de5:	69 c0 b8 00 00 00    	imul   $0xb8,%eax,%eax
  100deb:	01 d0                	add    %edx,%eax
  100ded:	c7 80 a8 00 00 00 00 	movl   $0x0,0xa8(%eax)
  100df4:	00 00 00 
  100df7:	8b 15 cc 60 10 00    	mov    0x1060cc,%edx
  100dfd:	8b 45 f4             	mov    -0xc(%ebp),%eax
  100e00:	69 c0 b8 00 00 00    	imul   $0xb8,%eax,%eax
  100e06:	01 d0                	add    %edx,%eax
  100e08:	c7 80 98 00 00 00 00 	movl   $0x0,0x98(%eax)
  100e0f:	00 00 00 
  100e12:	83 45 f4 01          	addl   $0x1,-0xc(%ebp)
  100e16:	a1 d0 60 10 00       	mov    0x1060d0,%eax
  100e1b:	8b 10                	mov    (%eax),%edx
  100e1d:	8b 45 f4             	mov    -0xc(%ebp),%eax
  100e20:	39 c2                	cmp    %eax,%edx
  100e22:	0f 87 25 fe ff ff    	ja     100c4d <init_initrd+0x25f>
  100e28:	a1 c8 60 10 00       	mov    0x1060c8,%eax
  100e2d:	c9                   	leave  
  100e2e:	c3                   	ret    

00100e2f <print_node>:
  100e2f:	55                   	push   %ebp
  100e30:	89 e5                	mov    %esp,%ebp
  100e32:	83 ec 08             	sub    $0x8,%esp
  100e35:	83 ec 0c             	sub    $0xc,%esp
  100e38:	68 2d 41 10 00       	push   $0x10412d
  100e3d:	e8 01 20 00 00       	call   102e43 <print_string>
  100e42:	83 c4 10             	add    $0x10,%esp
  100e45:	8b 45 08             	mov    0x8(%ebp),%eax
  100e48:	83 ec 0c             	sub    $0xc,%esp
  100e4b:	50                   	push   %eax
  100e4c:	e8 f2 1f 00 00       	call   102e43 <print_string>
  100e51:	83 c4 10             	add    $0x10,%esp
  100e54:	83 ec 0c             	sub    $0xc,%esp
  100e57:	6a 0a                	push   $0xa
  100e59:	e8 5c 1f 00 00       	call   102dba <print_char>
  100e5e:	83 c4 10             	add    $0x10,%esp
  100e61:	83 ec 0c             	sub    $0xc,%esp
  100e64:	68 3c 41 10 00       	push   $0x10413c
  100e69:	e8 d5 1f 00 00       	call   102e43 <print_string>
  100e6e:	83 c4 10             	add    $0x10,%esp
  100e71:	8b 45 08             	mov    0x8(%ebp),%eax
  100e74:	8b 80 8c 00 00 00    	mov    0x8c(%eax),%eax
  100e7a:	83 ec 0c             	sub    $0xc,%esp
  100e7d:	50                   	push   %eax
  100e7e:	e8 a8 21 00 00       	call   10302b <print_hex>
  100e83:	83 c4 10             	add    $0x10,%esp
  100e86:	83 ec 0c             	sub    $0xc,%esp
  100e89:	6a 0a                	push   $0xa
  100e8b:	e8 2a 1f 00 00       	call   102dba <print_char>
  100e90:	83 c4 10             	add    $0x10,%esp
  100e93:	90                   	nop
  100e94:	c9                   	leave  
  100e95:	c3                   	ret    

00100e96 <print_fs>:
  100e96:	55                   	push   %ebp
  100e97:	89 e5                	mov    %esp,%ebp
  100e99:	83 ec 18             	sub    $0x18,%esp
  100e9c:	c7 45 f4 00 00 00 00 	movl   $0x0,-0xc(%ebp)
  100ea3:	c7 45 f0 00 00 00 00 	movl   $0x0,-0x10(%ebp)
  100eaa:	e9 a9 00 00 00       	jmp    100f58 <print_fs+0xc2>
  100eaf:	83 ec 0c             	sub    $0xc,%esp
  100eb2:	68 4b 41 10 00       	push   $0x10414b
  100eb7:	e8 87 1f 00 00       	call   102e43 <print_string>
  100ebc:	83 c4 10             	add    $0x10,%esp
  100ebf:	8b 45 f0             	mov    -0x10(%ebp),%eax
  100ec2:	83 ec 0c             	sub    $0xc,%esp
  100ec5:	50                   	push   %eax
  100ec6:	e8 78 1f 00 00       	call   102e43 <print_string>
  100ecb:	83 c4 10             	add    $0x10,%esp
  100ece:	83 ec 0c             	sub    $0xc,%esp
  100ed1:	6a 0a                	push   $0xa
  100ed3:	e8 e2 1e 00 00       	call   102dba <print_char>
  100ed8:	83 c4 10             	add    $0x10,%esp
  100edb:	8b 45 f0             	mov    -0x10(%ebp),%eax
  100ede:	83 ec 08             	sub    $0x8,%esp
  100ee1:	50                   	push   %eax
  100ee2:	ff 75 08             	pushl  0x8(%ebp)
  100ee5:	e8 83 0f 00 00       	call   101e6d <finddir_fs>
  100eea:	83 c4 10             	add    $0x10,%esp
  100eed:	89 45 ec             	mov    %eax,-0x14(%ebp)
  100ef0:	83 ec 0c             	sub    $0xc,%esp
  100ef3:	ff 75 ec             	pushl  -0x14(%ebp)
  100ef6:	e8 34 ff ff ff       	call   100e2f <print_node>
  100efb:	83 c4 10             	add    $0x10,%esp
  100efe:	8b 45 ec             	mov    -0x14(%ebp),%eax
  100f01:	8b 80 8c 00 00 00    	mov    0x8c(%eax),%eax
  100f07:	83 e0 07             	and    $0x7,%eax
  100f0a:	83 f8 02             	cmp    $0x2,%eax
  100f0d:	75 12                	jne    100f21 <print_fs+0x8b>
  100f0f:	83 ec 0c             	sub    $0xc,%esp
  100f12:	68 57 41 10 00       	push   $0x104157
  100f17:	e8 27 1f 00 00       	call   102e43 <print_string>
  100f1c:	83 c4 10             	add    $0x10,%esp
  100f1f:	eb 33                	jmp    100f54 <print_fs+0xbe>
  100f21:	83 ec 0c             	sub    $0xc,%esp
  100f24:	68 65 41 10 00       	push   $0x104165
  100f29:	e8 15 1f 00 00       	call   102e43 <print_string>
  100f2e:	83 c4 10             	add    $0x10,%esp
  100f31:	ff 75 e8             	pushl  -0x18(%ebp)
  100f34:	68 00 01 00 00       	push   $0x100
  100f39:	6a 00                	push   $0x0
  100f3b:	ff 75 ec             	pushl  -0x14(%ebp)
  100f3e:	e8 1c 0e 00 00       	call   101d5f <read_fs>
  100f43:	83 c4 10             	add    $0x10,%esp
  100f46:	83 ec 0c             	sub    $0xc,%esp
  100f49:	ff 75 e8             	pushl  -0x18(%ebp)
  100f4c:	e8 f2 1e 00 00       	call   102e43 <print_string>
  100f51:	83 c4 10             	add    $0x10,%esp
  100f54:	83 45 f4 01          	addl   $0x1,-0xc(%ebp)
  100f58:	8b 45 f4             	mov    -0xc(%ebp),%eax
  100f5b:	83 ec 08             	sub    $0x8,%esp
  100f5e:	50                   	push   %eax
  100f5f:	ff 75 08             	pushl  0x8(%ebp)
  100f62:	e8 63 f9 ff ff       	call   1008ca <initrd_readdir>
  100f67:	83 c4 10             	add    $0x10,%esp
  100f6a:	89 45 f0             	mov    %eax,-0x10(%ebp)
  100f6d:	83 7d f0 00          	cmpl   $0x0,-0x10(%ebp)
  100f71:	0f 85 38 ff ff ff    	jne    100eaf <print_fs+0x19>
  100f77:	90                   	nop
  100f78:	90                   	nop
  100f79:	c9                   	leave  
  100f7a:	c3                   	ret    

00100f7b <init_task>:
  100f7b:	55                   	push   %ebp
  100f7c:	89 e5                	mov    %esp,%ebp
  100f7e:	83 ec 08             	sub    $0x8,%esp
  100f81:	fa                   	cli    
  100f82:	83 ec 08             	sub    $0x8,%esp
  100f85:	68 00 20 00 00       	push   $0x2000
  100f8a:	68 00 00 00 e0       	push   $0xe0000000
  100f8f:	e8 76 00 00 00       	call   10100a <move_stack>
  100f94:	83 c4 10             	add    $0x10,%esp
  100f97:	83 ec 0c             	sub    $0xc,%esp
  100f9a:	6a 18                	push   $0x18
  100f9c:	e8 93 f2 ff ff       	call   100234 <kmalloc>
  100fa1:	83 c4 10             	add    $0x10,%esp
  100fa4:	a3 d4 60 10 00       	mov    %eax,0x1060d4
  100fa9:	a1 d4 60 10 00       	mov    0x1060d4,%eax
  100fae:	a3 d8 60 10 00       	mov    %eax,0x1060d8
  100fb3:	a1 04 50 10 00       	mov    0x105004,%eax
  100fb8:	8d 50 01             	lea    0x1(%eax),%edx
  100fbb:	89 15 04 50 10 00    	mov    %edx,0x105004
  100fc1:	8b 15 d8 60 10 00    	mov    0x1060d8,%edx
  100fc7:	89 02                	mov    %eax,(%edx)
  100fc9:	8b 15 d8 60 10 00    	mov    0x1060d8,%edx
  100fcf:	b8 00 00 00 00       	mov    $0x0,%eax
  100fd4:	89 42 08             	mov    %eax,0x8(%edx)
  100fd7:	8b 15 d8 60 10 00    	mov    0x1060d8,%edx
  100fdd:	89 42 04             	mov    %eax,0x4(%edx)
  100fe0:	a1 d8 60 10 00       	mov    0x1060d8,%eax
  100fe5:	c7 40 0c 00 00 00 00 	movl   $0x0,0xc(%eax)
  100fec:	a1 d8 60 10 00       	mov    0x1060d8,%eax
  100ff1:	8b 15 08 60 10 00    	mov    0x106008,%edx
  100ff7:	89 50 10             	mov    %edx,0x10(%eax)
  100ffa:	a1 d8 60 10 00       	mov    0x1060d8,%eax
  100fff:	c7 40 14 00 00 00 00 	movl   $0x0,0x14(%eax)
  101006:	fb                   	sti    
  101007:	90                   	nop
  101008:	c9                   	leave  
  101009:	c3                   	ret    

0010100a <move_stack>:
  10100a:	55                   	push   %ebp
  10100b:	89 e5                	mov    %esp,%ebp
  10100d:	83 ec 38             	sub    $0x38,%esp
  101010:	8b 45 08             	mov    0x8(%ebp),%eax
  101013:	89 45 f4             	mov    %eax,-0xc(%ebp)
  101016:	eb 2d                	jmp    101045 <move_stack+0x3b>
  101018:	a1 08 60 10 00       	mov    0x106008,%eax
  10101d:	83 ec 04             	sub    $0x4,%esp
  101020:	50                   	push   %eax
  101021:	6a 01                	push   $0x1
  101023:	ff 75 f4             	pushl  -0xc(%ebp)
  101026:	e8 22 07 00 00       	call   10174d <get_page>
  10102b:	83 c4 10             	add    $0x10,%esp
  10102e:	83 ec 04             	sub    $0x4,%esp
  101031:	6a 01                	push   $0x1
  101033:	6a 00                	push   $0x0
  101035:	50                   	push   %eax
  101036:	e8 ea 03 00 00       	call   101425 <alloc_frame>
  10103b:	83 c4 10             	add    $0x10,%esp
  10103e:	81 6d f4 00 10 00 00 	subl   $0x1000,-0xc(%ebp)
  101045:	8b 45 08             	mov    0x8(%ebp),%eax
  101048:	2b 45 0c             	sub    0xc(%ebp),%eax
  10104b:	39 45 f4             	cmp    %eax,-0xc(%ebp)
  10104e:	73 c8                	jae    101018 <move_stack+0xe>
  101050:	0f 20 d8             	mov    %cr3,%eax
  101053:	89 45 f0             	mov    %eax,-0x10(%ebp)
  101056:	8b 45 f0             	mov    -0x10(%ebp),%eax
  101059:	0f 22 d8             	mov    %eax,%cr3
  10105c:	89 e0                	mov    %esp,%eax
  10105e:	89 45 ec             	mov    %eax,-0x14(%ebp)
  101061:	89 e8                	mov    %ebp,%eax
  101063:	89 45 e8             	mov    %eax,-0x18(%ebp)
  101066:	8b 55 08             	mov    0x8(%ebp),%edx
  101069:	a1 e4 60 10 00       	mov    0x1060e4,%eax
  10106e:	29 c2                	sub    %eax,%edx
  101070:	89 d0                	mov    %edx,%eax
  101072:	89 45 e4             	mov    %eax,-0x1c(%ebp)
  101075:	8b 55 ec             	mov    -0x14(%ebp),%edx
  101078:	8b 45 e4             	mov    -0x1c(%ebp),%eax
  10107b:	01 d0                	add    %edx,%eax
  10107d:	89 45 e0             	mov    %eax,-0x20(%ebp)
  101080:	8b 55 e8             	mov    -0x18(%ebp),%edx
  101083:	8b 45 e4             	mov    -0x1c(%ebp),%eax
  101086:	01 d0                	add    %edx,%eax
  101088:	89 45 dc             	mov    %eax,-0x24(%ebp)
  10108b:	a1 e4 60 10 00       	mov    0x1060e4,%eax
  101090:	2b 45 ec             	sub    -0x14(%ebp),%eax
  101093:	89 c1                	mov    %eax,%ecx
  101095:	8b 55 ec             	mov    -0x14(%ebp),%edx
  101098:	8b 45 e0             	mov    -0x20(%ebp),%eax
  10109b:	83 ec 04             	sub    $0x4,%esp
  10109e:	51                   	push   %ecx
  10109f:	52                   	push   %edx
  1010a0:	50                   	push   %eax
  1010a1:	e8 03 22 00 00       	call   1032a9 <memcpy>
  1010a6:	83 c4 10             	add    $0x10,%esp
  1010a9:	8b 45 08             	mov    0x8(%ebp),%eax
  1010ac:	89 45 f4             	mov    %eax,-0xc(%ebp)
  1010af:	eb 32                	jmp    1010e3 <move_stack+0xd9>
  1010b1:	8b 45 f4             	mov    -0xc(%ebp),%eax
  1010b4:	8b 00                	mov    (%eax),%eax
  1010b6:	89 45 d8             	mov    %eax,-0x28(%ebp)
  1010b9:	a1 e4 60 10 00       	mov    0x1060e4,%eax
  1010be:	39 45 d8             	cmp    %eax,-0x28(%ebp)
  1010c1:	73 1c                	jae    1010df <move_stack+0xd5>
  1010c3:	8b 45 d8             	mov    -0x28(%ebp),%eax
  1010c6:	3b 45 ec             	cmp    -0x14(%ebp),%eax
  1010c9:	76 14                	jbe    1010df <move_stack+0xd5>
  1010cb:	8b 45 e4             	mov    -0x1c(%ebp),%eax
  1010ce:	01 45 d8             	add    %eax,-0x28(%ebp)
  1010d1:	8b 45 f4             	mov    -0xc(%ebp),%eax
  1010d4:	89 45 d4             	mov    %eax,-0x2c(%ebp)
  1010d7:	8b 45 d4             	mov    -0x2c(%ebp),%eax
  1010da:	8b 55 d8             	mov    -0x28(%ebp),%edx
  1010dd:	89 10                	mov    %edx,(%eax)
  1010df:	83 6d f4 04          	subl   $0x4,-0xc(%ebp)
  1010e3:	8b 45 08             	mov    0x8(%ebp),%eax
  1010e6:	2b 45 0c             	sub    0xc(%ebp),%eax
  1010e9:	39 45 f4             	cmp    %eax,-0xc(%ebp)
  1010ec:	77 c3                	ja     1010b1 <move_stack+0xa7>
  1010ee:	8b 45 e0             	mov    -0x20(%ebp),%eax
  1010f1:	89 c4                	mov    %eax,%esp
  1010f3:	8b 45 dc             	mov    -0x24(%ebp),%eax
  1010f6:	89 c5                	mov    %eax,%ebp
  1010f8:	90                   	nop
  1010f9:	c9                   	leave  
  1010fa:	c3                   	ret    

001010fb <switch_task>:
  1010fb:	55                   	push   %ebp
  1010fc:	89 e5                	mov    %esp,%ebp
  1010fe:	53                   	push   %ebx
  1010ff:	83 ec 14             	sub    $0x14,%esp
  101102:	a1 d8 60 10 00       	mov    0x1060d8,%eax
  101107:	85 c0                	test   %eax,%eax
  101109:	0f 84 9e 00 00 00    	je     1011ad <switch_task+0xb2>
  10110f:	89 e0                	mov    %esp,%eax
  101111:	89 45 f4             	mov    %eax,-0xc(%ebp)
  101114:	89 e8                	mov    %ebp,%eax
  101116:	89 45 f0             	mov    %eax,-0x10(%ebp)
  101119:	e8 32 22 00 00       	call   103350 <read_eip>
  10111e:	89 45 ec             	mov    %eax,-0x14(%ebp)
  101121:	81 7d ec 45 23 01 00 	cmpl   $0x12345,-0x14(%ebp)
  101128:	0f 84 82 00 00 00    	je     1011b0 <switch_task+0xb5>
  10112e:	a1 d8 60 10 00       	mov    0x1060d8,%eax
  101133:	8b 55 ec             	mov    -0x14(%ebp),%edx
  101136:	89 50 0c             	mov    %edx,0xc(%eax)
  101139:	a1 d8 60 10 00       	mov    0x1060d8,%eax
  10113e:	8b 55 f4             	mov    -0xc(%ebp),%edx
  101141:	89 50 04             	mov    %edx,0x4(%eax)
  101144:	a1 d8 60 10 00       	mov    0x1060d8,%eax
  101149:	8b 55 f0             	mov    -0x10(%ebp),%edx
  10114c:	89 50 08             	mov    %edx,0x8(%eax)
  10114f:	a1 d8 60 10 00       	mov    0x1060d8,%eax
  101154:	8b 40 14             	mov    0x14(%eax),%eax
  101157:	a3 d8 60 10 00       	mov    %eax,0x1060d8
  10115c:	a1 d8 60 10 00       	mov    0x1060d8,%eax
  101161:	85 c0                	test   %eax,%eax
  101163:	75 0a                	jne    10116f <switch_task+0x74>
  101165:	a1 d4 60 10 00       	mov    0x1060d4,%eax
  10116a:	a3 d8 60 10 00       	mov    %eax,0x1060d8
  10116f:	a1 d8 60 10 00       	mov    0x1060d8,%eax
  101174:	8b 40 04             	mov    0x4(%eax),%eax
  101177:	89 45 f4             	mov    %eax,-0xc(%ebp)
  10117a:	a1 d8 60 10 00       	mov    0x1060d8,%eax
  10117f:	8b 40 08             	mov    0x8(%eax),%eax
  101182:	89 45 f0             	mov    %eax,-0x10(%ebp)
  101185:	a1 08 60 10 00       	mov    0x106008,%eax
  10118a:	8b 98 00 20 00 00    	mov    0x2000(%eax),%ebx
  101190:	8b 45 ec             	mov    -0x14(%ebp),%eax
  101193:	8b 55 f4             	mov    -0xc(%ebp),%edx
  101196:	8b 4d f0             	mov    -0x10(%ebp),%ecx
  101199:	fa                   	cli    
  10119a:	89 c1                	mov    %eax,%ecx
  10119c:	89 d4                	mov    %edx,%esp
  10119e:	89 cd                	mov    %ecx,%ebp
  1011a0:	0f 22 db             	mov    %ebx,%cr3
  1011a3:	b8 45 23 01 00       	mov    $0x12345,%eax
  1011a8:	fb                   	sti    
  1011a9:	ff e1                	jmp    *%ecx
  1011ab:	eb 04                	jmp    1011b1 <switch_task+0xb6>
  1011ad:	90                   	nop
  1011ae:	eb 01                	jmp    1011b1 <switch_task+0xb6>
  1011b0:	90                   	nop
  1011b1:	83 c4 14             	add    $0x14,%esp
  1011b4:	5b                   	pop    %ebx
  1011b5:	5d                   	pop    %ebp
  1011b6:	c3                   	ret    

001011b7 <fork>:
  1011b7:	55                   	push   %ebp
  1011b8:	89 e5                	mov    %esp,%ebp
  1011ba:	83 ec 28             	sub    $0x28,%esp
  1011bd:	fa                   	cli    
  1011be:	a1 d8 60 10 00       	mov    0x1060d8,%eax
  1011c3:	89 45 f0             	mov    %eax,-0x10(%ebp)
  1011c6:	a1 08 60 10 00       	mov    0x106008,%eax
  1011cb:	83 ec 0c             	sub    $0xc,%esp
  1011ce:	50                   	push   %eax
  1011cf:	e8 32 07 00 00       	call   101906 <clone_directory>
  1011d4:	83 c4 10             	add    $0x10,%esp
  1011d7:	89 45 ec             	mov    %eax,-0x14(%ebp)
  1011da:	83 ec 0c             	sub    $0xc,%esp
  1011dd:	6a 18                	push   $0x18
  1011df:	e8 50 f0 ff ff       	call   100234 <kmalloc>
  1011e4:	83 c4 10             	add    $0x10,%esp
  1011e7:	89 45 e8             	mov    %eax,-0x18(%ebp)
  1011ea:	a1 04 50 10 00       	mov    0x105004,%eax
  1011ef:	8d 50 01             	lea    0x1(%eax),%edx
  1011f2:	89 15 04 50 10 00    	mov    %edx,0x105004
  1011f8:	89 c2                	mov    %eax,%edx
  1011fa:	8b 45 e8             	mov    -0x18(%ebp),%eax
  1011fd:	89 10                	mov    %edx,(%eax)
  1011ff:	8b 45 e8             	mov    -0x18(%ebp),%eax
  101202:	c7 40 08 00 00 00 00 	movl   $0x0,0x8(%eax)
  101209:	8b 45 e8             	mov    -0x18(%ebp),%eax
  10120c:	8b 50 08             	mov    0x8(%eax),%edx
  10120f:	8b 45 e8             	mov    -0x18(%ebp),%eax
  101212:	89 50 04             	mov    %edx,0x4(%eax)
  101215:	8b 45 e8             	mov    -0x18(%ebp),%eax
  101218:	c7 40 0c 00 00 00 00 	movl   $0x0,0xc(%eax)
  10121f:	8b 45 e8             	mov    -0x18(%ebp),%eax
  101222:	8b 55 ec             	mov    -0x14(%ebp),%edx
  101225:	89 50 10             	mov    %edx,0x10(%eax)
  101228:	8b 45 e8             	mov    -0x18(%ebp),%eax
  10122b:	c7 40 14 00 00 00 00 	movl   $0x0,0x14(%eax)
  101232:	a1 d4 60 10 00       	mov    0x1060d4,%eax
  101237:	89 45 f4             	mov    %eax,-0xc(%ebp)
  10123a:	eb 09                	jmp    101245 <fork+0x8e>
  10123c:	8b 45 f4             	mov    -0xc(%ebp),%eax
  10123f:	8b 40 14             	mov    0x14(%eax),%eax
  101242:	89 45 f4             	mov    %eax,-0xc(%ebp)
  101245:	8b 45 f4             	mov    -0xc(%ebp),%eax
  101248:	8b 40 14             	mov    0x14(%eax),%eax
  10124b:	85 c0                	test   %eax,%eax
  10124d:	75 ed                	jne    10123c <fork+0x85>
  10124f:	8b 45 f4             	mov    -0xc(%ebp),%eax
  101252:	8b 55 e8             	mov    -0x18(%ebp),%edx
  101255:	89 50 14             	mov    %edx,0x14(%eax)
  101258:	e8 f3 20 00 00       	call   103350 <read_eip>
  10125d:	89 45 e4             	mov    %eax,-0x1c(%ebp)
  101260:	a1 d8 60 10 00       	mov    0x1060d8,%eax
  101265:	39 45 f0             	cmp    %eax,-0x10(%ebp)
  101268:	75 2d                	jne    101297 <fork+0xe0>
  10126a:	89 e0                	mov    %esp,%eax
  10126c:	89 45 e0             	mov    %eax,-0x20(%ebp)
  10126f:	89 e8                	mov    %ebp,%eax
  101271:	89 45 dc             	mov    %eax,-0x24(%ebp)
  101274:	8b 45 e8             	mov    -0x18(%ebp),%eax
  101277:	8b 55 e0             	mov    -0x20(%ebp),%edx
  10127a:	89 50 04             	mov    %edx,0x4(%eax)
  10127d:	8b 45 e8             	mov    -0x18(%ebp),%eax
  101280:	8b 55 dc             	mov    -0x24(%ebp),%edx
  101283:	89 50 08             	mov    %edx,0x8(%eax)
  101286:	8b 45 e8             	mov    -0x18(%ebp),%eax
  101289:	8b 55 e4             	mov    -0x1c(%ebp),%edx
  10128c:	89 50 0c             	mov    %edx,0xc(%eax)
  10128f:	fb                   	sti    
  101290:	8b 45 e8             	mov    -0x18(%ebp),%eax
  101293:	8b 00                	mov    (%eax),%eax
  101295:	eb 05                	jmp    10129c <fork+0xe5>
  101297:	b8 00 00 00 00       	mov    $0x0,%eax
  10129c:	c9                   	leave  
  10129d:	c3                   	ret    

0010129e <get_pid>:
  10129e:	55                   	push   %ebp
  10129f:	89 e5                	mov    %esp,%ebp
  1012a1:	a1 d8 60 10 00       	mov    0x1060d8,%eax
  1012a6:	8b 00                	mov    (%eax),%eax
  1012a8:	5d                   	pop    %ebp
  1012a9:	c3                   	ret    

001012aa <set_frame>:
  1012aa:	55                   	push   %ebp
  1012ab:	89 e5                	mov    %esp,%ebp
  1012ad:	53                   	push   %ebx
  1012ae:	83 ec 10             	sub    $0x10,%esp
  1012b1:	8b 45 08             	mov    0x8(%ebp),%eax
  1012b4:	c1 e8 0c             	shr    $0xc,%eax
  1012b7:	89 45 f8             	mov    %eax,-0x8(%ebp)
  1012ba:	8b 45 f8             	mov    -0x8(%ebp),%eax
  1012bd:	c1 e8 05             	shr    $0x5,%eax
  1012c0:	89 45 f4             	mov    %eax,-0xc(%ebp)
  1012c3:	8b 45 f8             	mov    -0x8(%ebp),%eax
  1012c6:	83 e0 1f             	and    $0x1f,%eax
  1012c9:	89 45 f0             	mov    %eax,-0x10(%ebp)
  1012cc:	a1 e0 60 10 00       	mov    0x1060e0,%eax
  1012d1:	8b 55 f4             	mov    -0xc(%ebp),%edx
  1012d4:	c1 e2 02             	shl    $0x2,%edx
  1012d7:	01 d0                	add    %edx,%eax
  1012d9:	8b 10                	mov    (%eax),%edx
  1012db:	8b 45 f0             	mov    -0x10(%ebp),%eax
  1012de:	bb 01 00 00 00       	mov    $0x1,%ebx
  1012e3:	89 c1                	mov    %eax,%ecx
  1012e5:	d3 e3                	shl    %cl,%ebx
  1012e7:	89 d8                	mov    %ebx,%eax
  1012e9:	89 c3                	mov    %eax,%ebx
  1012eb:	a1 e0 60 10 00       	mov    0x1060e0,%eax
  1012f0:	8b 4d f4             	mov    -0xc(%ebp),%ecx
  1012f3:	c1 e1 02             	shl    $0x2,%ecx
  1012f6:	01 c8                	add    %ecx,%eax
  1012f8:	09 da                	or     %ebx,%edx
  1012fa:	89 10                	mov    %edx,(%eax)
  1012fc:	90                   	nop
  1012fd:	83 c4 10             	add    $0x10,%esp
  101300:	5b                   	pop    %ebx
  101301:	5d                   	pop    %ebp
  101302:	c3                   	ret    

00101303 <clear_frame>:
  101303:	55                   	push   %ebp
  101304:	89 e5                	mov    %esp,%ebp
  101306:	53                   	push   %ebx
  101307:	83 ec 10             	sub    $0x10,%esp
  10130a:	8b 45 08             	mov    0x8(%ebp),%eax
  10130d:	c1 e8 0c             	shr    $0xc,%eax
  101310:	89 45 f8             	mov    %eax,-0x8(%ebp)
  101313:	8b 45 f8             	mov    -0x8(%ebp),%eax
  101316:	c1 e8 05             	shr    $0x5,%eax
  101319:	89 45 f4             	mov    %eax,-0xc(%ebp)
  10131c:	8b 45 f8             	mov    -0x8(%ebp),%eax
  10131f:	83 e0 1f             	and    $0x1f,%eax
  101322:	89 45 f0             	mov    %eax,-0x10(%ebp)
  101325:	a1 e0 60 10 00       	mov    0x1060e0,%eax
  10132a:	8b 55 f4             	mov    -0xc(%ebp),%edx
  10132d:	c1 e2 02             	shl    $0x2,%edx
  101330:	01 d0                	add    %edx,%eax
  101332:	8b 10                	mov    (%eax),%edx
  101334:	8b 45 f0             	mov    -0x10(%ebp),%eax
  101337:	bb 01 00 00 00       	mov    $0x1,%ebx
  10133c:	89 c1                	mov    %eax,%ecx
  10133e:	d3 e3                	shl    %cl,%ebx
  101340:	89 d8                	mov    %ebx,%eax
  101342:	f7 d0                	not    %eax
  101344:	89 c3                	mov    %eax,%ebx
  101346:	a1 e0 60 10 00       	mov    0x1060e0,%eax
  10134b:	8b 4d f4             	mov    -0xc(%ebp),%ecx
  10134e:	c1 e1 02             	shl    $0x2,%ecx
  101351:	01 c8                	add    %ecx,%eax
  101353:	21 da                	and    %ebx,%edx
  101355:	89 10                	mov    %edx,(%eax)
  101357:	90                   	nop
  101358:	83 c4 10             	add    $0x10,%esp
  10135b:	5b                   	pop    %ebx
  10135c:	5d                   	pop    %ebp
  10135d:	c3                   	ret    

0010135e <test_frame>:
  10135e:	55                   	push   %ebp
  10135f:	89 e5                	mov    %esp,%ebp
  101361:	53                   	push   %ebx
  101362:	83 ec 10             	sub    $0x10,%esp
  101365:	8b 45 08             	mov    0x8(%ebp),%eax
  101368:	c1 e8 0c             	shr    $0xc,%eax
  10136b:	89 45 f8             	mov    %eax,-0x8(%ebp)
  10136e:	8b 45 f8             	mov    -0x8(%ebp),%eax
  101371:	c1 e8 05             	shr    $0x5,%eax
  101374:	89 45 f4             	mov    %eax,-0xc(%ebp)
  101377:	8b 45 f8             	mov    -0x8(%ebp),%eax
  10137a:	83 e0 1f             	and    $0x1f,%eax
  10137d:	89 45 f0             	mov    %eax,-0x10(%ebp)
  101380:	a1 e0 60 10 00       	mov    0x1060e0,%eax
  101385:	8b 55 f4             	mov    -0xc(%ebp),%edx
  101388:	c1 e2 02             	shl    $0x2,%edx
  10138b:	01 d0                	add    %edx,%eax
  10138d:	8b 10                	mov    (%eax),%edx
  10138f:	8b 45 f0             	mov    -0x10(%ebp),%eax
  101392:	bb 01 00 00 00       	mov    $0x1,%ebx
  101397:	89 c1                	mov    %eax,%ecx
  101399:	d3 e3                	shl    %cl,%ebx
  10139b:	89 d8                	mov    %ebx,%eax
  10139d:	21 d0                	and    %edx,%eax
  10139f:	83 c4 10             	add    $0x10,%esp
  1013a2:	5b                   	pop    %ebx
  1013a3:	5d                   	pop    %ebp
  1013a4:	c3                   	ret    

001013a5 <first_unused_frame>:
  1013a5:	55                   	push   %ebp
  1013a6:	89 e5                	mov    %esp,%ebp
  1013a8:	53                   	push   %ebx
  1013a9:	83 ec 10             	sub    $0x10,%esp
  1013ac:	c7 45 f8 00 00 00 00 	movl   $0x0,-0x8(%ebp)
  1013b3:	eb 5d                	jmp    101412 <first_unused_frame+0x6d>
  1013b5:	a1 e0 60 10 00       	mov    0x1060e0,%eax
  1013ba:	8b 55 f8             	mov    -0x8(%ebp),%edx
  1013bd:	c1 e2 02             	shl    $0x2,%edx
  1013c0:	01 d0                	add    %edx,%eax
  1013c2:	8b 00                	mov    (%eax),%eax
  1013c4:	83 f8 ff             	cmp    $0xffffffff,%eax
  1013c7:	74 45                	je     10140e <first_unused_frame+0x69>
  1013c9:	c7 45 f4 00 00 00 00 	movl   $0x0,-0xc(%ebp)
  1013d0:	eb 36                	jmp    101408 <first_unused_frame+0x63>
  1013d2:	a1 e0 60 10 00       	mov    0x1060e0,%eax
  1013d7:	8b 55 f8             	mov    -0x8(%ebp),%edx
  1013da:	c1 e2 02             	shl    $0x2,%edx
  1013dd:	01 d0                	add    %edx,%eax
  1013df:	8b 10                	mov    (%eax),%edx
  1013e1:	8b 45 f4             	mov    -0xc(%ebp),%eax
  1013e4:	bb 01 00 00 00       	mov    $0x1,%ebx
  1013e9:	89 c1                	mov    %eax,%ecx
  1013eb:	d3 e3                	shl    %cl,%ebx
  1013ed:	89 d8                	mov    %ebx,%eax
  1013ef:	21 d0                	and    %edx,%eax
  1013f1:	85 c0                	test   %eax,%eax
  1013f3:	75 0f                	jne    101404 <first_unused_frame+0x5f>
  1013f5:	8b 45 f8             	mov    -0x8(%ebp),%eax
  1013f8:	c1 e0 05             	shl    $0x5,%eax
  1013fb:	89 c2                	mov    %eax,%edx
  1013fd:	8b 45 f4             	mov    -0xc(%ebp),%eax
  101400:	01 d0                	add    %edx,%eax
  101402:	eb 1b                	jmp    10141f <first_unused_frame+0x7a>
  101404:	83 45 f4 01          	addl   $0x1,-0xc(%ebp)
  101408:	83 7d f4 1f          	cmpl   $0x1f,-0xc(%ebp)
  10140c:	76 c4                	jbe    1013d2 <first_unused_frame+0x2d>
  10140e:	83 45 f8 01          	addl   $0x1,-0x8(%ebp)
  101412:	a1 dc 60 10 00       	mov    0x1060dc,%eax
  101417:	c1 e8 05             	shr    $0x5,%eax
  10141a:	39 45 f8             	cmp    %eax,-0x8(%ebp)
  10141d:	72 96                	jb     1013b5 <first_unused_frame+0x10>
  10141f:	83 c4 10             	add    $0x10,%esp
  101422:	5b                   	pop    %ebx
  101423:	5d                   	pop    %ebp
  101424:	c3                   	ret    

00101425 <alloc_frame>:
  101425:	55                   	push   %ebp
  101426:	89 e5                	mov    %esp,%ebp
  101428:	83 ec 18             	sub    $0x18,%esp
  10142b:	8b 45 08             	mov    0x8(%ebp),%eax
  10142e:	8b 00                	mov    (%eax),%eax
  101430:	25 00 f0 ff ff       	and    $0xfffff000,%eax
  101435:	85 c0                	test   %eax,%eax
  101437:	0f 85 df 00 00 00    	jne    10151c <alloc_frame+0xf7>
  10143d:	e8 63 ff ff ff       	call   1013a5 <first_unused_frame>
  101442:	89 45 f4             	mov    %eax,-0xc(%ebp)
  101445:	83 ec 0c             	sub    $0xc,%esp
  101448:	68 74 41 10 00       	push   $0x104174
  10144d:	e8 f1 19 00 00       	call   102e43 <print_string>
  101452:	83 c4 10             	add    $0x10,%esp
  101455:	8b 45 08             	mov    0x8(%ebp),%eax
  101458:	83 ec 0c             	sub    $0xc,%esp
  10145b:	50                   	push   %eax
  10145c:	e8 ca 1b 00 00       	call   10302b <print_hex>
  101461:	83 c4 10             	add    $0x10,%esp
  101464:	83 ec 0c             	sub    $0xc,%esp
  101467:	68 8b 41 10 00       	push   $0x10418b
  10146c:	e8 d2 19 00 00       	call   102e43 <print_string>
  101471:	83 c4 10             	add    $0x10,%esp
  101474:	83 ec 0c             	sub    $0xc,%esp
  101477:	ff 75 f4             	pushl  -0xc(%ebp)
  10147a:	e8 ac 1b 00 00       	call   10302b <print_hex>
  10147f:	83 c4 10             	add    $0x10,%esp
  101482:	83 ec 0c             	sub    $0xc,%esp
  101485:	6a 0a                	push   $0xa
  101487:	e8 2e 19 00 00       	call   102dba <print_char>
  10148c:	83 c4 10             	add    $0x10,%esp
  10148f:	83 7d f4 ff          	cmpl   $0xffffffff,-0xc(%ebp)
  101493:	75 12                	jne    1014a7 <alloc_frame+0x82>
  101495:	83 ec 0c             	sub    $0xc,%esp
  101498:	68 9d 41 10 00       	push   $0x10419d
  10149d:	e8 a1 19 00 00       	call   102e43 <print_string>
  1014a2:	83 c4 10             	add    $0x10,%esp
  1014a5:	eb 76                	jmp    10151d <alloc_frame+0xf8>
  1014a7:	8b 45 f4             	mov    -0xc(%ebp),%eax
  1014aa:	c1 e0 0c             	shl    $0xc,%eax
  1014ad:	83 ec 0c             	sub    $0xc,%esp
  1014b0:	50                   	push   %eax
  1014b1:	e8 f4 fd ff ff       	call   1012aa <set_frame>
  1014b6:	83 c4 10             	add    $0x10,%esp
  1014b9:	8b 45 08             	mov    0x8(%ebp),%eax
  1014bc:	0f b6 10             	movzbl (%eax),%edx
  1014bf:	83 ca 01             	or     $0x1,%edx
  1014c2:	88 10                	mov    %dl,(%eax)
  1014c4:	83 7d 10 00          	cmpl   $0x0,0x10(%ebp)
  1014c8:	0f 95 c2             	setne  %dl
  1014cb:	8b 45 08             	mov    0x8(%ebp),%eax
  1014ce:	83 e2 01             	and    $0x1,%edx
  1014d1:	8d 0c 12             	lea    (%edx,%edx,1),%ecx
  1014d4:	0f b6 10             	movzbl (%eax),%edx
  1014d7:	83 e2 fd             	and    $0xfffffffd,%edx
  1014da:	09 ca                	or     %ecx,%edx
  1014dc:	88 10                	mov    %dl,(%eax)
  1014de:	83 7d 0c 00          	cmpl   $0x0,0xc(%ebp)
  1014e2:	0f 94 c2             	sete   %dl
  1014e5:	8b 45 08             	mov    0x8(%ebp),%eax
  1014e8:	83 e2 01             	and    $0x1,%edx
  1014eb:	8d 0c 95 00 00 00 00 	lea    0x0(,%edx,4),%ecx
  1014f2:	0f b6 10             	movzbl (%eax),%edx
  1014f5:	83 e2 fb             	and    $0xfffffffb,%edx
  1014f8:	09 ca                	or     %ecx,%edx
  1014fa:	88 10                	mov    %dl,(%eax)
  1014fc:	8b 45 f4             	mov    -0xc(%ebp),%eax
  1014ff:	25 ff ff 0f 00       	and    $0xfffff,%eax
  101504:	89 c2                	mov    %eax,%edx
  101506:	8b 45 08             	mov    0x8(%ebp),%eax
  101509:	89 d1                	mov    %edx,%ecx
  10150b:	c1 e1 0c             	shl    $0xc,%ecx
  10150e:	8b 10                	mov    (%eax),%edx
  101510:	81 e2 ff 0f 00 00    	and    $0xfff,%edx
  101516:	09 ca                	or     %ecx,%edx
  101518:	89 10                	mov    %edx,(%eax)
  10151a:	eb 01                	jmp    10151d <alloc_frame+0xf8>
  10151c:	90                   	nop
  10151d:	c9                   	leave  
  10151e:	c3                   	ret    

0010151f <free_frame>:
  10151f:	55                   	push   %ebp
  101520:	89 e5                	mov    %esp,%ebp
  101522:	83 ec 10             	sub    $0x10,%esp
  101525:	8b 45 08             	mov    0x8(%ebp),%eax
  101528:	8b 00                	mov    (%eax),%eax
  10152a:	c1 e8 0c             	shr    $0xc,%eax
  10152d:	89 45 fc             	mov    %eax,-0x4(%ebp)
  101530:	83 7d fc 00          	cmpl   $0x0,-0x4(%ebp)
  101534:	74 1a                	je     101550 <free_frame+0x31>
  101536:	ff 75 fc             	pushl  -0x4(%ebp)
  101539:	e8 c5 fd ff ff       	call   101303 <clear_frame>
  10153e:	83 c4 04             	add    $0x4,%esp
  101541:	8b 45 08             	mov    0x8(%ebp),%eax
  101544:	8b 10                	mov    (%eax),%edx
  101546:	81 e2 ff 0f 00 00    	and    $0xfff,%edx
  10154c:	89 10                	mov    %edx,(%eax)
  10154e:	eb 01                	jmp    101551 <free_frame+0x32>
  101550:	90                   	nop
  101551:	c9                   	leave  
  101552:	c3                   	ret    

00101553 <init_paging>:
  101553:	55                   	push   %ebp
  101554:	89 e5                	mov    %esp,%ebp
  101556:	83 ec 18             	sub    $0x18,%esp
  101559:	c7 45 ec 00 00 00 01 	movl   $0x1000000,-0x14(%ebp)
  101560:	8b 45 ec             	mov    -0x14(%ebp),%eax
  101563:	c1 e8 0c             	shr    $0xc,%eax
  101566:	a3 dc 60 10 00       	mov    %eax,0x1060dc
  10156b:	a1 dc 60 10 00       	mov    0x1060dc,%eax
  101570:	c1 e8 03             	shr    $0x3,%eax
  101573:	83 ec 0c             	sub    $0xc,%esp
  101576:	50                   	push   %eax
  101577:	e8 b8 ec ff ff       	call   100234 <kmalloc>
  10157c:	83 c4 10             	add    $0x10,%esp
  10157f:	a3 e0 60 10 00       	mov    %eax,0x1060e0
  101584:	a1 dc 60 10 00       	mov    0x1060dc,%eax
  101589:	c1 e8 03             	shr    $0x3,%eax
  10158c:	89 c2                	mov    %eax,%edx
  10158e:	a1 e0 60 10 00       	mov    0x1060e0,%eax
  101593:	83 ec 04             	sub    $0x4,%esp
  101596:	52                   	push   %edx
  101597:	6a 00                	push   $0x0
  101599:	50                   	push   %eax
  10159a:	e8 fa 0b 00 00       	call   102199 <mem_set>
  10159f:	83 c4 10             	add    $0x10,%esp
  1015a2:	83 ec 0c             	sub    $0xc,%esp
  1015a5:	68 04 20 00 00       	push   $0x2004
  1015aa:	e8 9f ec ff ff       	call   10024e <kmalloc_a>
  1015af:	83 c4 10             	add    $0x10,%esp
  1015b2:	a3 04 60 10 00       	mov    %eax,0x106004
  1015b7:	a1 04 60 10 00       	mov    0x106004,%eax
  1015bc:	83 ec 04             	sub    $0x4,%esp
  1015bf:	68 04 20 00 00       	push   $0x2004
  1015c4:	6a 00                	push   $0x0
  1015c6:	50                   	push   %eax
  1015c7:	e8 cd 0b 00 00       	call   102199 <mem_set>
  1015cc:	83 c4 10             	add    $0x10,%esp
  1015cf:	a1 04 60 10 00       	mov    0x106004,%eax
  1015d4:	8d 90 00 10 00 00    	lea    0x1000(%eax),%edx
  1015da:	a1 04 60 10 00       	mov    0x106004,%eax
  1015df:	89 90 00 20 00 00    	mov    %edx,0x2000(%eax)
  1015e5:	c7 45 f4 00 00 00 c0 	movl   $0xc0000000,-0xc(%ebp)
  1015ec:	8b 45 f4             	mov    -0xc(%ebp),%eax
  1015ef:	25 ff 0f 00 00       	and    $0xfff,%eax
  1015f4:	85 c0                	test   %eax,%eax
  1015f6:	74 26                	je     10161e <init_paging+0xcb>
  1015f8:	81 65 f4 00 f0 ff ff 	andl   $0xfffff000,-0xc(%ebp)
  1015ff:	eb 1d                	jmp    10161e <init_paging+0xcb>
  101601:	a1 04 60 10 00       	mov    0x106004,%eax
  101606:	83 ec 04             	sub    $0x4,%esp
  101609:	50                   	push   %eax
  10160a:	6a 01                	push   $0x1
  10160c:	ff 75 f4             	pushl  -0xc(%ebp)
  10160f:	e8 39 01 00 00       	call   10174d <get_page>
  101614:	83 c4 10             	add    $0x10,%esp
  101617:	81 45 f4 00 10 00 00 	addl   $0x1000,-0xc(%ebp)
  10161e:	81 7d f4 ff 0f 10 c0 	cmpl   $0xc0100fff,-0xc(%ebp)
  101625:	76 da                	jbe    101601 <init_paging+0xae>
  101627:	c7 45 f0 00 00 00 00 	movl   $0x0,-0x10(%ebp)
  10162e:	eb 2f                	jmp    10165f <init_paging+0x10c>
  101630:	8b 15 04 60 10 00    	mov    0x106004,%edx
  101636:	8b 45 f0             	mov    -0x10(%ebp),%eax
  101639:	83 ec 04             	sub    $0x4,%esp
  10163c:	52                   	push   %edx
  10163d:	6a 01                	push   $0x1
  10163f:	50                   	push   %eax
  101640:	e8 08 01 00 00       	call   10174d <get_page>
  101645:	83 c4 10             	add    $0x10,%esp
  101648:	83 ec 04             	sub    $0x4,%esp
  10164b:	6a 00                	push   $0x0
  10164d:	6a 00                	push   $0x0
  10164f:	50                   	push   %eax
  101650:	e8 d0 fd ff ff       	call   101425 <alloc_frame>
  101655:	83 c4 10             	add    $0x10,%esp
  101658:	81 45 f0 00 10 00 00 	addl   $0x1000,-0x10(%ebp)
  10165f:	a1 00 50 10 00       	mov    0x105000,%eax
  101664:	8d 90 00 10 00 00    	lea    0x1000(%eax),%edx
  10166a:	8b 45 f0             	mov    -0x10(%ebp),%eax
  10166d:	39 c2                	cmp    %eax,%edx
  10166f:	77 bf                	ja     101630 <init_paging+0xdd>
  101671:	c7 45 f4 00 00 00 c0 	movl   $0xc0000000,-0xc(%ebp)
  101678:	8b 45 f4             	mov    -0xc(%ebp),%eax
  10167b:	25 ff 0f 00 00       	and    $0xfff,%eax
  101680:	85 c0                	test   %eax,%eax
  101682:	74 36                	je     1016ba <init_paging+0x167>
  101684:	81 65 f4 00 f0 ff ff 	andl   $0xfffff000,-0xc(%ebp)
  10168b:	eb 2d                	jmp    1016ba <init_paging+0x167>
  10168d:	a1 04 60 10 00       	mov    0x106004,%eax
  101692:	83 ec 04             	sub    $0x4,%esp
  101695:	50                   	push   %eax
  101696:	6a 01                	push   $0x1
  101698:	ff 75 f4             	pushl  -0xc(%ebp)
  10169b:	e8 ad 00 00 00       	call   10174d <get_page>
  1016a0:	83 c4 10             	add    $0x10,%esp
  1016a3:	83 ec 04             	sub    $0x4,%esp
  1016a6:	6a 00                	push   $0x0
  1016a8:	6a 00                	push   $0x0
  1016aa:	50                   	push   %eax
  1016ab:	e8 75 fd ff ff       	call   101425 <alloc_frame>
  1016b0:	83 c4 10             	add    $0x10,%esp
  1016b3:	81 45 f4 00 10 00 00 	addl   $0x1000,-0xc(%ebp)
  1016ba:	81 7d f4 ff 0f 10 c0 	cmpl   $0xc0100fff,-0xc(%ebp)
  1016c1:	76 ca                	jbe    10168d <init_paging+0x13a>
  1016c3:	83 ec 08             	sub    $0x8,%esp
  1016c6:	68 ca 18 10 00       	push   $0x1018ca
  1016cb:	6a 0e                	push   $0xe
  1016cd:	e8 9e 12 00 00       	call   102970 <register_interrupt_handler>
  1016d2:	83 c4 10             	add    $0x10,%esp
  1016d5:	a1 04 60 10 00       	mov    0x106004,%eax
  1016da:	83 ec 0c             	sub    $0xc,%esp
  1016dd:	50                   	push   %eax
  1016de:	e8 3a 00 00 00       	call   10171d <switch_page_directory>
  1016e3:	83 c4 10             	add    $0x10,%esp
  1016e6:	83 ec 0c             	sub    $0xc,%esp
  1016e9:	6a 00                	push   $0x0
  1016eb:	6a 00                	push   $0x0
  1016ed:	68 00 f0 ff cf       	push   $0xcffff000
  1016f2:	68 00 00 10 c0       	push   $0xc0100000
  1016f7:	68 00 00 00 c0       	push   $0xc0000000
  1016fc:	e8 be ec ff ff       	call   1003bf <create_heap>
  101701:	83 c4 20             	add    $0x20,%esp
  101704:	a3 00 60 10 00       	mov    %eax,0x106000
  101709:	a1 08 60 10 00       	mov    0x106008,%eax
  10170e:	83 ec 0c             	sub    $0xc,%esp
  101711:	50                   	push   %eax
  101712:	e8 06 00 00 00       	call   10171d <switch_page_directory>
  101717:	83 c4 10             	add    $0x10,%esp
  10171a:	90                   	nop
  10171b:	c9                   	leave  
  10171c:	c3                   	ret    

0010171d <switch_page_directory>:
  10171d:	55                   	push   %ebp
  10171e:	89 e5                	mov    %esp,%ebp
  101720:	83 ec 10             	sub    $0x10,%esp
  101723:	8b 45 08             	mov    0x8(%ebp),%eax
  101726:	a3 08 60 10 00       	mov    %eax,0x106008
  10172b:	8b 45 08             	mov    0x8(%ebp),%eax
  10172e:	8b 80 00 20 00 00    	mov    0x2000(%eax),%eax
  101734:	0f 22 d8             	mov    %eax,%cr3
  101737:	0f 20 c0             	mov    %cr0,%eax
  10173a:	89 45 fc             	mov    %eax,-0x4(%ebp)
  10173d:	81 4d fc 00 00 00 80 	orl    $0x80000000,-0x4(%ebp)
  101744:	8b 45 fc             	mov    -0x4(%ebp),%eax
  101747:	0f 22 c0             	mov    %eax,%cr0
  10174a:	90                   	nop
  10174b:	c9                   	leave  
  10174c:	c3                   	ret    

0010174d <get_page>:
  10174d:	55                   	push   %ebp
  10174e:	89 e5                	mov    %esp,%ebp
  101750:	83 ec 18             	sub    $0x18,%esp
  101753:	8b 45 08             	mov    0x8(%ebp),%eax
  101756:	c1 e8 0c             	shr    $0xc,%eax
  101759:	89 45 08             	mov    %eax,0x8(%ebp)
  10175c:	8b 45 08             	mov    0x8(%ebp),%eax
  10175f:	c1 e8 0a             	shr    $0xa,%eax
  101762:	89 45 f4             	mov    %eax,-0xc(%ebp)
  101765:	83 ec 0c             	sub    $0xc,%esp
  101768:	68 ae 41 10 00       	push   $0x1041ae
  10176d:	e8 d1 16 00 00       	call   102e43 <print_string>
  101772:	83 c4 10             	add    $0x10,%esp
  101775:	8b 45 10             	mov    0x10(%ebp),%eax
  101778:	8b 55 f4             	mov    -0xc(%ebp),%edx
  10177b:	8b 04 90             	mov    (%eax,%edx,4),%eax
  10177e:	85 c0                	test   %eax,%eax
  101780:	74 29                	je     1017ab <get_page+0x5e>
  101782:	83 ec 0c             	sub    $0xc,%esp
  101785:	6a 0a                	push   $0xa
  101787:	e8 2e 16 00 00       	call   102dba <print_char>
  10178c:	83 c4 10             	add    $0x10,%esp
  10178f:	8b 45 10             	mov    0x10(%ebp),%eax
  101792:	8b 55 f4             	mov    -0xc(%ebp),%edx
  101795:	8b 04 90             	mov    (%eax,%edx,4),%eax
  101798:	8b 55 08             	mov    0x8(%ebp),%edx
  10179b:	81 e2 ff 03 00 00    	and    $0x3ff,%edx
  1017a1:	c1 e2 02             	shl    $0x2,%edx
  1017a4:	01 d0                	add    %edx,%eax
  1017a6:	e9 1d 01 00 00       	jmp    1018c8 <get_page+0x17b>
  1017ab:	83 7d 0c 00          	cmpl   $0x0,0xc(%ebp)
  1017af:	0f 84 fe 00 00 00    	je     1018b3 <get_page+0x166>
  1017b5:	83 ec 08             	sub    $0x8,%esp
  1017b8:	8d 45 f0             	lea    -0x10(%ebp),%eax
  1017bb:	50                   	push   %eax
  1017bc:	68 00 10 00 00       	push   $0x1000
  1017c1:	e8 bd ea ff ff       	call   100283 <kmalloc_ap>
  1017c6:	83 c4 10             	add    $0x10,%esp
  1017c9:	89 c1                	mov    %eax,%ecx
  1017cb:	8b 45 10             	mov    0x10(%ebp),%eax
  1017ce:	8b 55 f4             	mov    -0xc(%ebp),%edx
  1017d1:	89 0c 90             	mov    %ecx,(%eax,%edx,4)
  1017d4:	8b 45 10             	mov    0x10(%ebp),%eax
  1017d7:	8b 55 f4             	mov    -0xc(%ebp),%edx
  1017da:	8b 04 90             	mov    (%eax,%edx,4),%eax
  1017dd:	83 ec 04             	sub    $0x4,%esp
  1017e0:	68 00 10 00 00       	push   $0x1000
  1017e5:	6a 00                	push   $0x0
  1017e7:	50                   	push   %eax
  1017e8:	e8 ac 09 00 00       	call   102199 <mem_set>
  1017ed:	83 c4 10             	add    $0x10,%esp
  1017f0:	8b 45 f0             	mov    -0x10(%ebp),%eax
  1017f3:	83 c8 07             	or     $0x7,%eax
  1017f6:	89 c1                	mov    %eax,%ecx
  1017f8:	8b 45 10             	mov    0x10(%ebp),%eax
  1017fb:	8b 55 f4             	mov    -0xc(%ebp),%edx
  1017fe:	81 c2 00 04 00 00    	add    $0x400,%edx
  101804:	89 0c 90             	mov    %ecx,(%eax,%edx,4)
  101807:	83 ec 0c             	sub    $0xc,%esp
  10180a:	68 b0 41 10 00       	push   $0x1041b0
  10180f:	e8 2f 16 00 00       	call   102e43 <print_string>
  101814:	83 c4 10             	add    $0x10,%esp
  101817:	83 ec 0c             	sub    $0xc,%esp
  10181a:	ff 75 08             	pushl  0x8(%ebp)
  10181d:	e8 09 18 00 00       	call   10302b <print_hex>
  101822:	83 c4 10             	add    $0x10,%esp
  101825:	83 ec 0c             	sub    $0xc,%esp
  101828:	68 ae 41 10 00       	push   $0x1041ae
  10182d:	e8 11 16 00 00       	call   102e43 <print_string>
  101832:	83 c4 10             	add    $0x10,%esp
  101835:	83 ec 0c             	sub    $0xc,%esp
  101838:	68 d0 41 10 00       	push   $0x1041d0
  10183d:	e8 01 16 00 00       	call   102e43 <print_string>
  101842:	83 c4 10             	add    $0x10,%esp
  101845:	8b 45 10             	mov    0x10(%ebp),%eax
  101848:	8b 55 f4             	mov    -0xc(%ebp),%edx
  10184b:	8b 04 90             	mov    (%eax,%edx,4),%eax
  10184e:	83 ec 0c             	sub    $0xc,%esp
  101851:	50                   	push   %eax
  101852:	e8 d4 17 00 00       	call   10302b <print_hex>
  101857:	83 c4 10             	add    $0x10,%esp
  10185a:	83 ec 0c             	sub    $0xc,%esp
  10185d:	68 f5 41 10 00       	push   $0x1041f5
  101862:	e8 dc 15 00 00       	call   102e43 <print_string>
  101867:	83 c4 10             	add    $0x10,%esp
  10186a:	8b 45 10             	mov    0x10(%ebp),%eax
  10186d:	8b 55 f4             	mov    -0xc(%ebp),%edx
  101870:	8b 04 90             	mov    (%eax,%edx,4),%eax
  101873:	8b 55 08             	mov    0x8(%ebp),%edx
  101876:	81 e2 ff 03 00 00    	and    $0x3ff,%edx
  10187c:	c1 e2 02             	shl    $0x2,%edx
  10187f:	01 d0                	add    %edx,%eax
  101881:	83 ec 0c             	sub    $0xc,%esp
  101884:	50                   	push   %eax
  101885:	e8 a1 17 00 00       	call   10302b <print_hex>
  10188a:	83 c4 10             	add    $0x10,%esp
  10188d:	83 ec 0c             	sub    $0xc,%esp
  101890:	6a 0a                	push   $0xa
  101892:	e8 23 15 00 00       	call   102dba <print_char>
  101897:	83 c4 10             	add    $0x10,%esp
  10189a:	8b 45 10             	mov    0x10(%ebp),%eax
  10189d:	8b 55 f4             	mov    -0xc(%ebp),%edx
  1018a0:	8b 04 90             	mov    (%eax,%edx,4),%eax
  1018a3:	8b 55 08             	mov    0x8(%ebp),%edx
  1018a6:	81 e2 ff 03 00 00    	and    $0x3ff,%edx
  1018ac:	c1 e2 02             	shl    $0x2,%edx
  1018af:	01 d0                	add    %edx,%eax
  1018b1:	eb 15                	jmp    1018c8 <get_page+0x17b>
  1018b3:	83 ec 0c             	sub    $0xc,%esp
  1018b6:	68 08 42 10 00       	push   $0x104208
  1018bb:	e8 83 15 00 00       	call   102e43 <print_string>
  1018c0:	83 c4 10             	add    $0x10,%esp
  1018c3:	b8 00 00 00 00       	mov    $0x0,%eax
  1018c8:	c9                   	leave  
  1018c9:	c3                   	ret    

001018ca <page_fault>:
  1018ca:	55                   	push   %ebp
  1018cb:	89 e5                	mov    %esp,%ebp
  1018cd:	83 ec 18             	sub    $0x18,%esp
  1018d0:	0f 20 d0             	mov    %cr2,%eax
  1018d3:	89 45 f4             	mov    %eax,-0xc(%ebp)
  1018d6:	83 ec 0c             	sub    $0xc,%esp
  1018d9:	68 10 42 10 00       	push   $0x104210
  1018de:	e8 60 15 00 00       	call   102e43 <print_string>
  1018e3:	83 c4 10             	add    $0x10,%esp
  1018e6:	83 ec 0c             	sub    $0xc,%esp
  1018e9:	ff 75 f4             	pushl  -0xc(%ebp)
  1018ec:	e8 3a 17 00 00       	call   10302b <print_hex>
  1018f1:	83 c4 10             	add    $0x10,%esp
  1018f4:	83 ec 0c             	sub    $0xc,%esp
  1018f7:	68 ae 41 10 00       	push   $0x1041ae
  1018fc:	e8 42 15 00 00       	call   102e43 <print_string>
  101901:	83 c4 10             	add    $0x10,%esp
  101904:	eb fe                	jmp    101904 <page_fault+0x3a>

00101906 <clone_directory>:
  101906:	55                   	push   %ebp
  101907:	89 e5                	mov    %esp,%ebp
  101909:	53                   	push   %ebx
  10190a:	83 ec 24             	sub    $0x24,%esp
  10190d:	83 ec 08             	sub    $0x8,%esp
  101910:	8d 45 ec             	lea    -0x14(%ebp),%eax
  101913:	50                   	push   %eax
  101914:	68 04 20 00 00       	push   $0x2004
  101919:	e8 65 e9 ff ff       	call   100283 <kmalloc_ap>
  10191e:	83 c4 10             	add    $0x10,%esp
  101921:	89 45 e8             	mov    %eax,-0x18(%ebp)
  101924:	8b 45 e8             	mov    -0x18(%ebp),%eax
  101927:	83 ec 04             	sub    $0x4,%esp
  10192a:	68 04 20 00 00       	push   $0x2004
  10192f:	6a 00                	push   $0x0
  101931:	50                   	push   %eax
  101932:	e8 ae 19 00 00       	call   1032e5 <memset>
  101937:	83 c4 10             	add    $0x10,%esp
  10193a:	8b 45 e8             	mov    -0x18(%ebp),%eax
  10193d:	05 00 10 00 00       	add    $0x1000,%eax
  101942:	89 c2                	mov    %eax,%edx
  101944:	8d 45 e8             	lea    -0x18(%ebp),%eax
  101947:	29 c2                	sub    %eax,%edx
  101949:	89 d0                	mov    %edx,%eax
  10194b:	89 45 f0             	mov    %eax,-0x10(%ebp)
  10194e:	8b 4d ec             	mov    -0x14(%ebp),%ecx
  101951:	8b 45 e8             	mov    -0x18(%ebp),%eax
  101954:	8b 55 f0             	mov    -0x10(%ebp),%edx
  101957:	01 ca                	add    %ecx,%edx
  101959:	89 90 00 20 00 00    	mov    %edx,0x2000(%eax)
  10195f:	c7 45 f4 00 00 00 00 	movl   $0x0,-0xc(%ebp)
  101966:	e9 9b 00 00 00       	jmp    101a06 <clone_directory+0x100>
  10196b:	8b 45 08             	mov    0x8(%ebp),%eax
  10196e:	8b 55 f4             	mov    -0xc(%ebp),%edx
  101971:	8b 04 90             	mov    (%eax,%edx,4),%eax
  101974:	85 c0                	test   %eax,%eax
  101976:	0f 84 85 00 00 00    	je     101a01 <clone_directory+0xfb>
  10197c:	a1 04 60 10 00       	mov    0x106004,%eax
  101981:	8b 55 f4             	mov    -0xc(%ebp),%edx
  101984:	8b 0c 90             	mov    (%eax,%edx,4),%ecx
  101987:	8b 45 08             	mov    0x8(%ebp),%eax
  10198a:	8b 55 f4             	mov    -0xc(%ebp),%edx
  10198d:	8b 04 90             	mov    (%eax,%edx,4),%eax
  101990:	39 c1                	cmp    %eax,%ecx
  101992:	75 32                	jne    1019c6 <clone_directory+0xc0>
  101994:	8b 45 e8             	mov    -0x18(%ebp),%eax
  101997:	8b 55 08             	mov    0x8(%ebp),%edx
  10199a:	8b 4d f4             	mov    -0xc(%ebp),%ecx
  10199d:	8b 0c 8a             	mov    (%edx,%ecx,4),%ecx
  1019a0:	8b 55 f4             	mov    -0xc(%ebp),%edx
  1019a3:	89 0c 90             	mov    %ecx,(%eax,%edx,4)
  1019a6:	8b 45 e8             	mov    -0x18(%ebp),%eax
  1019a9:	8b 55 08             	mov    0x8(%ebp),%edx
  1019ac:	8b 4d f4             	mov    -0xc(%ebp),%ecx
  1019af:	81 c1 00 04 00 00    	add    $0x400,%ecx
  1019b5:	8b 14 8a             	mov    (%edx,%ecx,4),%edx
  1019b8:	8b 4d f4             	mov    -0xc(%ebp),%ecx
  1019bb:	81 c1 00 04 00 00    	add    $0x400,%ecx
  1019c1:	89 14 88             	mov    %edx,(%eax,%ecx,4)
  1019c4:	eb 3c                	jmp    101a02 <clone_directory+0xfc>
  1019c6:	8b 45 08             	mov    0x8(%ebp),%eax
  1019c9:	8b 55 f4             	mov    -0xc(%ebp),%edx
  1019cc:	8b 04 90             	mov    (%eax,%edx,4),%eax
  1019cf:	8b 5d e8             	mov    -0x18(%ebp),%ebx
  1019d2:	83 ec 08             	sub    $0x8,%esp
  1019d5:	8d 55 e4             	lea    -0x1c(%ebp),%edx
  1019d8:	52                   	push   %edx
  1019d9:	50                   	push   %eax
  1019da:	e8 3c 00 00 00       	call   101a1b <clone_table>
  1019df:	83 c4 10             	add    $0x10,%esp
  1019e2:	8b 55 f4             	mov    -0xc(%ebp),%edx
  1019e5:	89 04 93             	mov    %eax,(%ebx,%edx,4)
  1019e8:	8b 55 e4             	mov    -0x1c(%ebp),%edx
  1019eb:	8b 45 e8             	mov    -0x18(%ebp),%eax
  1019ee:	89 d1                	mov    %edx,%ecx
  1019f0:	83 c9 07             	or     $0x7,%ecx
  1019f3:	8b 55 f4             	mov    -0xc(%ebp),%edx
  1019f6:	81 c2 00 04 00 00    	add    $0x400,%edx
  1019fc:	89 0c 90             	mov    %ecx,(%eax,%edx,4)
  1019ff:	eb 01                	jmp    101a02 <clone_directory+0xfc>
  101a01:	90                   	nop
  101a02:	83 45 f4 01          	addl   $0x1,-0xc(%ebp)
  101a06:	81 7d f4 fe 03 00 00 	cmpl   $0x3fe,-0xc(%ebp)
  101a0d:	0f 8e 58 ff ff ff    	jle    10196b <clone_directory+0x65>
  101a13:	8b 45 e8             	mov    -0x18(%ebp),%eax
  101a16:	8b 5d fc             	mov    -0x4(%ebp),%ebx
  101a19:	c9                   	leave  
  101a1a:	c3                   	ret    

00101a1b <clone_table>:
  101a1b:	55                   	push   %ebp
  101a1c:	89 e5                	mov    %esp,%ebp
  101a1e:	83 ec 18             	sub    $0x18,%esp
  101a21:	83 ec 08             	sub    $0x8,%esp
  101a24:	ff 75 0c             	pushl  0xc(%ebp)
  101a27:	68 00 10 00 00       	push   $0x1000
  101a2c:	e8 52 e8 ff ff       	call   100283 <kmalloc_ap>
  101a31:	83 c4 10             	add    $0x10,%esp
  101a34:	89 45 f0             	mov    %eax,-0x10(%ebp)
  101a37:	83 ec 04             	sub    $0x4,%esp
  101a3a:	68 00 10 00 00       	push   $0x1000
  101a3f:	6a 00                	push   $0x0
  101a41:	ff 75 f0             	pushl  -0x10(%ebp)
  101a44:	e8 9c 18 00 00       	call   1032e5 <memset>
  101a49:	83 c4 10             	add    $0x10,%esp
  101a4c:	c7 45 f4 00 00 00 00 	movl   $0x0,-0xc(%ebp)
  101a53:	e9 17 01 00 00       	jmp    101b6f <clone_table+0x154>
  101a58:	8b 45 08             	mov    0x8(%ebp),%eax
  101a5b:	8b 55 f4             	mov    -0xc(%ebp),%edx
  101a5e:	8b 04 90             	mov    (%eax,%edx,4),%eax
  101a61:	c1 e8 0c             	shr    $0xc,%eax
  101a64:	85 c0                	test   %eax,%eax
  101a66:	0f 84 fe 00 00 00    	je     101b6a <clone_table+0x14f>
  101a6c:	8b 45 f4             	mov    -0xc(%ebp),%eax
  101a6f:	8d 14 85 00 00 00 00 	lea    0x0(,%eax,4),%edx
  101a76:	8b 45 f0             	mov    -0x10(%ebp),%eax
  101a79:	01 d0                	add    %edx,%eax
  101a7b:	83 ec 04             	sub    $0x4,%esp
  101a7e:	6a 00                	push   $0x0
  101a80:	6a 00                	push   $0x0
  101a82:	50                   	push   %eax
  101a83:	e8 9d f9 ff ff       	call   101425 <alloc_frame>
  101a88:	83 c4 10             	add    $0x10,%esp
  101a8b:	8b 45 08             	mov    0x8(%ebp),%eax
  101a8e:	8b 55 f4             	mov    -0xc(%ebp),%edx
  101a91:	0f b6 04 90          	movzbl (%eax,%edx,4),%eax
  101a95:	83 e0 01             	and    $0x1,%eax
  101a98:	84 c0                	test   %al,%al
  101a9a:	74 10                	je     101aac <clone_table+0x91>
  101a9c:	8b 45 f0             	mov    -0x10(%ebp),%eax
  101a9f:	8b 55 f4             	mov    -0xc(%ebp),%edx
  101aa2:	0f b6 0c 90          	movzbl (%eax,%edx,4),%ecx
  101aa6:	83 c9 01             	or     $0x1,%ecx
  101aa9:	88 0c 90             	mov    %cl,(%eax,%edx,4)
  101aac:	8b 45 08             	mov    0x8(%ebp),%eax
  101aaf:	8b 55 f4             	mov    -0xc(%ebp),%edx
  101ab2:	0f b6 04 90          	movzbl (%eax,%edx,4),%eax
  101ab6:	d0 e8                	shr    %al
  101ab8:	83 e0 01             	and    $0x1,%eax
  101abb:	84 c0                	test   %al,%al
  101abd:	74 10                	je     101acf <clone_table+0xb4>
  101abf:	8b 45 f0             	mov    -0x10(%ebp),%eax
  101ac2:	8b 55 f4             	mov    -0xc(%ebp),%edx
  101ac5:	0f b6 0c 90          	movzbl (%eax,%edx,4),%ecx
  101ac9:	83 c9 02             	or     $0x2,%ecx
  101acc:	88 0c 90             	mov    %cl,(%eax,%edx,4)
  101acf:	8b 45 08             	mov    0x8(%ebp),%eax
  101ad2:	8b 55 f4             	mov    -0xc(%ebp),%edx
  101ad5:	0f b6 04 90          	movzbl (%eax,%edx,4),%eax
  101ad9:	c0 e8 02             	shr    $0x2,%al
  101adc:	83 e0 01             	and    $0x1,%eax
  101adf:	84 c0                	test   %al,%al
  101ae1:	74 10                	je     101af3 <clone_table+0xd8>
  101ae3:	8b 45 f0             	mov    -0x10(%ebp),%eax
  101ae6:	8b 55 f4             	mov    -0xc(%ebp),%edx
  101ae9:	0f b6 0c 90          	movzbl (%eax,%edx,4),%ecx
  101aed:	83 c9 04             	or     $0x4,%ecx
  101af0:	88 0c 90             	mov    %cl,(%eax,%edx,4)
  101af3:	8b 45 08             	mov    0x8(%ebp),%eax
  101af6:	8b 55 f4             	mov    -0xc(%ebp),%edx
  101af9:	0f b6 04 90          	movzbl (%eax,%edx,4),%eax
  101afd:	c0 e8 03             	shr    $0x3,%al
  101b00:	83 e0 01             	and    $0x1,%eax
  101b03:	84 c0                	test   %al,%al
  101b05:	74 10                	je     101b17 <clone_table+0xfc>
  101b07:	8b 45 f0             	mov    -0x10(%ebp),%eax
  101b0a:	8b 55 f4             	mov    -0xc(%ebp),%edx
  101b0d:	0f b6 0c 90          	movzbl (%eax,%edx,4),%ecx
  101b11:	83 c9 08             	or     $0x8,%ecx
  101b14:	88 0c 90             	mov    %cl,(%eax,%edx,4)
  101b17:	8b 45 08             	mov    0x8(%ebp),%eax
  101b1a:	8b 55 f4             	mov    -0xc(%ebp),%edx
  101b1d:	0f b6 04 90          	movzbl (%eax,%edx,4),%eax
  101b21:	c0 e8 04             	shr    $0x4,%al
  101b24:	83 e0 01             	and    $0x1,%eax
  101b27:	84 c0                	test   %al,%al
  101b29:	74 10                	je     101b3b <clone_table+0x120>
  101b2b:	8b 45 f0             	mov    -0x10(%ebp),%eax
  101b2e:	8b 55 f4             	mov    -0xc(%ebp),%edx
  101b31:	0f b6 0c 90          	movzbl (%eax,%edx,4),%ecx
  101b35:	83 c9 10             	or     $0x10,%ecx
  101b38:	88 0c 90             	mov    %cl,(%eax,%edx,4)
  101b3b:	8b 45 f0             	mov    -0x10(%ebp),%eax
  101b3e:	8b 55 f4             	mov    -0xc(%ebp),%edx
  101b41:	8b 04 90             	mov    (%eax,%edx,4),%eax
  101b44:	c1 e8 0c             	shr    $0xc,%eax
  101b47:	c1 e0 0c             	shl    $0xc,%eax
  101b4a:	89 c1                	mov    %eax,%ecx
  101b4c:	8b 45 08             	mov    0x8(%ebp),%eax
  101b4f:	8b 55 f4             	mov    -0xc(%ebp),%edx
  101b52:	8b 04 90             	mov    (%eax,%edx,4),%eax
  101b55:	c1 e8 0c             	shr    $0xc,%eax
  101b58:	c1 e0 0c             	shl    $0xc,%eax
  101b5b:	83 ec 08             	sub    $0x8,%esp
  101b5e:	51                   	push   %ecx
  101b5f:	50                   	push   %eax
  101b60:	e8 ab 17 00 00       	call   103310 <copy_page_physical>
  101b65:	83 c4 10             	add    $0x10,%esp
  101b68:	eb 01                	jmp    101b6b <clone_table+0x150>
  101b6a:	90                   	nop
  101b6b:	83 45 f4 01          	addl   $0x1,-0xc(%ebp)
  101b6f:	81 7d f4 ff 03 00 00 	cmpl   $0x3ff,-0xc(%ebp)
  101b76:	0f 8e dc fe ff ff    	jle    101a58 <clone_table+0x3d>
  101b7c:	8b 45 f0             	mov    -0x10(%ebp),%eax
  101b7f:	c9                   	leave  
  101b80:	c3                   	ret    

00101b81 <main>:
  101b81:	8d 4c 24 04          	lea    0x4(%esp),%ecx
  101b85:	83 e4 f0             	and    $0xfffffff0,%esp
  101b88:	ff 71 fc             	pushl  -0x4(%ecx)
  101b8b:	55                   	push   %ebp
  101b8c:	89 e5                	mov    %esp,%ebp
  101b8e:	53                   	push   %ebx
  101b8f:	51                   	push   %ecx
  101b90:	83 ec 20             	sub    $0x20,%esp
  101b93:	89 cb                	mov    %ecx,%ebx
  101b95:	8b 43 04             	mov    0x4(%ebx),%eax
  101b98:	a3 e4 60 10 00       	mov    %eax,0x1060e4
  101b9d:	e8 b5 03 00 00       	call   101f57 <init_gdt>
  101ba2:	83 ec 0c             	sub    $0xc,%esp
  101ba5:	68 24 42 10 00       	push   $0x104224
  101baa:	e8 94 12 00 00       	call   102e43 <print_string>
  101baf:	83 c4 10             	add    $0x10,%esp
  101bb2:	e8 25 08 00 00       	call   1023dc <init_idt>
  101bb7:	83 ec 0c             	sub    $0xc,%esp
  101bba:	6a 32                	push   $0x32
  101bbc:	e8 22 0f 00 00       	call   102ae3 <init_timer>
  101bc1:	83 c4 10             	add    $0x10,%esp
  101bc4:	e8 ba 0d 00 00       	call   102983 <init_keyboard>
  101bc9:	83 ec 0c             	sub    $0xc,%esp
  101bcc:	68 24 42 10 00       	push   $0x104224
  101bd1:	e8 6d 12 00 00       	call   102e43 <print_string>
  101bd6:	83 c4 10             	add    $0x10,%esp
  101bd9:	8b 03                	mov    (%ebx),%eax
  101bdb:	8b 40 14             	mov    0x14(%eax),%eax
  101bde:	85 c0                	test   %eax,%eax
  101be0:	75 17                	jne    101bf9 <main+0x78>
  101be2:	83 ec 04             	sub    $0x4,%esp
  101be5:	68 38 42 10 00       	push   $0x104238
  101bea:	6a 19                	push   $0x19
  101bec:	68 57 42 10 00       	push   $0x104257
  101bf1:	e8 7c 15 00 00       	call   103172 <panic_assert>
  101bf6:	83 c4 10             	add    $0x10,%esp
  101bf9:	8b 03                	mov    (%ebx),%eax
  101bfb:	8b 40 18             	mov    0x18(%eax),%eax
  101bfe:	89 45 f4             	mov    %eax,-0xc(%ebp)
  101c01:	8b 03                	mov    (%ebx),%eax
  101c03:	8b 40 18             	mov    0x18(%eax),%eax
  101c06:	8b 00                	mov    (%eax),%eax
  101c08:	89 45 f0             	mov    %eax,-0x10(%ebp)
  101c0b:	8b 03                	mov    (%ebx),%eax
  101c0d:	8b 40 18             	mov    0x18(%eax),%eax
  101c10:	83 c0 04             	add    $0x4,%eax
  101c13:	8b 00                	mov    (%eax),%eax
  101c15:	89 45 ec             	mov    %eax,-0x14(%ebp)
  101c18:	83 ec 0c             	sub    $0xc,%esp
  101c1b:	68 6b 42 10 00       	push   $0x10426b
  101c20:	e8 1e 12 00 00       	call   102e43 <print_string>
  101c25:	83 c4 10             	add    $0x10,%esp
  101c28:	83 ec 0c             	sub    $0xc,%esp
  101c2b:	ff 75 f4             	pushl  -0xc(%ebp)
  101c2e:	e8 f8 13 00 00       	call   10302b <print_hex>
  101c33:	83 c4 10             	add    $0x10,%esp
  101c36:	83 ec 0c             	sub    $0xc,%esp
  101c39:	68 86 42 10 00       	push   $0x104286
  101c3e:	e8 00 12 00 00       	call   102e43 <print_string>
  101c43:	83 c4 10             	add    $0x10,%esp
  101c46:	83 ec 0c             	sub    $0xc,%esp
  101c49:	68 88 42 10 00       	push   $0x104288
  101c4e:	e8 f0 11 00 00       	call   102e43 <print_string>
  101c53:	83 c4 10             	add    $0x10,%esp
  101c56:	83 ec 0c             	sub    $0xc,%esp
  101c59:	ff 75 f0             	pushl  -0x10(%ebp)
  101c5c:	e8 ca 13 00 00       	call   10302b <print_hex>
  101c61:	83 c4 10             	add    $0x10,%esp
  101c64:	83 ec 0c             	sub    $0xc,%esp
  101c67:	68 86 42 10 00       	push   $0x104286
  101c6c:	e8 d2 11 00 00       	call   102e43 <print_string>
  101c71:	83 c4 10             	add    $0x10,%esp
  101c74:	83 ec 0c             	sub    $0xc,%esp
  101c77:	68 a6 42 10 00       	push   $0x1042a6
  101c7c:	e8 c2 11 00 00       	call   102e43 <print_string>
  101c81:	83 c4 10             	add    $0x10,%esp
  101c84:	83 ec 0c             	sub    $0xc,%esp
  101c87:	ff 75 ec             	pushl  -0x14(%ebp)
  101c8a:	e8 9c 13 00 00       	call   10302b <print_hex>
  101c8f:	83 c4 10             	add    $0x10,%esp
  101c92:	83 ec 0c             	sub    $0xc,%esp
  101c95:	68 c2 42 10 00       	push   $0x1042c2
  101c9a:	e8 a4 11 00 00       	call   102e43 <print_string>
  101c9f:	83 c4 10             	add    $0x10,%esp
  101ca2:	8b 03                	mov    (%ebx),%eax
  101ca4:	8b 40 14             	mov    0x14(%eax),%eax
  101ca7:	83 ec 0c             	sub    $0xc,%esp
  101caa:	50                   	push   %eax
  101cab:	e8 49 12 00 00       	call   102ef9 <print_decimal>
  101cb0:	83 c4 10             	add    $0x10,%esp
  101cb3:	83 ec 0c             	sub    $0xc,%esp
  101cb6:	68 d8 42 10 00       	push   $0x1042d8
  101cbb:	e8 83 11 00 00       	call   102e43 <print_string>
  101cc0:	83 c4 10             	add    $0x10,%esp
  101cc3:	8b 45 f0             	mov    -0x10(%ebp),%eax
  101cc6:	8b 00                	mov    (%eax),%eax
  101cc8:	83 ec 0c             	sub    $0xc,%esp
  101ccb:	50                   	push   %eax
  101ccc:	e8 28 12 00 00       	call   102ef9 <print_decimal>
  101cd1:	83 c4 10             	add    $0x10,%esp
  101cd4:	83 ec 0c             	sub    $0xc,%esp
  101cd7:	68 86 42 10 00       	push   $0x104286
  101cdc:	e8 62 11 00 00       	call   102e43 <print_string>
  101ce1:	83 c4 10             	add    $0x10,%esp
  101ce4:	8b 45 f0             	mov    -0x10(%ebp),%eax
  101ce7:	83 c0 04             	add    $0x4,%eax
  101cea:	89 45 e8             	mov    %eax,-0x18(%ebp)
  101ced:	8b 45 e8             	mov    -0x18(%ebp),%eax
  101cf0:	0f b6 00             	movzbl (%eax),%eax
  101cf3:	0f b6 c0             	movzbl %al,%eax
  101cf6:	83 ec 0c             	sub    $0xc,%esp
  101cf9:	50                   	push   %eax
  101cfa:	e8 fa 11 00 00       	call   102ef9 <print_decimal>
  101cff:	83 c4 10             	add    $0x10,%esp
  101d02:	8b 45 e8             	mov    -0x18(%ebp),%eax
  101d05:	83 c0 01             	add    $0x1,%eax
  101d08:	83 ec 0c             	sub    $0xc,%esp
  101d0b:	50                   	push   %eax
  101d0c:	e8 32 11 00 00       	call   102e43 <print_string>
  101d11:	83 c4 10             	add    $0x10,%esp
  101d14:	83 ec 0c             	sub    $0xc,%esp
  101d17:	68 86 42 10 00       	push   $0x104286
  101d1c:	e8 22 11 00 00       	call   102e43 <print_string>
  101d21:	83 c4 10             	add    $0x10,%esp
  101d24:	8b 45 f4             	mov    -0xc(%ebp),%eax
  101d27:	89 45 e4             	mov    %eax,-0x1c(%ebp)
  101d2a:	8b 45 ec             	mov    -0x14(%ebp),%eax
  101d2d:	a3 00 50 10 00       	mov    %eax,0x105000
  101d32:	e8 1c f8 ff ff       	call   101553 <init_paging>
  101d37:	e8 3f f2 ff ff       	call   100f7b <init_task>
  101d3c:	83 ec 0c             	sub    $0xc,%esp
  101d3f:	ff 75 f0             	pushl  -0x10(%ebp)
  101d42:	e8 a7 ec ff ff       	call   1009ee <init_initrd>
  101d47:	83 c4 10             	add    $0x10,%esp
  101d4a:	89 45 e0             	mov    %eax,-0x20(%ebp)
  101d4d:	fa                   	cli    
  101d4e:	83 ec 0c             	sub    $0xc,%esp
  101d51:	ff 75 e0             	pushl  -0x20(%ebp)
  101d54:	e8 3d f1 ff ff       	call   100e96 <print_fs>
  101d59:	83 c4 10             	add    $0x10,%esp
  101d5c:	fb                   	sti    
  101d5d:	eb fe                	jmp    101d5d <main+0x1dc>

00101d5f <read_fs>:
  101d5f:	55                   	push   %ebp
  101d60:	89 e5                	mov    %esp,%ebp
  101d62:	83 ec 08             	sub    $0x8,%esp
  101d65:	8b 45 08             	mov    0x8(%ebp),%eax
  101d68:	8b 80 9c 00 00 00    	mov    0x9c(%eax),%eax
  101d6e:	85 c0                	test   %eax,%eax
  101d70:	74 1c                	je     101d8e <read_fs+0x2f>
  101d72:	8b 45 08             	mov    0x8(%ebp),%eax
  101d75:	8b 80 9c 00 00 00    	mov    0x9c(%eax),%eax
  101d7b:	ff 75 14             	pushl  0x14(%ebp)
  101d7e:	ff 75 10             	pushl  0x10(%ebp)
  101d81:	ff 75 0c             	pushl  0xc(%ebp)
  101d84:	ff 75 08             	pushl  0x8(%ebp)
  101d87:	ff d0                	call   *%eax
  101d89:	83 c4 10             	add    $0x10,%esp
  101d8c:	eb 05                	jmp    101d93 <read_fs+0x34>
  101d8e:	b8 00 00 00 00       	mov    $0x0,%eax
  101d93:	c9                   	leave  
  101d94:	c3                   	ret    

00101d95 <write_fs>:
  101d95:	55                   	push   %ebp
  101d96:	89 e5                	mov    %esp,%ebp
  101d98:	83 ec 08             	sub    $0x8,%esp
  101d9b:	8b 45 08             	mov    0x8(%ebp),%eax
  101d9e:	8b 80 a0 00 00 00    	mov    0xa0(%eax),%eax
  101da4:	85 c0                	test   %eax,%eax
  101da6:	74 1c                	je     101dc4 <write_fs+0x2f>
  101da8:	8b 45 08             	mov    0x8(%ebp),%eax
  101dab:	8b 80 a0 00 00 00    	mov    0xa0(%eax),%eax
  101db1:	ff 75 14             	pushl  0x14(%ebp)
  101db4:	ff 75 10             	pushl  0x10(%ebp)
  101db7:	ff 75 0c             	pushl  0xc(%ebp)
  101dba:	ff 75 08             	pushl  0x8(%ebp)
  101dbd:	ff d0                	call   *%eax
  101dbf:	83 c4 10             	add    $0x10,%esp
  101dc2:	eb 05                	jmp    101dc9 <write_fs+0x34>
  101dc4:	b8 00 00 00 00       	mov    $0x0,%eax
  101dc9:	c9                   	leave  
  101dca:	c3                   	ret    

00101dcb <open_fs>:
  101dcb:	55                   	push   %ebp
  101dcc:	89 e5                	mov    %esp,%ebp
  101dce:	83 ec 18             	sub    $0x18,%esp
  101dd1:	8b 55 0c             	mov    0xc(%ebp),%edx
  101dd4:	8b 45 10             	mov    0x10(%ebp),%eax
  101dd7:	88 55 f4             	mov    %dl,-0xc(%ebp)
  101dda:	88 45 f0             	mov    %al,-0x10(%ebp)
  101ddd:	8b 45 08             	mov    0x8(%ebp),%eax
  101de0:	8b 80 a4 00 00 00    	mov    0xa4(%eax),%eax
  101de6:	85 c0                	test   %eax,%eax
  101de8:	74 14                	je     101dfe <open_fs+0x33>
  101dea:	8b 45 08             	mov    0x8(%ebp),%eax
  101ded:	8b 80 a4 00 00 00    	mov    0xa4(%eax),%eax
  101df3:	83 ec 0c             	sub    $0xc,%esp
  101df6:	ff 75 08             	pushl  0x8(%ebp)
  101df9:	ff d0                	call   *%eax
  101dfb:	83 c4 10             	add    $0x10,%esp
  101dfe:	c9                   	leave  
  101dff:	c3                   	ret    

00101e00 <close_fs>:
  101e00:	55                   	push   %ebp
  101e01:	89 e5                	mov    %esp,%ebp
  101e03:	83 ec 08             	sub    $0x8,%esp
  101e06:	8b 45 08             	mov    0x8(%ebp),%eax
  101e09:	8b 80 a8 00 00 00    	mov    0xa8(%eax),%eax
  101e0f:	85 c0                	test   %eax,%eax
  101e11:	74 14                	je     101e27 <close_fs+0x27>
  101e13:	8b 45 08             	mov    0x8(%ebp),%eax
  101e16:	8b 80 a8 00 00 00    	mov    0xa8(%eax),%eax
  101e1c:	83 ec 0c             	sub    $0xc,%esp
  101e1f:	ff 75 08             	pushl  0x8(%ebp)
  101e22:	ff d0                	call   *%eax
  101e24:	83 c4 10             	add    $0x10,%esp
  101e27:	c9                   	leave  
  101e28:	c3                   	ret    

00101e29 <readdir_fs>:
  101e29:	55                   	push   %ebp
  101e2a:	89 e5                	mov    %esp,%ebp
  101e2c:	83 ec 08             	sub    $0x8,%esp
  101e2f:	8b 45 08             	mov    0x8(%ebp),%eax
  101e32:	8b 80 8c 00 00 00    	mov    0x8c(%eax),%eax
  101e38:	83 e0 07             	and    $0x7,%eax
  101e3b:	83 f8 02             	cmp    $0x2,%eax
  101e3e:	75 26                	jne    101e66 <readdir_fs+0x3d>
  101e40:	8b 45 08             	mov    0x8(%ebp),%eax
  101e43:	8b 80 ac 00 00 00    	mov    0xac(%eax),%eax
  101e49:	85 c0                	test   %eax,%eax
  101e4b:	74 19                	je     101e66 <readdir_fs+0x3d>
  101e4d:	8b 45 08             	mov    0x8(%ebp),%eax
  101e50:	8b 80 ac 00 00 00    	mov    0xac(%eax),%eax
  101e56:	83 ec 08             	sub    $0x8,%esp
  101e59:	ff 75 0c             	pushl  0xc(%ebp)
  101e5c:	ff 75 08             	pushl  0x8(%ebp)
  101e5f:	ff d0                	call   *%eax
  101e61:	83 c4 10             	add    $0x10,%esp
  101e64:	eb 05                	jmp    101e6b <readdir_fs+0x42>
  101e66:	b8 00 00 00 00       	mov    $0x0,%eax
  101e6b:	c9                   	leave  
  101e6c:	c3                   	ret    

00101e6d <finddir_fs>:
  101e6d:	55                   	push   %ebp
  101e6e:	89 e5                	mov    %esp,%ebp
  101e70:	83 ec 08             	sub    $0x8,%esp
  101e73:	8b 45 08             	mov    0x8(%ebp),%eax
  101e76:	8b 80 8c 00 00 00    	mov    0x8c(%eax),%eax
  101e7c:	83 e0 07             	and    $0x7,%eax
  101e7f:	83 f8 02             	cmp    $0x2,%eax
  101e82:	75 26                	jne    101eaa <finddir_fs+0x3d>
  101e84:	8b 45 08             	mov    0x8(%ebp),%eax
  101e87:	8b 80 b0 00 00 00    	mov    0xb0(%eax),%eax
  101e8d:	85 c0                	test   %eax,%eax
  101e8f:	74 19                	je     101eaa <finddir_fs+0x3d>
  101e91:	8b 45 08             	mov    0x8(%ebp),%eax
  101e94:	8b 80 b0 00 00 00    	mov    0xb0(%eax),%eax
  101e9a:	83 ec 08             	sub    $0x8,%esp
  101e9d:	ff 75 0c             	pushl  0xc(%ebp)
  101ea0:	ff 75 08             	pushl  0x8(%ebp)
  101ea3:	ff d0                	call   *%eax
  101ea5:	83 c4 10             	add    $0x10,%esp
  101ea8:	eb 05                	jmp    101eaf <finddir_fs+0x42>
  101eaa:	b8 00 00 00 00       	mov    $0x0,%eax
  101eaf:	c9                   	leave  
  101eb0:	c3                   	ret    

00101eb1 <gdt_set_gate>:
  101eb1:	55                   	push   %ebp
  101eb2:	89 e5                	mov    %esp,%ebp
  101eb4:	83 ec 0c             	sub    $0xc,%esp
  101eb7:	8b 4d 08             	mov    0x8(%ebp),%ecx
  101eba:	8b 55 14             	mov    0x14(%ebp),%edx
  101ebd:	8b 45 18             	mov    0x18(%ebp),%eax
  101ec0:	88 4d fc             	mov    %cl,-0x4(%ebp)
  101ec3:	88 55 f8             	mov    %dl,-0x8(%ebp)
  101ec6:	88 45 f4             	mov    %al,-0xc(%ebp)
  101ec9:	0f b6 45 fc          	movzbl -0x4(%ebp),%eax
  101ecd:	8b 55 0c             	mov    0xc(%ebp),%edx
  101ed0:	66 89 14 c5 22 61 10 	mov    %dx,0x106122(,%eax,8)
  101ed7:	00 
  101ed8:	8b 45 0c             	mov    0xc(%ebp),%eax
  101edb:	c1 e8 10             	shr    $0x10,%eax
  101ede:	89 c2                	mov    %eax,%edx
  101ee0:	0f b6 45 fc          	movzbl -0x4(%ebp),%eax
  101ee4:	88 14 c5 24 61 10 00 	mov    %dl,0x106124(,%eax,8)
  101eeb:	8b 45 0c             	mov    0xc(%ebp),%eax
  101eee:	c1 e8 18             	shr    $0x18,%eax
  101ef1:	89 c2                	mov    %eax,%edx
  101ef3:	0f b6 45 fc          	movzbl -0x4(%ebp),%eax
  101ef7:	88 14 c5 27 61 10 00 	mov    %dl,0x106127(,%eax,8)
  101efe:	0f b6 45 fc          	movzbl -0x4(%ebp),%eax
  101f02:	8b 55 10             	mov    0x10(%ebp),%edx
  101f05:	66 89 14 c5 20 61 10 	mov    %dx,0x106120(,%eax,8)
  101f0c:	00 
  101f0d:	8b 45 10             	mov    0x10(%ebp),%eax
  101f10:	c1 e8 10             	shr    $0x10,%eax
  101f13:	89 c2                	mov    %eax,%edx
  101f15:	0f b6 45 fc          	movzbl -0x4(%ebp),%eax
  101f19:	83 e2 0f             	and    $0xf,%edx
  101f1c:	88 14 c5 26 61 10 00 	mov    %dl,0x106126(,%eax,8)
  101f23:	0f b6 45 fc          	movzbl -0x4(%ebp),%eax
  101f27:	0f b6 04 c5 26 61 10 	movzbl 0x106126(,%eax,8),%eax
  101f2e:	00 
  101f2f:	89 c2                	mov    %eax,%edx
  101f31:	0f b6 45 f4          	movzbl -0xc(%ebp),%eax
  101f35:	83 e0 f0             	and    $0xfffffff0,%eax
  101f38:	09 c2                	or     %eax,%edx
  101f3a:	0f b6 45 fc          	movzbl -0x4(%ebp),%eax
  101f3e:	88 14 c5 26 61 10 00 	mov    %dl,0x106126(,%eax,8)
  101f45:	0f b6 45 fc          	movzbl -0x4(%ebp),%eax
  101f49:	0f b6 55 f8          	movzbl -0x8(%ebp),%edx
  101f4d:	88 14 c5 25 61 10 00 	mov    %dl,0x106125(,%eax,8)
  101f54:	90                   	nop
  101f55:	c9                   	leave  
  101f56:	c3                   	ret    

00101f57 <init_gdt>:
  101f57:	55                   	push   %ebp
  101f58:	89 e5                	mov    %esp,%ebp
  101f5a:	83 ec 08             	sub    $0x8,%esp
  101f5d:	b8 20 61 10 00       	mov    $0x106120,%eax
  101f62:	a3 02 61 10 00       	mov    %eax,0x106102
  101f67:	66 c7 05 00 61 10 00 	movw   $0x27,0x106100
  101f6e:	27 00 
  101f70:	6a 00                	push   $0x0
  101f72:	6a 00                	push   $0x0
  101f74:	6a 00                	push   $0x0
  101f76:	6a 00                	push   $0x0
  101f78:	6a 00                	push   $0x0
  101f7a:	e8 32 ff ff ff       	call   101eb1 <gdt_set_gate>
  101f7f:	83 c4 14             	add    $0x14,%esp
  101f82:	68 cf 00 00 00       	push   $0xcf
  101f87:	68 9a 00 00 00       	push   $0x9a
  101f8c:	6a ff                	push   $0xffffffff
  101f8e:	6a 00                	push   $0x0
  101f90:	6a 01                	push   $0x1
  101f92:	e8 1a ff ff ff       	call   101eb1 <gdt_set_gate>
  101f97:	83 c4 14             	add    $0x14,%esp
  101f9a:	68 cf 00 00 00       	push   $0xcf
  101f9f:	68 92 00 00 00       	push   $0x92
  101fa4:	6a ff                	push   $0xffffffff
  101fa6:	6a 00                	push   $0x0
  101fa8:	6a 02                	push   $0x2
  101faa:	e8 02 ff ff ff       	call   101eb1 <gdt_set_gate>
  101faf:	83 c4 14             	add    $0x14,%esp
  101fb2:	68 cf 00 00 00       	push   $0xcf
  101fb7:	68 fa 00 00 00       	push   $0xfa
  101fbc:	6a ff                	push   $0xffffffff
  101fbe:	6a 00                	push   $0x0
  101fc0:	6a 03                	push   $0x3
  101fc2:	e8 ea fe ff ff       	call   101eb1 <gdt_set_gate>
  101fc7:	83 c4 14             	add    $0x14,%esp
  101fca:	68 cf 00 00 00       	push   $0xcf
  101fcf:	68 f2 00 00 00       	push   $0xf2
  101fd4:	6a ff                	push   $0xffffffff
  101fd6:	6a 00                	push   $0x0
  101fd8:	6a 04                	push   $0x4
  101fda:	e8 d2 fe ff ff       	call   101eb1 <gdt_set_gate>
  101fdf:	83 c4 14             	add    $0x14,%esp
  101fe2:	b8 00 61 10 00       	mov    $0x106100,%eax
  101fe7:	83 ec 0c             	sub    $0xc,%esp
  101fea:	50                   	push   %eax
  101feb:	e8 70 13 00 00       	call   103360 <load_gdt>
  101ff0:	83 c4 10             	add    $0x10,%esp
  101ff3:	90                   	nop
  101ff4:	c9                   	leave  
  101ff5:	c3                   	ret    

00101ff6 <fb_get_cursor>:
  101ff6:	55                   	push   %ebp
  101ff7:	89 e5                	mov    %esp,%ebp
  101ff9:	83 ec 18             	sub    $0x18,%esp
  101ffc:	83 ec 08             	sub    $0x8,%esp
  101fff:	6a 0e                	push   $0xe
  102001:	68 d4 03 00 00       	push   $0x3d4
  102006:	e8 b9 01 00 00       	call   1021c4 <outb>
  10200b:	83 c4 10             	add    $0x10,%esp
  10200e:	83 ec 0c             	sub    $0xc,%esp
  102011:	68 d5 03 00 00       	push   $0x3d5
  102016:	e8 ca 01 00 00       	call   1021e5 <inb>
  10201b:	83 c4 10             	add    $0x10,%esp
  10201e:	0f b6 c0             	movzbl %al,%eax
  102021:	c1 e0 08             	shl    $0x8,%eax
  102024:	66 89 45 f6          	mov    %ax,-0xa(%ebp)
  102028:	83 ec 08             	sub    $0x8,%esp
  10202b:	6a 0f                	push   $0xf
  10202d:	68 d4 03 00 00       	push   $0x3d4
  102032:	e8 8d 01 00 00       	call   1021c4 <outb>
  102037:	83 c4 10             	add    $0x10,%esp
  10203a:	83 ec 0c             	sub    $0xc,%esp
  10203d:	68 d5 03 00 00       	push   $0x3d5
  102042:	e8 9e 01 00 00       	call   1021e5 <inb>
  102047:	83 c4 10             	add    $0x10,%esp
  10204a:	0f b6 c0             	movzbl %al,%eax
  10204d:	66 01 45 f6          	add    %ax,-0xa(%ebp)
  102051:	0f b7 45 f6          	movzwl -0xa(%ebp),%eax
  102055:	c9                   	leave  
  102056:	c3                   	ret    

00102057 <fb_set_cursor>:
  102057:	55                   	push   %ebp
  102058:	89 e5                	mov    %esp,%ebp
  10205a:	83 ec 18             	sub    $0x18,%esp
  10205d:	8b 45 08             	mov    0x8(%ebp),%eax
  102060:	66 89 45 f4          	mov    %ax,-0xc(%ebp)
  102064:	83 ec 08             	sub    $0x8,%esp
  102067:	6a 0e                	push   $0xe
  102069:	68 d4 03 00 00       	push   $0x3d4
  10206e:	e8 51 01 00 00       	call   1021c4 <outb>
  102073:	83 c4 10             	add    $0x10,%esp
  102076:	0f b7 45 f4          	movzwl -0xc(%ebp),%eax
  10207a:	66 c1 e8 08          	shr    $0x8,%ax
  10207e:	0f b6 c0             	movzbl %al,%eax
  102081:	83 ec 08             	sub    $0x8,%esp
  102084:	50                   	push   %eax
  102085:	68 d5 03 00 00       	push   $0x3d5
  10208a:	e8 35 01 00 00       	call   1021c4 <outb>
  10208f:	83 c4 10             	add    $0x10,%esp
  102092:	83 ec 08             	sub    $0x8,%esp
  102095:	6a 0f                	push   $0xf
  102097:	68 d4 03 00 00       	push   $0x3d4
  10209c:	e8 23 01 00 00       	call   1021c4 <outb>
  1020a1:	83 c4 10             	add    $0x10,%esp
  1020a4:	0f b7 45 f4          	movzwl -0xc(%ebp),%eax
  1020a8:	0f b6 c0             	movzbl %al,%eax
  1020ab:	83 ec 08             	sub    $0x8,%esp
  1020ae:	50                   	push   %eax
  1020af:	68 d5 03 00 00       	push   $0x3d5
  1020b4:	e8 0b 01 00 00       	call   1021c4 <outb>
  1020b9:	83 c4 10             	add    $0x10,%esp
  1020bc:	90                   	nop
  1020bd:	c9                   	leave  
  1020be:	c3                   	ret    

001020bf <fb_write>:
  1020bf:	55                   	push   %ebp
  1020c0:	89 e5                	mov    %esp,%ebp
  1020c2:	83 ec 18             	sub    $0x18,%esp
  1020c5:	8b 55 08             	mov    0x8(%ebp),%edx
  1020c8:	8b 45 0c             	mov    0xc(%ebp),%eax
  1020cb:	88 55 ec             	mov    %dl,-0x14(%ebp)
  1020ce:	66 89 45 e8          	mov    %ax,-0x18(%ebp)
  1020d2:	c7 45 fc 00 80 0b 00 	movl   $0xb8000,-0x4(%ebp)
  1020d9:	66 0f be 45 ec       	movsbw -0x14(%ebp),%ax
  1020de:	80 cc 0f             	or     $0xf,%ah
  1020e1:	89 c2                	mov    %eax,%edx
  1020e3:	0f b7 45 e8          	movzwl -0x18(%ebp),%eax
  1020e7:	8d 0c 00             	lea    (%eax,%eax,1),%ecx
  1020ea:	8b 45 fc             	mov    -0x4(%ebp),%eax
  1020ed:	01 c8                	add    %ecx,%eax
  1020ef:	66 89 10             	mov    %dx,(%eax)
  1020f2:	90                   	nop
  1020f3:	c9                   	leave  
  1020f4:	c3                   	ret    

001020f5 <fb_scroll>:
  1020f5:	55                   	push   %ebp
  1020f6:	89 e5                	mov    %esp,%ebp
  1020f8:	83 ec 28             	sub    $0x28,%esp
  1020fb:	8b 45 08             	mov    0x8(%ebp),%eax
  1020fe:	66 89 45 e4          	mov    %ax,-0x1c(%ebp)
  102102:	c7 45 f0 00 80 0b 00 	movl   $0xb8000,-0x10(%ebp)
  102109:	66 81 7d e4 cf 07    	cmpw   $0x7cf,-0x1c(%ebp)
  10210f:	77 06                	ja     102117 <fb_scroll+0x22>
  102111:	0f b7 45 e4          	movzwl -0x1c(%ebp),%eax
  102115:	eb 56                	jmp    10216d <fb_scroll+0x78>
  102117:	c7 45 f4 00 00 00 00 	movl   $0x0,-0xc(%ebp)
  10211e:	eb 42                	jmp    102162 <fb_scroll+0x6d>
  102120:	8b 55 f4             	mov    -0xc(%ebp),%edx
  102123:	89 d0                	mov    %edx,%eax
  102125:	c1 e0 02             	shl    $0x2,%eax
  102128:	01 d0                	add    %edx,%eax
  10212a:	c1 e0 05             	shl    $0x5,%eax
  10212d:	89 c2                	mov    %eax,%edx
  10212f:	8b 45 f0             	mov    -0x10(%ebp),%eax
  102132:	8d 0c 02             	lea    (%edx,%eax,1),%ecx
  102135:	8b 45 f4             	mov    -0xc(%ebp),%eax
  102138:	8d 50 01             	lea    0x1(%eax),%edx
  10213b:	89 d0                	mov    %edx,%eax
  10213d:	c1 e0 02             	shl    $0x2,%eax
  102140:	01 d0                	add    %edx,%eax
  102142:	c1 e0 05             	shl    $0x5,%eax
  102145:	89 c2                	mov    %eax,%edx
  102147:	8b 45 f0             	mov    -0x10(%ebp),%eax
  10214a:	01 d0                	add    %edx,%eax
  10214c:	83 ec 04             	sub    $0x4,%esp
  10214f:	68 a0 00 00 00       	push   $0xa0
  102154:	51                   	push   %ecx
  102155:	50                   	push   %eax
  102156:	e8 14 00 00 00       	call   10216f <mem_copy>
  10215b:	83 c4 10             	add    $0x10,%esp
  10215e:	83 45 f4 01          	addl   $0x1,-0xc(%ebp)
  102162:	83 7d f4 18          	cmpl   $0x18,-0xc(%ebp)
  102166:	7e b8                	jle    102120 <fb_scroll+0x2b>
  102168:	b8 80 07 00 00       	mov    $0x780,%eax
  10216d:	c9                   	leave  
  10216e:	c3                   	ret    

0010216f <mem_copy>:
  10216f:	55                   	push   %ebp
  102170:	89 e5                	mov    %esp,%ebp
  102172:	eb 1b                	jmp    10218f <mem_copy+0x20>
  102174:	8b 55 08             	mov    0x8(%ebp),%edx
  102177:	8d 42 01             	lea    0x1(%edx),%eax
  10217a:	89 45 08             	mov    %eax,0x8(%ebp)
  10217d:	8b 45 0c             	mov    0xc(%ebp),%eax
  102180:	8d 48 01             	lea    0x1(%eax),%ecx
  102183:	89 4d 0c             	mov    %ecx,0xc(%ebp)
  102186:	0f b6 12             	movzbl (%edx),%edx
  102189:	88 10                	mov    %dl,(%eax)
  10218b:	83 6d 10 01          	subl   $0x1,0x10(%ebp)
  10218f:	83 7d 10 00          	cmpl   $0x0,0x10(%ebp)
  102193:	75 df                	jne    102174 <mem_copy+0x5>
  102195:	90                   	nop
  102196:	90                   	nop
  102197:	5d                   	pop    %ebp
  102198:	c3                   	ret    

00102199 <mem_set>:
  102199:	55                   	push   %ebp
  10219a:	89 e5                	mov    %esp,%ebp
  10219c:	83 ec 04             	sub    $0x4,%esp
  10219f:	8b 45 0c             	mov    0xc(%ebp),%eax
  1021a2:	88 45 fc             	mov    %al,-0x4(%ebp)
  1021a5:	eb 13                	jmp    1021ba <mem_set+0x21>
  1021a7:	8b 45 08             	mov    0x8(%ebp),%eax
  1021aa:	8d 50 01             	lea    0x1(%eax),%edx
  1021ad:	89 55 08             	mov    %edx,0x8(%ebp)
  1021b0:	0f b6 55 fc          	movzbl -0x4(%ebp),%edx
  1021b4:	88 10                	mov    %dl,(%eax)
  1021b6:	83 6d 10 01          	subl   $0x1,0x10(%ebp)
  1021ba:	83 7d 10 00          	cmpl   $0x0,0x10(%ebp)
  1021be:	75 e7                	jne    1021a7 <mem_set+0xe>
  1021c0:	90                   	nop
  1021c1:	90                   	nop
  1021c2:	c9                   	leave  
  1021c3:	c3                   	ret    

001021c4 <outb>:
  1021c4:	55                   	push   %ebp
  1021c5:	89 e5                	mov    %esp,%ebp
  1021c7:	83 ec 08             	sub    $0x8,%esp
  1021ca:	8b 45 08             	mov    0x8(%ebp),%eax
  1021cd:	8b 55 0c             	mov    0xc(%ebp),%edx
  1021d0:	66 89 45 fc          	mov    %ax,-0x4(%ebp)
  1021d4:	89 d0                	mov    %edx,%eax
  1021d6:	88 45 f8             	mov    %al,-0x8(%ebp)
  1021d9:	0f b6 45 f8          	movzbl -0x8(%ebp),%eax
  1021dd:	0f b7 55 fc          	movzwl -0x4(%ebp),%edx
  1021e1:	ee                   	out    %al,(%dx)
  1021e2:	90                   	nop
  1021e3:	c9                   	leave  
  1021e4:	c3                   	ret    

001021e5 <inb>:
  1021e5:	55                   	push   %ebp
  1021e6:	89 e5                	mov    %esp,%ebp
  1021e8:	83 ec 14             	sub    $0x14,%esp
  1021eb:	8b 45 08             	mov    0x8(%ebp),%eax
  1021ee:	66 89 45 ec          	mov    %ax,-0x14(%ebp)
  1021f2:	0f b7 45 ec          	movzwl -0x14(%ebp),%eax
  1021f6:	89 c2                	mov    %eax,%edx
  1021f8:	ec                   	in     (%dx),%al
  1021f9:	88 45 ff             	mov    %al,-0x1(%ebp)
  1021fc:	0f b6 45 ff          	movzbl -0x1(%ebp),%eax
  102200:	c9                   	leave  
  102201:	c3                   	ret    

00102202 <cpuid>:
  102202:	55                   	push   %ebp
  102203:	89 e5                	mov    %esp,%ebp
  102205:	56                   	push   %esi
  102206:	53                   	push   %ebx
  102207:	8b 45 08             	mov    0x8(%ebp),%eax
  10220a:	0f a2                	cpuid  
  10220c:	89 c6                	mov    %eax,%esi
  10220e:	8b 45 0c             	mov    0xc(%ebp),%eax
  102211:	89 30                	mov    %esi,(%eax)
  102213:	8b 45 10             	mov    0x10(%ebp),%eax
  102216:	89 10                	mov    %edx,(%eax)
  102218:	90                   	nop
  102219:	5b                   	pop    %ebx
  10221a:	5e                   	pop    %esi
  10221b:	5d                   	pop    %ebp
  10221c:	c3                   	ret    

0010221d <disable_local_apic>:
  10221d:	55                   	push   %ebp
  10221e:	89 e5                	mov    %esp,%ebp
  102220:	83 ec 18             	sub    $0x18,%esp
  102223:	8d 45 f0             	lea    -0x10(%ebp),%eax
  102226:	50                   	push   %eax
  102227:	8d 45 f4             	lea    -0xc(%ebp),%eax
  10222a:	50                   	push   %eax
  10222b:	6a 01                	push   $0x1
  10222d:	e8 d0 ff ff ff       	call   102202 <cpuid>
  102232:	83 c4 0c             	add    $0xc,%esp
  102235:	8b 45 f0             	mov    -0x10(%ebp),%eax
  102238:	25 00 02 00 00       	and    $0x200,%eax
  10223d:	85 c0                	test   %eax,%eax
  10223f:	74 41                	je     102282 <disable_local_apic+0x65>
  102241:	83 ec 0c             	sub    $0xc,%esp
  102244:	68 f8 42 10 00       	push   $0x1042f8
  102249:	e8 f5 0b 00 00       	call   102e43 <print_string>
  10224e:	83 c4 10             	add    $0x10,%esp
  102251:	8b 45 f0             	mov    -0x10(%ebp),%eax
  102254:	83 e0 20             	and    $0x20,%eax
  102257:	85 c0                	test   %eax,%eax
  102259:	74 17                	je     102272 <disable_local_apic+0x55>
  10225b:	e8 30 13 00 00       	call   103590 <_disable_lapic>
  102260:	83 ec 0c             	sub    $0xc,%esp
  102263:	68 1a 43 10 00       	push   $0x10431a
  102268:	e8 d6 0b 00 00       	call   102e43 <print_string>
  10226d:	83 c4 10             	add    $0x10,%esp
  102270:	eb 10                	jmp    102282 <disable_local_apic+0x65>
  102272:	83 ec 0c             	sub    $0xc,%esp
  102275:	68 2e 43 10 00       	push   $0x10432e
  10227a:	e8 c4 0b 00 00       	call   102e43 <print_string>
  10227f:	83 c4 10             	add    $0x10,%esp
  102282:	90                   	nop
  102283:	c9                   	leave  
  102284:	c3                   	ret    

00102285 <init_pic>:
  102285:	55                   	push   %ebp
  102286:	89 e5                	mov    %esp,%ebp
  102288:	83 ec 08             	sub    $0x8,%esp
  10228b:	e8 8d ff ff ff       	call   10221d <disable_local_apic>
  102290:	83 ec 08             	sub    $0x8,%esp
  102293:	6a 11                	push   $0x11
  102295:	6a 20                	push   $0x20
  102297:	e8 28 ff ff ff       	call   1021c4 <outb>
  10229c:	83 c4 10             	add    $0x10,%esp
  10229f:	83 ec 08             	sub    $0x8,%esp
  1022a2:	6a 11                	push   $0x11
  1022a4:	68 a0 00 00 00       	push   $0xa0
  1022a9:	e8 16 ff ff ff       	call   1021c4 <outb>
  1022ae:	83 c4 10             	add    $0x10,%esp
  1022b1:	83 ec 08             	sub    $0x8,%esp
  1022b4:	6a 20                	push   $0x20
  1022b6:	6a 21                	push   $0x21
  1022b8:	e8 07 ff ff ff       	call   1021c4 <outb>
  1022bd:	83 c4 10             	add    $0x10,%esp
  1022c0:	83 ec 08             	sub    $0x8,%esp
  1022c3:	6a 28                	push   $0x28
  1022c5:	68 a1 00 00 00       	push   $0xa1
  1022ca:	e8 f5 fe ff ff       	call   1021c4 <outb>
  1022cf:	83 c4 10             	add    $0x10,%esp
  1022d2:	83 ec 08             	sub    $0x8,%esp
  1022d5:	6a 04                	push   $0x4
  1022d7:	6a 21                	push   $0x21
  1022d9:	e8 e6 fe ff ff       	call   1021c4 <outb>
  1022de:	83 c4 10             	add    $0x10,%esp
  1022e1:	83 ec 08             	sub    $0x8,%esp
  1022e4:	6a 02                	push   $0x2
  1022e6:	68 a1 00 00 00       	push   $0xa1
  1022eb:	e8 d4 fe ff ff       	call   1021c4 <outb>
  1022f0:	83 c4 10             	add    $0x10,%esp
  1022f3:	83 ec 08             	sub    $0x8,%esp
  1022f6:	6a 01                	push   $0x1
  1022f8:	6a 21                	push   $0x21
  1022fa:	e8 c5 fe ff ff       	call   1021c4 <outb>
  1022ff:	83 c4 10             	add    $0x10,%esp
  102302:	83 ec 08             	sub    $0x8,%esp
  102305:	6a 01                	push   $0x1
  102307:	68 a1 00 00 00       	push   $0xa1
  10230c:	e8 b3 fe ff ff       	call   1021c4 <outb>
  102311:	83 c4 10             	add    $0x10,%esp
  102314:	83 ec 08             	sub    $0x8,%esp
  102317:	6a 00                	push   $0x0
  102319:	6a 21                	push   $0x21
  10231b:	e8 a4 fe ff ff       	call   1021c4 <outb>
  102320:	83 c4 10             	add    $0x10,%esp
  102323:	83 ec 08             	sub    $0x8,%esp
  102326:	6a 00                	push   $0x0
  102328:	68 a1 00 00 00       	push   $0xa1
  10232d:	e8 92 fe ff ff       	call   1021c4 <outb>
  102332:	83 c4 10             	add    $0x10,%esp
  102335:	fb                   	sti    
  102336:	90                   	nop
  102337:	c9                   	leave  
  102338:	c3                   	ret    

00102339 <pic_acknowledge>:
  102339:	55                   	push   %ebp
  10233a:	89 e5                	mov    %esp,%ebp
  10233c:	83 ec 08             	sub    $0x8,%esp
  10233f:	83 7d 08 1f          	cmpl   $0x1f,0x8(%ebp)
  102343:	76 31                	jbe    102376 <pic_acknowledge+0x3d>
  102345:	83 7d 08 2f          	cmpl   $0x2f,0x8(%ebp)
  102349:	77 2b                	ja     102376 <pic_acknowledge+0x3d>
  10234b:	83 7d 08 27          	cmpl   $0x27,0x8(%ebp)
  10234f:	77 11                	ja     102362 <pic_acknowledge+0x29>
  102351:	83 ec 08             	sub    $0x8,%esp
  102354:	6a 20                	push   $0x20
  102356:	6a 20                	push   $0x20
  102358:	e8 67 fe ff ff       	call   1021c4 <outb>
  10235d:	83 c4 10             	add    $0x10,%esp
  102360:	eb 15                	jmp    102377 <pic_acknowledge+0x3e>
  102362:	83 ec 08             	sub    $0x8,%esp
  102365:	6a 20                	push   $0x20
  102367:	68 a0 00 00 00       	push   $0xa0
  10236c:	e8 53 fe ff ff       	call   1021c4 <outb>
  102371:	83 c4 10             	add    $0x10,%esp
  102374:	eb 01                	jmp    102377 <pic_acknowledge+0x3e>
  102376:	90                   	nop
  102377:	c9                   	leave  
  102378:	c3                   	ret    

00102379 <idt_set_gate>:
  102379:	55                   	push   %ebp
  10237a:	89 e5                	mov    %esp,%ebp
  10237c:	83 ec 08             	sub    $0x8,%esp
  10237f:	8b 45 10             	mov    0x10(%ebp),%eax
  102382:	8b 55 14             	mov    0x14(%ebp),%edx
  102385:	66 89 45 fc          	mov    %ax,-0x4(%ebp)
  102389:	89 d0                	mov    %edx,%eax
  10238b:	88 45 f8             	mov    %al,-0x8(%ebp)
  10238e:	8b 45 0c             	mov    0xc(%ebp),%eax
  102391:	89 c2                	mov    %eax,%edx
  102393:	8b 45 08             	mov    0x8(%ebp),%eax
  102396:	66 89 14 c5 60 65 10 	mov    %dx,0x106560(,%eax,8)
  10239d:	00 
  10239e:	8b 45 0c             	mov    0xc(%ebp),%eax
  1023a1:	c1 e8 10             	shr    $0x10,%eax
  1023a4:	89 c2                	mov    %eax,%edx
  1023a6:	8b 45 08             	mov    0x8(%ebp),%eax
  1023a9:	66 89 14 c5 66 65 10 	mov    %dx,0x106566(,%eax,8)
  1023b0:	00 
  1023b1:	8b 45 08             	mov    0x8(%ebp),%eax
  1023b4:	0f b7 55 fc          	movzwl -0x4(%ebp),%edx
  1023b8:	66 89 14 c5 62 65 10 	mov    %dx,0x106562(,%eax,8)
  1023bf:	00 
  1023c0:	8b 45 08             	mov    0x8(%ebp),%eax
  1023c3:	c6 04 c5 64 65 10 00 	movb   $0x0,0x106564(,%eax,8)
  1023ca:	00 
  1023cb:	8b 45 08             	mov    0x8(%ebp),%eax
  1023ce:	0f b6 55 f8          	movzbl -0x8(%ebp),%edx
  1023d2:	88 14 c5 65 65 10 00 	mov    %dl,0x106565(,%eax,8)
  1023d9:	90                   	nop
  1023da:	c9                   	leave  
  1023db:	c3                   	ret    

001023dc <init_idt>:
  1023dc:	55                   	push   %ebp
  1023dd:	89 e5                	mov    %esp,%ebp
  1023df:	83 ec 08             	sub    $0x8,%esp
  1023e2:	66 c7 05 60 6d 10 00 	movw   $0x7ff,0x106d60
  1023e9:	ff 07 
  1023eb:	b8 60 65 10 00       	mov    $0x106560,%eax
  1023f0:	a3 62 6d 10 00       	mov    %eax,0x106d62
  1023f5:	e8 8b fe ff ff       	call   102285 <init_pic>
  1023fa:	b8 90 33 10 00       	mov    $0x103390,%eax
  1023ff:	68 8e 00 00 00       	push   $0x8e
  102404:	6a 08                	push   $0x8
  102406:	50                   	push   %eax
  102407:	6a 00                	push   $0x0
  102409:	e8 6b ff ff ff       	call   102379 <idt_set_gate>
  10240e:	83 c4 10             	add    $0x10,%esp
  102411:	b8 9a 33 10 00       	mov    $0x10339a,%eax
  102416:	68 8e 00 00 00       	push   $0x8e
  10241b:	6a 08                	push   $0x8
  10241d:	50                   	push   %eax
  10241e:	6a 01                	push   $0x1
  102420:	e8 54 ff ff ff       	call   102379 <idt_set_gate>
  102425:	83 c4 10             	add    $0x10,%esp
  102428:	b8 a4 33 10 00       	mov    $0x1033a4,%eax
  10242d:	68 8e 00 00 00       	push   $0x8e
  102432:	6a 08                	push   $0x8
  102434:	50                   	push   %eax
  102435:	6a 02                	push   $0x2
  102437:	e8 3d ff ff ff       	call   102379 <idt_set_gate>
  10243c:	83 c4 10             	add    $0x10,%esp
  10243f:	b8 ae 33 10 00       	mov    $0x1033ae,%eax
  102444:	68 8e 00 00 00       	push   $0x8e
  102449:	6a 08                	push   $0x8
  10244b:	50                   	push   %eax
  10244c:	6a 03                	push   $0x3
  10244e:	e8 26 ff ff ff       	call   102379 <idt_set_gate>
  102453:	83 c4 10             	add    $0x10,%esp
  102456:	b8 b8 33 10 00       	mov    $0x1033b8,%eax
  10245b:	68 8e 00 00 00       	push   $0x8e
  102460:	6a 08                	push   $0x8
  102462:	50                   	push   %eax
  102463:	6a 04                	push   $0x4
  102465:	e8 0f ff ff ff       	call   102379 <idt_set_gate>
  10246a:	83 c4 10             	add    $0x10,%esp
  10246d:	b8 c2 33 10 00       	mov    $0x1033c2,%eax
  102472:	68 8e 00 00 00       	push   $0x8e
  102477:	6a 08                	push   $0x8
  102479:	50                   	push   %eax
  10247a:	6a 05                	push   $0x5
  10247c:	e8 f8 fe ff ff       	call   102379 <idt_set_gate>
  102481:	83 c4 10             	add    $0x10,%esp
  102484:	b8 cc 33 10 00       	mov    $0x1033cc,%eax
  102489:	68 8e 00 00 00       	push   $0x8e
  10248e:	6a 08                	push   $0x8
  102490:	50                   	push   %eax
  102491:	6a 06                	push   $0x6
  102493:	e8 e1 fe ff ff       	call   102379 <idt_set_gate>
  102498:	83 c4 10             	add    $0x10,%esp
  10249b:	b8 d6 33 10 00       	mov    $0x1033d6,%eax
  1024a0:	68 8e 00 00 00       	push   $0x8e
  1024a5:	6a 08                	push   $0x8
  1024a7:	50                   	push   %eax
  1024a8:	6a 07                	push   $0x7
  1024aa:	e8 ca fe ff ff       	call   102379 <idt_set_gate>
  1024af:	83 c4 10             	add    $0x10,%esp
  1024b2:	b8 e0 33 10 00       	mov    $0x1033e0,%eax
  1024b7:	68 8e 00 00 00       	push   $0x8e
  1024bc:	6a 08                	push   $0x8
  1024be:	50                   	push   %eax
  1024bf:	6a 08                	push   $0x8
  1024c1:	e8 b3 fe ff ff       	call   102379 <idt_set_gate>
  1024c6:	83 c4 10             	add    $0x10,%esp
  1024c9:	b8 e8 33 10 00       	mov    $0x1033e8,%eax
  1024ce:	68 8e 00 00 00       	push   $0x8e
  1024d3:	6a 08                	push   $0x8
  1024d5:	50                   	push   %eax
  1024d6:	6a 09                	push   $0x9
  1024d8:	e8 9c fe ff ff       	call   102379 <idt_set_gate>
  1024dd:	83 c4 10             	add    $0x10,%esp
  1024e0:	b8 f2 33 10 00       	mov    $0x1033f2,%eax
  1024e5:	68 8e 00 00 00       	push   $0x8e
  1024ea:	6a 08                	push   $0x8
  1024ec:	50                   	push   %eax
  1024ed:	6a 0a                	push   $0xa
  1024ef:	e8 85 fe ff ff       	call   102379 <idt_set_gate>
  1024f4:	83 c4 10             	add    $0x10,%esp
  1024f7:	b8 fa 33 10 00       	mov    $0x1033fa,%eax
  1024fc:	68 8e 00 00 00       	push   $0x8e
  102501:	6a 08                	push   $0x8
  102503:	50                   	push   %eax
  102504:	6a 0b                	push   $0xb
  102506:	e8 6e fe ff ff       	call   102379 <idt_set_gate>
  10250b:	83 c4 10             	add    $0x10,%esp
  10250e:	b8 02 34 10 00       	mov    $0x103402,%eax
  102513:	68 8e 00 00 00       	push   $0x8e
  102518:	6a 08                	push   $0x8
  10251a:	50                   	push   %eax
  10251b:	6a 0c                	push   $0xc
  10251d:	e8 57 fe ff ff       	call   102379 <idt_set_gate>
  102522:	83 c4 10             	add    $0x10,%esp
  102525:	b8 0a 34 10 00       	mov    $0x10340a,%eax
  10252a:	68 8e 00 00 00       	push   $0x8e
  10252f:	6a 08                	push   $0x8
  102531:	50                   	push   %eax
  102532:	6a 0d                	push   $0xd
  102534:	e8 40 fe ff ff       	call   102379 <idt_set_gate>
  102539:	83 c4 10             	add    $0x10,%esp
  10253c:	b8 12 34 10 00       	mov    $0x103412,%eax
  102541:	68 8e 00 00 00       	push   $0x8e
  102546:	6a 08                	push   $0x8
  102548:	50                   	push   %eax
  102549:	6a 0e                	push   $0xe
  10254b:	e8 29 fe ff ff       	call   102379 <idt_set_gate>
  102550:	83 c4 10             	add    $0x10,%esp
  102553:	b8 1a 34 10 00       	mov    $0x10341a,%eax
  102558:	68 8e 00 00 00       	push   $0x8e
  10255d:	6a 08                	push   $0x8
  10255f:	50                   	push   %eax
  102560:	6a 0f                	push   $0xf
  102562:	e8 12 fe ff ff       	call   102379 <idt_set_gate>
  102567:	83 c4 10             	add    $0x10,%esp
  10256a:	b8 24 34 10 00       	mov    $0x103424,%eax
  10256f:	68 8e 00 00 00       	push   $0x8e
  102574:	6a 08                	push   $0x8
  102576:	50                   	push   %eax
  102577:	6a 10                	push   $0x10
  102579:	e8 fb fd ff ff       	call   102379 <idt_set_gate>
  10257e:	83 c4 10             	add    $0x10,%esp
  102581:	b8 2e 34 10 00       	mov    $0x10342e,%eax
  102586:	68 8e 00 00 00       	push   $0x8e
  10258b:	6a 08                	push   $0x8
  10258d:	50                   	push   %eax
  10258e:	6a 11                	push   $0x11
  102590:	e8 e4 fd ff ff       	call   102379 <idt_set_gate>
  102595:	83 c4 10             	add    $0x10,%esp
  102598:	b8 38 34 10 00       	mov    $0x103438,%eax
  10259d:	68 8e 00 00 00       	push   $0x8e
  1025a2:	6a 08                	push   $0x8
  1025a4:	50                   	push   %eax
  1025a5:	6a 12                	push   $0x12
  1025a7:	e8 cd fd ff ff       	call   102379 <idt_set_gate>
  1025ac:	83 c4 10             	add    $0x10,%esp
  1025af:	b8 42 34 10 00       	mov    $0x103442,%eax
  1025b4:	68 8e 00 00 00       	push   $0x8e
  1025b9:	6a 08                	push   $0x8
  1025bb:	50                   	push   %eax
  1025bc:	6a 13                	push   $0x13
  1025be:	e8 b6 fd ff ff       	call   102379 <idt_set_gate>
  1025c3:	83 c4 10             	add    $0x10,%esp
  1025c6:	b8 4c 34 10 00       	mov    $0x10344c,%eax
  1025cb:	68 8e 00 00 00       	push   $0x8e
  1025d0:	6a 08                	push   $0x8
  1025d2:	50                   	push   %eax
  1025d3:	6a 14                	push   $0x14
  1025d5:	e8 9f fd ff ff       	call   102379 <idt_set_gate>
  1025da:	83 c4 10             	add    $0x10,%esp
  1025dd:	b8 56 34 10 00       	mov    $0x103456,%eax
  1025e2:	68 8e 00 00 00       	push   $0x8e
  1025e7:	6a 08                	push   $0x8
  1025e9:	50                   	push   %eax
  1025ea:	6a 15                	push   $0x15
  1025ec:	e8 88 fd ff ff       	call   102379 <idt_set_gate>
  1025f1:	83 c4 10             	add    $0x10,%esp
  1025f4:	b8 60 34 10 00       	mov    $0x103460,%eax
  1025f9:	68 8e 00 00 00       	push   $0x8e
  1025fe:	6a 08                	push   $0x8
  102600:	50                   	push   %eax
  102601:	6a 16                	push   $0x16
  102603:	e8 71 fd ff ff       	call   102379 <idt_set_gate>
  102608:	83 c4 10             	add    $0x10,%esp
  10260b:	b8 6a 34 10 00       	mov    $0x10346a,%eax
  102610:	68 8e 00 00 00       	push   $0x8e
  102615:	6a 08                	push   $0x8
  102617:	50                   	push   %eax
  102618:	6a 17                	push   $0x17
  10261a:	e8 5a fd ff ff       	call   102379 <idt_set_gate>
  10261f:	83 c4 10             	add    $0x10,%esp
  102622:	b8 74 34 10 00       	mov    $0x103474,%eax
  102627:	68 8e 00 00 00       	push   $0x8e
  10262c:	6a 08                	push   $0x8
  10262e:	50                   	push   %eax
  10262f:	6a 18                	push   $0x18
  102631:	e8 43 fd ff ff       	call   102379 <idt_set_gate>
  102636:	83 c4 10             	add    $0x10,%esp
  102639:	b8 7e 34 10 00       	mov    $0x10347e,%eax
  10263e:	68 8e 00 00 00       	push   $0x8e
  102643:	6a 08                	push   $0x8
  102645:	50                   	push   %eax
  102646:	6a 19                	push   $0x19
  102648:	e8 2c fd ff ff       	call   102379 <idt_set_gate>
  10264d:	83 c4 10             	add    $0x10,%esp
  102650:	b8 88 34 10 00       	mov    $0x103488,%eax
  102655:	68 8e 00 00 00       	push   $0x8e
  10265a:	6a 08                	push   $0x8
  10265c:	50                   	push   %eax
  10265d:	6a 1a                	push   $0x1a
  10265f:	e8 15 fd ff ff       	call   102379 <idt_set_gate>
  102664:	83 c4 10             	add    $0x10,%esp
  102667:	b8 92 34 10 00       	mov    $0x103492,%eax
  10266c:	68 8e 00 00 00       	push   $0x8e
  102671:	6a 08                	push   $0x8
  102673:	50                   	push   %eax
  102674:	6a 1b                	push   $0x1b
  102676:	e8 fe fc ff ff       	call   102379 <idt_set_gate>
  10267b:	83 c4 10             	add    $0x10,%esp
  10267e:	b8 9c 34 10 00       	mov    $0x10349c,%eax
  102683:	68 8e 00 00 00       	push   $0x8e
  102688:	6a 08                	push   $0x8
  10268a:	50                   	push   %eax
  10268b:	6a 1c                	push   $0x1c
  10268d:	e8 e7 fc ff ff       	call   102379 <idt_set_gate>
  102692:	83 c4 10             	add    $0x10,%esp
  102695:	b8 a6 34 10 00       	mov    $0x1034a6,%eax
  10269a:	68 8e 00 00 00       	push   $0x8e
  10269f:	6a 08                	push   $0x8
  1026a1:	50                   	push   %eax
  1026a2:	6a 1d                	push   $0x1d
  1026a4:	e8 d0 fc ff ff       	call   102379 <idt_set_gate>
  1026a9:	83 c4 10             	add    $0x10,%esp
  1026ac:	b8 b0 34 10 00       	mov    $0x1034b0,%eax
  1026b1:	68 8e 00 00 00       	push   $0x8e
  1026b6:	6a 08                	push   $0x8
  1026b8:	50                   	push   %eax
  1026b9:	6a 1e                	push   $0x1e
  1026bb:	e8 b9 fc ff ff       	call   102379 <idt_set_gate>
  1026c0:	83 c4 10             	add    $0x10,%esp
  1026c3:	b8 ba 34 10 00       	mov    $0x1034ba,%eax
  1026c8:	68 8e 00 00 00       	push   $0x8e
  1026cd:	6a 08                	push   $0x8
  1026cf:	50                   	push   %eax
  1026d0:	6a 1f                	push   $0x1f
  1026d2:	e8 a2 fc ff ff       	call   102379 <idt_set_gate>
  1026d7:	83 c4 10             	add    $0x10,%esp
  1026da:	b8 c1 34 10 00       	mov    $0x1034c1,%eax
  1026df:	68 8e 00 00 00       	push   $0x8e
  1026e4:	6a 08                	push   $0x8
  1026e6:	50                   	push   %eax
  1026e7:	6a 20                	push   $0x20
  1026e9:	e8 8b fc ff ff       	call   102379 <idt_set_gate>
  1026ee:	83 c4 10             	add    $0x10,%esp
  1026f1:	b8 cb 34 10 00       	mov    $0x1034cb,%eax
  1026f6:	68 8e 00 00 00       	push   $0x8e
  1026fb:	6a 08                	push   $0x8
  1026fd:	50                   	push   %eax
  1026fe:	6a 21                	push   $0x21
  102700:	e8 74 fc ff ff       	call   102379 <idt_set_gate>
  102705:	83 c4 10             	add    $0x10,%esp
  102708:	b8 d5 34 10 00       	mov    $0x1034d5,%eax
  10270d:	68 8e 00 00 00       	push   $0x8e
  102712:	6a 08                	push   $0x8
  102714:	50                   	push   %eax
  102715:	6a 22                	push   $0x22
  102717:	e8 5d fc ff ff       	call   102379 <idt_set_gate>
  10271c:	83 c4 10             	add    $0x10,%esp
  10271f:	b8 df 34 10 00       	mov    $0x1034df,%eax
  102724:	68 8e 00 00 00       	push   $0x8e
  102729:	6a 08                	push   $0x8
  10272b:	50                   	push   %eax
  10272c:	6a 23                	push   $0x23
  10272e:	e8 46 fc ff ff       	call   102379 <idt_set_gate>
  102733:	83 c4 10             	add    $0x10,%esp
  102736:	b8 e6 34 10 00       	mov    $0x1034e6,%eax
  10273b:	68 8e 00 00 00       	push   $0x8e
  102740:	6a 08                	push   $0x8
  102742:	50                   	push   %eax
  102743:	6a 24                	push   $0x24
  102745:	e8 2f fc ff ff       	call   102379 <idt_set_gate>
  10274a:	83 c4 10             	add    $0x10,%esp
  10274d:	b8 ed 34 10 00       	mov    $0x1034ed,%eax
  102752:	68 8e 00 00 00       	push   $0x8e
  102757:	6a 08                	push   $0x8
  102759:	50                   	push   %eax
  10275a:	6a 25                	push   $0x25
  10275c:	e8 18 fc ff ff       	call   102379 <idt_set_gate>
  102761:	83 c4 10             	add    $0x10,%esp
  102764:	b8 f4 34 10 00       	mov    $0x1034f4,%eax
  102769:	68 8e 00 00 00       	push   $0x8e
  10276e:	6a 08                	push   $0x8
  102770:	50                   	push   %eax
  102771:	6a 26                	push   $0x26
  102773:	e8 01 fc ff ff       	call   102379 <idt_set_gate>
  102778:	83 c4 10             	add    $0x10,%esp
  10277b:	b8 fb 34 10 00       	mov    $0x1034fb,%eax
  102780:	68 8e 00 00 00       	push   $0x8e
  102785:	6a 08                	push   $0x8
  102787:	50                   	push   %eax
  102788:	6a 27                	push   $0x27
  10278a:	e8 ea fb ff ff       	call   102379 <idt_set_gate>
  10278f:	83 c4 10             	add    $0x10,%esp
  102792:	b8 02 35 10 00       	mov    $0x103502,%eax
  102797:	68 8e 00 00 00       	push   $0x8e
  10279c:	6a 08                	push   $0x8
  10279e:	50                   	push   %eax
  10279f:	6a 28                	push   $0x28
  1027a1:	e8 d3 fb ff ff       	call   102379 <idt_set_gate>
  1027a6:	83 c4 10             	add    $0x10,%esp
  1027a9:	b8 09 35 10 00       	mov    $0x103509,%eax
  1027ae:	68 8e 00 00 00       	push   $0x8e
  1027b3:	6a 08                	push   $0x8
  1027b5:	50                   	push   %eax
  1027b6:	6a 29                	push   $0x29
  1027b8:	e8 bc fb ff ff       	call   102379 <idt_set_gate>
  1027bd:	83 c4 10             	add    $0x10,%esp
  1027c0:	b8 17 35 10 00       	mov    $0x103517,%eax
  1027c5:	68 8e 00 00 00       	push   $0x8e
  1027ca:	6a 08                	push   $0x8
  1027cc:	50                   	push   %eax
  1027cd:	6a 2b                	push   $0x2b
  1027cf:	e8 a5 fb ff ff       	call   102379 <idt_set_gate>
  1027d4:	83 c4 10             	add    $0x10,%esp
  1027d7:	b8 1e 35 10 00       	mov    $0x10351e,%eax
  1027dc:	68 8e 00 00 00       	push   $0x8e
  1027e1:	6a 08                	push   $0x8
  1027e3:	50                   	push   %eax
  1027e4:	6a 2c                	push   $0x2c
  1027e6:	e8 8e fb ff ff       	call   102379 <idt_set_gate>
  1027eb:	83 c4 10             	add    $0x10,%esp
  1027ee:	b8 25 35 10 00       	mov    $0x103525,%eax
  1027f3:	68 8e 00 00 00       	push   $0x8e
  1027f8:	6a 08                	push   $0x8
  1027fa:	50                   	push   %eax
  1027fb:	6a 2d                	push   $0x2d
  1027fd:	e8 77 fb ff ff       	call   102379 <idt_set_gate>
  102802:	83 c4 10             	add    $0x10,%esp
  102805:	b8 2c 35 10 00       	mov    $0x10352c,%eax
  10280a:	68 8e 00 00 00       	push   $0x8e
  10280f:	6a 08                	push   $0x8
  102811:	50                   	push   %eax
  102812:	6a 2e                	push   $0x2e
  102814:	e8 60 fb ff ff       	call   102379 <idt_set_gate>
  102819:	83 c4 10             	add    $0x10,%esp
  10281c:	b8 33 35 10 00       	mov    $0x103533,%eax
  102821:	68 8e 00 00 00       	push   $0x8e
  102826:	6a 08                	push   $0x8
  102828:	50                   	push   %eax
  102829:	6a 2f                	push   $0x2f
  10282b:	e8 49 fb ff ff       	call   102379 <idt_set_gate>
  102830:	83 c4 10             	add    $0x10,%esp
  102833:	b8 60 6d 10 00       	mov    $0x106d60,%eax
  102838:	83 ec 0c             	sub    $0xc,%esp
  10283b:	50                   	push   %eax
  10283c:	e8 3f 0b 00 00       	call   103380 <load_idt>
  102841:	83 c4 10             	add    $0x10,%esp
  102844:	90                   	nop
  102845:	c9                   	leave  
  102846:	c3                   	ret    

00102847 <isr_handler>:
  102847:	55                   	push   %ebp
  102848:	89 e5                	mov    %esp,%ebp
  10284a:	83 ec 18             	sub    $0x18,%esp
  10284d:	8b 45 2c             	mov    0x2c(%ebp),%eax
  102850:	8b 04 85 60 61 10 00 	mov    0x106160(,%eax,4),%eax
  102857:	85 c0                	test   %eax,%eax
  102859:	74 47                	je     1028a2 <isr_handler+0x5b>
  10285b:	8b 45 2c             	mov    0x2c(%ebp),%eax
  10285e:	8b 04 85 60 61 10 00 	mov    0x106160(,%eax,4),%eax
  102865:	89 45 f4             	mov    %eax,-0xc(%ebp)
  102868:	ff 75 44             	pushl  0x44(%ebp)
  10286b:	ff 75 40             	pushl  0x40(%ebp)
  10286e:	ff 75 3c             	pushl  0x3c(%ebp)
  102871:	ff 75 38             	pushl  0x38(%ebp)
  102874:	ff 75 34             	pushl  0x34(%ebp)
  102877:	ff 75 30             	pushl  0x30(%ebp)
  10287a:	ff 75 2c             	pushl  0x2c(%ebp)
  10287d:	ff 75 28             	pushl  0x28(%ebp)
  102880:	ff 75 24             	pushl  0x24(%ebp)
  102883:	ff 75 20             	pushl  0x20(%ebp)
  102886:	ff 75 1c             	pushl  0x1c(%ebp)
  102889:	ff 75 18             	pushl  0x18(%ebp)
  10288c:	ff 75 14             	pushl  0x14(%ebp)
  10288f:	ff 75 10             	pushl  0x10(%ebp)
  102892:	ff 75 0c             	pushl  0xc(%ebp)
  102895:	ff 75 08             	pushl  0x8(%ebp)
  102898:	8b 45 f4             	mov    -0xc(%ebp),%eax
  10289b:	ff d0                	call   *%eax
  10289d:	83 c4 40             	add    $0x40,%esp
  1028a0:	eb 2f                	jmp    1028d1 <isr_handler+0x8a>
  1028a2:	83 ec 0c             	sub    $0xc,%esp
  1028a5:	68 40 43 10 00       	push   $0x104340
  1028aa:	e8 94 05 00 00       	call   102e43 <print_string>
  1028af:	83 c4 10             	add    $0x10,%esp
  1028b2:	8b 45 2c             	mov    0x2c(%ebp),%eax
  1028b5:	83 ec 0c             	sub    $0xc,%esp
  1028b8:	50                   	push   %eax
  1028b9:	e8 3b 06 00 00       	call   102ef9 <print_decimal>
  1028be:	83 c4 10             	add    $0x10,%esp
  1028c1:	83 ec 0c             	sub    $0xc,%esp
  1028c4:	68 47 43 10 00       	push   $0x104347
  1028c9:	e8 75 05 00 00       	call   102e43 <print_string>
  1028ce:	83 c4 10             	add    $0x10,%esp
  1028d1:	90                   	nop
  1028d2:	c9                   	leave  
  1028d3:	c3                   	ret    

001028d4 <irq_handler>:
  1028d4:	55                   	push   %ebp
  1028d5:	89 e5                	mov    %esp,%ebp
  1028d7:	83 ec 18             	sub    $0x18,%esp
  1028da:	8b 45 2c             	mov    0x2c(%ebp),%eax
  1028dd:	83 ec 0c             	sub    $0xc,%esp
  1028e0:	50                   	push   %eax
  1028e1:	e8 53 fa ff ff       	call   102339 <pic_acknowledge>
  1028e6:	83 c4 10             	add    $0x10,%esp
  1028e9:	8b 45 2c             	mov    0x2c(%ebp),%eax
  1028ec:	8b 04 85 60 61 10 00 	mov    0x106160(,%eax,4),%eax
  1028f3:	85 c0                	test   %eax,%eax
  1028f5:	74 47                	je     10293e <irq_handler+0x6a>
  1028f7:	8b 45 2c             	mov    0x2c(%ebp),%eax
  1028fa:	8b 04 85 60 61 10 00 	mov    0x106160(,%eax,4),%eax
  102901:	89 45 f4             	mov    %eax,-0xc(%ebp)
  102904:	ff 75 44             	pushl  0x44(%ebp)
  102907:	ff 75 40             	pushl  0x40(%ebp)
  10290a:	ff 75 3c             	pushl  0x3c(%ebp)
  10290d:	ff 75 38             	pushl  0x38(%ebp)
  102910:	ff 75 34             	pushl  0x34(%ebp)
  102913:	ff 75 30             	pushl  0x30(%ebp)
  102916:	ff 75 2c             	pushl  0x2c(%ebp)
  102919:	ff 75 28             	pushl  0x28(%ebp)
  10291c:	ff 75 24             	pushl  0x24(%ebp)
  10291f:	ff 75 20             	pushl  0x20(%ebp)
  102922:	ff 75 1c             	pushl  0x1c(%ebp)
  102925:	ff 75 18             	pushl  0x18(%ebp)
  102928:	ff 75 14             	pushl  0x14(%ebp)
  10292b:	ff 75 10             	pushl  0x10(%ebp)
  10292e:	ff 75 0c             	pushl  0xc(%ebp)
  102931:	ff 75 08             	pushl  0x8(%ebp)
  102934:	8b 45 f4             	mov    -0xc(%ebp),%eax
  102937:	ff d0                	call   *%eax
  102939:	83 c4 40             	add    $0x40,%esp
  10293c:	eb 2f                	jmp    10296d <irq_handler+0x99>
  10293e:	83 ec 0c             	sub    $0xc,%esp
  102941:	68 58 43 10 00       	push   $0x104358
  102946:	e8 f8 04 00 00       	call   102e43 <print_string>
  10294b:	83 c4 10             	add    $0x10,%esp
  10294e:	8b 45 2c             	mov    0x2c(%ebp),%eax
  102951:	83 ec 0c             	sub    $0xc,%esp
  102954:	50                   	push   %eax
  102955:	e8 9f 05 00 00       	call   102ef9 <print_decimal>
  10295a:	83 c4 10             	add    $0x10,%esp
  10295d:	83 ec 0c             	sub    $0xc,%esp
  102960:	68 47 43 10 00       	push   $0x104347
  102965:	e8 d9 04 00 00       	call   102e43 <print_string>
  10296a:	83 c4 10             	add    $0x10,%esp
  10296d:	90                   	nop
  10296e:	c9                   	leave  
  10296f:	c3                   	ret    

00102970 <register_interrupt_handler>:
  102970:	55                   	push   %ebp
  102971:	89 e5                	mov    %esp,%ebp
  102973:	8b 45 08             	mov    0x8(%ebp),%eax
  102976:	8b 55 0c             	mov    0xc(%ebp),%edx
  102979:	89 14 85 60 61 10 00 	mov    %edx,0x106160(,%eax,4)
  102980:	90                   	nop
  102981:	5d                   	pop    %ebp
  102982:	c3                   	ret    

00102983 <init_keyboard>:
  102983:	55                   	push   %ebp
  102984:	89 e5                	mov    %esp,%ebp
  102986:	83 ec 08             	sub    $0x8,%esp
  102989:	83 ec 08             	sub    $0x8,%esp
  10298c:	68 9e 29 10 00       	push   $0x10299e
  102991:	6a 21                	push   $0x21
  102993:	e8 d8 ff ff ff       	call   102970 <register_interrupt_handler>
  102998:	83 c4 10             	add    $0x10,%esp
  10299b:	90                   	nop
  10299c:	c9                   	leave  
  10299d:	c3                   	ret    

0010299e <kb_callback>:
  10299e:	55                   	push   %ebp
  10299f:	89 e5                	mov    %esp,%ebp
  1029a1:	83 ec 18             	sub    $0x18,%esp
  1029a4:	83 ec 0c             	sub    $0xc,%esp
  1029a7:	68 65 43 10 00       	push   $0x104365
  1029ac:	e8 92 04 00 00       	call   102e43 <print_string>
  1029b1:	83 c4 10             	add    $0x10,%esp
  1029b4:	8b 45 2c             	mov    0x2c(%ebp),%eax
  1029b7:	83 ec 0c             	sub    $0xc,%esp
  1029ba:	50                   	push   %eax
  1029bb:	e8 39 05 00 00       	call   102ef9 <print_decimal>
  1029c0:	83 c4 10             	add    $0x10,%esp
  1029c3:	83 ec 0c             	sub    $0xc,%esp
  1029c6:	68 72 43 10 00       	push   $0x104372
  1029cb:	e8 73 04 00 00       	call   102e43 <print_string>
  1029d0:	83 c4 10             	add    $0x10,%esp
  1029d3:	e8 6b 00 00 00       	call   102a43 <kb_ctrl_read_status>
  1029d8:	0f b6 c0             	movzbl %al,%eax
  1029db:	83 e0 01             	and    $0x1,%eax
  1029de:	85 c0                	test   %eax,%eax
  1029e0:	74 58                	je     102a3a <kb_callback+0x9c>
  1029e2:	e8 97 00 00 00       	call   102a7e <kb_enc_read_buf>
  1029e7:	0f b6 c0             	movzbl %al,%eax
  1029ea:	89 45 f4             	mov    %eax,-0xc(%ebp)
  1029ed:	83 ec 0c             	sub    $0xc,%esp
  1029f0:	68 74 43 10 00       	push   $0x104374
  1029f5:	e8 49 04 00 00       	call   102e43 <print_string>
  1029fa:	83 c4 10             	add    $0x10,%esp
  1029fd:	8b 45 f4             	mov    -0xc(%ebp),%eax
  102a00:	83 ec 0c             	sub    $0xc,%esp
  102a03:	50                   	push   %eax
  102a04:	e8 22 06 00 00       	call   10302b <print_hex>
  102a09:	83 c4 10             	add    $0x10,%esp
  102a0c:	83 ec 0c             	sub    $0xc,%esp
  102a0f:	68 83 43 10 00       	push   $0x104383
  102a14:	e8 2a 04 00 00       	call   102e43 <print_string>
  102a19:	83 c4 10             	add    $0x10,%esp
  102a1c:	83 ec 0c             	sub    $0xc,%esp
  102a1f:	ff 75 f4             	pushl  -0xc(%ebp)
  102a22:	e8 d2 04 00 00       	call   102ef9 <print_decimal>
  102a27:	83 c4 10             	add    $0x10,%esp
  102a2a:	83 ec 0c             	sub    $0xc,%esp
  102a2d:	68 72 43 10 00       	push   $0x104372
  102a32:	e8 0c 04 00 00       	call   102e43 <print_string>
  102a37:	83 c4 10             	add    $0x10,%esp
  102a3a:	90                   	nop
  102a3b:	c9                   	leave  
  102a3c:	c3                   	ret    

00102a3d <kb_enable>:
  102a3d:	55                   	push   %ebp
  102a3e:	89 e5                	mov    %esp,%ebp
  102a40:	90                   	nop
  102a41:	5d                   	pop    %ebp
  102a42:	c3                   	ret    

00102a43 <kb_ctrl_read_status>:
  102a43:	55                   	push   %ebp
  102a44:	89 e5                	mov    %esp,%ebp
  102a46:	83 ec 08             	sub    $0x8,%esp
  102a49:	83 ec 0c             	sub    $0xc,%esp
  102a4c:	6a 64                	push   $0x64
  102a4e:	e8 92 f7 ff ff       	call   1021e5 <inb>
  102a53:	83 c4 10             	add    $0x10,%esp
  102a56:	c9                   	leave  
  102a57:	c3                   	ret    

00102a58 <kb_ctrl_send_cmd>:
  102a58:	55                   	push   %ebp
  102a59:	89 e5                	mov    %esp,%ebp
  102a5b:	83 ec 18             	sub    $0x18,%esp
  102a5e:	8b 45 08             	mov    0x8(%ebp),%eax
  102a61:	88 45 f4             	mov    %al,-0xc(%ebp)
  102a64:	e8 da ff ff ff       	call   102a43 <kb_ctrl_read_status>
  102a69:	eb f9                	jmp    102a64 <kb_ctrl_send_cmd+0xc>

00102a6b <kb_enc_send_cmd>:
  102a6b:	55                   	push   %ebp
  102a6c:	89 e5                	mov    %esp,%ebp
  102a6e:	83 ec 18             	sub    $0x18,%esp
  102a71:	8b 45 08             	mov    0x8(%ebp),%eax
  102a74:	88 45 f4             	mov    %al,-0xc(%ebp)
  102a77:	e8 c7 ff ff ff       	call   102a43 <kb_ctrl_read_status>
  102a7c:	eb f9                	jmp    102a77 <kb_enc_send_cmd+0xc>

00102a7e <kb_enc_read_buf>:
  102a7e:	55                   	push   %ebp
  102a7f:	89 e5                	mov    %esp,%ebp
  102a81:	83 ec 08             	sub    $0x8,%esp
  102a84:	83 ec 0c             	sub    $0xc,%esp
  102a87:	6a 60                	push   $0x60
  102a89:	e8 57 f7 ff ff       	call   1021e5 <inb>
  102a8e:	83 c4 10             	add    $0x10,%esp
  102a91:	c9                   	leave  
  102a92:	c3                   	ret    

00102a93 <kb_set_cap_led>:
  102a93:	55                   	push   %ebp
  102a94:	89 e5                	mov    %esp,%ebp
  102a96:	83 ec 18             	sub    $0x18,%esp
  102a99:	8b 45 08             	mov    0x8(%ebp),%eax
  102a9c:	88 45 f4             	mov    %al,-0xc(%ebp)
  102a9f:	83 ec 0c             	sub    $0xc,%esp
  102aa2:	68 ed 00 00 00       	push   $0xed
  102aa7:	e8 bf ff ff ff       	call   102a6b <kb_enc_send_cmd>
  102aac:	83 c4 10             	add    $0x10,%esp
  102aaf:	0f b6 45 f4          	movzbl -0xc(%ebp),%eax
  102ab3:	c1 e0 02             	shl    $0x2,%eax
  102ab6:	0f b6 c0             	movzbl %al,%eax
  102ab9:	83 ec 0c             	sub    $0xc,%esp
  102abc:	50                   	push   %eax
  102abd:	e8 a9 ff ff ff       	call   102a6b <kb_enc_send_cmd>
  102ac2:	83 c4 10             	add    $0x10,%esp
  102ac5:	90                   	nop
  102ac6:	c9                   	leave  
  102ac7:	c3                   	ret    

00102ac8 <timer_callback>:
  102ac8:	55                   	push   %ebp
  102ac9:	89 e5                	mov    %esp,%ebp
  102acb:	83 ec 08             	sub    $0x8,%esp
  102ace:	a1 10 60 10 00       	mov    0x106010,%eax
  102ad3:	83 c0 01             	add    $0x1,%eax
  102ad6:	a3 10 60 10 00       	mov    %eax,0x106010
  102adb:	e8 1b e6 ff ff       	call   1010fb <switch_task>
  102ae0:	90                   	nop
  102ae1:	c9                   	leave  
  102ae2:	c3                   	ret    

00102ae3 <init_timer>:
  102ae3:	55                   	push   %ebp
  102ae4:	89 e5                	mov    %esp,%ebp
  102ae6:	83 ec 18             	sub    $0x18,%esp
  102ae9:	83 ec 08             	sub    $0x8,%esp
  102aec:	68 c8 2a 10 00       	push   $0x102ac8
  102af1:	6a 20                	push   $0x20
  102af3:	e8 78 fe ff ff       	call   102970 <register_interrupt_handler>
  102af8:	83 c4 10             	add    $0x10,%esp
  102afb:	b8 dc 34 12 00       	mov    $0x1234dc,%eax
  102b00:	ba 00 00 00 00       	mov    $0x0,%edx
  102b05:	f7 75 08             	divl   0x8(%ebp)
  102b08:	89 45 f4             	mov    %eax,-0xc(%ebp)
  102b0b:	83 ec 08             	sub    $0x8,%esp
  102b0e:	6a 36                	push   $0x36
  102b10:	6a 43                	push   $0x43
  102b12:	e8 ad f6 ff ff       	call   1021c4 <outb>
  102b17:	83 c4 10             	add    $0x10,%esp
  102b1a:	8b 45 f4             	mov    -0xc(%ebp),%eax
  102b1d:	88 45 f3             	mov    %al,-0xd(%ebp)
  102b20:	8b 45 f4             	mov    -0xc(%ebp),%eax
  102b23:	c1 e8 08             	shr    $0x8,%eax
  102b26:	88 45 f2             	mov    %al,-0xe(%ebp)
  102b29:	0f b6 45 f3          	movzbl -0xd(%ebp),%eax
  102b2d:	83 ec 08             	sub    $0x8,%esp
  102b30:	50                   	push   %eax
  102b31:	6a 40                	push   $0x40
  102b33:	e8 8c f6 ff ff       	call   1021c4 <outb>
  102b38:	83 c4 10             	add    $0x10,%esp
  102b3b:	0f b6 45 f2          	movzbl -0xe(%ebp),%eax
  102b3f:	83 ec 08             	sub    $0x8,%esp
  102b42:	50                   	push   %eax
  102b43:	6a 40                	push   $0x40
  102b45:	e8 7a f6 ff ff       	call   1021c4 <outb>
  102b4a:	83 c4 10             	add    $0x10,%esp
  102b4d:	90                   	nop
  102b4e:	c9                   	leave  
  102b4f:	c3                   	ret    

00102b50 <less_than>:
  102b50:	55                   	push   %ebp
  102b51:	89 e5                	mov    %esp,%ebp
  102b53:	8b 45 08             	mov    0x8(%ebp),%eax
  102b56:	3b 45 0c             	cmp    0xc(%ebp),%eax
  102b59:	0f 92 c0             	setb   %al
  102b5c:	5d                   	pop    %ebp
  102b5d:	c3                   	ret    

00102b5e <create_ordered_array>:
  102b5e:	55                   	push   %ebp
  102b5f:	89 e5                	mov    %esp,%ebp
  102b61:	83 ec 18             	sub    $0x18,%esp
  102b64:	8b 45 0c             	mov    0xc(%ebp),%eax
  102b67:	c1 e0 02             	shl    $0x2,%eax
  102b6a:	83 ec 0c             	sub    $0xc,%esp
  102b6d:	50                   	push   %eax
  102b6e:	e8 c1 d6 ff ff       	call   100234 <kmalloc>
  102b73:	83 c4 10             	add    $0x10,%esp
  102b76:	89 45 e8             	mov    %eax,-0x18(%ebp)
  102b79:	8b 45 0c             	mov    0xc(%ebp),%eax
  102b7c:	8d 14 85 00 00 00 00 	lea    0x0(,%eax,4),%edx
  102b83:	8b 45 e8             	mov    -0x18(%ebp),%eax
  102b86:	83 ec 04             	sub    $0x4,%esp
  102b89:	52                   	push   %edx
  102b8a:	6a 00                	push   $0x0
  102b8c:	50                   	push   %eax
  102b8d:	e8 53 07 00 00       	call   1032e5 <memset>
  102b92:	83 c4 10             	add    $0x10,%esp
  102b95:	c7 45 ec 00 00 00 00 	movl   $0x0,-0x14(%ebp)
  102b9c:	8b 45 0c             	mov    0xc(%ebp),%eax
  102b9f:	89 45 f0             	mov    %eax,-0x10(%ebp)
  102ba2:	8b 45 10             	mov    0x10(%ebp),%eax
  102ba5:	89 45 f4             	mov    %eax,-0xc(%ebp)
  102ba8:	8b 45 08             	mov    0x8(%ebp),%eax
  102bab:	8b 55 e8             	mov    -0x18(%ebp),%edx
  102bae:	89 10                	mov    %edx,(%eax)
  102bb0:	8b 55 ec             	mov    -0x14(%ebp),%edx
  102bb3:	89 50 04             	mov    %edx,0x4(%eax)
  102bb6:	8b 55 f0             	mov    -0x10(%ebp),%edx
  102bb9:	89 50 08             	mov    %edx,0x8(%eax)
  102bbc:	8b 55 f4             	mov    -0xc(%ebp),%edx
  102bbf:	89 50 0c             	mov    %edx,0xc(%eax)
  102bc2:	8b 45 08             	mov    0x8(%ebp),%eax
  102bc5:	c9                   	leave  
  102bc6:	c2 04 00             	ret    $0x4

00102bc9 <place_ordered_array>:
  102bc9:	55                   	push   %ebp
  102bca:	89 e5                	mov    %esp,%ebp
  102bcc:	83 ec 18             	sub    $0x18,%esp
  102bcf:	8b 45 0c             	mov    0xc(%ebp),%eax
  102bd2:	89 45 e8             	mov    %eax,-0x18(%ebp)
  102bd5:	83 ec 0c             	sub    $0xc,%esp
  102bd8:	68 86 43 10 00       	push   $0x104386
  102bdd:	e8 61 02 00 00       	call   102e43 <print_string>
  102be2:	83 c4 10             	add    $0x10,%esp
  102be5:	8b 45 e8             	mov    -0x18(%ebp),%eax
  102be8:	83 ec 0c             	sub    $0xc,%esp
  102beb:	50                   	push   %eax
  102bec:	e8 3a 04 00 00       	call   10302b <print_hex>
  102bf1:	83 c4 10             	add    $0x10,%esp
  102bf4:	83 ec 0c             	sub    $0xc,%esp
  102bf7:	68 94 43 10 00       	push   $0x104394
  102bfc:	e8 42 02 00 00       	call   102e43 <print_string>
  102c01:	83 c4 10             	add    $0x10,%esp
  102c04:	8b 45 10             	mov    0x10(%ebp),%eax
  102c07:	8d 14 85 00 00 00 00 	lea    0x0(,%eax,4),%edx
  102c0e:	8b 45 e8             	mov    -0x18(%ebp),%eax
  102c11:	83 ec 04             	sub    $0x4,%esp
  102c14:	52                   	push   %edx
  102c15:	6a 00                	push   $0x0
  102c17:	50                   	push   %eax
  102c18:	e8 c8 06 00 00       	call   1032e5 <memset>
  102c1d:	83 c4 10             	add    $0x10,%esp
  102c20:	c7 45 ec 00 00 00 00 	movl   $0x0,-0x14(%ebp)
  102c27:	8b 45 10             	mov    0x10(%ebp),%eax
  102c2a:	89 45 f0             	mov    %eax,-0x10(%ebp)
  102c2d:	8b 45 14             	mov    0x14(%ebp),%eax
  102c30:	89 45 f4             	mov    %eax,-0xc(%ebp)
  102c33:	8b 45 08             	mov    0x8(%ebp),%eax
  102c36:	8b 55 e8             	mov    -0x18(%ebp),%edx
  102c39:	89 10                	mov    %edx,(%eax)
  102c3b:	8b 55 ec             	mov    -0x14(%ebp),%edx
  102c3e:	89 50 04             	mov    %edx,0x4(%eax)
  102c41:	8b 55 f0             	mov    -0x10(%ebp),%edx
  102c44:	89 50 08             	mov    %edx,0x8(%eax)
  102c47:	8b 55 f4             	mov    -0xc(%ebp),%edx
  102c4a:	89 50 0c             	mov    %edx,0xc(%eax)
  102c4d:	8b 45 08             	mov    0x8(%ebp),%eax
  102c50:	c9                   	leave  
  102c51:	c2 04 00             	ret    $0x4

00102c54 <insert_ordered_array>:
  102c54:	55                   	push   %ebp
  102c55:	89 e5                	mov    %esp,%ebp
  102c57:	83 ec 18             	sub    $0x18,%esp
  102c5a:	8b 45 0c             	mov    0xc(%ebp),%eax
  102c5d:	8b 50 04             	mov    0x4(%eax),%edx
  102c60:	8b 45 0c             	mov    0xc(%ebp),%eax
  102c63:	8b 40 08             	mov    0x8(%eax),%eax
  102c66:	39 c2                	cmp    %eax,%edx
  102c68:	76 17                	jbe    102c81 <insert_ordered_array+0x2d>
  102c6a:	83 ec 04             	sub    $0x4,%esp
  102c6d:	68 96 43 10 00       	push   $0x104396
  102c72:	6a 23                	push   $0x23
  102c74:	68 b3 43 10 00       	push   $0x1043b3
  102c79:	e8 f4 04 00 00       	call   103172 <panic_assert>
  102c7e:	83 c4 10             	add    $0x10,%esp
  102c81:	8b 45 0c             	mov    0xc(%ebp),%eax
  102c84:	8b 50 04             	mov    0x4(%eax),%edx
  102c87:	8b 45 0c             	mov    0xc(%ebp),%eax
  102c8a:	8b 40 08             	mov    0x8(%eax),%eax
  102c8d:	39 c2                	cmp    %eax,%edx
  102c8f:	0f 84 9e 00 00 00    	je     102d33 <insert_ordered_array+0xdf>
  102c95:	c7 45 f4 00 00 00 00 	movl   $0x0,-0xc(%ebp)
  102c9c:	eb 04                	jmp    102ca2 <insert_ordered_array+0x4e>
  102c9e:	83 45 f4 01          	addl   $0x1,-0xc(%ebp)
  102ca2:	8b 45 0c             	mov    0xc(%ebp),%eax
  102ca5:	8b 50 04             	mov    0x4(%eax),%edx
  102ca8:	8b 45 f4             	mov    -0xc(%ebp),%eax
  102cab:	39 c2                	cmp    %eax,%edx
  102cad:	76 25                	jbe    102cd4 <insert_ordered_array+0x80>
  102caf:	8b 45 0c             	mov    0xc(%ebp),%eax
  102cb2:	8b 40 0c             	mov    0xc(%eax),%eax
  102cb5:	8b 55 0c             	mov    0xc(%ebp),%edx
  102cb8:	8b 12                	mov    (%edx),%edx
  102cba:	8b 4d f4             	mov    -0xc(%ebp),%ecx
  102cbd:	c1 e1 02             	shl    $0x2,%ecx
  102cc0:	01 ca                	add    %ecx,%edx
  102cc2:	8b 12                	mov    (%edx),%edx
  102cc4:	83 ec 08             	sub    $0x8,%esp
  102cc7:	ff 75 08             	pushl  0x8(%ebp)
  102cca:	52                   	push   %edx
  102ccb:	ff d0                	call   *%eax
  102ccd:	83 c4 10             	add    $0x10,%esp
  102cd0:	84 c0                	test   %al,%al
  102cd2:	75 ca                	jne    102c9e <insert_ordered_array+0x4a>
  102cd4:	8b 45 0c             	mov    0xc(%ebp),%eax
  102cd7:	8b 40 04             	mov    0x4(%eax),%eax
  102cda:	89 45 f0             	mov    %eax,-0x10(%ebp)
  102cdd:	eb 29                	jmp    102d08 <insert_ordered_array+0xb4>
  102cdf:	8b 45 0c             	mov    0xc(%ebp),%eax
  102ce2:	8b 00                	mov    (%eax),%eax
  102ce4:	8b 55 f0             	mov    -0x10(%ebp),%edx
  102ce7:	81 c2 ff ff ff 3f    	add    $0x3fffffff,%edx
  102ced:	c1 e2 02             	shl    $0x2,%edx
  102cf0:	8d 0c 10             	lea    (%eax,%edx,1),%ecx
  102cf3:	8b 45 0c             	mov    0xc(%ebp),%eax
  102cf6:	8b 00                	mov    (%eax),%eax
  102cf8:	8b 55 f0             	mov    -0x10(%ebp),%edx
  102cfb:	c1 e2 02             	shl    $0x2,%edx
  102cfe:	01 c2                	add    %eax,%edx
  102d00:	8b 01                	mov    (%ecx),%eax
  102d02:	89 02                	mov    %eax,(%edx)
  102d04:	83 6d f0 01          	subl   $0x1,-0x10(%ebp)
  102d08:	8b 45 f0             	mov    -0x10(%ebp),%eax
  102d0b:	3b 45 f4             	cmp    -0xc(%ebp),%eax
  102d0e:	7f cf                	jg     102cdf <insert_ordered_array+0x8b>
  102d10:	8b 45 0c             	mov    0xc(%ebp),%eax
  102d13:	8b 00                	mov    (%eax),%eax
  102d15:	8b 55 f4             	mov    -0xc(%ebp),%edx
  102d18:	c1 e2 02             	shl    $0x2,%edx
  102d1b:	01 c2                	add    %eax,%edx
  102d1d:	8b 45 08             	mov    0x8(%ebp),%eax
  102d20:	89 02                	mov    %eax,(%edx)
  102d22:	8b 45 0c             	mov    0xc(%ebp),%eax
  102d25:	8b 40 04             	mov    0x4(%eax),%eax
  102d28:	8d 50 01             	lea    0x1(%eax),%edx
  102d2b:	8b 45 0c             	mov    0xc(%ebp),%eax
  102d2e:	89 50 04             	mov    %edx,0x4(%eax)
  102d31:	eb 01                	jmp    102d34 <insert_ordered_array+0xe0>
  102d33:	90                   	nop
  102d34:	c9                   	leave  
  102d35:	c3                   	ret    

00102d36 <lookup_ordered_array>:
  102d36:	55                   	push   %ebp
  102d37:	89 e5                	mov    %esp,%ebp
  102d39:	83 ec 08             	sub    $0x8,%esp
  102d3c:	8b 45 0c             	mov    0xc(%ebp),%eax
  102d3f:	8b 40 04             	mov    0x4(%eax),%eax
  102d42:	39 45 08             	cmp    %eax,0x8(%ebp)
  102d45:	72 17                	jb     102d5e <lookup_ordered_array+0x28>
  102d47:	83 ec 04             	sub    $0x4,%esp
  102d4a:	68 ce 43 10 00       	push   $0x1043ce
  102d4f:	6a 32                	push   $0x32
  102d51:	68 b3 43 10 00       	push   $0x1043b3
  102d56:	e8 17 04 00 00       	call   103172 <panic_assert>
  102d5b:	83 c4 10             	add    $0x10,%esp
  102d5e:	8b 45 0c             	mov    0xc(%ebp),%eax
  102d61:	8b 00                	mov    (%eax),%eax
  102d63:	8b 55 08             	mov    0x8(%ebp),%edx
  102d66:	c1 e2 02             	shl    $0x2,%edx
  102d69:	01 d0                	add    %edx,%eax
  102d6b:	8b 00                	mov    (%eax),%eax
  102d6d:	c9                   	leave  
  102d6e:	c3                   	ret    

00102d6f <remove_ordered_array>:
  102d6f:	55                   	push   %ebp
  102d70:	89 e5                	mov    %esp,%ebp
  102d72:	eb 26                	jmp    102d9a <remove_ordered_array+0x2b>
  102d74:	8b 45 0c             	mov    0xc(%ebp),%eax
  102d77:	8b 00                	mov    (%eax),%eax
  102d79:	8b 55 08             	mov    0x8(%ebp),%edx
  102d7c:	83 c2 01             	add    $0x1,%edx
  102d7f:	c1 e2 02             	shl    $0x2,%edx
  102d82:	8d 0c 10             	lea    (%eax,%edx,1),%ecx
  102d85:	8b 45 0c             	mov    0xc(%ebp),%eax
  102d88:	8b 00                	mov    (%eax),%eax
  102d8a:	8b 55 08             	mov    0x8(%ebp),%edx
  102d8d:	c1 e2 02             	shl    $0x2,%edx
  102d90:	01 c2                	add    %eax,%edx
  102d92:	8b 01                	mov    (%ecx),%eax
  102d94:	89 02                	mov    %eax,(%edx)
  102d96:	83 45 08 01          	addl   $0x1,0x8(%ebp)
  102d9a:	8b 45 0c             	mov    0xc(%ebp),%eax
  102d9d:	8b 40 04             	mov    0x4(%eax),%eax
  102da0:	83 e8 01             	sub    $0x1,%eax
  102da3:	39 45 08             	cmp    %eax,0x8(%ebp)
  102da6:	72 cc                	jb     102d74 <remove_ordered_array+0x5>
  102da8:	8b 45 0c             	mov    0xc(%ebp),%eax
  102dab:	8b 40 04             	mov    0x4(%eax),%eax
  102dae:	8d 50 ff             	lea    -0x1(%eax),%edx
  102db1:	8b 45 0c             	mov    0xc(%ebp),%eax
  102db4:	89 50 04             	mov    %edx,0x4(%eax)
  102db7:	90                   	nop
  102db8:	5d                   	pop    %ebp
  102db9:	c3                   	ret    

00102dba <print_char>:
  102dba:	55                   	push   %ebp
  102dbb:	89 e5                	mov    %esp,%ebp
  102dbd:	83 ec 28             	sub    $0x28,%esp
  102dc0:	8b 45 08             	mov    0x8(%ebp),%eax
  102dc3:	88 45 e4             	mov    %al,-0x1c(%ebp)
  102dc6:	e8 2b f2 ff ff       	call   101ff6 <fb_get_cursor>
  102dcb:	66 89 45 f6          	mov    %ax,-0xa(%ebp)
  102dcf:	80 7d e4 0a          	cmpb   $0xa,-0x1c(%ebp)
  102dd3:	75 27                	jne    102dfc <print_char+0x42>
  102dd5:	0f b7 45 f6          	movzwl -0xa(%ebp),%eax
  102dd9:	0f b7 c0             	movzwl %ax,%eax
  102ddc:	69 c0 cd cc 00 00    	imul   $0xcccd,%eax,%eax
  102de2:	c1 e8 10             	shr    $0x10,%eax
  102de5:	66 c1 e8 06          	shr    $0x6,%ax
  102de9:	8d 50 01             	lea    0x1(%eax),%edx
  102dec:	89 d0                	mov    %edx,%eax
  102dee:	c1 e0 02             	shl    $0x2,%eax
  102df1:	01 d0                	add    %edx,%eax
  102df3:	c1 e0 04             	shl    $0x4,%eax
  102df6:	66 89 45 f6          	mov    %ax,-0xa(%ebp)
  102dfa:	eb 20                	jmp    102e1c <print_char+0x62>
  102dfc:	0f b7 55 f6          	movzwl -0xa(%ebp),%edx
  102e00:	0f be 45 e4          	movsbl -0x1c(%ebp),%eax
  102e04:	83 ec 08             	sub    $0x8,%esp
  102e07:	52                   	push   %edx
  102e08:	50                   	push   %eax
  102e09:	e8 b1 f2 ff ff       	call   1020bf <fb_write>
  102e0e:	83 c4 10             	add    $0x10,%esp
  102e11:	0f b7 45 f6          	movzwl -0xa(%ebp),%eax
  102e15:	83 c0 01             	add    $0x1,%eax
  102e18:	66 89 45 f6          	mov    %ax,-0xa(%ebp)
  102e1c:	0f b7 45 f6          	movzwl -0xa(%ebp),%eax
  102e20:	83 ec 0c             	sub    $0xc,%esp
  102e23:	50                   	push   %eax
  102e24:	e8 cc f2 ff ff       	call   1020f5 <fb_scroll>
  102e29:	83 c4 10             	add    $0x10,%esp
  102e2c:	66 89 45 f6          	mov    %ax,-0xa(%ebp)
  102e30:	0f b7 45 f6          	movzwl -0xa(%ebp),%eax
  102e34:	83 ec 0c             	sub    $0xc,%esp
  102e37:	50                   	push   %eax
  102e38:	e8 1a f2 ff ff       	call   102057 <fb_set_cursor>
  102e3d:	83 c4 10             	add    $0x10,%esp
  102e40:	90                   	nop
  102e41:	c9                   	leave  
  102e42:	c3                   	ret    

00102e43 <print_string>:
  102e43:	55                   	push   %ebp
  102e44:	89 e5                	mov    %esp,%ebp
  102e46:	83 ec 18             	sub    $0x18,%esp
  102e49:	e8 a8 f1 ff ff       	call   101ff6 <fb_get_cursor>
  102e4e:	66 89 45 f6          	mov    %ax,-0xa(%ebp)
  102e52:	c7 45 f0 00 00 00 00 	movl   $0x0,-0x10(%ebp)
  102e59:	eb 78                	jmp    102ed3 <print_string+0x90>
  102e5b:	8b 55 f0             	mov    -0x10(%ebp),%edx
  102e5e:	8b 45 08             	mov    0x8(%ebp),%eax
  102e61:	01 d0                	add    %edx,%eax
  102e63:	0f b6 00             	movzbl (%eax),%eax
  102e66:	3c 0a                	cmp    $0xa,%al
  102e68:	75 27                	jne    102e91 <print_string+0x4e>
  102e6a:	0f b7 45 f6          	movzwl -0xa(%ebp),%eax
  102e6e:	0f b7 c0             	movzwl %ax,%eax
  102e71:	69 c0 cd cc 00 00    	imul   $0xcccd,%eax,%eax
  102e77:	c1 e8 10             	shr    $0x10,%eax
  102e7a:	66 c1 e8 06          	shr    $0x6,%ax
  102e7e:	8d 50 01             	lea    0x1(%eax),%edx
  102e81:	89 d0                	mov    %edx,%eax
  102e83:	c1 e0 02             	shl    $0x2,%eax
  102e86:	01 d0                	add    %edx,%eax
  102e88:	c1 e0 04             	shl    $0x4,%eax
  102e8b:	66 89 45 f6          	mov    %ax,-0xa(%ebp)
  102e8f:	eb 2a                	jmp    102ebb <print_string+0x78>
  102e91:	0f b7 55 f6          	movzwl -0xa(%ebp),%edx
  102e95:	8b 4d f0             	mov    -0x10(%ebp),%ecx
  102e98:	8b 45 08             	mov    0x8(%ebp),%eax
  102e9b:	01 c8                	add    %ecx,%eax
  102e9d:	0f b6 00             	movzbl (%eax),%eax
  102ea0:	0f be c0             	movsbl %al,%eax
  102ea3:	83 ec 08             	sub    $0x8,%esp
  102ea6:	52                   	push   %edx
  102ea7:	50                   	push   %eax
  102ea8:	e8 12 f2 ff ff       	call   1020bf <fb_write>
  102ead:	83 c4 10             	add    $0x10,%esp
  102eb0:	0f b7 45 f6          	movzwl -0xa(%ebp),%eax
  102eb4:	83 c0 01             	add    $0x1,%eax
  102eb7:	66 89 45 f6          	mov    %ax,-0xa(%ebp)
  102ebb:	0f b7 45 f6          	movzwl -0xa(%ebp),%eax
  102ebf:	83 ec 0c             	sub    $0xc,%esp
  102ec2:	50                   	push   %eax
  102ec3:	e8 2d f2 ff ff       	call   1020f5 <fb_scroll>
  102ec8:	83 c4 10             	add    $0x10,%esp
  102ecb:	66 89 45 f6          	mov    %ax,-0xa(%ebp)
  102ecf:	83 45 f0 01          	addl   $0x1,-0x10(%ebp)
  102ed3:	8b 55 f0             	mov    -0x10(%ebp),%edx
  102ed6:	8b 45 08             	mov    0x8(%ebp),%eax
  102ed9:	01 d0                	add    %edx,%eax
  102edb:	0f b6 00             	movzbl (%eax),%eax
  102ede:	84 c0                	test   %al,%al
  102ee0:	0f 85 75 ff ff ff    	jne    102e5b <print_string+0x18>
  102ee6:	0f b7 45 f6          	movzwl -0xa(%ebp),%eax
  102eea:	83 ec 0c             	sub    $0xc,%esp
  102eed:	50                   	push   %eax
  102eee:	e8 64 f1 ff ff       	call   102057 <fb_set_cursor>
  102ef3:	83 c4 10             	add    $0x10,%esp
  102ef6:	90                   	nop
  102ef7:	c9                   	leave  
  102ef8:	c3                   	ret    

00102ef9 <print_decimal>:
  102ef9:	55                   	push   %ebp
  102efa:	89 e5                	mov    %esp,%ebp
  102efc:	83 ec 68             	sub    $0x68,%esp
  102eff:	c7 45 f4 00 00 00 00 	movl   $0x0,-0xc(%ebp)
  102f06:	83 7d 08 00          	cmpl   $0x0,0x8(%ebp)
  102f0a:	79 0a                	jns    102f16 <print_decimal+0x1d>
  102f0c:	f7 5d 08             	negl   0x8(%ebp)
  102f0f:	c7 45 f4 01 00 00 00 	movl   $0x1,-0xc(%ebp)
  102f16:	c7 45 f0 00 00 00 00 	movl   $0x0,-0x10(%ebp)
  102f1d:	8b 4d 08             	mov    0x8(%ebp),%ecx
  102f20:	ba 67 66 66 66       	mov    $0x66666667,%edx
  102f25:	89 c8                	mov    %ecx,%eax
  102f27:	f7 ea                	imul   %edx
  102f29:	c1 fa 02             	sar    $0x2,%edx
  102f2c:	89 c8                	mov    %ecx,%eax
  102f2e:	c1 f8 1f             	sar    $0x1f,%eax
  102f31:	29 c2                	sub    %eax,%edx
  102f33:	89 d0                	mov    %edx,%eax
  102f35:	c1 e0 02             	shl    $0x2,%eax
  102f38:	01 d0                	add    %edx,%eax
  102f3a:	01 c0                	add    %eax,%eax
  102f3c:	29 c1                	sub    %eax,%ecx
  102f3e:	89 ca                	mov    %ecx,%edx
  102f40:	89 d0                	mov    %edx,%eax
  102f42:	83 c0 30             	add    $0x30,%eax
  102f45:	89 c1                	mov    %eax,%ecx
  102f47:	8d 55 c9             	lea    -0x37(%ebp),%edx
  102f4a:	8b 45 f0             	mov    -0x10(%ebp),%eax
  102f4d:	01 d0                	add    %edx,%eax
  102f4f:	88 08                	mov    %cl,(%eax)
  102f51:	83 45 f0 01          	addl   $0x1,-0x10(%ebp)
  102f55:	8b 4d 08             	mov    0x8(%ebp),%ecx
  102f58:	ba 67 66 66 66       	mov    $0x66666667,%edx
  102f5d:	89 c8                	mov    %ecx,%eax
  102f5f:	f7 ea                	imul   %edx
  102f61:	c1 fa 02             	sar    $0x2,%edx
  102f64:	89 c8                	mov    %ecx,%eax
  102f66:	c1 f8 1f             	sar    $0x1f,%eax
  102f69:	29 c2                	sub    %eax,%edx
  102f6b:	89 d0                	mov    %edx,%eax
  102f6d:	89 45 08             	mov    %eax,0x8(%ebp)
  102f70:	eb 53                	jmp    102fc5 <print_decimal+0xcc>
  102f72:	8b 4d 08             	mov    0x8(%ebp),%ecx
  102f75:	ba 67 66 66 66       	mov    $0x66666667,%edx
  102f7a:	89 c8                	mov    %ecx,%eax
  102f7c:	f7 ea                	imul   %edx
  102f7e:	c1 fa 02             	sar    $0x2,%edx
  102f81:	89 c8                	mov    %ecx,%eax
  102f83:	c1 f8 1f             	sar    $0x1f,%eax
  102f86:	29 c2                	sub    %eax,%edx
  102f88:	89 d0                	mov    %edx,%eax
  102f8a:	c1 e0 02             	shl    $0x2,%eax
  102f8d:	01 d0                	add    %edx,%eax
  102f8f:	01 c0                	add    %eax,%eax
  102f91:	29 c1                	sub    %eax,%ecx
  102f93:	89 ca                	mov    %ecx,%edx
  102f95:	89 d0                	mov    %edx,%eax
  102f97:	83 c0 30             	add    $0x30,%eax
  102f9a:	89 c1                	mov    %eax,%ecx
  102f9c:	8d 55 c9             	lea    -0x37(%ebp),%edx
  102f9f:	8b 45 f0             	mov    -0x10(%ebp),%eax
  102fa2:	01 d0                	add    %edx,%eax
  102fa4:	88 08                	mov    %cl,(%eax)
  102fa6:	8b 4d 08             	mov    0x8(%ebp),%ecx
  102fa9:	ba 67 66 66 66       	mov    $0x66666667,%edx
  102fae:	89 c8                	mov    %ecx,%eax
  102fb0:	f7 ea                	imul   %edx
  102fb2:	c1 fa 02             	sar    $0x2,%edx
  102fb5:	89 c8                	mov    %ecx,%eax
  102fb7:	c1 f8 1f             	sar    $0x1f,%eax
  102fba:	29 c2                	sub    %eax,%edx
  102fbc:	89 d0                	mov    %edx,%eax
  102fbe:	89 45 08             	mov    %eax,0x8(%ebp)
  102fc1:	83 45 f0 01          	addl   $0x1,-0x10(%ebp)
  102fc5:	83 7d 08 00          	cmpl   $0x0,0x8(%ebp)
  102fc9:	75 a7                	jne    102f72 <print_decimal+0x79>
  102fcb:	83 6d f0 01          	subl   $0x1,-0x10(%ebp)
  102fcf:	c7 45 ec 00 00 00 00 	movl   $0x0,-0x14(%ebp)
  102fd6:	83 7d f4 01          	cmpl   $0x1,-0xc(%ebp)
  102fda:	75 2c                	jne    103008 <print_decimal+0x10f>
  102fdc:	8d 55 a6             	lea    -0x5a(%ebp),%edx
  102fdf:	8b 45 ec             	mov    -0x14(%ebp),%eax
  102fe2:	01 d0                	add    %edx,%eax
  102fe4:	c6 00 2d             	movb   $0x2d,(%eax)
  102fe7:	83 45 ec 01          	addl   $0x1,-0x14(%ebp)
  102feb:	eb 1b                	jmp    103008 <print_decimal+0x10f>
  102fed:	8b 55 f0             	mov    -0x10(%ebp),%edx
  102ff0:	8d 42 ff             	lea    -0x1(%edx),%eax
  102ff3:	89 45 f0             	mov    %eax,-0x10(%ebp)
  102ff6:	8b 45 ec             	mov    -0x14(%ebp),%eax
  102ff9:	8d 48 01             	lea    0x1(%eax),%ecx
  102ffc:	89 4d ec             	mov    %ecx,-0x14(%ebp)
  102fff:	0f b6 54 15 c9       	movzbl -0x37(%ebp,%edx,1),%edx
  103004:	88 54 05 a6          	mov    %dl,-0x5a(%ebp,%eax,1)
  103008:	83 7d f0 00          	cmpl   $0x0,-0x10(%ebp)
  10300c:	79 df                	jns    102fed <print_decimal+0xf4>
  10300e:	8d 55 a6             	lea    -0x5a(%ebp),%edx
  103011:	8b 45 ec             	mov    -0x14(%ebp),%eax
  103014:	01 d0                	add    %edx,%eax
  103016:	c6 00 00             	movb   $0x0,(%eax)
  103019:	83 ec 0c             	sub    $0xc,%esp
  10301c:	8d 45 a6             	lea    -0x5a(%ebp),%eax
  10301f:	50                   	push   %eax
  103020:	e8 1e fe ff ff       	call   102e43 <print_string>
  103025:	83 c4 10             	add    $0x10,%esp
  103028:	90                   	nop
  103029:	c9                   	leave  
  10302a:	c3                   	ret    

0010302b <print_hex>:
  10302b:	55                   	push   %ebp
  10302c:	89 e5                	mov    %esp,%ebp
  10302e:	83 ec 68             	sub    $0x68,%esp
  103031:	c7 45 f4 00 00 00 00 	movl   $0x0,-0xc(%ebp)
  103038:	c7 45 ec 00 00 00 00 	movl   $0x0,-0x14(%ebp)
  10303f:	83 7d 08 00          	cmpl   $0x0,0x8(%ebp)
  103043:	75 5d                	jne    1030a2 <print_hex+0x77>
  103045:	c6 45 c9 30          	movb   $0x30,-0x37(%ebp)
  103049:	c6 45 ca 78          	movb   $0x78,-0x36(%ebp)
  10304d:	c6 45 cb 30          	movb   $0x30,-0x35(%ebp)
  103051:	83 ec 0c             	sub    $0xc,%esp
  103054:	8d 45 c9             	lea    -0x37(%ebp),%eax
  103057:	50                   	push   %eax
  103058:	e8 e6 fd ff ff       	call   102e43 <print_string>
  10305d:	83 c4 10             	add    $0x10,%esp
  103060:	e9 97 00 00 00       	jmp    1030fc <print_hex+0xd1>
  103065:	8b 45 08             	mov    0x8(%ebp),%eax
  103068:	83 e0 0f             	and    $0xf,%eax
  10306b:	89 45 ec             	mov    %eax,-0x14(%ebp)
  10306e:	83 7d ec 09          	cmpl   $0x9,-0x14(%ebp)
  103072:	7f 14                	jg     103088 <print_hex+0x5d>
  103074:	8b 45 ec             	mov    -0x14(%ebp),%eax
  103077:	83 c0 30             	add    $0x30,%eax
  10307a:	89 c1                	mov    %eax,%ecx
  10307c:	8d 55 c9             	lea    -0x37(%ebp),%edx
  10307f:	8b 45 f4             	mov    -0xc(%ebp),%eax
  103082:	01 d0                	add    %edx,%eax
  103084:	88 08                	mov    %cl,(%eax)
  103086:	eb 12                	jmp    10309a <print_hex+0x6f>
  103088:	8b 45 ec             	mov    -0x14(%ebp),%eax
  10308b:	83 c0 37             	add    $0x37,%eax
  10308e:	89 c1                	mov    %eax,%ecx
  103090:	8d 55 c9             	lea    -0x37(%ebp),%edx
  103093:	8b 45 f4             	mov    -0xc(%ebp),%eax
  103096:	01 d0                	add    %edx,%eax
  103098:	88 08                	mov    %cl,(%eax)
  10309a:	c1 6d 08 04          	shrl   $0x4,0x8(%ebp)
  10309e:	83 45 f4 01          	addl   $0x1,-0xc(%ebp)
  1030a2:	83 7d 08 00          	cmpl   $0x0,0x8(%ebp)
  1030a6:	75 bd                	jne    103065 <print_hex+0x3a>
  1030a8:	83 6d f4 01          	subl   $0x1,-0xc(%ebp)
  1030ac:	c7 45 f0 00 00 00 00 	movl   $0x0,-0x10(%ebp)
  1030b3:	c6 45 a6 30          	movb   $0x30,-0x5a(%ebp)
  1030b7:	c6 45 a7 78          	movb   $0x78,-0x59(%ebp)
  1030bb:	83 45 f0 02          	addl   $0x2,-0x10(%ebp)
  1030bf:	eb 1b                	jmp    1030dc <print_hex+0xb1>
  1030c1:	8b 55 f4             	mov    -0xc(%ebp),%edx
  1030c4:	8d 42 ff             	lea    -0x1(%edx),%eax
  1030c7:	89 45 f4             	mov    %eax,-0xc(%ebp)
  1030ca:	8b 45 f0             	mov    -0x10(%ebp),%eax
  1030cd:	8d 48 01             	lea    0x1(%eax),%ecx
  1030d0:	89 4d f0             	mov    %ecx,-0x10(%ebp)
  1030d3:	0f b6 54 15 c9       	movzbl -0x37(%ebp,%edx,1),%edx
  1030d8:	88 54 05 a6          	mov    %dl,-0x5a(%ebp,%eax,1)
  1030dc:	83 7d f4 00          	cmpl   $0x0,-0xc(%ebp)
  1030e0:	79 df                	jns    1030c1 <print_hex+0x96>
  1030e2:	8d 55 a6             	lea    -0x5a(%ebp),%edx
  1030e5:	8b 45 f0             	mov    -0x10(%ebp),%eax
  1030e8:	01 d0                	add    %edx,%eax
  1030ea:	c6 00 00             	movb   $0x0,(%eax)
  1030ed:	83 ec 0c             	sub    $0xc,%esp
  1030f0:	8d 45 a6             	lea    -0x5a(%ebp),%eax
  1030f3:	50                   	push   %eax
  1030f4:	e8 4a fd ff ff       	call   102e43 <print_string>
  1030f9:	83 c4 10             	add    $0x10,%esp
  1030fc:	c9                   	leave  
  1030fd:	c3                   	ret    

001030fe <panic>:
  1030fe:	55                   	push   %ebp
  1030ff:	89 e5                	mov    %esp,%ebp
  103101:	83 ec 08             	sub    $0x8,%esp
  103104:	fa                   	cli    
  103105:	83 ec 0c             	sub    $0xc,%esp
  103108:	68 de 43 10 00       	push   $0x1043de
  10310d:	e8 31 fd ff ff       	call   102e43 <print_string>
  103112:	83 c4 10             	add    $0x10,%esp
  103115:	83 ec 0c             	sub    $0xc,%esp
  103118:	ff 75 08             	pushl  0x8(%ebp)
  10311b:	e8 23 fd ff ff       	call   102e43 <print_string>
  103120:	83 c4 10             	add    $0x10,%esp
  103123:	83 ec 0c             	sub    $0xc,%esp
  103126:	68 e5 43 10 00       	push   $0x1043e5
  10312b:	e8 13 fd ff ff       	call   102e43 <print_string>
  103130:	83 c4 10             	add    $0x10,%esp
  103133:	83 ec 0c             	sub    $0xc,%esp
  103136:	ff 75 0c             	pushl  0xc(%ebp)
  103139:	e8 05 fd ff ff       	call   102e43 <print_string>
  10313e:	83 c4 10             	add    $0x10,%esp
  103141:	83 ec 0c             	sub    $0xc,%esp
  103144:	68 eb 43 10 00       	push   $0x1043eb
  103149:	e8 f5 fc ff ff       	call   102e43 <print_string>
  10314e:	83 c4 10             	add    $0x10,%esp
  103151:	8b 45 10             	mov    0x10(%ebp),%eax
  103154:	83 ec 0c             	sub    $0xc,%esp
  103157:	50                   	push   %eax
  103158:	e8 9c fd ff ff       	call   102ef9 <print_decimal>
  10315d:	83 c4 10             	add    $0x10,%esp
  103160:	83 ec 0c             	sub    $0xc,%esp
  103163:	68 ed 43 10 00       	push   $0x1043ed
  103168:	e8 d6 fc ff ff       	call   102e43 <print_string>
  10316d:	83 c4 10             	add    $0x10,%esp
  103170:	eb fe                	jmp    103170 <panic+0x72>

00103172 <panic_assert>:
  103172:	55                   	push   %ebp
  103173:	89 e5                	mov    %esp,%ebp
  103175:	83 ec 08             	sub    $0x8,%esp
  103178:	fa                   	cli    
  103179:	83 ec 0c             	sub    $0xc,%esp
  10317c:	68 ef 43 10 00       	push   $0x1043ef
  103181:	e8 bd fc ff ff       	call   102e43 <print_string>
  103186:	83 c4 10             	add    $0x10,%esp
  103189:	83 ec 0c             	sub    $0xc,%esp
  10318c:	ff 75 10             	pushl  0x10(%ebp)
  10318f:	e8 af fc ff ff       	call   102e43 <print_string>
  103194:	83 c4 10             	add    $0x10,%esp
  103197:	83 ec 0c             	sub    $0xc,%esp
  10319a:	68 e5 43 10 00       	push   $0x1043e5
  10319f:	e8 9f fc ff ff       	call   102e43 <print_string>
  1031a4:	83 c4 10             	add    $0x10,%esp
  1031a7:	83 ec 0c             	sub    $0xc,%esp
  1031aa:	ff 75 08             	pushl  0x8(%ebp)
  1031ad:	e8 91 fc ff ff       	call   102e43 <print_string>
  1031b2:	83 c4 10             	add    $0x10,%esp
  1031b5:	83 ec 0c             	sub    $0xc,%esp
  1031b8:	68 eb 43 10 00       	push   $0x1043eb
  1031bd:	e8 81 fc ff ff       	call   102e43 <print_string>
  1031c2:	83 c4 10             	add    $0x10,%esp
  1031c5:	8b 45 0c             	mov    0xc(%ebp),%eax
  1031c8:	83 ec 0c             	sub    $0xc,%esp
  1031cb:	50                   	push   %eax
  1031cc:	e8 28 fd ff ff       	call   102ef9 <print_decimal>
  1031d1:	83 c4 10             	add    $0x10,%esp
  1031d4:	83 ec 0c             	sub    $0xc,%esp
  1031d7:	68 ed 43 10 00       	push   $0x1043ed
  1031dc:	e8 62 fc ff ff       	call   102e43 <print_string>
  1031e1:	83 c4 10             	add    $0x10,%esp
  1031e4:	eb fe                	jmp    1031e4 <panic_assert+0x72>

001031e6 <strcpy>:
  1031e6:	55                   	push   %ebp
  1031e7:	89 e5                	mov    %esp,%ebp
  1031e9:	83 ec 10             	sub    $0x10,%esp
  1031ec:	8b 45 08             	mov    0x8(%ebp),%eax
  1031ef:	3b 45 0c             	cmp    0xc(%ebp),%eax
  1031f2:	74 30                	je     103224 <strcpy+0x3e>
  1031f4:	c7 45 fc 00 00 00 00 	movl   $0x0,-0x4(%ebp)
  1031fb:	eb 17                	jmp    103214 <strcpy+0x2e>
  1031fd:	8b 55 0c             	mov    0xc(%ebp),%edx
  103200:	8d 42 01             	lea    0x1(%edx),%eax
  103203:	89 45 0c             	mov    %eax,0xc(%ebp)
  103206:	8b 45 08             	mov    0x8(%ebp),%eax
  103209:	8d 48 01             	lea    0x1(%eax),%ecx
  10320c:	89 4d 08             	mov    %ecx,0x8(%ebp)
  10320f:	0f b6 12             	movzbl (%edx),%edx
  103212:	88 10                	mov    %dl,(%eax)
  103214:	8b 45 0c             	mov    0xc(%ebp),%eax
  103217:	0f b6 00             	movzbl (%eax),%eax
  10321a:	84 c0                	test   %al,%al
  10321c:	75 df                	jne    1031fd <strcpy+0x17>
  10321e:	8b 45 08             	mov    0x8(%ebp),%eax
  103221:	c6 00 00             	movb   $0x0,(%eax)
  103224:	90                   	nop
  103225:	c9                   	leave  
  103226:	c3                   	ret    

00103227 <strcmp>:
  103227:	55                   	push   %ebp
  103228:	89 e5                	mov    %esp,%ebp
  10322a:	83 ec 10             	sub    $0x10,%esp
  10322d:	8b 45 08             	mov    0x8(%ebp),%eax
  103230:	89 45 fc             	mov    %eax,-0x4(%ebp)
  103233:	8b 45 0c             	mov    0xc(%ebp),%eax
  103236:	89 45 f8             	mov    %eax,-0x8(%ebp)
  103239:	8b 45 fc             	mov    -0x4(%ebp),%eax
  10323c:	8d 50 01             	lea    0x1(%eax),%edx
  10323f:	89 55 fc             	mov    %edx,-0x4(%ebp)
  103242:	0f b6 00             	movzbl (%eax),%eax
  103245:	88 45 f7             	mov    %al,-0x9(%ebp)
  103248:	8b 45 f8             	mov    -0x8(%ebp),%eax
  10324b:	8d 50 01             	lea    0x1(%eax),%edx
  10324e:	89 55 f8             	mov    %edx,-0x8(%ebp)
  103251:	0f b6 00             	movzbl (%eax),%eax
  103254:	88 45 f6             	mov    %al,-0xa(%ebp)
  103257:	80 7d f7 00          	cmpb   $0x0,-0x9(%ebp)
  10325b:	75 0e                	jne    10326b <strcmp+0x44>
  10325d:	0f b6 55 f7          	movzbl -0x9(%ebp),%edx
  103261:	0f b6 45 f6          	movzbl -0xa(%ebp),%eax
  103265:	29 c2                	sub    %eax,%edx
  103267:	89 d0                	mov    %edx,%eax
  103269:	eb 15                	jmp    103280 <strcmp+0x59>
  10326b:	0f b6 45 f7          	movzbl -0x9(%ebp),%eax
  10326f:	3a 45 f6             	cmp    -0xa(%ebp),%al
  103272:	74 c5                	je     103239 <strcmp+0x12>
  103274:	0f b6 55 f7          	movzbl -0x9(%ebp),%edx
  103278:	0f b6 45 f6          	movzbl -0xa(%ebp),%eax
  10327c:	29 c2                	sub    %eax,%edx
  10327e:	89 d0                	mov    %edx,%eax
  103280:	c9                   	leave  
  103281:	c3                   	ret    

00103282 <strlen>:
  103282:	55                   	push   %ebp
  103283:	89 e5                	mov    %esp,%ebp
  103285:	83 ec 10             	sub    $0x10,%esp
  103288:	c7 45 fc 00 00 00 00 	movl   $0x0,-0x4(%ebp)
  10328f:	eb 04                	jmp    103295 <strlen+0x13>
  103291:	83 45 fc 01          	addl   $0x1,-0x4(%ebp)
  103295:	8b 55 fc             	mov    -0x4(%ebp),%edx
  103298:	8b 45 08             	mov    0x8(%ebp),%eax
  10329b:	01 d0                	add    %edx,%eax
  10329d:	0f b6 00             	movzbl (%eax),%eax
  1032a0:	84 c0                	test   %al,%al
  1032a2:	75 ed                	jne    103291 <strlen+0xf>
  1032a4:	8b 45 fc             	mov    -0x4(%ebp),%eax
  1032a7:	c9                   	leave  
  1032a8:	c3                   	ret    

001032a9 <memcpy>:
  1032a9:	55                   	push   %ebp
  1032aa:	89 e5                	mov    %esp,%ebp
  1032ac:	83 ec 10             	sub    $0x10,%esp
  1032af:	8b 45 0c             	mov    0xc(%ebp),%eax
  1032b2:	89 45 fc             	mov    %eax,-0x4(%ebp)
  1032b5:	c7 45 f8 00 00 00 00 	movl   $0x0,-0x8(%ebp)
  1032bc:	eb 1b                	jmp    1032d9 <memcpy+0x30>
  1032be:	8b 55 fc             	mov    -0x4(%ebp),%edx
  1032c1:	8d 42 01             	lea    0x1(%edx),%eax
  1032c4:	89 45 fc             	mov    %eax,-0x4(%ebp)
  1032c7:	8b 45 08             	mov    0x8(%ebp),%eax
  1032ca:	8d 48 01             	lea    0x1(%eax),%ecx
  1032cd:	89 4d 08             	mov    %ecx,0x8(%ebp)
  1032d0:	0f b6 12             	movzbl (%edx),%edx
  1032d3:	88 10                	mov    %dl,(%eax)
  1032d5:	83 45 f8 01          	addl   $0x1,-0x8(%ebp)
  1032d9:	8b 45 f8             	mov    -0x8(%ebp),%eax
  1032dc:	39 45 10             	cmp    %eax,0x10(%ebp)
  1032df:	77 dd                	ja     1032be <memcpy+0x15>
  1032e1:	90                   	nop
  1032e2:	90                   	nop
  1032e3:	c9                   	leave  
  1032e4:	c3                   	ret    

001032e5 <memset>:
  1032e5:	55                   	push   %ebp
  1032e6:	89 e5                	mov    %esp,%ebp
  1032e8:	83 ec 04             	sub    $0x4,%esp
  1032eb:	8b 45 0c             	mov    0xc(%ebp),%eax
  1032ee:	88 45 fc             	mov    %al,-0x4(%ebp)
  1032f1:	eb 13                	jmp    103306 <memset+0x21>
  1032f3:	8b 45 08             	mov    0x8(%ebp),%eax
  1032f6:	8d 50 01             	lea    0x1(%eax),%edx
  1032f9:	89 55 08             	mov    %edx,0x8(%ebp)
  1032fc:	0f b6 55 fc          	movzbl -0x4(%ebp),%edx
  103300:	88 10                	mov    %dl,(%eax)
  103302:	83 6d 10 01          	subl   $0x1,0x10(%ebp)
  103306:	83 7d 10 00          	cmpl   $0x0,0x10(%ebp)
  10330a:	75 e7                	jne    1032f3 <memset+0xe>
  10330c:	90                   	nop
  10330d:	90                   	nop
  10330e:	c9                   	leave  
  10330f:	c3                   	ret    

00103310 <copy_page_physical>:
  103310:	53                   	push   %ebx
  103311:	9c                   	pushf  
  103312:	fa                   	cli    
  103313:	8b 5c 24 0c          	mov    0xc(%esp),%ebx
  103317:	8b 4c 24 10          	mov    0x10(%esp),%ecx
  10331b:	0f 20 c2             	mov    %cr0,%edx
  10331e:	81 e2 ff ff ff 7f    	and    $0x7fffffff,%edx
  103324:	0f 22 c2             	mov    %edx,%cr0
  103327:	ba 00 04 00 00       	mov    $0x400,%edx

0010332c <copy_page_physical.loop>:
  10332c:	8b 03                	mov    (%ebx),%eax
  10332e:	89 01                	mov    %eax,(%ecx)
  103330:	83 c3 04             	add    $0x4,%ebx
  103333:	83 c1 04             	add    $0x4,%ecx
  103336:	4a                   	dec    %edx
  103337:	75 f3                	jne    10332c <copy_page_physical.loop>
  103339:	0f 20 c2             	mov    %cr0,%edx
  10333c:	81 ca 00 00 00 80    	or     $0x80000000,%edx
  103342:	0f 22 c2             	mov    %edx,%cr0
  103345:	9d                   	popf   
  103346:	5b                   	pop    %ebx
  103347:	c3                   	ret    
  103348:	66 90                	xchg   %ax,%ax
  10334a:	66 90                	xchg   %ax,%ax
  10334c:	66 90                	xchg   %ax,%ax
  10334e:	66 90                	xchg   %ax,%ax

00103350 <read_eip>:
  103350:	58                   	pop    %eax
  103351:	ff e0                	jmp    *%eax
  103353:	66 90                	xchg   %ax,%ax
  103355:	66 90                	xchg   %ax,%ax
  103357:	66 90                	xchg   %ax,%ax
  103359:	66 90                	xchg   %ax,%ax
  10335b:	66 90                	xchg   %ax,%ax
  10335d:	66 90                	xchg   %ax,%ax
  10335f:	90                   	nop

00103360 <load_gdt>:
  103360:	8b 44 24 04          	mov    0x4(%esp),%eax
  103364:	0f 01 10             	lgdtl  (%eax)
  103367:	66 b8 10 00          	mov    $0x10,%ax
  10336b:	8e d8                	mov    %eax,%ds
  10336d:	8e c0                	mov    %eax,%es
  10336f:	8e e0                	mov    %eax,%fs
  103371:	8e e8                	mov    %eax,%gs
  103373:	8e d0                	mov    %eax,%ss
  103375:	ea 7c 33 10 00 08 00 	ljmp   $0x8,$0x10337c

0010337c <flush>:
  10337c:	c3                   	ret    
  10337d:	66 90                	xchg   %ax,%ax
  10337f:	90                   	nop

00103380 <load_idt>:
  103380:	8b 44 24 04          	mov    0x4(%esp),%eax
  103384:	0f 01 18             	lidtl  (%eax)
  103387:	c3                   	ret    
  103388:	66 90                	xchg   %ax,%ax
  10338a:	66 90                	xchg   %ax,%ax
  10338c:	66 90                	xchg   %ax,%ax
  10338e:	66 90                	xchg   %ax,%ax

00103390 <isr0>:
  103390:	fa                   	cli    
  103391:	6a 00                	push   $0x0
  103393:	6a 00                	push   $0x0
  103395:	e9 a0 01 00 00       	jmp    10353a <isr_common_stub>

0010339a <isr1>:
  10339a:	fa                   	cli    
  10339b:	6a 00                	push   $0x0
  10339d:	6a 01                	push   $0x1
  10339f:	e9 96 01 00 00       	jmp    10353a <isr_common_stub>

001033a4 <isr2>:
  1033a4:	fa                   	cli    
  1033a5:	6a 00                	push   $0x0
  1033a7:	6a 02                	push   $0x2
  1033a9:	e9 8c 01 00 00       	jmp    10353a <isr_common_stub>

001033ae <isr3>:
  1033ae:	fa                   	cli    
  1033af:	6a 00                	push   $0x0
  1033b1:	6a 03                	push   $0x3
  1033b3:	e9 82 01 00 00       	jmp    10353a <isr_common_stub>

001033b8 <isr4>:
  1033b8:	fa                   	cli    
  1033b9:	6a 00                	push   $0x0
  1033bb:	6a 04                	push   $0x4
  1033bd:	e9 78 01 00 00       	jmp    10353a <isr_common_stub>

001033c2 <isr5>:
  1033c2:	fa                   	cli    
  1033c3:	6a 00                	push   $0x0
  1033c5:	6a 05                	push   $0x5
  1033c7:	e9 6e 01 00 00       	jmp    10353a <isr_common_stub>

001033cc <isr6>:
  1033cc:	fa                   	cli    
  1033cd:	6a 00                	push   $0x0
  1033cf:	6a 06                	push   $0x6
  1033d1:	e9 64 01 00 00       	jmp    10353a <isr_common_stub>

001033d6 <isr7>:
  1033d6:	fa                   	cli    
  1033d7:	6a 00                	push   $0x0
  1033d9:	6a 07                	push   $0x7
  1033db:	e9 5a 01 00 00       	jmp    10353a <isr_common_stub>

001033e0 <isr8>:
  1033e0:	fa                   	cli    
  1033e1:	6a 08                	push   $0x8
  1033e3:	e9 52 01 00 00       	jmp    10353a <isr_common_stub>

001033e8 <isr9>:
  1033e8:	fa                   	cli    
  1033e9:	6a 00                	push   $0x0
  1033eb:	6a 09                	push   $0x9
  1033ed:	e9 48 01 00 00       	jmp    10353a <isr_common_stub>

001033f2 <isr10>:
  1033f2:	fa                   	cli    
  1033f3:	6a 0a                	push   $0xa
  1033f5:	e9 40 01 00 00       	jmp    10353a <isr_common_stub>

001033fa <isr11>:
  1033fa:	fa                   	cli    
  1033fb:	6a 0b                	push   $0xb
  1033fd:	e9 38 01 00 00       	jmp    10353a <isr_common_stub>

00103402 <isr12>:
  103402:	fa                   	cli    
  103403:	6a 0c                	push   $0xc
  103405:	e9 30 01 00 00       	jmp    10353a <isr_common_stub>

0010340a <isr13>:
  10340a:	fa                   	cli    
  10340b:	6a 0d                	push   $0xd
  10340d:	e9 28 01 00 00       	jmp    10353a <isr_common_stub>

00103412 <isr14>:
  103412:	fa                   	cli    
  103413:	6a 0e                	push   $0xe
  103415:	e9 20 01 00 00       	jmp    10353a <isr_common_stub>

0010341a <isr15>:
  10341a:	fa                   	cli    
  10341b:	6a 00                	push   $0x0
  10341d:	6a 0f                	push   $0xf
  10341f:	e9 16 01 00 00       	jmp    10353a <isr_common_stub>

00103424 <isr16>:
  103424:	fa                   	cli    
  103425:	6a 00                	push   $0x0
  103427:	6a 10                	push   $0x10
  103429:	e9 0c 01 00 00       	jmp    10353a <isr_common_stub>

0010342e <isr17>:
  10342e:	fa                   	cli    
  10342f:	6a 00                	push   $0x0
  103431:	6a 11                	push   $0x11
  103433:	e9 02 01 00 00       	jmp    10353a <isr_common_stub>

00103438 <isr18>:
  103438:	fa                   	cli    
  103439:	6a 00                	push   $0x0
  10343b:	6a 12                	push   $0x12
  10343d:	e9 f8 00 00 00       	jmp    10353a <isr_common_stub>

00103442 <isr19>:
  103442:	fa                   	cli    
  103443:	6a 00                	push   $0x0
  103445:	6a 13                	push   $0x13
  103447:	e9 ee 00 00 00       	jmp    10353a <isr_common_stub>

0010344c <isr20>:
  10344c:	fa                   	cli    
  10344d:	6a 00                	push   $0x0
  10344f:	6a 14                	push   $0x14
  103451:	e9 e4 00 00 00       	jmp    10353a <isr_common_stub>

00103456 <isr21>:
  103456:	fa                   	cli    
  103457:	6a 00                	push   $0x0
  103459:	6a 15                	push   $0x15
  10345b:	e9 da 00 00 00       	jmp    10353a <isr_common_stub>

00103460 <isr22>:
  103460:	fa                   	cli    
  103461:	6a 00                	push   $0x0
  103463:	6a 16                	push   $0x16
  103465:	e9 d0 00 00 00       	jmp    10353a <isr_common_stub>

0010346a <isr23>:
  10346a:	fa                   	cli    
  10346b:	6a 00                	push   $0x0
  10346d:	6a 17                	push   $0x17
  10346f:	e9 c6 00 00 00       	jmp    10353a <isr_common_stub>

00103474 <isr24>:
  103474:	fa                   	cli    
  103475:	6a 00                	push   $0x0
  103477:	6a 18                	push   $0x18
  103479:	e9 bc 00 00 00       	jmp    10353a <isr_common_stub>

0010347e <isr25>:
  10347e:	fa                   	cli    
  10347f:	6a 00                	push   $0x0
  103481:	6a 19                	push   $0x19
  103483:	e9 b2 00 00 00       	jmp    10353a <isr_common_stub>

00103488 <isr26>:
  103488:	fa                   	cli    
  103489:	6a 00                	push   $0x0
  10348b:	6a 1a                	push   $0x1a
  10348d:	e9 a8 00 00 00       	jmp    10353a <isr_common_stub>

00103492 <isr27>:
  103492:	fa                   	cli    
  103493:	6a 00                	push   $0x0
  103495:	6a 1b                	push   $0x1b
  103497:	e9 9e 00 00 00       	jmp    10353a <isr_common_stub>

0010349c <isr28>:
  10349c:	fa                   	cli    
  10349d:	6a 00                	push   $0x0
  10349f:	6a 1c                	push   $0x1c
  1034a1:	e9 94 00 00 00       	jmp    10353a <isr_common_stub>

001034a6 <isr29>:
  1034a6:	fa                   	cli    
  1034a7:	6a 00                	push   $0x0
  1034a9:	6a 1d                	push   $0x1d
  1034ab:	e9 8a 00 00 00       	jmp    10353a <isr_common_stub>

001034b0 <isr30>:
  1034b0:	fa                   	cli    
  1034b1:	6a 00                	push   $0x0
  1034b3:	6a 1e                	push   $0x1e
  1034b5:	e9 80 00 00 00       	jmp    10353a <isr_common_stub>

001034ba <isr31>:
  1034ba:	fa                   	cli    
  1034bb:	6a 00                	push   $0x0
  1034bd:	6a 1f                	push   $0x1f
  1034bf:	eb 79                	jmp    10353a <isr_common_stub>

001034c1 <irq0>:
  1034c1:	fa                   	cli    
  1034c2:	6a 00                	push   $0x0
  1034c4:	6a 20                	push   $0x20
  1034c6:	e9 94 00 00 00       	jmp    10355f <irq_common_stub>

001034cb <irq1>:
  1034cb:	fa                   	cli    
  1034cc:	6a 00                	push   $0x0
  1034ce:	6a 21                	push   $0x21
  1034d0:	e9 8a 00 00 00       	jmp    10355f <irq_common_stub>

001034d5 <irq2>:
  1034d5:	fa                   	cli    
  1034d6:	6a 00                	push   $0x0
  1034d8:	6a 22                	push   $0x22
  1034da:	e9 80 00 00 00       	jmp    10355f <irq_common_stub>

001034df <irq3>:
  1034df:	fa                   	cli    
  1034e0:	6a 00                	push   $0x0
  1034e2:	6a 23                	push   $0x23
  1034e4:	eb 79                	jmp    10355f <irq_common_stub>

001034e6 <irq4>:
  1034e6:	fa                   	cli    
  1034e7:	6a 00                	push   $0x0
  1034e9:	6a 24                	push   $0x24
  1034eb:	eb 72                	jmp    10355f <irq_common_stub>

001034ed <irq5>:
  1034ed:	fa                   	cli    
  1034ee:	6a 00                	push   $0x0
  1034f0:	6a 25                	push   $0x25
  1034f2:	eb 6b                	jmp    10355f <irq_common_stub>

001034f4 <irq6>:
  1034f4:	fa                   	cli    
  1034f5:	6a 00                	push   $0x0
  1034f7:	6a 26                	push   $0x26
  1034f9:	eb 64                	jmp    10355f <irq_common_stub>

001034fb <irq7>:
  1034fb:	fa                   	cli    
  1034fc:	6a 00                	push   $0x0
  1034fe:	6a 27                	push   $0x27
  103500:	eb 5d                	jmp    10355f <irq_common_stub>

00103502 <irq8>:
  103502:	fa                   	cli    
  103503:	6a 00                	push   $0x0
  103505:	6a 28                	push   $0x28
  103507:	eb 56                	jmp    10355f <irq_common_stub>

00103509 <irq9>:
  103509:	fa                   	cli    
  10350a:	6a 00                	push   $0x0
  10350c:	6a 29                	push   $0x29
  10350e:	eb 4f                	jmp    10355f <irq_common_stub>

00103510 <irq10>:
  103510:	fa                   	cli    
  103511:	6a 00                	push   $0x0
  103513:	6a 2a                	push   $0x2a
  103515:	eb 48                	jmp    10355f <irq_common_stub>

00103517 <irq11>:
  103517:	fa                   	cli    
  103518:	6a 00                	push   $0x0
  10351a:	6a 2b                	push   $0x2b
  10351c:	eb 41                	jmp    10355f <irq_common_stub>

0010351e <irq12>:
  10351e:	fa                   	cli    
  10351f:	6a 00                	push   $0x0
  103521:	6a 2c                	push   $0x2c
  103523:	eb 3a                	jmp    10355f <irq_common_stub>

00103525 <irq13>:
  103525:	fa                   	cli    
  103526:	6a 00                	push   $0x0
  103528:	6a 2d                	push   $0x2d
  10352a:	eb 33                	jmp    10355f <irq_common_stub>

0010352c <irq14>:
  10352c:	fa                   	cli    
  10352d:	6a 00                	push   $0x0
  10352f:	6a 2e                	push   $0x2e
  103531:	eb 2c                	jmp    10355f <irq_common_stub>

00103533 <irq15>:
  103533:	fa                   	cli    
  103534:	6a 00                	push   $0x0
  103536:	6a 2f                	push   $0x2f
  103538:	eb 25                	jmp    10355f <irq_common_stub>

0010353a <isr_common_stub>:
  10353a:	60                   	pusha  
  10353b:	66 8c d8             	mov    %ds,%ax
  10353e:	50                   	push   %eax
  10353f:	66 b8 10 00          	mov    $0x10,%ax
  103543:	8e d8                	mov    %eax,%ds
  103545:	8e c0                	mov    %eax,%es
  103547:	8e e0                	mov    %eax,%fs
  103549:	8e e8                	mov    %eax,%gs
  10354b:	e8 f7 f2 ff ff       	call   102847 <isr_handler>
  103550:	58                   	pop    %eax
  103551:	8e d8                	mov    %eax,%ds
  103553:	8e c0                	mov    %eax,%es
  103555:	8e e0                	mov    %eax,%fs
  103557:	8e e8                	mov    %eax,%gs
  103559:	61                   	popa   
  10355a:	83 c4 08             	add    $0x8,%esp
  10355d:	fb                   	sti    
  10355e:	cf                   	iret   

0010355f <irq_common_stub>:
  10355f:	60                   	pusha  
  103560:	66 8c d8             	mov    %ds,%ax
  103563:	50                   	push   %eax
  103564:	66 b8 10 00          	mov    $0x10,%ax
  103568:	8e d8                	mov    %eax,%ds
  10356a:	8e c0                	mov    %eax,%es
  10356c:	8e e0                	mov    %eax,%fs
  10356e:	8e e8                	mov    %eax,%gs
  103570:	e8 5f f3 ff ff       	call   1028d4 <irq_handler>
  103575:	58                   	pop    %eax
  103576:	8e d8                	mov    %eax,%ds
  103578:	8e c0                	mov    %eax,%es
  10357a:	8e e0                	mov    %eax,%fs
  10357c:	8e e8                	mov    %eax,%gs
  10357e:	61                   	popa   
  10357f:	83 c4 08             	add    $0x8,%esp
  103582:	fb                   	sti    
  103583:	cf                   	iret   
  103584:	66 90                	xchg   %ax,%ax
  103586:	66 90                	xchg   %ax,%ax
  103588:	66 90                	xchg   %ax,%ax
  10358a:	66 90                	xchg   %ax,%ax
  10358c:	66 90                	xchg   %ax,%ax
  10358e:	66 90                	xchg   %ax,%ax

00103590 <_disable_lapic>:
  103590:	b9 1b 00 00 00       	mov    $0x1b,%ecx
  103595:	0f 32                	rdmsr  
  103597:	25 ff f7 00 00       	and    $0xf7ff,%eax
  10359c:	0f 30                	wrmsr  
  10359e:	c3                   	ret    

Disassembly of section .rodata:

00104000 <.rodata>:
  104000:	6e                   	outsb  %ds:(%esi),(%dx)
  104001:	65 77 5f             	gs ja  104063 <_disable_lapic+0xad3>
  104004:	73 69                	jae    10406f <_disable_lapic+0xadf>
  104006:	7a 65                	jp     10406d <_disable_lapic+0xadd>
  104008:	20 3e                	and    %bh,(%esi)
  10400a:	20 68 65             	and    %ch,0x65(%eax)
  10400d:	61                   	popa   
  10400e:	70 2d                	jo     10403d <_disable_lapic+0xaad>
  104010:	3e 65 6e             	ds outsb %gs:(%esi),(%dx)
  104013:	64 5f                	fs pop %edi
  104015:	61                   	popa   
  104016:	64 64 72 65          	fs fs jb 10407f <_disable_lapic+0xaef>
  10401a:	73 73                	jae    10408f <_disable_lapic+0xaff>
  10401c:	20 2d 20 68 65 61    	and    %ch,0x61656820
  104022:	70 2d                	jo     104051 <_disable_lapic+0xac1>
  104024:	3e 73 74             	jae,pt 10409b <_disable_lapic+0xb0b>
  104027:	61                   	popa   
  104028:	72 74                	jb     10409e <_disable_lapic+0xb0e>
  10402a:	5f                   	pop    %edi
  10402b:	61                   	popa   
  10402c:	64 64 72 65          	fs fs jb 104095 <_disable_lapic+0xb05>
  104030:	73 73                	jae    1040a5 <_disable_lapic+0xb15>
  104032:	00 73 72             	add    %dh,0x72(%ebx)
  104035:	63 2f                	arpl   %bp,(%edi)
  104037:	6b 65 72 6e          	imul   $0x6e,0x72(%ebp),%esp
  10403b:	65 6c                	gs insb (%dx),%es:(%edi)
  10403d:	2f                   	das    
  10403e:	6b 68 65 61          	imul   $0x61,0x65(%eax),%ebp
  104042:	70 2e                	jo     104072 <_disable_lapic+0xae2>
  104044:	63 00                	arpl   %ax,(%eax)
  104046:	00 00                	add    %al,(%eax)
  104048:	68 65 61 70 2d       	push   $0x2d706165
  10404d:	3e 73 74             	jae,pt 1040c4 <_disable_lapic+0xb34>
  104050:	61                   	popa   
  104051:	72 74                	jb     1040c7 <_disable_lapic+0xb37>
  104053:	5f                   	pop    %edi
  104054:	61                   	popa   
  104055:	64 64 72 65          	fs fs jb 1040be <_disable_lapic+0xb2e>
  104059:	73 73                	jae    1040ce <_disable_lapic+0xb3e>
  10405b:	20 2b                	and    %ch,(%ebx)
  10405d:	20 6e 65             	and    %ch,0x65(%esi)
  104060:	77 5f                	ja     1040c1 <_disable_lapic+0xb31>
  104062:	73 69                	jae    1040cd <_disable_lapic+0xb3d>
  104064:	7a 65                	jp     1040cb <_disable_lapic+0xb3b>
  104066:	20 3c 3d 20 68 65 61 	and    %bh,0x61656820(,%edi,1)
  10406d:	70 2d                	jo     10409c <_disable_lapic+0xb0c>
  10406f:	3e 6d                	ds insl (%dx),%es:(%edi)
  104071:	61                   	popa   
  104072:	78 5f                	js     1040d3 <_disable_lapic+0xb43>
  104074:	61                   	popa   
  104075:	64 64 72 65          	fs fs jb 1040de <_disable_lapic+0xb4e>
  104079:	73 73                	jae    1040ee <_disable_lapic+0xb5e>
  10407b:	00 62 65             	add    %ah,0x65(%edx)
  10407e:	66 6f                	outsw  %ds:(%esi),(%dx)
  104080:	72 65                	jb     1040e7 <_disable_lapic+0xb57>
  104082:	20 61 6c             	and    %ah,0x6c(%ecx)
  104085:	6c                   	insb   (%dx),%es:(%edi)
  104086:	6f                   	outsl  %ds:(%esi),(%dx)
  104087:	63 20                	arpl   %sp,(%eax)
  104089:	6f                   	outsl  %ds:(%esi),(%dx)
  10408a:	6e                   	outsb  %ds:(%esi),(%dx)
  10408b:	20 68 65             	and    %ch,0x65(%eax)
  10408e:	61                   	popa   
  10408f:	70 21                	jo     1040b2 <_disable_lapic+0xb22>
  104091:	0a 00                	or     (%eax),%al
  104093:	00 61 66             	add    %ah,0x66(%ecx)
  104096:	74 65                	je     1040fd <_disable_lapic+0xb6d>
  104098:	72 20                	jb     1040ba <_disable_lapic+0xb2a>
  10409a:	61                   	popa   
  10409b:	6c                   	insb   (%dx),%es:(%edi)
  10409c:	6c                   	insb   (%dx),%es:(%edi)
  10409d:	6f                   	outsl  %ds:(%esi),(%dx)
  10409e:	63 20                	arpl   %sp,(%eax)
  1040a0:	6f                   	outsl  %ds:(%esi),(%dx)
  1040a1:	6e                   	outsb  %ds:(%esi),(%dx)
  1040a2:	20 68 65             	and    %ch,0x65(%eax)
  1040a5:	61                   	popa   
  1040a6:	70 21                	jo     1040c9 <_disable_lapic+0xb39>
  1040a8:	20 61 64             	and    %ah,0x64(%ecx)
  1040ab:	64 72 20             	fs jb  1040ce <_disable_lapic+0xb3e>
  1040ae:	69 73 3a 20 00 61 66 	imul   $0x66610020,0x3a(%ebx),%esi
  1040b5:	74 65                	je     10411c <_disable_lapic+0xb8c>
  1040b7:	72 20                	jb     1040d9 <_disable_lapic+0xb49>
  1040b9:	61                   	popa   
  1040ba:	6c                   	insb   (%dx),%es:(%edi)
  1040bb:	69 67 6e 6d 65 6e 74 	imul   $0x746e656d,0x6e(%edi),%esp
  1040c2:	2c 20                	sub    $0x20,%al
  1040c4:	68 6f 6c 65 5f       	push   $0x5f656c6f
  1040c9:	73 69                	jae    104134 <_disable_lapic+0xba4>
  1040cb:	7a 65                	jp     104132 <_disable_lapic+0xba2>
  1040cd:	3a 20                	cmp    (%eax),%ah
  1040cf:	00 20                	add    %ah,(%eax)
  1040d1:	72 65                	jb     104138 <_disable_lapic+0xba8>
  1040d3:	71 75                	jno    10414a <_disable_lapic+0xbba>
  1040d5:	72 69                	jb     104140 <_disable_lapic+0xbb0>
  1040d7:	65 64 20 73 69       	gs and %dh,%fs:0x69(%ebx)
  1040dc:	7a 65                	jp     104143 <_disable_lapic+0xbb3>
  1040de:	3a 20                	cmp    (%eax),%ah
  1040e0:	00 70 61             	add    %dh,0x61(%eax)
  1040e3:	67 65 5f             	addr16 gs pop %edi
  1040e6:	61                   	popa   
  1040e7:	6c                   	insb   (%dx),%es:(%edi)
  1040e8:	69 67 6e 3a 20 00 20 	imul   $0x2000203a,0x6e(%edi),%esp
  1040ef:	20 68 6f             	and    %ch,0x6f(%eax)
  1040f2:	6c                   	insb   (%dx),%es:(%edi)
  1040f3:	65 3a 20             	cmp    %gs:(%eax),%ah
  1040f6:	00 20                	add    %ah,(%eax)
  1040f8:	20 6f 72             	and    %ch,0x72(%edi)
  1040fb:	69 67 5f 68 6f 6c 65 	imul   $0x656c6f68,0x5f(%edi),%esp
  104102:	5f                   	pop    %edi
  104103:	70 6f                	jo     104174 <_disable_lapic+0xbe4>
  104105:	73 3a                	jae    104141 <_disable_lapic+0xbb1>
  104107:	20 00                	and    %al,(%eax)
  104109:	70 61                	jo     10416c <_disable_lapic+0xbdc>
  10410b:	67 65 5f             	addr16 gs pop %edi
  10410e:	61                   	popa   
  10410f:	6c                   	insb   (%dx),%es:(%edi)
  104110:	69 67 6e 20 69 73 20 	imul   $0x20736920,0x6e(%edi),%esp
  104117:	72 65                	jb     10417e <_disable_lapic+0xbee>
  104119:	71 75                	jno    104190 <_disable_lapic+0xc00>
  10411b:	69 72 65 64 2e 0a 00 	imul   $0xa2e64,0x65(%edx),%esi
  104122:	64 65 76 00          	fs gs jbe 104126 <_disable_lapic+0xb96>
  104126:	69 6e 69 74 72 64 00 	imul   $0x647274,0x69(%esi),%ebp
  10412d:	4e                   	dec    %esi
  10412e:	6f                   	outsl  %ds:(%esi),(%dx)
  10412f:	64 65 20 6e 61       	fs and %ch,%gs:0x61(%esi)
  104134:	6d                   	insl   (%dx),%es:(%edi)
  104135:	65 20 69 73          	and    %ch,%gs:0x73(%ecx)
  104139:	3a 20                	cmp    (%eax),%ah
  10413b:	00 4e 6f             	add    %cl,0x6f(%esi)
  10413e:	64 65 20 66 6c       	fs and %ah,%gs:0x6c(%esi)
  104143:	61                   	popa   
  104144:	67 20 69 73          	and    %ch,0x73(%bx,%di)
  104148:	3a 20                	cmp    (%eax),%ah
  10414a:	00 46 6f             	add    %al,0x6f(%esi)
  10414d:	75 6e                	jne    1041bd <_disable_lapic+0xc2d>
  10414f:	64 20 66 69          	and    %ah,%fs:0x69(%esi)
  104153:	6c                   	insb   (%dx),%es:(%edi)
  104154:	65 20 00             	and    %al,%gs:(%eax)
  104157:	0a 28                	or     (%eax),%ch
  104159:	64 69 72 65 63 74 6f 	imul   $0x726f7463,%fs:0x65(%edx),%esi
  104160:	72 
  104161:	79 29                	jns    10418c <_disable_lapic+0xbfc>
  104163:	0a 00                	or     (%eax),%al
  104165:	0a 63 6f             	or     0x6f(%ebx),%ah
  104168:	6e                   	outsb  %ds:(%esi),(%dx)
  104169:	74 65                	je     1041d0 <_disable_lapic+0xc40>
  10416b:	6e                   	outsb  %ds:(%esi),(%dx)
  10416c:	74 73                	je     1041e1 <_disable_lapic+0xc51>
  10416e:	3a 20                	cmp    (%eax),%ah
  104170:	00 00                	add    %al,(%eax)
  104172:	00 00                	add    %al,(%eax)
  104174:	61                   	popa   
  104175:	6c                   	insb   (%dx),%es:(%edi)
  104176:	6c                   	insb   (%dx),%es:(%edi)
  104177:	6f                   	outsl  %ds:(%esi),(%dx)
  104178:	63 20                	arpl   %sp,(%eax)
  10417a:	66 72 61             	data16 jb 1041de <_disable_lapic+0xc4e>
  10417d:	6d                   	insl   (%dx),%es:(%edi)
  10417e:	65 20 66 6f          	and    %ah,%gs:0x6f(%esi)
  104182:	72 20                	jb     1041a4 <_disable_lapic+0xc14>
  104184:	70 61                	jo     1041e7 <_disable_lapic+0xc57>
  104186:	67 65 3a 20          	cmp    %gs:(%bx,%si),%ah
  10418a:	00 20                	add    %ah,(%eax)
  10418c:	66 72 61             	data16 jb 1041f0 <_disable_lapic+0xc60>
  10418f:	6d                   	insl   (%dx),%es:(%edi)
  104190:	65 20 69 6e          	and    %ch,%gs:0x6e(%ecx)
  104194:	64 65 78 20          	fs gs js 1041b8 <_disable_lapic+0xc28>
  104198:	69 73 3a 20 00 4e 6f 	imul   $0x6f4e0020,0x3a(%ebx),%esi
  10419f:	20 66 72             	and    %ah,0x72(%esi)
  1041a2:	65 65 20 66 72       	gs and %ah,%gs:0x72(%esi)
  1041a7:	61                   	popa   
  1041a8:	6d                   	insl   (%dx),%es:(%edi)
  1041a9:	65 73 21             	gs jae 1041cd <_disable_lapic+0xc3d>
  1041ac:	0a 00                	or     (%eax),%al
  1041ae:	0a 00                	or     (%eax),%al
  1041b0:	67 65 74 20          	addr16 gs je 1041d4 <_disable_lapic+0xc44>
  1041b4:	70 61                	jo     104217 <_disable_lapic+0xc87>
  1041b6:	67 65 20 69 6e       	and    %ch,%gs:0x6e(%bx,%di)
  1041bb:	64 65 78 20          	fs gs js 1041df <_disable_lapic+0xc4f>
  1041bf:	66 6f                	outsw  %ds:(%esi),(%dx)
  1041c1:	72 20                	jb     1041e3 <_disable_lapic+0xc53>
  1041c3:	61                   	popa   
  1041c4:	64 64 72 65          	fs fs jb 10422d <_disable_lapic+0xc9d>
  1041c8:	73 73                	jae    10423d <_disable_lapic+0xcad>
  1041ca:	3a 20                	cmp    (%eax),%ah
  1041cc:	00 00                	add    %al,(%eax)
  1041ce:	00 00                	add    %al,(%eax)
  1041d0:	20 4d 61             	and    %cl,0x61(%ebp)
  1041d3:	6b 65 20 70          	imul   $0x70,0x20(%ebp),%esp
  1041d7:	61                   	popa   
  1041d8:	67 65 5f             	addr16 gs pop %edi
  1041db:	74 61                	je     10423e <_disable_lapic+0xcae>
  1041dd:	62 6c 65 2c          	bound  %ebp,0x2c(%ebp,%eiz,2)
  1041e1:	20 74 61 62          	and    %dh,0x62(%ecx,%eiz,2)
  1041e5:	6c                   	insb   (%dx),%es:(%edi)
  1041e6:	65 20 61 64          	and    %ah,%gs:0x64(%ecx)
  1041ea:	64 72 65             	fs jb  104252 <_disable_lapic+0xcc2>
  1041ed:	73 73                	jae    104262 <_disable_lapic+0xcd2>
  1041ef:	20 69 73             	and    %ch,0x73(%ecx)
  1041f2:	3a 20                	cmp    (%eax),%ah
  1041f4:	00 20                	add    %ah,(%eax)
  1041f6:	70 61                	jo     104259 <_disable_lapic+0xcc9>
  1041f8:	67 65 20 61 64       	and    %ah,%gs:0x64(%bx,%di)
  1041fd:	64 72 65             	fs jb  104265 <_disable_lapic+0xcd5>
  104200:	73 73                	jae    104275 <_disable_lapic+0xce5>
  104202:	20 69 73             	and    %ch,0x73(%ecx)
  104205:	3a 20                	cmp    (%eax),%ah
  104207:	00 0a                	add    %cl,(%edx)
  104209:	45                   	inc    %ebp
  10420a:	72 72                	jb     10427e <_disable_lapic+0xcee>
  10420c:	6f                   	outsl  %ds:(%esi),(%dx)
  10420d:	72 0a                	jb     104219 <_disable_lapic+0xc89>
  10420f:	00 50 61             	add    %dl,0x61(%eax)
  104212:	67 65 20 66 61       	and    %ah,%gs:0x61(%bp)
  104217:	75 6c                	jne    104285 <_disable_lapic+0xcf5>
  104219:	74 20                	je     10423b <_disable_lapic+0xcab>
  10421b:	61                   	popa   
  10421c:	74 20                	je     10423e <_disable_lapic+0xcae>
  10421e:	3a 20                	cmp    (%eax),%ah
  104220:	00 00                	add    %al,(%eax)
  104222:	00 00                	add    %al,(%eax)
  104224:	57                   	push   %edi
  104225:	65 6c                	gs insb (%dx),%es:(%edi)
  104227:	63 6f 6d             	arpl   %bp,0x6d(%edi)
  10422a:	65 20 74 6f 20       	and    %dh,%gs:0x20(%edi,%ebp,2)
  10422f:	6d                   	insl   (%dx),%es:(%edi)
  104230:	79 20                	jns    104252 <_disable_lapic+0xcc2>
  104232:	6f                   	outsl  %ds:(%esi),(%dx)
  104233:	73 21                	jae    104256 <_disable_lapic+0xcc6>
  104235:	0a 00                	or     (%eax),%al
  104237:	00 6d 75             	add    %ch,0x75(%ebp)
  10423a:	6c                   	insb   (%dx),%es:(%edi)
  10423b:	74 69                	je     1042a6 <_disable_lapic+0xd16>
  10423d:	62 6f 6f             	bound  %ebp,0x6f(%edi)
  104240:	74 5f                	je     1042a1 <_disable_lapic+0xd11>
  104242:	69 6e 66 6f 2d 3e 6d 	imul   $0x6d3e2d6f,0x66(%esi),%ebp
  104249:	6f                   	outsl  %ds:(%esi),(%dx)
  10424a:	64 73 5f             	fs jae 1042ac <_disable_lapic+0xd1c>
  10424d:	63 6f 75             	arpl   %bp,0x75(%edi)
  104250:	6e                   	outsb  %ds:(%esi),(%dx)
  104251:	74 20                	je     104273 <_disable_lapic+0xce3>
  104253:	3e 20 30             	and    %dh,%ds:(%eax)
  104256:	00 73 72             	add    %dh,0x72(%ebx)
  104259:	63 2f                	arpl   %bp,(%edi)
  10425b:	6b 65 72 6e          	imul   $0x6e,0x72(%ebp),%esp
  10425f:	65 6c                	gs insb (%dx),%es:(%edi)
  104261:	2f                   	das    
  104262:	6b 65 72 6e          	imul   $0x6e,0x72(%ebp),%esp
  104266:	65 6c                	gs insb (%dx),%es:(%edi)
  104268:	2e 63 00             	arpl   %ax,%cs:(%eax)
  10426b:	4d                   	dec    %ebp
  10426c:	6f                   	outsl  %ds:(%esi),(%dx)
  10426d:	64 75 6c             	fs jne 1042dc <_disable_lapic+0xd4c>
  104270:	65 20 73 74          	and    %dh,%gs:0x74(%ebx)
  104274:	61                   	popa   
  104275:	72 74                	jb     1042eb <_disable_lapic+0xd5b>
  104277:	20 61 64             	and    %ah,0x64(%ecx)
  10427a:	64 72 65             	fs jb  1042e2 <_disable_lapic+0xd52>
  10427d:	73 73                	jae    1042f2 <_disable_lapic+0xd62>
  10427f:	20 69 73             	and    %ch,0x73(%ecx)
  104282:	20 3a                	and    %bh,(%edx)
  104284:	20 00                	and    %al,(%eax)
  104286:	0a 00                	or     (%eax),%al
  104288:	4d                   	dec    %ebp
  104289:	6f                   	outsl  %ds:(%esi),(%dx)
  10428a:	64 75 6c             	fs jne 1042f9 <_disable_lapic+0xd69>
  10428d:	65 20 6c 6f 63       	and    %ch,%gs:0x63(%edi,%ebp,2)
  104292:	61                   	popa   
  104293:	74 69                	je     1042fe <_disable_lapic+0xd6e>
  104295:	6f                   	outsl  %ds:(%esi),(%dx)
  104296:	6e                   	outsb  %ds:(%esi),(%dx)
  104297:	20 61 64             	and    %ah,0x64(%ecx)
  10429a:	64 72 65             	fs jb  104302 <_disable_lapic+0xd72>
  10429d:	73 73                	jae    104312 <_disable_lapic+0xd82>
  10429f:	20 69 73             	and    %ch,0x73(%ecx)
  1042a2:	20 3a                	and    %bh,(%edx)
  1042a4:	20 00                	and    %al,(%eax)
  1042a6:	20 20                	and    %ah,(%eax)
  1042a8:	20 4d 6f             	and    %cl,0x6f(%ebp)
  1042ab:	64 75 6c             	fs jne 10431a <_disable_lapic+0xd8a>
  1042ae:	65 20 65 6e          	and    %ah,%gs:0x6e(%ebp)
  1042b2:	64 20 61 64          	and    %ah,%fs:0x64(%ecx)
  1042b6:	64 72 65             	fs jb  10431e <_disable_lapic+0xd8e>
  1042b9:	73 73                	jae    10432e <_disable_lapic+0xd9e>
  1042bb:	20 69 73             	and    %ch,0x73(%ecx)
  1042be:	20 3a                	and    %bh,(%edx)
  1042c0:	20 00                	and    %al,(%eax)
  1042c2:	0a 20                	or     (%eax),%ah
  1042c4:	6e                   	outsb  %ds:(%esi),(%dx)
  1042c5:	75 6d                	jne    104334 <_disable_lapic+0xda4>
  1042c7:	62 65 72             	bound  %esp,0x72(%ebp)
  1042ca:	20 6f 66             	and    %ch,0x66(%edi)
  1042cd:	20 6d 6f             	and    %ch,0x6f(%ebp)
  1042d0:	64 75 6c             	fs jne 10433f <_disable_lapic+0xdaf>
  1042d3:	65 73 3a             	gs jae 104310 <_disable_lapic+0xd80>
  1042d6:	20 00                	and    %al,(%eax)
  1042d8:	0a 20                	or     (%eax),%ah
  1042da:	6e                   	outsb  %ds:(%esi),(%dx)
  1042db:	75 6d                	jne    10434a <_disable_lapic+0xdba>
  1042dd:	62 65 72             	bound  %esp,0x72(%ebp)
  1042e0:	20 6f 66             	and    %ch,0x66(%edi)
  1042e3:	20 66 69             	and    %ah,0x69(%esi)
  1042e6:	6c                   	insb   (%dx),%es:(%edi)
  1042e7:	65 73 20             	gs jae 10430a <_disable_lapic+0xd7a>
  1042ea:	69 6e 20 69 6e 69 74 	imul   $0x74696e69,0x20(%esi),%ebp
  1042f1:	72 64                	jb     104357 <_disable_lapic+0xdc7>
  1042f3:	20 3a                	and    %bh,(%edx)
  1042f5:	20 00                	and    %al,(%eax)
  1042f7:	00 44 65 74          	add    %al,0x74(%ebp,%eiz,2)
  1042fb:	65 63 74 65 64       	arpl   %si,%gs:0x64(%ebp,%eiz,2)
  104300:	20 4c 41 50          	and    %cl,0x50(%ecx,%eax,2)
  104304:	49                   	dec    %ecx
  104305:	43                   	inc    %ebx
  104306:	2c 20                	sub    $0x20,%al
  104308:	77 69                	ja     104373 <_disable_lapic+0xde3>
  10430a:	6c                   	insb   (%dx),%es:(%edi)
  10430b:	6c                   	insb   (%dx),%es:(%edi)
  10430c:	20 64 69 73          	and    %ah,0x73(%ecx,%ebp,2)
  104310:	61                   	popa   
  104311:	62 6c 65 20          	bound  %ebp,0x20(%ebp,%eiz,2)
  104315:	69 74 2e 0a 00 4c 41 	imul   $0x50414c00,0xa(%esi,%ebp,1),%esi
  10431c:	50 
  10431d:	49                   	dec    %ecx
  10431e:	43                   	inc    %ebx
  10431f:	20 69 73             	and    %ch,0x73(%ecx)
  104322:	20 64 69 73          	and    %ah,0x73(%ecx,%ebp,2)
  104326:	61                   	popa   
  104327:	62 6c 65 64          	bound  %ebp,0x64(%ebp,%eiz,2)
  10432b:	2e 0a 00             	or     %cs:(%eax),%al
  10432e:	4e                   	dec    %esi
  10432f:	6f                   	outsl  %ds:(%esi),(%dx)
  104330:	20 4d 53             	and    %cl,0x53(%ebp)
  104333:	52                   	push   %edx
  104334:	20 64 65 74          	and    %ah,0x74(%ebp,%eiz,2)
  104338:	65 63 74 65 64       	arpl   %si,%gs:0x64(%ebp,%eiz,2)
  10433d:	2e 0a 00             	or     %cs:(%eax),%al
  104340:	49                   	dec    %ecx
  104341:	73 72                	jae    1043b5 <_disable_lapic+0xe25>
  104343:	20 3a                	and    %bh,(%edx)
  104345:	20 00                	and    %al,(%eax)
  104347:	20 69 73             	and    %ch,0x73(%ecx)
  10434a:	20 6e 6f             	and    %ch,0x6f(%esi)
  10434d:	74 20                	je     10436f <_disable_lapic+0xddf>
  10434f:	68 61 6e 64 6c       	push   $0x6c646e61
  104354:	65 64 0a 00          	gs or  %fs:(%eax),%al
  104358:	49                   	dec    %ecx
  104359:	6e                   	outsb  %ds:(%esi),(%dx)
  10435a:	74 65                	je     1043c1 <_disable_lapic+0xe31>
  10435c:	72 72                	jb     1043d0 <_disable_lapic+0xe40>
  10435e:	75 70                	jne    1043d0 <_disable_lapic+0xe40>
  104360:	74 20                	je     104382 <_disable_lapic+0xdf2>
  104362:	3a 20                	cmp    (%eax),%ah
  104364:	00 49 6e             	add    %cl,0x6e(%ecx)
  104367:	74 65                	je     1043ce <_disable_lapic+0xe3e>
  104369:	72 72                	jb     1043dd <_disable_lapic+0xe4d>
  10436b:	75 70                	jne    1043dd <_disable_lapic+0xe4d>
  10436d:	74 20                	je     10438f <_disable_lapic+0xdff>
  10436f:	3a 20                	cmp    (%eax),%ah
  104371:	00 0a                	add    %cl,(%edx)
  104373:	00 53 63             	add    %dl,0x63(%ebx)
  104376:	61                   	popa   
  104377:	6e                   	outsb  %ds:(%esi),(%dx)
  104378:	63 6f 64             	arpl   %bp,0x64(%edi)
  10437b:	65 20 69 73          	and    %ch,%gs:0x73(%ecx)
  10437f:	20 3a                	and    %bh,(%edx)
  104381:	20 00                	and    %al,(%eax)
  104383:	20 20                	and    %ah,(%eax)
  104385:	00 61 72             	add    %ah,0x72(%ecx)
  104388:	72 61                	jb     1043eb <_disable_lapic+0xe5b>
  10438a:	79 2e                	jns    1043ba <_disable_lapic+0xe2a>
  10438c:	61                   	popa   
  10438d:	72 72                	jb     104401 <_disable_lapic+0xe71>
  10438f:	61                   	popa   
  104390:	79 3a                	jns    1043cc <_disable_lapic+0xe3c>
  104392:	20 00                	and    %al,(%eax)
  104394:	0a 00                	or     (%eax),%al
  104396:	61                   	popa   
  104397:	72 72                	jb     10440b <_disable_lapic+0xe7b>
  104399:	61                   	popa   
  10439a:	79 2d                	jns    1043c9 <_disable_lapic+0xe39>
  10439c:	3e 73 69             	jae,pt 104408 <_disable_lapic+0xe78>
  10439f:	7a 65                	jp     104406 <_disable_lapic+0xe76>
  1043a1:	3c 3d                	cmp    $0x3d,%al
  1043a3:	61                   	popa   
  1043a4:	72 72                	jb     104418 <_disable_lapic+0xe88>
  1043a6:	61                   	popa   
  1043a7:	79 2d                	jns    1043d6 <_disable_lapic+0xe46>
  1043a9:	3e 6d                	ds insl (%dx),%es:(%edi)
  1043ab:	61                   	popa   
  1043ac:	78 5f                	js     10440d <_disable_lapic+0xe7d>
  1043ae:	73 69                	jae    104419 <_disable_lapic+0xe89>
  1043b0:	7a 65                	jp     104417 <_disable_lapic+0xe87>
  1043b2:	00 73 72             	add    %dh,0x72(%ebx)
  1043b5:	63 2f                	arpl   %bp,(%edi)
  1043b7:	63 6f 6d             	arpl   %bp,0x6d(%edi)
  1043ba:	6d                   	insl   (%dx),%es:(%edi)
  1043bb:	6f                   	outsl  %ds:(%esi),(%dx)
  1043bc:	6e                   	outsb  %ds:(%esi),(%dx)
  1043bd:	2f                   	das    
  1043be:	6f                   	outsl  %ds:(%esi),(%dx)
  1043bf:	72 64                	jb     104425 <_disable_lapic+0xe95>
  1043c1:	65 72 65             	gs jb  104429 <_disable_lapic+0xe99>
  1043c4:	64 5f                	fs pop %edi
  1043c6:	61                   	popa   
  1043c7:	72 72                	jb     10443b <_disable_lapic+0xeab>
  1043c9:	61                   	popa   
  1043ca:	79 2e                	jns    1043fa <_disable_lapic+0xe6a>
  1043cc:	63 00                	arpl   %ax,(%eax)
  1043ce:	69 20 3c 20 61 72    	imul   $0x7261203c,(%eax),%esp
  1043d4:	72 61                	jb     104437 <_disable_lapic+0xea7>
  1043d6:	79 2d                	jns    104405 <_disable_lapic+0xe75>
  1043d8:	3e 73 69             	jae,pt 104444 <_disable_lapic+0xeb4>
  1043db:	7a 65                	jp     104442 <_disable_lapic+0xeb2>
  1043dd:	00 50 41             	add    %dl,0x41(%eax)
  1043e0:	4e                   	dec    %esi
  1043e1:	49                   	dec    %ecx
  1043e2:	43                   	inc    %ebx
  1043e3:	28 00                	sub    %al,(%eax)
  1043e5:	29 20                	sub    %esp,(%eax)
  1043e7:	61                   	popa   
  1043e8:	74 20                	je     10440a <_disable_lapic+0xe7a>
  1043ea:	00 3a                	add    %bh,(%edx)
  1043ec:	00 0a                	add    %cl,(%edx)
  1043ee:	00 41 53             	add    %al,0x53(%ecx)
  1043f1:	53                   	push   %ebx
  1043f2:	45                   	inc    %ebp
  1043f3:	52                   	push   %edx
  1043f4:	54                   	push   %esp
  1043f5:	49                   	dec    %ecx
  1043f6:	4f                   	dec    %edi
  1043f7:	4e                   	dec    %esi
  1043f8:	2d 46 41 49 4c       	sub    $0x4c494146,%eax
  1043fd:	45                   	inc    %ebp
  1043fe:	44                   	inc    %esp
  1043ff:	28 00                	sub    %al,(%eax)

Disassembly of section .eh_frame:

00104404 <.eh_frame>:
  104404:	14 00                	adc    $0x0,%al
  104406:	00 00                	add    %al,(%eax)
  104408:	00 00                	add    %al,(%eax)
  10440a:	00 00                	add    %al,(%eax)
  10440c:	01 7a 52             	add    %edi,0x52(%edx)
  10440f:	00 01                	add    %al,(%ecx)
  104411:	7c 08                	jl     10441b <_disable_lapic+0xe8b>
  104413:	01 1b                	add    %ebx,(%ebx)
  104415:	0c 04                	or     $0x4,%al
  104417:	04 88                	add    $0x88,%al
  104419:	01 00                	add    %eax,(%eax)
  10441b:	00 24 00             	add    %ah,(%eax,%eax,1)
  10441e:	00 00                	add    %al,(%eax)
  104420:	1c 00                	sbb    $0x0,%al
  104422:	00 00                	add    %al,(%eax)
  104424:	f6 bb ff ff 08 01    	idivb  0x108ffff(%ebx)
  10442a:	00 00                	add    %al,(%eax)
  10442c:	00 41 0e             	add    %al,0xe(%ecx)
  10442f:	08 85 02 42 0d 05    	or     %al,0x50d4202(%ebp)
  104435:	45                   	inc    %ebp
  104436:	86 03                	xchg   %al,(%ebx)
  104438:	83 04 02 fd          	addl   $0xfffffffd,(%edx,%eax,1)
  10443c:	c3                   	ret    
  10443d:	41                   	inc    %ecx
  10443e:	c6 41 c5 0c          	movb   $0xc,-0x3b(%ecx)
  104442:	04 04                	add    $0x4,%al
  104444:	1c 00                	sbb    $0x0,%al
  104446:	00 00                	add    %al,(%eax)
  104448:	44                   	inc    %esp
  104449:	00 00                	add    %al,(%eax)
  10444b:	00 d6                	add    %dl,%dh
  10444d:	bc ff ff 12 01       	mov    $0x112ffff,%esp
  104452:	00 00                	add    %al,(%eax)
  104454:	00 41 0e             	add    %al,0xe(%ecx)
  104457:	08 85 02 42 0d 05    	or     %al,0x50d4202(%ebp)
  10445d:	03 0e                	add    (%esi),%ecx
  10445f:	01 c5                	add    %eax,%ebp
  104461:	0c 04                	or     $0x4,%al
  104463:	04 1c                	add    $0x1c,%al
  104465:	00 00                	add    %al,(%eax)
  104467:	00 64 00 00          	add    %ah,0x0(%eax,%eax,1)
  10446b:	00 c8                	add    %cl,%al
  10446d:	bd ff ff 1a 00       	mov    $0x1affff,%ebp
  104472:	00 00                	add    %al,(%eax)
  104474:	00 41 0e             	add    %al,0xe(%ecx)
  104477:	08 85 02 42 0d 05    	or     %al,0x50d4202(%ebp)
  10447d:	56                   	push   %esi
  10447e:	c5 0c 04             	lds    (%esp,%eax,1),%ecx
  104481:	04 00                	add    $0x0,%al
  104483:	00 1c 00             	add    %bl,(%eax,%eax,1)
  104486:	00 00                	add    %al,(%eax)
  104488:	84 00                	test   %al,(%eax)
  10448a:	00 00                	add    %al,(%eax)
  10448c:	c2 bd ff             	ret    $0xffbd
  10448f:	ff 1a                	lcall  *(%edx)
  104491:	00 00                	add    %al,(%eax)
  104493:	00 00                	add    %al,(%eax)
  104495:	41                   	inc    %ecx
  104496:	0e                   	push   %cs
  104497:	08 85 02 42 0d 05    	or     %al,0x50d4202(%ebp)
  10449d:	56                   	push   %esi
  10449e:	c5 0c 04             	lds    (%esp,%eax,1),%ecx
  1044a1:	04 00                	add    $0x0,%al
  1044a3:	00 1c 00             	add    %bl,(%eax,%eax,1)
  1044a6:	00 00                	add    %al,(%eax)
  1044a8:	a4                   	movsb  %ds:(%esi),%es:(%edi)
  1044a9:	00 00                	add    %al,(%eax)
  1044ab:	00 bc bd ff ff 1b 00 	add    %bh,0x1bffff(%ebp,%edi,4)
  1044b2:	00 00                	add    %al,(%eax)
  1044b4:	00 41 0e             	add    %al,0xe(%ecx)
  1044b7:	08 85 02 42 0d 05    	or     %al,0x50d4202(%ebp)
  1044bd:	57                   	push   %edi
  1044be:	c5 0c 04             	lds    (%esp,%eax,1),%ecx
  1044c1:	04 00                	add    $0x0,%al
  1044c3:	00 1c 00             	add    %bl,(%eax,%eax,1)
  1044c6:	00 00                	add    %al,(%eax)
  1044c8:	c4 00                	les    (%eax),%eax
  1044ca:	00 00                	add    %al,(%eax)
  1044cc:	b7 bd                	mov    $0xbd,%bh
  1044ce:	ff                   	(bad)  
  1044cf:	ff 1b                	lcall  *(%ebx)
  1044d1:	00 00                	add    %al,(%eax)
  1044d3:	00 00                	add    %al,(%eax)
  1044d5:	41                   	inc    %ecx
  1044d6:	0e                   	push   %cs
  1044d7:	08 85 02 42 0d 05    	or     %al,0x50d4202(%ebp)
  1044dd:	57                   	push   %edi
  1044de:	c5 0c 04             	lds    (%esp,%eax,1),%ecx
  1044e1:	04 00                	add    $0x0,%al
  1044e3:	00 1c 00             	add    %bl,(%eax,%eax,1)
  1044e6:	00 00                	add    %al,(%eax)
  1044e8:	e4 00                	in     $0x0,%al
  1044ea:	00 00                	add    %al,(%eax)
  1044ec:	b2 bd                	mov    $0xbd,%dl
  1044ee:	ff                   	(bad)  
  1044ef:	ff 0b                	decl   (%ebx)
  1044f1:	01 00                	add    %eax,(%eax)
  1044f3:	00 00                	add    %al,(%eax)
  1044f5:	41                   	inc    %ecx
  1044f6:	0e                   	push   %cs
  1044f7:	08 85 02 42 0d 05    	or     %al,0x50d4202(%ebp)
  1044fd:	03 07                	add    (%edi),%eax
  1044ff:	01 c5                	add    %eax,%ebp
  104501:	0c 04                	or     $0x4,%al
  104503:	04 1c                	add    $0x1c,%al
  104505:	00 00                	add    %al,(%eax)
  104507:	00 04 01             	add    %al,(%ecx,%eax,1)
  10450a:	00 00                	add    %al,(%eax)
  10450c:	9d                   	popf   
  10450d:	be ff ff 16 00       	mov    $0x16ffff,%esi
  104512:	00 00                	add    %al,(%eax)
  104514:	00 41 0e             	add    %al,0xe(%ecx)
  104517:	08 85 02 42 0d 05    	or     %al,0x50d4202(%ebp)
  10451d:	52                   	push   %edx
  10451e:	c5 0c 04             	lds    (%esp,%eax,1),%ecx
  104521:	04 00                	add    $0x0,%al
  104523:	00 20                	add    %ah,(%eax)
  104525:	00 00                	add    %al,(%eax)
  104527:	00 24 01             	add    %ah,(%ecx,%eax,1)
  10452a:	00 00                	add    %al,(%eax)
  10452c:	93                   	xchg   %eax,%ebx
  10452d:	be ff ff e3 00       	mov    $0xe3ffff,%esi
  104532:	00 00                	add    %al,(%eax)
  104534:	00 41 0e             	add    %al,0xe(%ecx)
  104537:	08 85 02 42 0d 05    	or     %al,0x50d4202(%ebp)
  10453d:	44                   	inc    %esp
  10453e:	83 03 02             	addl   $0x2,(%ebx)
  104541:	db c5                	fcmovnb %st(5),%st
  104543:	c3                   	ret    
  104544:	0c 04                	or     $0x4,%al
  104546:	04 00                	add    $0x0,%al
  104548:	1c 00                	sbb    $0x0,%al
  10454a:	00 00                	add    %al,(%eax)
  10454c:	48                   	dec    %eax
  10454d:	01 00                	add    %eax,(%eax)
  10454f:	00 52 bf             	add    %dl,-0x41(%edx)
  104552:	ff                   	(bad)  
  104553:	ff ad 03 00 00 00    	ljmp   *0x3(%ebp)
  104559:	41                   	inc    %ecx
  10455a:	0e                   	push   %cs
  10455b:	08 85 02 42 0d 05    	or     %al,0x50d4202(%ebp)
  104561:	03 a9 03 c5 0c 04    	add    0x40cc503(%ecx),%ebp
  104567:	04 28                	add    $0x28,%al
  104569:	00 00                	add    %al,(%eax)
  10456b:	00 68 01             	add    %ch,0x1(%eax)
  10456e:	00 00                	add    %al,(%eax)
  104570:	df c2                	ffreep %st(2)
  104572:	ff                   	(bad)  
  104573:	ff                   	(bad)  
  104574:	7b 00                	jnp    104576 <_disable_lapic+0xfe6>
  104576:	00 00                	add    %al,(%eax)
  104578:	00 41 0e             	add    %al,0xe(%ecx)
  10457b:	08 85 02 42 0d 05    	or     %al,0x50d4202(%ebp)
  104581:	46                   	inc    %esi
  104582:	87 03                	xchg   %eax,(%ebx)
  104584:	86 04 83             	xchg   %al,(%ebx,%eax,4)
  104587:	05 02 6e c3 41       	add    $0x41c36e02,%eax
  10458c:	c6 41 c7 41          	movb   $0x41,-0x39(%ecx)
  104590:	c5 0c 04             	lds    (%esp,%eax,1),%ecx
  104593:	04 1c                	add    $0x1c,%al
  104595:	00 00                	add    %al,(%eax)
  104597:	00 94 01 00 00 2e c3 	add    %dl,-0x3cd20000(%ecx,%eax,1)
  10459e:	ff                   	(bad)  
  10459f:	ff a1 00 00 00 00    	jmp    *0x0(%ecx)
  1045a5:	41                   	inc    %ecx
  1045a6:	0e                   	push   %cs
  1045a7:	08 85 02 42 0d 05    	or     %al,0x50d4202(%ebp)
  1045ad:	02 9d c5 0c 04 04    	add    0x4040cc5(%ebp),%bl
  1045b3:	00 1c 00             	add    %bl,(%eax,%eax,1)
  1045b6:	00 00                	add    %al,(%eax)
  1045b8:	b4 01                	mov    $0x1,%ah
  1045ba:	00 00                	add    %al,(%eax)
  1045bc:	af                   	scas   %es:(%edi),%eax
  1045bd:	c3                   	ret    
  1045be:	ff                   	(bad)  
  1045bf:	ff 83 00 00 00 00    	incl   0x0(%ebx)
  1045c5:	41                   	inc    %ecx
  1045c6:	0e                   	push   %cs
  1045c7:	08 85 02 42 0d 05    	or     %al,0x50d4202(%ebp)
  1045cd:	02 7f c5             	add    -0x3b(%edi),%bh
  1045d0:	0c 04                	or     $0x4,%al
  1045d2:	04 00                	add    $0x0,%al
  1045d4:	1c 00                	sbb    $0x0,%al
  1045d6:	00 00                	add    %al,(%eax)
  1045d8:	d4 01                	aam    $0x1
  1045da:	00 00                	add    %al,(%eax)
  1045dc:	12 c4                	adc    %ah,%al
  1045de:	ff                   	(bad)  
  1045df:	ff 41 04             	incl   0x4(%ecx)
  1045e2:	00 00                	add    %al,(%eax)
  1045e4:	00 41 0e             	add    %al,0xe(%ecx)
  1045e7:	08 85 02 42 0d 05    	or     %al,0x50d4202(%ebp)
  1045ed:	03 3d 04 c5 0c 04    	add    0x40cc504,%edi
  1045f3:	04 1c                	add    $0x1c,%al
  1045f5:	00 00                	add    %al,(%eax)
  1045f7:	00 f4                	add    %dh,%ah
  1045f9:	01 00                	add    %eax,(%eax)
  1045fb:	00 33                	add    %dh,(%ebx)
  1045fd:	c8 ff ff 67          	enter  $0xffff,$0x67
  104601:	00 00                	add    %al,(%eax)
  104603:	00 00                	add    %al,(%eax)
  104605:	41                   	inc    %ecx
  104606:	0e                   	push   %cs
  104607:	08 85 02 42 0d 05    	or     %al,0x50d4202(%ebp)
  10460d:	02 63 c5             	add    -0x3b(%ebx),%ah
  104610:	0c 04                	or     $0x4,%al
  104612:	04 00                	add    $0x0,%al
  104614:	1c 00                	sbb    $0x0,%al
  104616:	00 00                	add    %al,(%eax)
  104618:	14 02                	adc    $0x2,%al
  10461a:	00 00                	add    %al,(%eax)
  10461c:	7a c8                	jp     1045e6 <_disable_lapic+0x1056>
  10461e:	ff                   	(bad)  
  10461f:	ff e5                	jmp    *%ebp
  104621:	00 00                	add    %al,(%eax)
  104623:	00 00                	add    %al,(%eax)
  104625:	41                   	inc    %ecx
  104626:	0e                   	push   %cs
  104627:	08 85 02 42 0d 05    	or     %al,0x50d4202(%ebp)
  10462d:	02 e1                	add    %cl,%ah
  10462f:	c5 0c 04             	lds    (%esp,%eax,1),%ecx
  104632:	04 00                	add    $0x0,%al
  104634:	1c 00                	sbb    $0x0,%al
  104636:	00 00                	add    %al,(%eax)
  104638:	34 02                	xor    $0x2,%al
  10463a:	00 00                	add    %al,(%eax)
  10463c:	3f                   	aas    
  10463d:	c9                   	leave  
  10463e:	ff                   	(bad)  
  10463f:	ff 8f 00 00 00 00    	decl   0x0(%edi)
  104645:	41                   	inc    %ecx
  104646:	0e                   	push   %cs
  104647:	08 85 02 42 0d 05    	or     %al,0x50d4202(%ebp)
  10464d:	02 8b c5 0c 04 04    	add    0x4040cc5(%ebx),%cl
  104653:	00 1c 00             	add    %bl,(%eax,%eax,1)
  104656:	00 00                	add    %al,(%eax)
  104658:	54                   	push   %esp
  104659:	02 00                	add    (%eax),%al
  10465b:	00 ae c9 ff ff f1    	add    %ch,-0xe000037(%esi)
  104661:	00 00                	add    %al,(%eax)
  104663:	00 00                	add    %al,(%eax)
  104665:	41                   	inc    %ecx
  104666:	0e                   	push   %cs
  104667:	08 85 02 42 0d 05    	or     %al,0x50d4202(%ebp)
  10466d:	02 ed                	add    %ch,%ch
  10466f:	c5 0c 04             	lds    (%esp,%eax,1),%ecx
  104672:	04 00                	add    $0x0,%al
  104674:	20 00                	and    %al,(%eax)
  104676:	00 00                	add    %al,(%eax)
  104678:	74 02                	je     10467c <_disable_lapic+0x10ec>
  10467a:	00 00                	add    %al,(%eax)
  10467c:	7f ca                	jg     104648 <_disable_lapic+0x10b8>
  10467e:	ff                   	(bad)  
  10467f:	ff                   	(bad)  
  104680:	bc 00 00 00 00       	mov    $0x0,%esp
  104685:	41                   	inc    %ecx
  104686:	0e                   	push   %cs
  104687:	08 85 02 42 0d 05    	or     %al,0x50d4202(%ebp)
  10468d:	44                   	inc    %esp
  10468e:	83 03 02             	addl   $0x2,(%ebx)
  104691:	b3 c3                	mov    $0xc3,%bl
  104693:	41                   	inc    %ecx
  104694:	c5 0c 04             	lds    (%esp,%eax,1),%ecx
  104697:	04 1c                	add    $0x1c,%al
  104699:	00 00                	add    %al,(%eax)
  10469b:	00 98 02 00 00 17    	add    %bl,0x17000002(%eax)
  1046a1:	cb                   	lret   
  1046a2:	ff                   	(bad)  
  1046a3:	ff e7                	jmp    *%edi
  1046a5:	00 00                	add    %al,(%eax)
  1046a7:	00 00                	add    %al,(%eax)
  1046a9:	41                   	inc    %ecx
  1046aa:	0e                   	push   %cs
  1046ab:	08 85 02 42 0d 05    	or     %al,0x50d4202(%ebp)
  1046b1:	02 e3                	add    %bl,%ah
  1046b3:	c5 0c 04             	lds    (%esp,%eax,1),%ecx
  1046b6:	04 00                	add    $0x0,%al
  1046b8:	1c 00                	sbb    $0x0,%al
  1046ba:	00 00                	add    %al,(%eax)
  1046bc:	b8 02 00 00 de       	mov    $0xde000002,%eax
  1046c1:	cb                   	lret   
  1046c2:	ff                   	(bad)  
  1046c3:	ff 0c 00             	decl   (%eax,%eax,1)
  1046c6:	00 00                	add    %al,(%eax)
  1046c8:	00 41 0e             	add    %al,0xe(%ecx)
  1046cb:	08 85 02 42 0d 05    	or     %al,0x50d4202(%ebp)
  1046d1:	48                   	dec    %eax
  1046d2:	c5 0c 04             	lds    (%esp,%eax,1),%ecx
  1046d5:	04 00                	add    $0x0,%al
  1046d7:	00 20                	add    %ah,(%eax)
  1046d9:	00 00                	add    %al,(%eax)
  1046db:	00 d8                	add    %bl,%al
  1046dd:	02 00                	add    (%eax),%al
  1046df:	00 ca                	add    %cl,%dl
  1046e1:	cb                   	lret   
  1046e2:	ff                   	(bad)  
  1046e3:	ff 59 00             	lcall  *0x0(%ecx)
  1046e6:	00 00                	add    %al,(%eax)
  1046e8:	00 41 0e             	add    %al,0xe(%ecx)
  1046eb:	08 85 02 42 0d 05    	or     %al,0x50d4202(%ebp)
  1046f1:	44                   	inc    %esp
  1046f2:	83 03 02             	addl   $0x2,(%ebx)
  1046f5:	50                   	push   %eax
  1046f6:	c3                   	ret    
  1046f7:	41                   	inc    %ecx
  1046f8:	c5 0c 04             	lds    (%esp,%eax,1),%ecx
  1046fb:	04 20                	add    $0x20,%al
  1046fd:	00 00                	add    %al,(%eax)
  1046ff:	00 fc                	add    %bh,%ah
  104701:	02 00                	add    (%eax),%al
  104703:	00 ff                	add    %bh,%bh
  104705:	cb                   	lret   
  104706:	ff                   	(bad)  
  104707:	ff 5b 00             	lcall  *0x0(%ebx)
  10470a:	00 00                	add    %al,(%eax)
  10470c:	00 41 0e             	add    %al,0xe(%ecx)
  10470f:	08 85 02 42 0d 05    	or     %al,0x50d4202(%ebp)
  104715:	44                   	inc    %esp
  104716:	83 03 02             	addl   $0x2,(%ebx)
  104719:	52                   	push   %edx
  10471a:	c3                   	ret    
  10471b:	41                   	inc    %ecx
  10471c:	c5 0c 04             	lds    (%esp,%eax,1),%ecx
  10471f:	04 20                	add    $0x20,%al
  104721:	00 00                	add    %al,(%eax)
  104723:	00 20                	add    %ah,(%eax)
  104725:	03 00                	add    (%eax),%eax
  104727:	00 36                	add    %dh,(%esi)
  104729:	cc                   	int3   
  10472a:	ff                   	(bad)  
  10472b:	ff 47 00             	incl   0x0(%edi)
  10472e:	00 00                	add    %al,(%eax)
  104730:	00 41 0e             	add    %al,0xe(%ecx)
  104733:	08 85 02 42 0d 05    	or     %al,0x50d4202(%ebp)
  104739:	44                   	inc    %esp
  10473a:	83 03 7e             	addl   $0x7e,(%ebx)
  10473d:	c3                   	ret    
  10473e:	41                   	inc    %ecx
  10473f:	c5 0c 04             	lds    (%esp,%eax,1),%ecx
  104742:	04 00                	add    $0x0,%al
  104744:	20 00                	and    %al,(%eax)
  104746:	00 00                	add    %al,(%eax)
  104748:	44                   	inc    %esp
  104749:	03 00                	add    (%eax),%eax
  10474b:	00 59 cc             	add    %bl,-0x34(%ecx)
  10474e:	ff                   	(bad)  
  10474f:	ff 80 00 00 00 00    	incl   0x0(%eax)
  104755:	41                   	inc    %ecx
  104756:	0e                   	push   %cs
  104757:	08 85 02 42 0d 05    	or     %al,0x50d4202(%ebp)
  10475d:	44                   	inc    %esp
  10475e:	83 03 02             	addl   $0x2,(%ebx)
  104761:	77 c3                	ja     104726 <_disable_lapic+0x1196>
  104763:	41                   	inc    %ecx
  104764:	c5 0c 04             	lds    (%esp,%eax,1),%ecx
  104767:	04 1c                	add    $0x1c,%al
  104769:	00 00                	add    %al,(%eax)
  10476b:	00 68 03             	add    %ch,0x3(%eax)
  10476e:	00 00                	add    %al,(%eax)
  104770:	b5 cc                	mov    $0xcc,%ch
  104772:	ff                   	(bad)  
  104773:	ff                   	(bad)  
  104774:	fa                   	cli    
  104775:	00 00                	add    %al,(%eax)
  104777:	00 00                	add    %al,(%eax)
  104779:	41                   	inc    %ecx
  10477a:	0e                   	push   %cs
  10477b:	08 85 02 42 0d 05    	or     %al,0x50d4202(%ebp)
  104781:	02 f6                	add    %dh,%dh
  104783:	c5 0c 04             	lds    (%esp,%eax,1),%ecx
  104786:	04 00                	add    $0x0,%al
  104788:	1c 00                	sbb    $0x0,%al
  10478a:	00 00                	add    %al,(%eax)
  10478c:	88 03                	mov    %al,(%ebx)
  10478e:	00 00                	add    %al,(%eax)
  104790:	8f                   	(bad)  
  104791:	cd ff                	int    $0xff
  104793:	ff 34 00             	pushl  (%eax,%eax,1)
  104796:	00 00                	add    %al,(%eax)
  104798:	00 41 0e             	add    %al,0xe(%ecx)
  10479b:	08 85 02 42 0d 05    	or     %al,0x50d4202(%ebp)
  1047a1:	70 c5                	jo     104768 <_disable_lapic+0x11d8>
  1047a3:	0c 04                	or     $0x4,%al
  1047a5:	04 00                	add    $0x0,%al
  1047a7:	00 1c 00             	add    %bl,(%eax,%eax,1)
  1047aa:	00 00                	add    %al,(%eax)
  1047ac:	a8 03                	test   $0x3,%al
  1047ae:	00 00                	add    %al,(%eax)
  1047b0:	a3 cd ff ff ca       	mov    %eax,0xcaffffcd
  1047b5:	01 00                	add    %eax,(%eax)
  1047b7:	00 00                	add    %al,(%eax)
  1047b9:	41                   	inc    %ecx
  1047ba:	0e                   	push   %cs
  1047bb:	08 85 02 42 0d 05    	or     %al,0x50d4202(%ebp)
  1047c1:	03 c6                	add    %esi,%eax
  1047c3:	01 c5                	add    %eax,%ebp
  1047c5:	0c 04                	or     $0x4,%al
  1047c7:	04 1c                	add    $0x1c,%al
  1047c9:	00 00                	add    %al,(%eax)
  1047cb:	00 c8                	add    %cl,%al
  1047cd:	03 00                	add    (%eax),%eax
  1047cf:	00 4d cf             	add    %cl,-0x31(%ebp)
  1047d2:	ff                   	(bad)  
  1047d3:	ff 30                	pushl  (%eax)
  1047d5:	00 00                	add    %al,(%eax)
  1047d7:	00 00                	add    %al,(%eax)
  1047d9:	41                   	inc    %ecx
  1047da:	0e                   	push   %cs
  1047db:	08 85 02 42 0d 05    	or     %al,0x50d4202(%ebp)
  1047e1:	6c                   	insb   (%dx),%es:(%edi)
  1047e2:	c5 0c 04             	lds    (%esp,%eax,1),%ecx
  1047e5:	04 00                	add    $0x0,%al
  1047e7:	00 1c 00             	add    %bl,(%eax,%eax,1)
  1047ea:	00 00                	add    %al,(%eax)
  1047ec:	e8 03 00 00 5d       	call   5d1047f4 <MAGIC+0x416297f2>
  1047f1:	cf                   	iret   
  1047f2:	ff                   	(bad)  
  1047f3:	ff                   	(bad)  
  1047f4:	7d 01                	jge    1047f7 <_disable_lapic+0x1267>
  1047f6:	00 00                	add    %al,(%eax)
  1047f8:	00 41 0e             	add    %al,0xe(%ecx)
  1047fb:	08 85 02 42 0d 05    	or     %al,0x50d4202(%ebp)
  104801:	03 79 01             	add    0x1(%ecx),%edi
  104804:	c5 0c 04             	lds    (%esp,%eax,1),%ecx
  104807:	04 18                	add    $0x18,%al
  104809:	00 00                	add    %al,(%eax)
  10480b:	00 08                	add    %cl,(%eax)
  10480d:	04 00                	add    $0x0,%al
  10480f:	00 ba d0 ff ff 3c    	add    %bh,0x3cffffd0(%edx)
  104815:	00 00                	add    %al,(%eax)
  104817:	00 00                	add    %al,(%eax)
  104819:	41                   	inc    %ecx
  10481a:	0e                   	push   %cs
  10481b:	08 85 02 42 0d 05    	or     %al,0x50d4202(%ebp)
  104821:	00 00                	add    %al,(%eax)
  104823:	00 20                	add    %ah,(%eax)
  104825:	00 00                	add    %al,(%eax)
  104827:	00 24 04             	add    %ah,(%esp,%eax,1)
  10482a:	00 00                	add    %al,(%eax)
  10482c:	da d0                	fcmovbe %st(0),%st
  10482e:	ff                   	(bad)  
  10482f:	ff 15 01 00 00 00    	call   *0x1
  104835:	41                   	inc    %ecx
  104836:	0e                   	push   %cs
  104837:	08 85 02 42 0d 05    	or     %al,0x50d4202(%ebp)
  10483d:	44                   	inc    %esp
  10483e:	83 03 03             	addl   $0x3,(%ebx)
  104841:	0d 01 c5 c3 0c       	or     $0xcc3c501,%eax
  104846:	04 04                	add    $0x4,%al
  104848:	1c 00                	sbb    $0x0,%al
  10484a:	00 00                	add    %al,(%eax)
  10484c:	48                   	dec    %eax
  10484d:	04 00                	add    $0x0,%al
  10484f:	00 cb                	add    %cl,%bl
  104851:	d1 ff                	sar    %edi
  104853:	ff 66 01             	jmp    *0x1(%esi)
  104856:	00 00                	add    %al,(%eax)
  104858:	00 41 0e             	add    %al,0xe(%ecx)
  10485b:	08 85 02 42 0d 05    	or     %al,0x50d4202(%ebp)
  104861:	03 62 01             	add    0x1(%edx),%esp
  104864:	c5 0c 04             	lds    (%esp,%eax,1),%ecx
  104867:	04 24                	add    $0x24,%al
  104869:	00 00                	add    %al,(%eax)
  10486b:	00 68 04             	add    %ch,0x4(%eax)
  10486e:	00 00                	add    %al,(%eax)
  104870:	11 d3                	adc    %edx,%ebx
  104872:	ff                   	(bad)  
  104873:	ff                   	(bad)  
  104874:	de 01                	fiadds (%ecx)
  104876:	00 00                	add    %al,(%eax)
  104878:	00 44 0c 01          	add    %al,0x1(%esp,%ecx,1)
  10487c:	00 47 10             	add    %al,0x10(%edi)
  10487f:	05 02 75 00 44       	add    $0x44007502,%eax
  104884:	0f 03 75 78          	lsl    0x78(%ebp),%esi
  104888:	06                   	push   %es
  104889:	10 03                	adc    %al,(%ebx)
  10488b:	02 75 7c             	add    0x7c(%ebp),%dh
  10488e:	00 00                	add    %al,(%eax)
  104890:	1c 00                	sbb    $0x0,%al
  104892:	00 00                	add    %al,(%eax)
  104894:	90                   	nop
  104895:	04 00                	add    $0x0,%al
  104897:	00 c7                	add    %al,%bh
  104899:	d4 ff                	aam    $0xff
  10489b:	ff 36                	pushl  (%esi)
  10489d:	00 00                	add    %al,(%eax)
  10489f:	00 00                	add    %al,(%eax)
  1048a1:	41                   	inc    %ecx
  1048a2:	0e                   	push   %cs
  1048a3:	08 85 02 42 0d 05    	or     %al,0x50d4202(%ebp)
  1048a9:	72 c5                	jb     104870 <_disable_lapic+0x12e0>
  1048ab:	0c 04                	or     $0x4,%al
  1048ad:	04 00                	add    $0x0,%al
  1048af:	00 1c 00             	add    %bl,(%eax,%eax,1)
  1048b2:	00 00                	add    %al,(%eax)
  1048b4:	b0 04                	mov    $0x4,%al
  1048b6:	00 00                	add    %al,(%eax)
  1048b8:	dd d4                	fst    %st(4)
  1048ba:	ff                   	(bad)  
  1048bb:	ff 36                	pushl  (%esi)
  1048bd:	00 00                	add    %al,(%eax)
  1048bf:	00 00                	add    %al,(%eax)
  1048c1:	41                   	inc    %ecx
  1048c2:	0e                   	push   %cs
  1048c3:	08 85 02 42 0d 05    	or     %al,0x50d4202(%ebp)
  1048c9:	72 c5                	jb     104890 <_disable_lapic+0x1300>
  1048cb:	0c 04                	or     $0x4,%al
  1048cd:	04 00                	add    $0x0,%al
  1048cf:	00 1c 00             	add    %bl,(%eax,%eax,1)
  1048d2:	00 00                	add    %al,(%eax)
  1048d4:	d0 04 00             	rolb   (%eax,%eax,1)
  1048d7:	00 f3                	add    %dh,%bl
  1048d9:	d4 ff                	aam    $0xff
  1048db:	ff 35 00 00 00 00    	pushl  0x0
  1048e1:	41                   	inc    %ecx
  1048e2:	0e                   	push   %cs
  1048e3:	08 85 02 42 0d 05    	or     %al,0x50d4202(%ebp)
  1048e9:	71 c5                	jno    1048b0 <_disable_lapic+0x1320>
  1048eb:	0c 04                	or     $0x4,%al
  1048ed:	04 00                	add    $0x0,%al
  1048ef:	00 1c 00             	add    %bl,(%eax,%eax,1)
  1048f2:	00 00                	add    %al,(%eax)
  1048f4:	f0 04 00             	lock add $0x0,%al
  1048f7:	00 08                	add    %cl,(%eax)
  1048f9:	d5 ff                	aad    $0xff
  1048fb:	ff 29                	ljmp   *(%ecx)
  1048fd:	00 00                	add    %al,(%eax)
  1048ff:	00 00                	add    %al,(%eax)
  104901:	41                   	inc    %ecx
  104902:	0e                   	push   %cs
  104903:	08 85 02 42 0d 05    	or     %al,0x50d4202(%ebp)
  104909:	65 c5 0c 04          	lds    %gs:(%esp,%eax,1),%ecx
  10490d:	04 00                	add    $0x0,%al
  10490f:	00 1c 00             	add    %bl,(%eax,%eax,1)
  104912:	00 00                	add    %al,(%eax)
  104914:	10 05 00 00 11 d5    	adc    %al,0xd5110000
  10491a:	ff                   	(bad)  
  10491b:	ff 44 00 00          	incl   0x0(%eax,%eax,1)
  10491f:	00 00                	add    %al,(%eax)
  104921:	41                   	inc    %ecx
  104922:	0e                   	push   %cs
  104923:	08 85 02 42 0d 05    	or     %al,0x50d4202(%ebp)
  104929:	02 40 c5             	add    -0x3b(%eax),%al
  10492c:	0c 04                	or     $0x4,%al
  10492e:	04 00                	add    $0x0,%al
  104930:	1c 00                	sbb    $0x0,%al
  104932:	00 00                	add    %al,(%eax)
  104934:	30 05 00 00 35 d5    	xor    %al,0xd5350000
  10493a:	ff                   	(bad)  
  10493b:	ff 44 00 00          	incl   0x0(%eax,%eax,1)
  10493f:	00 00                	add    %al,(%eax)
  104941:	41                   	inc    %ecx
  104942:	0e                   	push   %cs
  104943:	08 85 02 42 0d 05    	or     %al,0x50d4202(%ebp)
  104949:	02 40 c5             	add    -0x3b(%eax),%al
  10494c:	0c 04                	or     $0x4,%al
  10494e:	04 00                	add    $0x0,%al
  104950:	1c 00                	sbb    $0x0,%al
  104952:	00 00                	add    %al,(%eax)
  104954:	50                   	push   %eax
  104955:	05 00 00 59 d5       	add    $0xd5590000,%eax
  10495a:	ff                   	(bad)  
  10495b:	ff a6 00 00 00 00    	jmp    *0x0(%esi)
  104961:	41                   	inc    %ecx
  104962:	0e                   	push   %cs
  104963:	08 85 02 42 0d 05    	or     %al,0x50d4202(%ebp)
  104969:	02 a2 c5 0c 04 04    	add    0x4040cc5(%edx),%ah
  10496f:	00 1c 00             	add    %bl,(%eax,%eax,1)
  104972:	00 00                	add    %al,(%eax)
  104974:	70 05                	jo     10497b <_disable_lapic+0x13eb>
  104976:	00 00                	add    %al,(%eax)
  104978:	df d5                	(bad)  
  10497a:	ff                   	(bad)  
  10497b:	ff 9f 00 00 00 00    	lcall  *0x0(%edi)
  104981:	41                   	inc    %ecx
  104982:	0e                   	push   %cs
  104983:	08 85 02 42 0d 05    	or     %al,0x50d4202(%ebp)
  104989:	02 9b c5 0c 04 04    	add    0x4040cc5(%ebx),%bl
  10498f:	00 1c 00             	add    %bl,(%eax,%eax,1)
  104992:	00 00                	add    %al,(%eax)
  104994:	90                   	nop
  104995:	05 00 00 5e d6       	add    $0xd65e0000,%eax
  10499a:	ff                   	(bad)  
  10499b:	ff 61 00             	jmp    *0x0(%ecx)
  10499e:	00 00                	add    %al,(%eax)
  1049a0:	00 41 0e             	add    %al,0xe(%ecx)
  1049a3:	08 85 02 42 0d 05    	or     %al,0x50d4202(%ebp)
  1049a9:	02 5d c5             	add    -0x3b(%ebp),%bl
  1049ac:	0c 04                	or     $0x4,%al
  1049ae:	04 00                	add    $0x0,%al
  1049b0:	1c 00                	sbb    $0x0,%al
  1049b2:	00 00                	add    %al,(%eax)
  1049b4:	b0 05                	mov    $0x5,%al
  1049b6:	00 00                	add    %al,(%eax)
  1049b8:	9f                   	lahf   
  1049b9:	d6                   	(bad)  
  1049ba:	ff                   	(bad)  
  1049bb:	ff 68 00             	ljmp   *0x0(%eax)
  1049be:	00 00                	add    %al,(%eax)
  1049c0:	00 41 0e             	add    %al,0xe(%ecx)
  1049c3:	08 85 02 42 0d 05    	or     %al,0x50d4202(%ebp)
  1049c9:	02 64 c5 0c          	add    0xc(%ebp,%eax,8),%ah
  1049cd:	04 04                	add    $0x4,%al
  1049cf:	00 1c 00             	add    %bl,(%eax,%eax,1)
  1049d2:	00 00                	add    %al,(%eax)
  1049d4:	d0 05 00 00 e7 d6    	rolb   0xd6e70000
  1049da:	ff                   	(bad)  
  1049db:	ff 36                	pushl  (%esi)
  1049dd:	00 00                	add    %al,(%eax)
  1049df:	00 00                	add    %al,(%eax)
  1049e1:	41                   	inc    %ecx
  1049e2:	0e                   	push   %cs
  1049e3:	08 85 02 42 0d 05    	or     %al,0x50d4202(%ebp)
  1049e9:	72 c5                	jb     1049b0 <_disable_lapic+0x1420>
  1049eb:	0c 04                	or     $0x4,%al
  1049ed:	04 00                	add    $0x0,%al
  1049ef:	00 1c 00             	add    %bl,(%eax,%eax,1)
  1049f2:	00 00                	add    %al,(%eax)
  1049f4:	f0 05 00 00 fd d6    	lock add $0xd6fd0000,%eax
  1049fa:	ff                   	(bad)  
  1049fb:	ff                   	(bad)  
  1049fc:	7a 00                	jp     1049fe <_disable_lapic+0x146e>
  1049fe:	00 00                	add    %al,(%eax)
  104a00:	00 41 0e             	add    %al,0xe(%ecx)
  104a03:	08 85 02 42 0d 05    	or     %al,0x50d4202(%ebp)
  104a09:	02 76 c5             	add    -0x3b(%esi),%dh
  104a0c:	0c 04                	or     $0x4,%al
  104a0e:	04 00                	add    $0x0,%al
  104a10:	1c 00                	sbb    $0x0,%al
  104a12:	00 00                	add    %al,(%eax)
  104a14:	10 06                	adc    %al,(%esi)
  104a16:	00 00                	add    %al,(%eax)
  104a18:	57                   	push   %edi
  104a19:	d7                   	xlat   %ds:(%ebx)
  104a1a:	ff                   	(bad)  
  104a1b:	ff 2a                	ljmp   *(%edx)
  104a1d:	00 00                	add    %al,(%eax)
  104a1f:	00 00                	add    %al,(%eax)
  104a21:	41                   	inc    %ecx
  104a22:	0e                   	push   %cs
  104a23:	08 85 02 42 0d 05    	or     %al,0x50d4202(%ebp)
  104a29:	66 c5 0c 04          	lds    (%esp,%eax,1),%cx
  104a2d:	04 00                	add    $0x0,%al
  104a2f:	00 1c 00             	add    %bl,(%eax,%eax,1)
  104a32:	00 00                	add    %al,(%eax)
  104a34:	30 06                	xor    %al,(%esi)
  104a36:	00 00                	add    %al,(%eax)
  104a38:	61                   	popa   
  104a39:	d7                   	xlat   %ds:(%ebx)
  104a3a:	ff                   	(bad)  
  104a3b:	ff 2b                	ljmp   *(%ebx)
  104a3d:	00 00                	add    %al,(%eax)
  104a3f:	00 00                	add    %al,(%eax)
  104a41:	41                   	inc    %ecx
  104a42:	0e                   	push   %cs
  104a43:	08 85 02 42 0d 05    	or     %al,0x50d4202(%ebp)
  104a49:	67 c5 0c             	lds    (%si),%ecx
  104a4c:	04 04                	add    $0x4,%al
  104a4e:	00 00                	add    %al,(%eax)
  104a50:	1c 00                	sbb    $0x0,%al
  104a52:	00 00                	add    %al,(%eax)
  104a54:	50                   	push   %eax
  104a55:	06                   	push   %es
  104a56:	00 00                	add    %al,(%eax)
  104a58:	6c                   	insb   (%dx),%es:(%edi)
  104a59:	d7                   	xlat   %ds:(%ebx)
  104a5a:	ff                   	(bad)  
  104a5b:	ff 21                	jmp    *(%ecx)
  104a5d:	00 00                	add    %al,(%eax)
  104a5f:	00 00                	add    %al,(%eax)
  104a61:	41                   	inc    %ecx
  104a62:	0e                   	push   %cs
  104a63:	08 85 02 42 0d 05    	or     %al,0x50d4202(%ebp)
  104a69:	5d                   	pop    %ebp
  104a6a:	c5 0c 04             	lds    (%esp,%eax,1),%ecx
  104a6d:	04 00                	add    $0x0,%al
  104a6f:	00 1c 00             	add    %bl,(%eax,%eax,1)
  104a72:	00 00                	add    %al,(%eax)
  104a74:	70 06                	jo     104a7c <_disable_lapic+0x14ec>
  104a76:	00 00                	add    %al,(%eax)
  104a78:	6d                   	insl   (%dx),%es:(%edi)
  104a79:	d7                   	xlat   %ds:(%ebx)
  104a7a:	ff                   	(bad)  
  104a7b:	ff 1d 00 00 00 00    	lcall  *0x0
  104a81:	41                   	inc    %ecx
  104a82:	0e                   	push   %cs
  104a83:	08 85 02 42 0d 05    	or     %al,0x50d4202(%ebp)
  104a89:	59                   	pop    %ecx
  104a8a:	c5 0c 04             	lds    (%esp,%eax,1),%ecx
  104a8d:	04 00                	add    $0x0,%al
  104a8f:	00 24 00             	add    %ah,(%eax,%eax,1)
  104a92:	00 00                	add    %al,(%eax)
  104a94:	90                   	nop
  104a95:	06                   	push   %es
  104a96:	00 00                	add    %al,(%eax)
  104a98:	6a d7                	push   $0xffffffd7
  104a9a:	ff                   	(bad)  
  104a9b:	ff 1b                	lcall  *(%ebx)
  104a9d:	00 00                	add    %al,(%eax)
  104a9f:	00 00                	add    %al,(%eax)
  104aa1:	41                   	inc    %ecx
  104aa2:	0e                   	push   %cs
  104aa3:	08 85 02 42 0d 05    	or     %al,0x50d4202(%ebp)
  104aa9:	42                   	inc    %edx
  104aaa:	86 03                	xchg   %al,(%ebx)
  104aac:	83 04 53 c3          	addl   $0xffffffc3,(%ebx,%edx,2)
  104ab0:	41                   	inc    %ecx
  104ab1:	c6 41 c5 0c          	movb   $0xc,-0x3b(%ecx)
  104ab5:	04 04                	add    $0x4,%al
  104ab7:	00 1c 00             	add    %bl,(%eax,%eax,1)
  104aba:	00 00                	add    %al,(%eax)
  104abc:	b8 06 00 00 5d       	mov    $0x5d000006,%eax
  104ac1:	d7                   	xlat   %ds:(%ebx)
  104ac2:	ff                   	(bad)  
  104ac3:	ff 68 00             	ljmp   *0x0(%eax)
  104ac6:	00 00                	add    %al,(%eax)
  104ac8:	00 41 0e             	add    %al,0xe(%ecx)
  104acb:	08 85 02 42 0d 05    	or     %al,0x50d4202(%ebp)
  104ad1:	02 64 c5 0c          	add    0xc(%ebp,%eax,8),%ah
  104ad5:	04 04                	add    $0x4,%al
  104ad7:	00 1c 00             	add    %bl,(%eax,%eax,1)
  104ada:	00 00                	add    %al,(%eax)
  104adc:	d8 06                	fadds  (%esi)
  104ade:	00 00                	add    %al,(%eax)
  104ae0:	a5                   	movsl  %ds:(%esi),%es:(%edi)
  104ae1:	d7                   	xlat   %ds:(%ebx)
  104ae2:	ff                   	(bad)  
  104ae3:	ff b4 00 00 00 00 41 	pushl  0x41000000(%eax,%eax,1)
  104aea:	0e                   	push   %cs
  104aeb:	08 85 02 42 0d 05    	or     %al,0x50d4202(%ebp)
  104af1:	02 b0 c5 0c 04 04    	add    0x4040cc5(%eax),%dh
  104af7:	00 1c 00             	add    %bl,(%eax,%eax,1)
  104afa:	00 00                	add    %al,(%eax)
  104afc:	f8                   	clc    
  104afd:	06                   	push   %es
  104afe:	00 00                	add    %al,(%eax)
  104b00:	39 d8                	cmp    %ebx,%eax
  104b02:	ff                   	(bad)  
  104b03:	ff 40 00             	incl   0x0(%eax)
  104b06:	00 00                	add    %al,(%eax)
  104b08:	00 41 0e             	add    %al,0xe(%ecx)
  104b0b:	08 85 02 42 0d 05    	or     %al,0x50d4202(%ebp)
  104b11:	7c c5                	jl     104ad8 <_disable_lapic+0x1548>
  104b13:	0c 04                	or     $0x4,%al
  104b15:	04 00                	add    $0x0,%al
  104b17:	00 1c 00             	add    %bl,(%eax,%eax,1)
  104b1a:	00 00                	add    %al,(%eax)
  104b1c:	18 07                	sbb    %al,(%edi)
  104b1e:	00 00                	add    %al,(%eax)
  104b20:	59                   	pop    %ecx
  104b21:	d8 ff                	fdivr  %st(7),%st
  104b23:	ff 63 00             	jmp    *0x0(%ebx)
  104b26:	00 00                	add    %al,(%eax)
  104b28:	00 41 0e             	add    %al,0xe(%ecx)
  104b2b:	08 85 02 42 0d 05    	or     %al,0x50d4202(%ebp)
  104b31:	02 5f c5             	add    -0x3b(%edi),%bl
  104b34:	0c 04                	or     $0x4,%al
  104b36:	04 00                	add    $0x0,%al
  104b38:	1c 00                	sbb    $0x0,%al
  104b3a:	00 00                	add    %al,(%eax)
  104b3c:	38 07                	cmp    %al,(%edi)
  104b3e:	00 00                	add    %al,(%eax)
  104b40:	9c                   	pushf  
  104b41:	d8 ff                	fdivr  %st(7),%st
  104b43:	ff 6b 04             	ljmp   *0x4(%ebx)
  104b46:	00 00                	add    %al,(%eax)
  104b48:	00 41 0e             	add    %al,0xe(%ecx)
  104b4b:	08 85 02 42 0d 05    	or     %al,0x50d4202(%ebp)
  104b51:	03 67 04             	add    0x4(%edi),%esp
  104b54:	c5 0c 04             	lds    (%esp,%eax,1),%ecx
  104b57:	04 1c                	add    $0x1c,%al
  104b59:	00 00                	add    %al,(%eax)
  104b5b:	00 58 07             	add    %bl,0x7(%eax)
  104b5e:	00 00                	add    %al,(%eax)
  104b60:	e7 dc                	out    %eax,$0xdc
  104b62:	ff                   	(bad)  
  104b63:	ff 8d 00 00 00 00    	decl   0x0(%ebp)
  104b69:	41                   	inc    %ecx
  104b6a:	0e                   	push   %cs
  104b6b:	08 85 02 42 0d 05    	or     %al,0x50d4202(%ebp)
  104b71:	02 89 c5 0c 04 04    	add    0x4040cc5(%ecx),%cl
  104b77:	00 1c 00             	add    %bl,(%eax,%eax,1)
  104b7a:	00 00                	add    %al,(%eax)
  104b7c:	78 07                	js     104b85 <_disable_lapic+0x15f5>
  104b7e:	00 00                	add    %al,(%eax)
  104b80:	54                   	push   %esp
  104b81:	dd ff                	(bad)  
  104b83:	ff 9c 00 00 00 00 41 	lcall  *0x41000000(%eax,%eax,1)
  104b8a:	0e                   	push   %cs
  104b8b:	08 85 02 42 0d 05    	or     %al,0x50d4202(%ebp)
  104b91:	02 98 c5 0c 04 04    	add    0x4040cc5(%eax),%bl
  104b97:	00 1c 00             	add    %bl,(%eax,%eax,1)
  104b9a:	00 00                	add    %al,(%eax)
  104b9c:	98                   	cwtl   
  104b9d:	07                   	pop    %es
  104b9e:	00 00                	add    %al,(%eax)
  104ba0:	d0 dd                	rcr    %ch
  104ba2:	ff                   	(bad)  
  104ba3:	ff 13                	call   *(%ebx)
  104ba5:	00 00                	add    %al,(%eax)
  104ba7:	00 00                	add    %al,(%eax)
  104ba9:	41                   	inc    %ecx
  104baa:	0e                   	push   %cs
  104bab:	08 85 02 42 0d 05    	or     %al,0x50d4202(%ebp)
  104bb1:	4f                   	dec    %edi
  104bb2:	c5 0c 04             	lds    (%esp,%eax,1),%ecx
  104bb5:	04 00                	add    $0x0,%al
  104bb7:	00 1c 00             	add    %bl,(%eax,%eax,1)
  104bba:	00 00                	add    %al,(%eax)
  104bbc:	b8 07 00 00 c3       	mov    $0xc3000007,%eax
  104bc1:	dd ff                	(bad)  
  104bc3:	ff 1b                	lcall  *(%ebx)
  104bc5:	00 00                	add    %al,(%eax)
  104bc7:	00 00                	add    %al,(%eax)
  104bc9:	41                   	inc    %ecx
  104bca:	0e                   	push   %cs
  104bcb:	08 85 02 42 0d 05    	or     %al,0x50d4202(%ebp)
  104bd1:	57                   	push   %edi
  104bd2:	c5 0c 04             	lds    (%esp,%eax,1),%ecx
  104bd5:	04 00                	add    $0x0,%al
  104bd7:	00 1c 00             	add    %bl,(%eax,%eax,1)
  104bda:	00 00                	add    %al,(%eax)
  104bdc:	d8 07                	fadds  (%edi)
  104bde:	00 00                	add    %al,(%eax)
  104be0:	be dd ff ff 9f       	mov    $0x9fffffdd,%esi
  104be5:	00 00                	add    %al,(%eax)
  104be7:	00 00                	add    %al,(%eax)
  104be9:	41                   	inc    %ecx
  104bea:	0e                   	push   %cs
  104beb:	08 85 02 42 0d 05    	or     %al,0x50d4202(%ebp)
  104bf1:	02 9b c5 0c 04 04    	add    0x4040cc5(%ebx),%bl
  104bf7:	00 1c 00             	add    %bl,(%eax,%eax,1)
  104bfa:	00 00                	add    %al,(%eax)
  104bfc:	f8                   	clc    
  104bfd:	07                   	pop    %es
  104bfe:	00 00                	add    %al,(%eax)
  104c00:	3d de ff ff 06       	cmp    $0x6ffffde,%eax
  104c05:	00 00                	add    %al,(%eax)
  104c07:	00 00                	add    %al,(%eax)
  104c09:	41                   	inc    %ecx
  104c0a:	0e                   	push   %cs
  104c0b:	08 85 02 42 0d 05    	or     %al,0x50d4202(%ebp)
  104c11:	42                   	inc    %edx
  104c12:	c5 0c 04             	lds    (%esp,%eax,1),%ecx
  104c15:	04 00                	add    $0x0,%al
  104c17:	00 1c 00             	add    %bl,(%eax,%eax,1)
  104c1a:	00 00                	add    %al,(%eax)
  104c1c:	18 08                	sbb    %cl,(%eax)
  104c1e:	00 00                	add    %al,(%eax)
  104c20:	23 de                	and    %esi,%ebx
  104c22:	ff                   	(bad)  
  104c23:	ff 15 00 00 00 00    	call   *0x0
  104c29:	41                   	inc    %ecx
  104c2a:	0e                   	push   %cs
  104c2b:	08 85 02 42 0d 05    	or     %al,0x50d4202(%ebp)
  104c31:	51                   	push   %ecx
  104c32:	c5 0c 04             	lds    (%esp,%eax,1),%ecx
  104c35:	04 00                	add    $0x0,%al
  104c37:	00 18                	add    %bl,(%eax)
  104c39:	00 00                	add    %al,(%eax)
  104c3b:	00 38                	add    %bh,(%eax)
  104c3d:	08 00                	or     %al,(%eax)
  104c3f:	00 18                	add    %bl,(%eax)
  104c41:	de ff                	fdivrp %st,%st(7)
  104c43:	ff 13                	call   *(%ebx)
  104c45:	00 00                	add    %al,(%eax)
  104c47:	00 00                	add    %al,(%eax)
  104c49:	41                   	inc    %ecx
  104c4a:	0e                   	push   %cs
  104c4b:	08 85 02 42 0d 05    	or     %al,0x50d4202(%ebp)
  104c51:	00 00                	add    %al,(%eax)
  104c53:	00 18                	add    %bl,(%eax)
  104c55:	00 00                	add    %al,(%eax)
  104c57:	00 54 08 00          	add    %dl,0x0(%eax,%ecx,1)
  104c5b:	00 0f                	add    %cl,(%edi)
  104c5d:	de ff                	fdivrp %st,%st(7)
  104c5f:	ff 13                	call   *(%ebx)
  104c61:	00 00                	add    %al,(%eax)
  104c63:	00 00                	add    %al,(%eax)
  104c65:	41                   	inc    %ecx
  104c66:	0e                   	push   %cs
  104c67:	08 85 02 42 0d 05    	or     %al,0x50d4202(%ebp)
  104c6d:	00 00                	add    %al,(%eax)
  104c6f:	00 1c 00             	add    %bl,(%eax,%eax,1)
  104c72:	00 00                	add    %al,(%eax)
  104c74:	70 08                	jo     104c7e <_disable_lapic+0x16ee>
  104c76:	00 00                	add    %al,(%eax)
  104c78:	06                   	push   %es
  104c79:	de ff                	fdivrp %st,%st(7)
  104c7b:	ff 15 00 00 00 00    	call   *0x0
  104c81:	41                   	inc    %ecx
  104c82:	0e                   	push   %cs
  104c83:	08 85 02 42 0d 05    	or     %al,0x50d4202(%ebp)
  104c89:	51                   	push   %ecx
  104c8a:	c5 0c 04             	lds    (%esp,%eax,1),%ecx
  104c8d:	04 00                	add    $0x0,%al
  104c8f:	00 1c 00             	add    %bl,(%eax,%eax,1)
  104c92:	00 00                	add    %al,(%eax)
  104c94:	90                   	nop
  104c95:	08 00                	or     %al,(%eax)
  104c97:	00 fb                	add    %bh,%bl
  104c99:	dd ff                	(bad)  
  104c9b:	ff 35 00 00 00 00    	pushl  0x0
  104ca1:	41                   	inc    %ecx
  104ca2:	0e                   	push   %cs
  104ca3:	08 85 02 42 0d 05    	or     %al,0x50d4202(%ebp)
  104ca9:	71 c5                	jno    104c70 <_disable_lapic+0x16e0>
  104cab:	0c 04                	or     $0x4,%al
  104cad:	04 00                	add    $0x0,%al
  104caf:	00 1c 00             	add    %bl,(%eax,%eax,1)
  104cb2:	00 00                	add    %al,(%eax)
  104cb4:	b0 08                	mov    $0x8,%al
  104cb6:	00 00                	add    %al,(%eax)
  104cb8:	10 de                	adc    %bl,%dh
  104cba:	ff                   	(bad)  
  104cbb:	ff 1b                	lcall  *(%ebx)
  104cbd:	00 00                	add    %al,(%eax)
  104cbf:	00 00                	add    %al,(%eax)
  104cc1:	41                   	inc    %ecx
  104cc2:	0e                   	push   %cs
  104cc3:	08 85 02 42 0d 05    	or     %al,0x50d4202(%ebp)
  104cc9:	57                   	push   %edi
  104cca:	c5 0c 04             	lds    (%esp,%eax,1),%ecx
  104ccd:	04 00                	add    $0x0,%al
  104ccf:	00 1c 00             	add    %bl,(%eax,%eax,1)
  104cd2:	00 00                	add    %al,(%eax)
  104cd4:	d0 08                	rorb   (%eax)
  104cd6:	00 00                	add    %al,(%eax)
  104cd8:	0b de                	or     %esi,%ebx
  104cda:	ff                   	(bad)  
  104cdb:	ff 6d 00             	ljmp   *0x0(%ebp)
  104cde:	00 00                	add    %al,(%eax)
  104ce0:	00 41 0e             	add    %al,0xe(%ecx)
  104ce3:	08 85 02 42 0d 05    	or     %al,0x50d4202(%ebp)
  104ce9:	02 69 c5             	add    -0x3b(%ecx),%ch
  104cec:	0c 04                	or     $0x4,%al
  104cee:	04 00                	add    $0x0,%al
  104cf0:	1c 00                	sbb    $0x0,%al
  104cf2:	00 00                	add    %al,(%eax)
  104cf4:	f0 08 00             	lock or %al,(%eax)
  104cf7:	00 58 de             	add    %bl,-0x22(%eax)
  104cfa:	ff                   	(bad)  
  104cfb:	ff 0e                	decl   (%esi)
  104cfd:	00 00                	add    %al,(%eax)
  104cff:	00 00                	add    %al,(%eax)
  104d01:	41                   	inc    %ecx
  104d02:	0e                   	push   %cs
  104d03:	08 85 02 42 0d 05    	or     %al,0x50d4202(%ebp)
  104d09:	4a                   	dec    %edx
  104d0a:	c5 0c 04             	lds    (%esp,%eax,1),%ecx
  104d0d:	04 00                	add    $0x0,%al
  104d0f:	00 1c 00             	add    %bl,(%eax,%eax,1)
  104d12:	00 00                	add    %al,(%eax)
  104d14:	10 09                	adc    %cl,(%ecx)
  104d16:	00 00                	add    %al,(%eax)
  104d18:	46                   	inc    %esi
  104d19:	de ff                	fdivrp %st,%st(7)
  104d1b:	ff 6b 00             	ljmp   *0x0(%ebx)
  104d1e:	00 00                	add    %al,(%eax)
  104d20:	00 41 0e             	add    %al,0xe(%ecx)
  104d23:	08 85 02 42 0d 05    	or     %al,0x50d4202(%ebp)
  104d29:	02 65 c5             	add    -0x3b(%ebp),%ah
  104d2c:	0c 04                	or     $0x4,%al
  104d2e:	04 00                	add    $0x0,%al
  104d30:	1c 00                	sbb    $0x0,%al
  104d32:	00 00                	add    %al,(%eax)
  104d34:	30 09                	xor    %cl,(%ecx)
  104d36:	00 00                	add    %al,(%eax)
  104d38:	91                   	xchg   %eax,%ecx
  104d39:	de ff                	fdivrp %st,%st(7)
  104d3b:	ff 8b 00 00 00 00    	decl   0x0(%ebx)
  104d41:	41                   	inc    %ecx
  104d42:	0e                   	push   %cs
  104d43:	08 85 02 42 0d 05    	or     %al,0x50d4202(%ebp)
  104d49:	02 85 c5 0c 04 04    	add    0x4040cc5(%ebp),%al
  104d4f:	00 1c 00             	add    %bl,(%eax,%eax,1)
  104d52:	00 00                	add    %al,(%eax)
  104d54:	50                   	push   %eax
  104d55:	09 00                	or     %eax,(%eax)
  104d57:	00 fc                	add    %bh,%ah
  104d59:	de ff                	fdivrp %st,%st(7)
  104d5b:	ff e2                	jmp    *%edx
  104d5d:	00 00                	add    %al,(%eax)
  104d5f:	00 00                	add    %al,(%eax)
  104d61:	41                   	inc    %ecx
  104d62:	0e                   	push   %cs
  104d63:	08 85 02 42 0d 05    	or     %al,0x50d4202(%ebp)
  104d69:	02 de                	add    %dh,%bl
  104d6b:	c5 0c 04             	lds    (%esp,%eax,1),%ecx
  104d6e:	04 00                	add    $0x0,%al
  104d70:	1c 00                	sbb    $0x0,%al
  104d72:	00 00                	add    %al,(%eax)
  104d74:	70 09                	jo     104d7f <_disable_lapic+0x17ef>
  104d76:	00 00                	add    %al,(%eax)
  104d78:	be df ff ff 39       	mov    $0x39ffffdf,%esi
  104d7d:	00 00                	add    %al,(%eax)
  104d7f:	00 00                	add    %al,(%eax)
  104d81:	41                   	inc    %ecx
  104d82:	0e                   	push   %cs
  104d83:	08 85 02 42 0d 05    	or     %al,0x50d4202(%ebp)
  104d89:	75 c5                	jne    104d50 <_disable_lapic+0x17c0>
  104d8b:	0c 04                	or     $0x4,%al
  104d8d:	04 00                	add    $0x0,%al
  104d8f:	00 1c 00             	add    %bl,(%eax,%eax,1)
  104d92:	00 00                	add    %al,(%eax)
  104d94:	90                   	nop
  104d95:	09 00                	or     %eax,(%eax)
  104d97:	00 d7                	add    %dl,%bh
  104d99:	df ff                	(bad)  
  104d9b:	ff 4b 00             	decl   0x0(%ebx)
  104d9e:	00 00                	add    %al,(%eax)
  104da0:	00 41 0e             	add    %al,0xe(%ecx)
  104da3:	08 85 02 42 0d 05    	or     %al,0x50d4202(%ebp)
  104da9:	02 47 c5             	add    -0x3b(%edi),%al
  104dac:	0c 04                	or     $0x4,%al
  104dae:	04 00                	add    $0x0,%al
  104db0:	1c 00                	sbb    $0x0,%al
  104db2:	00 00                	add    %al,(%eax)
  104db4:	b0 09                	mov    $0x9,%al
  104db6:	00 00                	add    %al,(%eax)
  104db8:	02 e0                	add    %al,%ah
  104dba:	ff                   	(bad)  
  104dbb:	ff 89 00 00 00 00    	decl   0x0(%ecx)
  104dc1:	41                   	inc    %ecx
  104dc2:	0e                   	push   %cs
  104dc3:	08 85 02 42 0d 05    	or     %al,0x50d4202(%ebp)
  104dc9:	02 85 c5 0c 04 04    	add    0x4040cc5(%ebp),%al
  104dcf:	00 1c 00             	add    %bl,(%eax,%eax,1)
  104dd2:	00 00                	add    %al,(%eax)
  104dd4:	d0 09                	rorb   (%ecx)
  104dd6:	00 00                	add    %al,(%eax)
  104dd8:	6b e0 ff             	imul   $0xffffffff,%eax,%esp
  104ddb:	ff b6 00 00 00 00    	pushl  0x0(%esi)
  104de1:	41                   	inc    %ecx
  104de2:	0e                   	push   %cs
  104de3:	08 85 02 42 0d 05    	or     %al,0x50d4202(%ebp)
  104de9:	02 b2 c5 0c 04 04    	add    0x4040cc5(%edx),%dh
  104def:	00 1c 00             	add    %bl,(%eax,%eax,1)
  104df2:	00 00                	add    %al,(%eax)
  104df4:	f0 09 00             	lock or %eax,(%eax)
  104df7:	00 01                	add    %al,(%ecx)
  104df9:	e1 ff                	loope  104dfa <_disable_lapic+0x186a>
  104dfb:	ff 32                	pushl  (%edx)
  104dfd:	01 00                	add    %eax,(%eax)
  104dff:	00 00                	add    %al,(%eax)
  104e01:	41                   	inc    %ecx
  104e02:	0e                   	push   %cs
  104e03:	08 85 02 42 0d 05    	or     %al,0x50d4202(%ebp)
  104e09:	03 2e                	add    (%esi),%ebp
  104e0b:	01 c5                	add    %eax,%ebp
  104e0d:	0c 04                	or     $0x4,%al
  104e0f:	04 1c                	add    $0x1c,%al
  104e11:	00 00                	add    %al,(%eax)
  104e13:	00 10                	add    %dl,(%eax)
  104e15:	0a 00                	or     (%eax),%al
  104e17:	00 13                	add    %dl,(%ebx)
  104e19:	e2 ff                	loop   104e1a <_disable_lapic+0x188a>
  104e1b:	ff d3                	call   *%ebx
  104e1d:	00 00                	add    %al,(%eax)
  104e1f:	00 00                	add    %al,(%eax)
  104e21:	41                   	inc    %ecx
  104e22:	0e                   	push   %cs
  104e23:	08 85 02 42 0d 05    	or     %al,0x50d4202(%ebp)
  104e29:	02 cf                	add    %bh,%cl
  104e2b:	c5 0c 04             	lds    (%esp,%eax,1),%ecx
  104e2e:	04 00                	add    $0x0,%al
  104e30:	18 00                	sbb    %al,(%eax)
  104e32:	00 00                	add    %al,(%eax)
  104e34:	30 0a                	xor    %cl,(%edx)
  104e36:	00 00                	add    %al,(%eax)
  104e38:	c6                   	(bad)  
  104e39:	e2 ff                	loop   104e3a <_disable_lapic+0x18aa>
  104e3b:	ff 74 00 00          	pushl  0x0(%eax,%eax,1)
  104e3f:	00 00                	add    %al,(%eax)
  104e41:	41                   	inc    %ecx
  104e42:	0e                   	push   %cs
  104e43:	08 85 02 42 0d 05    	or     %al,0x50d4202(%ebp)
  104e49:	00 00                	add    %al,(%eax)
  104e4b:	00 18                	add    %bl,(%eax)
  104e4d:	00 00                	add    %al,(%eax)
  104e4f:	00 4c 0a 00          	add    %cl,0x0(%edx,%ecx,1)
  104e53:	00 1e                	add    %bl,(%esi)
  104e55:	e3 ff                	jecxz  104e56 <_disable_lapic+0x18c6>
  104e57:	ff 74 00 00          	pushl  0x0(%eax,%eax,1)
  104e5b:	00 00                	add    %al,(%eax)
  104e5d:	41                   	inc    %ecx
  104e5e:	0e                   	push   %cs
  104e5f:	08 85 02 42 0d 05    	or     %al,0x50d4202(%ebp)
  104e65:	00 00                	add    %al,(%eax)
  104e67:	00 1c 00             	add    %bl,(%eax,%eax,1)
  104e6a:	00 00                	add    %al,(%eax)
  104e6c:	68 0a 00 00 76       	push   $0x7600000a
  104e71:	e3 ff                	jecxz  104e72 <_disable_lapic+0x18e2>
  104e73:	ff 41 00             	incl   0x0(%ecx)
  104e76:	00 00                	add    %al,(%eax)
  104e78:	00 41 0e             	add    %al,0xe(%ecx)
  104e7b:	08 85 02 42 0d 05    	or     %al,0x50d4202(%ebp)
  104e81:	7d c5                	jge    104e48 <_disable_lapic+0x18b8>
  104e83:	0c 04                	or     $0x4,%al
  104e85:	04 00                	add    $0x0,%al
  104e87:	00 1c 00             	add    %bl,(%eax,%eax,1)
  104e8a:	00 00                	add    %al,(%eax)
  104e8c:	88 0a                	mov    %cl,(%edx)
  104e8e:	00 00                	add    %al,(%eax)
  104e90:	97                   	xchg   %eax,%edi
  104e91:	e3 ff                	jecxz  104e92 <_disable_lapic+0x1902>
  104e93:	ff 5b 00             	lcall  *0x0(%ebx)
  104e96:	00 00                	add    %al,(%eax)
  104e98:	00 41 0e             	add    %al,0xe(%ecx)
  104e9b:	08 85 02 42 0d 05    	or     %al,0x50d4202(%ebp)
  104ea1:	02 57 c5             	add    -0x3b(%edi),%dl
  104ea4:	0c 04                	or     $0x4,%al
  104ea6:	04 00                	add    $0x0,%al
  104ea8:	1c 00                	sbb    $0x0,%al
  104eaa:	00 00                	add    %al,(%eax)
  104eac:	a8 0a                	test   $0xa,%al
  104eae:	00 00                	add    %al,(%eax)
  104eb0:	d2 e3                	shl    %cl,%bl
  104eb2:	ff                   	(bad)  
  104eb3:	ff 27                	jmp    *(%edi)
  104eb5:	00 00                	add    %al,(%eax)
  104eb7:	00 00                	add    %al,(%eax)
  104eb9:	41                   	inc    %ecx
  104eba:	0e                   	push   %cs
  104ebb:	08 85 02 42 0d 05    	or     %al,0x50d4202(%ebp)
  104ec1:	63 c5                	arpl   %ax,%bp
  104ec3:	0c 04                	or     $0x4,%al
  104ec5:	04 00                	add    $0x0,%al
  104ec7:	00 1c 00             	add    %bl,(%eax,%eax,1)
  104eca:	00 00                	add    %al,(%eax)
  104ecc:	c8 0a 00 00          	enter  $0xa,$0x0
  104ed0:	d9 e3                	(bad)  
  104ed2:	ff                   	(bad)  
  104ed3:	ff                   	(bad)  
  104ed4:	3c 00                	cmp    $0x0,%al
  104ed6:	00 00                	add    %al,(%eax)
  104ed8:	00 41 0e             	add    %al,0xe(%ecx)
  104edb:	08 85 02 42 0d 05    	or     %al,0x50d4202(%ebp)
  104ee1:	78 c5                	js     104ea8 <_disable_lapic+0x1918>
  104ee3:	0c 04                	or     $0x4,%al
  104ee5:	04 00                	add    $0x0,%al
  104ee7:	00 1c 00             	add    %bl,(%eax,%eax,1)
  104eea:	00 00                	add    %al,(%eax)
  104eec:	e8 0a 00 00 f5       	call   f5104efb <CHECKSUM+0x10bdfefe>
  104ef1:	e3 ff                	jecxz  104ef2 <_disable_lapic+0x1962>
  104ef3:	ff 2b                	ljmp   *(%ebx)
  104ef5:	00 00                	add    %al,(%eax)
  104ef7:	00 00                	add    %al,(%eax)
  104ef9:	41                   	inc    %ecx
  104efa:	0e                   	push   %cs
  104efb:	08 85 02 42 0d 05    	or     %al,0x50d4202(%ebp)
  104f01:	67 c5 0c             	lds    (%si),%ecx
  104f04:	04 04                	add    $0x4,%al
	...

Disassembly of section .data:

00105000 <placement_address>:
  105000:	66 6d                	insw   (%dx),%es:(%edi)
  105002:	10 00                	adc    %al,(%eax)

00105004 <next_pid>:
  105004:	01 00                	add    %eax,(%eax)
	...

Disassembly of section .bss:

00106000 <kheap>:
  106000:	00 00                	add    %al,(%eax)
	...

00106004 <kernel_directory>:
  106004:	00 00                	add    %al,(%eax)
	...

00106008 <current_directory>:
  106008:	00 00                	add    %al,(%eax)
	...

0010600c <fs_root>:
  10600c:	00 00                	add    %al,(%eax)
	...

00106010 <tick>:
	...

00106020 <nroot_nodes>:
  106020:	00 00                	add    %al,(%eax)
	...

00106024 <initrd_dev>:
	...

00106040 <dirent>:
	...

001060c4 <file_headers>:
  1060c4:	00 00                	add    %al,(%eax)
	...

001060c8 <initrd_root>:
  1060c8:	00 00                	add    %al,(%eax)
	...

001060cc <root_nodes>:
  1060cc:	00 00                	add    %al,(%eax)
	...

001060d0 <initrd_header>:
  1060d0:	00 00                	add    %al,(%eax)
	...

001060d4 <ready_queue>:
  1060d4:	00 00                	add    %al,(%eax)
	...

001060d8 <current_task>:
  1060d8:	00 00                	add    %al,(%eax)
	...

001060dc <nframes>:
  1060dc:	00 00                	add    %al,(%eax)
	...

001060e0 <frames_bitmap>:
  1060e0:	00 00                	add    %al,(%eax)
	...

001060e4 <initial_esp>:
	...

00106100 <gdt>:
	...

00106120 <gdt_entries>:
	...

00106160 <interrupt_handler_entries>:
	...

00106560 <idt_entries>:
	...

00106d60 <idt>:
  106d60:	00 00                	add    %al,(%eax)
  106d62:	00 00                	add    %al,(%eax)
	...

Disassembly of section .debug_info:

00000000 <.debug_info>:
       0:	5b                   	pop    %ebx
       1:	08 00                	or     %al,(%eax)
       3:	00 04 00             	add    %al,(%eax,%eax,1)
       6:	00 00                	add    %al,(%eax)
       8:	00 00                	add    %al,(%eax)
       a:	04 01                	add    $0x1,%al
       c:	2f                   	das    
       d:	00 00                	add    %al,(%eax)
       f:	00 0c 06             	add    %cl,(%esi,%eax,1)
      12:	01 00                	add    %eax,(%eax)
      14:	00 2d 02 00 00 1a    	add    %ch,0x1a000002
      1a:	00 10                	add    %dl,(%eax)
      1c:	00 35 08 00 00 00    	add    %dh,0x8
      22:	00 00                	add    %al,(%eax)
      24:	00 02                	add    %al,(%edx)
      26:	5b                   	pop    %ebx
      27:	02 00                	add    (%eax),%al
      29:	00 02                	add    %al,(%edx)
      2b:	04 17                	add    $0x17,%al
      2d:	31 00                	xor    %eax,(%eax)
      2f:	00 00                	add    %al,(%eax)
      31:	03 01                	add    (%ecx),%eax
      33:	08 61 01             	or     %ah,0x1(%ecx)
      36:	00 00                	add    %al,(%eax)
      38:	02 31                	add    (%ecx),%dh
      3a:	01 00                	add    %eax,(%eax)
      3c:	00 02                	add    %al,(%edx)
      3e:	05 0e 44 00 00       	add    $0x440e,%eax
      43:	00 03                	add    %al,(%ebx)
      45:	01 06                	add    %eax,(%esi)
      47:	6a 01                	push   $0x1
      49:	00 00                	add    %al,(%eax)
      4b:	03 02                	add    (%edx),%eax
      4d:	07                   	pop    %es
      4e:	be 01 00 00 03       	mov    $0x3000001,%esi
      53:	02 05 70 00 00 00    	add    0x70,%al
      59:	02 60 02             	add    0x2(%eax),%ah
      5c:	00 00                	add    %al,(%eax)
      5e:	02 08                	add    (%eax),%cl
      60:	16                   	push   %ss
      61:	65 00 00             	add    %al,%gs:(%eax)
      64:	00 03                	add    %al,(%ebx)
      66:	04 07                	add    $0x7,%al
      68:	dc 06                	faddl  (%esi)
      6a:	00 00                	add    %al,(%eax)
      6c:	02 a7 00 00 00 02    	add    0x2000000(%edi),%ah
      72:	09 0d 78 00 00 00    	or     %ecx,0x78
      78:	04 04                	add    $0x4,%al
      7a:	05 69 6e 74 00       	add    $0x746e69,%eax
      7f:	02 3e                	add    (%esi),%bh
      81:	03 00                	add    (%eax),%eax
      83:	00 03                	add    %al,(%ebx)
      85:	07                   	pop    %es
      86:	0f 8b 00 00 00 05    	jnp    500008c <kernel_end+0x4ef9326>
      8c:	04 02                	add    $0x2,%al
      8e:	8e 02                	mov    (%edx),%es
      90:	00 00                	add    %al,(%eax)
      92:	03 08                	add    (%eax),%ecx
      94:	10 99 00 00 00 06    	adc    %bl,0x6000000(%ecx)
      9a:	04 9f                	add    $0x9f,%al
      9c:	00 00                	add    %al,(%eax)
      9e:	00 07                	add    %al,(%edi)
      a0:	38 00                	cmp    %al,(%eax)
      a2:	00 00                	add    %al,(%eax)
      a4:	b3 00                	mov    $0x0,%bl
      a6:	00 00                	add    %al,(%eax)
      a8:	08 7f 00             	or     %bh,0x0(%edi)
      ab:	00 00                	add    %al,(%eax)
      ad:	08 7f 00             	or     %bh,0x0(%edi)
      b0:	00 00                	add    %al,(%eax)
      b2:	00 09                	add    %cl,(%ecx)
      b4:	10 03                	adc    %al,(%ebx)
      b6:	0a 09                	or     (%ecx),%cl
      b8:	f1                   	icebp  
      b9:	00 00                	add    %al,(%eax)
      bb:	00 0a                	add    %cl,(%edx)
      bd:	ee                   	out    %al,(%dx)
      be:	0d 00 00 03 0b       	or     $0xb030000,%eax
      c3:	0d f1 00 00 00       	or     $0xf1,%eax
      c8:	00 0a                	add    %cl,(%edx)
      ca:	e2 00                	loop   cc <FLAGS+0xcb>
      cc:	00 00                	add    %al,(%eax)
      ce:	03 0c 0b             	add    (%ebx,%ecx,1),%ecx
      d1:	59                   	pop    %ecx
      d2:	00 00                	add    %al,(%eax)
      d4:	00 04 0a             	add    %al,(%edx,%ecx,1)
      d7:	85 02                	test   %eax,(%edx)
      d9:	00 00                	add    %al,(%eax)
      db:	03 0d 0b 59 00 00    	add    0x590b,%ecx
      e1:	00 08                	add    %cl,(%eax)
      e3:	0a 91 01 00 00 03    	or     0x3000001(%ecx),%dl
      e9:	0e                   	push   %cs
      ea:	11 8d 00 00 00 0c    	adc    %ecx,0xc000000(%ebp)
      f0:	00 06                	add    %al,(%esi)
      f2:	04 7f                	add    $0x7f,%al
      f4:	00 00                	add    %al,(%eax)
      f6:	00 02                	add    %al,(%edx)
      f8:	08 02                	or     %al,(%edx)
      fa:	00 00                	add    %al,(%eax)
      fc:	03 0f                	add    (%edi),%ecx
      fe:	03 b3 00 00 00 09    	add    0x9000000(%ebx),%esi
     104:	0c 04                	or     $0x4,%al
     106:	0d 09 34 01 00       	or     $0x13409,%eax
     10b:	00 0a                	add    %cl,(%edx)
     10d:	a3 02 00 00 04       	mov    %eax,0x4000002
     112:	0e                   	push   %cs
     113:	0b 59 00             	or     0x0(%ecx),%ebx
     116:	00 00                	add    %al,(%eax)
     118:	00 0a                	add    %cl,(%edx)
     11a:	66 02 00             	data16 add (%eax),%al
     11d:	00 04 0f             	add    %al,(%edi,%ecx,1)
     120:	0a 25 00 00 00 04    	or     0x4000000,%ah
     126:	0a e2                	or     %dl,%ah
     128:	00 00                	add    %al,(%eax)
     12a:	00 04 10             	add    %al,(%eax,%edx,1)
     12d:	0b 59 00             	or     0x0(%ecx),%ebx
     130:	00 00                	add    %al,(%eax)
     132:	08 00                	or     %al,(%eax)
     134:	02 b8 03 00 00 04    	add    0x4000003(%eax),%bh
     13a:	11 03                	adc    %eax,(%ebx)
     13c:	03 01                	add    (%ecx),%eax
     13e:	00 00                	add    %al,(%eax)
     140:	09 08                	or     %ecx,(%eax)
     142:	04 13                	add    $0x13,%al
     144:	09 64 01 00          	or     %esp,0x0(%ecx,%eax,1)
     148:	00 0a                	add    %cl,(%edx)
     14a:	a3 02 00 00 04       	mov    %eax,0x4000002
     14f:	14 0b                	adc    $0xb,%al
     151:	59                   	pop    %ecx
     152:	00 00                	add    %al,(%eax)
     154:	00 00                	add    %al,(%eax)
     156:	0a 0a                	or     (%edx),%cl
     158:	04 00                	add    $0x0,%al
     15a:	00 04 15 0f 64 01 00 	add    %al,0x1640f(,%edx,1)
     161:	00 04 00             	add    %al,(%eax,%eax,1)
     164:	06                   	push   %es
     165:	04 34                	add    $0x34,%al
     167:	01 00                	add    %eax,(%eax)
     169:	00 02                	add    %al,(%edx)
     16b:	f1                   	icebp  
     16c:	01 00                	add    %eax,(%eax)
     16e:	00 04 16             	add    %al,(%esi,%edx,1)
     171:	03 40 01             	add    0x1(%eax),%eax
     174:	00 00                	add    %al,(%eax)
     176:	09 20                	or     %esp,(%eax)
     178:	04 18                	add    $0x18,%al
     17a:	09 ce                	or     %ecx,%esi
     17c:	01 00                	add    %eax,(%eax)
     17e:	00 0a                	add    %cl,(%edx)
     180:	80 06 00             	addb   $0x0,(%esi)
     183:	00 04 19             	add    %al,(%ecx,%ebx,1)
     186:	15 f7 00 00 00       	adc    $0xf7,%eax
     18b:	00 0a                	add    %cl,(%edx)
     18d:	6f                   	outsl  %ds:(%esi),(%dx)
     18e:	01 00                	add    %eax,(%eax)
     190:	00 04 1a             	add    %al,(%edx,%ebx,1)
     193:	0b 59 00             	or     0x0(%ecx),%ebx
     196:	00 00                	add    %al,(%eax)
     198:	10 0a                	adc    %cl,(%edx)
     19a:	ec                   	in     (%dx),%al
     19b:	02 00                	add    (%eax),%al
     19d:	00 04 1b             	add    %al,(%ebx,%ebx,1)
     1a0:	0b 59 00             	or     0x0(%ecx),%ebx
     1a3:	00 00                	add    %al,(%eax)
     1a5:	14 0a                	adc    $0xa,%al
     1a7:	9b                   	fwait
     1a8:	01 00                	add    %eax,(%eax)
     1aa:	00 04 1c             	add    %al,(%esp,%ebx,1)
     1ad:	0b 59 00             	or     0x0(%ecx),%ebx
     1b0:	00 00                	add    %al,(%eax)
     1b2:	18 0a                	sbb    %cl,(%edx)
     1b4:	00 00                	add    %al,(%eax)
     1b6:	00 00                	add    %al,(%eax)
     1b8:	04 1d                	add    $0x1d,%al
     1ba:	0a 25 00 00 00 1c    	or     0x1c000000,%ah
     1c0:	0a 8b 00 00 00 04    	or     0x4000000(%ebx),%cl
     1c6:	1e                   	push   %ds
     1c7:	0a 25 00 00 00 1d    	or     0x1d000000,%ah
     1cd:	00 02                	add    %al,(%edx)
     1cf:	0b 00                	or     (%eax),%eax
     1d1:	00 00                	add    %al,(%eax)
     1d3:	04 1f                	add    $0x1f,%al
     1d5:	03 76 01             	add    0x1(%esi),%esi
     1d8:	00 00                	add    %al,(%eax)
     1da:	0b 50 06             	or     0x6(%eax),%edx
     1dd:	00 00                	add    %al,(%eax)
     1df:	04 05                	add    $0x5,%al
     1e1:	07                   	pop    %es
     1e2:	10 57 02             	adc    %dl,0x2(%edi)
     1e5:	00 00                	add    %al,(%eax)
     1e7:	0c 6e                	or     $0x6e,%al
     1e9:	02 00                	add    (%eax),%al
     1eb:	00 05 08 0b 59 00    	add    %al,0x590b08
     1f1:	00 00                	add    %al,(%eax)
     1f3:	04 01                	add    $0x1,%al
     1f5:	1f                   	pop    %ds
     1f6:	00 0d 72 77 00 05    	add    %cl,0x5007772
     1fc:	09 0b                	or     %ecx,(%ebx)
     1fe:	59                   	pop    %ecx
     1ff:	00 00                	add    %al,(%eax)
     201:	00 04 01             	add    %al,(%ecx,%eax,1)
     204:	1e                   	push   %ds
     205:	00 0c b9             	add    %cl,(%ecx,%edi,4)
     208:	01 00                	add    %eax,(%eax)
     20a:	00 05 0a 0b 59 00    	add    %al,0x590b0a
     210:	00 00                	add    %al,(%eax)
     212:	04 01                	add    $0x1,%al
     214:	1d 00 0c 52 02       	sbb    $0x2520c00,%eax
     219:	00 00                	add    %al,(%eax)
     21b:	05 0b 0b 59 00       	add    $0x590b0b,%eax
     220:	00 00                	add    %al,(%eax)
     222:	04 01                	add    $0x1,%al
     224:	1c 00                	sbb    $0x0,%al
     226:	0c a7                	or     $0xa7,%al
     228:	01 00                	add    %eax,(%eax)
     22a:	00 05 0c 0b 59 00    	add    %al,0x590b0c
     230:	00 00                	add    %al,(%eax)
     232:	04 01                	add    $0x1,%al
     234:	1b 00                	sbb    (%eax),%eax
     236:	0c d0                	or     $0xd0,%al
     238:	02 00                	add    (%eax),%al
     23a:	00 05 0d 0b 59 00    	add    %al,0x590b0d
     240:	00 00                	add    %al,(%eax)
     242:	04 07                	add    $0x7,%al
     244:	14 00                	adc    $0x0,%al
     246:	0c c7                	or     $0xc7,%al
     248:	05 00 00 05 0e       	add    $0xe050000,%eax
     24d:	0b 59 00             	or     0x0(%ecx),%ebx
     250:	00 00                	add    %al,(%eax)
     252:	04 14                	add    $0x14,%al
     254:	00 00                	add    %al,(%eax)
     256:	00 02                	add    %al,(%edx)
     258:	4a                   	dec    %edx
     259:	01 00                	add    %eax,(%eax)
     25b:	00 05 0f 03 da 01    	add    %al,0x1da030f
     261:	00 00                	add    %al,(%eax)
     263:	0e                   	push   %cs
     264:	56                   	push   %esi
     265:	01 00                	add    %eax,(%eax)
     267:	00 00                	add    %al,(%eax)
     269:	10 05 11 10 7f 02    	adc    %al,0x27f1011
     26f:	00 00                	add    %al,(%eax)
     271:	0a ca                	or     %dl,%cl
     273:	02 00                	add    (%eax),%al
     275:	00 05 12 0c 7f 02    	add    %al,0x27f0c12
     27b:	00 00                	add    %al,(%eax)
     27d:	00 00                	add    %al,(%eax)
     27f:	0f 57 02             	xorps  (%edx),%xmm0
     282:	00 00                	add    %al,(%eax)
     284:	90                   	nop
     285:	02 00                	add    (%eax),%al
     287:	00 10                	add    %dl,(%eax)
     289:	90                   	nop
     28a:	02 00                	add    (%eax),%al
     28c:	00 ff                	add    %bh,%bh
     28e:	03 00                	add    (%eax),%eax
     290:	03 04 07             	add    (%edi,%eax,1),%eax
     293:	d7                   	xlat   %ds:(%ebx)
     294:	06                   	push   %es
     295:	00 00                	add    %al,(%eax)
     297:	02 be 00 00 00 05    	add    0x5000000(%esi),%bh
     29d:	13 03                	adc    (%ebx),%eax
     29f:	63 02                	arpl   %ax,(%edx)
     2a1:	00 00                	add    %al,(%eax)
     2a3:	0e                   	push   %cs
     2a4:	70 05                	jo     2ab <FLAGS+0x2aa>
     2a6:	00 00                	add    %al,(%eax)
     2a8:	04 20                	add    $0x20,%al
     2aa:	05 15 10 db 02       	add    $0x2db1015,%eax
     2af:	00 00                	add    %al,(%eax)
     2b1:	0a 19                	or     (%ecx),%bl
     2b3:	01 00                	add    %eax,(%eax)
     2b5:	00 05 16 13 db 02    	add    %al,0x2db1316
     2bb:	00 00                	add    %al,(%eax)
     2bd:	00 11                	add    %dl,(%ecx)
     2bf:	a9 02 00 00 05       	test   $0x5000002,%eax
     2c4:	17                   	pop    %ss
     2c5:	0b f2                	or     %edx,%esi
     2c7:	02 00                	add    (%eax),%al
     2c9:	00 00                	add    %al,(%eax)
     2cb:	10 11                	adc    %dl,(%ecx)
     2cd:	f8                   	clc    
     2ce:	00 00                	add    %al,(%eax)
     2d0:	00 05 18 0b 59 00    	add    %al,0x590b18
     2d6:	00 00                	add    %al,(%eax)
     2d8:	00 20                	add    %ah,(%eax)
     2da:	00 0f                	add    %cl,(%edi)
     2dc:	ec                   	in     (%dx),%al
     2dd:	02 00                	add    (%eax),%al
     2df:	00 ec                	add    %ch,%ah
     2e1:	02 00                	add    (%eax),%al
     2e3:	00 10                	add    %dl,(%eax)
     2e5:	90                   	nop
     2e6:	02 00                	add    (%eax),%al
     2e8:	00 ff                	add    %bh,%bh
     2ea:	03 00                	add    (%eax),%eax
     2ec:	06                   	push   %es
     2ed:	04 97                	add    $0x97,%al
     2ef:	02 00                	add    (%eax),%al
     2f1:	00 0f                	add    %cl,(%edi)
     2f3:	59                   	pop    %ecx
     2f4:	00 00                	add    %al,(%eax)
     2f6:	00 03                	add    %al,(%ebx)
     2f8:	03 00                	add    (%eax),%eax
     2fa:	00 10                	add    %dl,(%eax)
     2fc:	90                   	nop
     2fd:	02 00                	add    (%eax),%al
     2ff:	00 ff                	add    %bh,%bh
     301:	03 00                	add    (%eax),%eax
     303:	02 ad 00 00 00 05    	add    0x5000000(%ebp),%ch
     309:	19 03                	sbb    %eax,(%ebx)
     30b:	a3 02 00 00 12       	mov    %eax,0x12000002
     310:	24 00                	and    $0x0,%al
     312:	00 00                	add    %al,(%eax)
     314:	01 05 0e 59 00 00    	add    %eax,0x590e
     31a:	00 13                	add    %dl,(%ebx)
     31c:	12 00                	adc    (%eax),%al
     31e:	00 00                	add    %al,(%eax)
     320:	01 06                	add    %eax,(%esi)
     322:	07                   	pop    %es
     323:	59                   	pop    %ecx
     324:	00 00                	add    %al,(%eax)
     326:	00 05 03 00 50 10    	add    %al,0x10500003
     32c:	00 12                	add    %dl,(%edx)
     32e:	7a 00                	jp     330 <FLAGS+0x32f>
     330:	00 00                	add    %al,(%eax)
     332:	01 07                	add    %eax,(%edi)
     334:	1a 39                	sbb    (%ecx),%bh
     336:	03 00                	add    (%eax),%eax
     338:	00 06                	add    %al,(%esi)
     33a:	04 03                	add    $0x3,%al
     33c:	03 00                	add    (%eax),%eax
     33e:	00 13                	add    %dl,(%ebx)
     340:	d8 00                	fadds  (%eax)
     342:	00 00                	add    %al,(%eax)
     344:	01 08                	add    %ecx,(%eax)
     346:	09 51 03             	or     %edx,0x3(%ecx)
     349:	00 00                	add    %al,(%eax)
     34b:	05 03 00 60 10       	add    $0x10600003,%eax
     350:	00 06                	add    %al,(%esi)
     352:	04 ce                	add    $0xce,%al
     354:	01 00                	add    %eax,(%eax)
     356:	00 14 d3             	add    %dl,(%ebx,%edx,8)
     359:	01 00                	add    %eax,(%eax)
     35b:	00 01                	add    %al,(%ecx)
     35d:	95                   	xchg   %eax,%ebp
     35e:	07                   	pop    %es
     35f:	8b 00                	mov    (%eax),%eax
     361:	00 00                	add    %al,(%eax)
     363:	a2 04 10 00 ad       	mov    %al,0xad001004
     368:	03 00                	add    (%eax),%eax
     36a:	00 01                	add    %al,(%ecx)
     36c:	9c                   	pushf  
     36d:	3e 05 00 00 15 e2    	ds add $0xe2150000,%eax
     373:	00 00                	add    %al,(%eax)
     375:	00 01                	add    %al,(%ecx)
     377:	95                   	xchg   %eax,%ebp
     378:	13 59 00             	adc    0x0(%ecx),%ebx
     37b:	00 00                	add    %al,(%eax)
     37d:	02 91 00 15 7d 01    	add    0x17d1500(%ecx),%dl
     383:	00 00                	add    %al,(%eax)
     385:	01 95 1e 25 00 00    	add    %edx,0x251e(%ebp)
     38b:	00 03                	add    %al,(%ebx)
     38d:	91                   	xchg   %eax,%ecx
     38e:	8c 7f 15             	mov    %?,0x15(%edi)
     391:	b4 01                	mov    $0x1,%ah
     393:	00 00                	add    %al,(%eax)
     395:	01 95 32 51 03 00    	add    %edx,0x35132(%ebp)
     39b:	00 02                	add    %al,(%edx)
     39d:	91                   	xchg   %eax,%ecx
     39e:	08 16                	or     %dl,(%esi)
     3a0:	9a 02 00 00 01 96 0b 	lcall  $0xb96,$0x1000002
     3a7:	59                   	pop    %ecx
     3a8:	00 00                	add    %al,(%eax)
     3aa:	00 02                	add    %al,(%edx)
     3ac:	91                   	xchg   %eax,%ecx
     3ad:	6c                   	insb   (%dx),%es:(%edi)
     3ae:	17                   	pop    %ss
     3af:	69 00 01 98 0b 6c    	imul   $0x6c0b9801,(%eax),%eax
     3b5:	00 00                	add    %al,(%eax)
     3b7:	00 02                	add    %al,(%edx)
     3b9:	91                   	xchg   %eax,%ecx
     3ba:	68 16 d7 02 00       	push   $0x2d716
     3bf:	00 01                	add    %al,(%ecx)
     3c1:	c0 0f 64             	rorb   $0x64,(%edi)
     3c4:	01 00                	add    %eax,(%eax)
     3c6:	00 02                	add    %al,(%edx)
     3c8:	91                   	xchg   %eax,%ecx
     3c9:	54                   	push   %esp
     3ca:	16                   	push   %ss
     3cb:	fa                   	cli    
     3cc:	01 00                	add    %eax,(%eax)
     3ce:	00 01                	add    %al,(%ecx)
     3d0:	c1 0b 59             	rorl   $0x59,(%ebx)
     3d3:	00 00                	add    %al,(%eax)
     3d5:	00 02                	add    %al,(%edx)
     3d7:	91                   	xchg   %eax,%ecx
     3d8:	5c                   	pop    %esp
     3d9:	16                   	push   %ss
     3da:	76 02                	jbe    3de <FLAGS+0x3dd>
     3dc:	00 00                	add    %al,(%eax)
     3de:	01 c2                	add    %eax,%edx
     3e0:	0b 59 00             	or     0x0(%ecx),%ebx
     3e3:	00 00                	add    %al,(%eax)
     3e5:	02 91 58 16 36 01    	add    0x1361658(%ecx),%dl
     3eb:	00 00                	add    %al,(%eax)
     3ed:	01 d9                	add    %ebx,%ecx
     3ef:	0f 64 01             	pcmpgtb (%ecx),%mm0
     3f2:	00 00                	add    %al,(%eax)
     3f4:	02 91 44 16 d9 01    	add    0x1d91644(%ecx),%dl
     3fa:	00 00                	add    %al,(%eax)
     3fc:	01 dd                	add    %ebx,%ebp
     3fe:	0f 3e                	(bad)  
     400:	05 00 00 02 91       	add    $0x91020000,%eax
     405:	40                   	inc    %eax
     406:	18 25 05 10 00 60    	sbb    %ah,0x60001005
     40c:	01 00                	add    %eax,(%eax)
     40e:	00 d8                	add    %bl,%al
     410:	04 00                	add    $0x0,%al
     412:	00 16                	add    %dl,(%esi)
     414:	22 02                	and    (%edx),%al
     416:	00 00                	add    %al,(%eax)
     418:	01 9f 08 59 00 00    	add    %ebx,0x5908(%edi)
     41e:	00 03                	add    %al,(%ebx)
     420:	91                   	xchg   %eax,%ecx
     421:	b4 7f                	mov    $0x7f,%ah
     423:	16                   	push   %ss
     424:	e8 02 00 00 01       	call   100042b <kernel_end+0xef96c5>
     429:	a0 08 59 00 00       	mov    0x5908,%al
     42e:	00 03                	add    %al,(%ebx)
     430:	91                   	xchg   %eax,%ecx
     431:	b0 7f                	mov    $0x7f,%al
     433:	16                   	push   %ss
     434:	e6 01                	out    %al,$0x1
     436:	00 00                	add    %al,(%eax)
     438:	01 a2 08 59 00 00    	add    %esp,0x5908(%edx)
     43e:	00 03                	add    %al,(%ebx)
     440:	91                   	xchg   %eax,%ecx
     441:	ac                   	lods   %ds:(%esi),%al
     442:	7f 17                	jg     45b <FLAGS+0x45a>
     444:	69 64 78 00 01 a4 08 	imul   $0x5908a401,0x0(%eax,%edi,2),%esp
     44b:	59 
     44c:	00 00                	add    %al,(%eax)
     44e:	00 02                	add    %al,(%edx)
     450:	91                   	xchg   %eax,%ecx
     451:	64 16                	fs push %ss
     453:	e7 00                	out    %eax,$0x0
     455:	00 00                	add    %al,(%eax)
     457:	01 a4 18 59 00 00 00 	add    %esp,0x59(%eax,%ebx,1)
     45e:	02 91 60 18 82 05    	add    0x5821860(%ecx),%dl
     464:	10 00                	adc    %al,(%eax)
     466:	2e 00 00             	add    %al,%cs:(%eax)
     469:	00 7f 04             	add    %bh,0x4(%edi)
     46c:	00 00                	add    %al,(%eax)
     46e:	17                   	pop    %ss
     46f:	74 6d                	je     4de <FLAGS+0x4dd>
     471:	70 00                	jo     473 <FLAGS+0x472>
     473:	01 a6 0c 59 00 00    	add    %esp,0x590c(%esi)
     479:	00 03                	add    %al,(%ebx)
     47b:	91                   	xchg   %eax,%ecx
     47c:	98                   	cwtl   
     47d:	7f 00                	jg     47f <FLAGS+0x47e>
     47f:	18 c3                	sbb    %al,%bl
     481:	05 10 00 59 00       	add    $0x590010,%eax
     486:	00 00                	add    %al,(%eax)
     488:	ad                   	lods   %ds:(%esi),%eax
     489:	04 00                	add    $0x0,%al
     48b:	00 16                	add    %dl,(%esi)
     48d:	0a 04 00             	or     (%eax,%eax,1),%al
     490:	00 01                	add    %al,(%ecx)
     492:	ae                   	scas   %es:(%edi),%al
     493:	10 64 01 00          	adc    %ah,0x0(%ecx,%eax,1)
     497:	00 03                	add    %al,(%ebx)
     499:	91                   	xchg   %eax,%ecx
     49a:	a0 7f 16 2a 01       	mov    0x12a167f,%al
     49f:	00 00                	add    %al,(%eax)
     4a1:	01 b2 10 3e 05 00    	add    %esi,0x53e10(%edx)
     4a7:	00 03                	add    %al,(%ebx)
     4a9:	91                   	xchg   %eax,%ecx
     4aa:	9c                   	pushf  
     4ab:	7f 00                	jg     4ad <FLAGS+0x4ac>
     4ad:	19 1e                	sbb    %ebx,(%esi)
     4af:	06                   	push   %es
     4b0:	10 00                	adc    %al,(%eax)
     4b2:	4c                   	dec    %esp
     4b3:	00 00                	add    %al,(%eax)
     4b5:	00 16                	add    %dl,(%esi)
     4b7:	0a 04 00             	or     (%eax,%eax,1),%al
     4ba:	00 01                	add    %al,(%ecx)
     4bc:	b7 10                	mov    $0x10,%bh
     4be:	64 01 00             	add    %eax,%fs:(%eax)
     4c1:	00 03                	add    %al,(%ebx)
     4c3:	91                   	xchg   %eax,%ecx
     4c4:	a8 7f                	test   $0x7f,%al
     4c6:	16                   	push   %ss
     4c7:	2a 01                	sub    (%ecx),%al
     4c9:	00 00                	add    %al,(%eax)
     4cb:	01 b9 10 3e 05 00    	add    %edi,0x53e10(%ecx)
     4d1:	00 03                	add    %al,(%ebx)
     4d3:	91                   	xchg   %eax,%ecx
     4d4:	a4                   	movsb  %ds:(%esi),%es:(%edi)
     4d5:	7f 00                	jg     4d7 <FLAGS+0x4d6>
     4d7:	00 18                	add    %bl,(%eax)
     4d9:	08 07                	or     %al,(%edi)
     4db:	10 00                	adc    %al,(%eax)
     4dd:	75 00                	jne    4df <FLAGS+0x4de>
     4df:	00 00                	add    %al,(%eax)
     4e1:	13 05 00 00 16 cb    	adc    0xcb160000,%eax
     4e7:	00 00                	add    %al,(%eax)
     4e9:	00 01                	add    %al,(%ecx)
     4eb:	cc                   	int3   
     4ec:	08 59 00             	or     %bl,0x0(%ecx)
     4ef:	00 00                	add    %al,(%eax)
     4f1:	02 91 50 16 dc 02    	add    0x2dc1650(%ecx),%dl
     4f7:	00 00                	add    %al,(%eax)
     4f9:	01 cd                	add    %ecx,%ebp
     4fb:	0c 64                	or     $0x64,%al
     4fd:	01 00                	add    %eax,(%eax)
     4ff:	00 02                	add    %al,(%edx)
     501:	91                   	xchg   %eax,%ecx
     502:	4c                   	dec    %esp
     503:	16                   	push   %ss
     504:	25 01 00 00 01       	and    $0x1000001,%eax
     509:	d1 0c 3e             	rorl   (%esi,%edi,1)
     50c:	05 00 00 02 91       	add    $0x91020000,%eax
     511:	48                   	dec    %eax
     512:	00 19                	add    %bl,(%ecx)
     514:	d9 07                	flds   (%edi)
     516:	10 00                	adc    %al,(%eax)
     518:	6e                   	outsb  %ds:(%esi),(%dx)
     519:	00 00                	add    %al,(%eax)
     51b:	00 16                	add    %dl,(%esi)
     51d:	dc 02                	faddl  (%edx)
     51f:	00 00                	add    %al,(%eax)
     521:	01 e1                	add    %esp,%ecx
     523:	0c 64                	or     $0x64,%al
     525:	01 00                	add    %eax,(%eax)
     527:	00 03                	add    %al,(%ebx)
     529:	91                   	xchg   %eax,%ecx
     52a:	bc 7f 16 25 01       	mov    $0x125167f,%esp
     52f:	00 00                	add    %al,(%eax)
     531:	01 e5                	add    %esp,%ebp
     533:	0c 3e                	or     $0x3e,%al
     535:	05 00 00 03 91       	add    $0x91030000,%eax
     53a:	b8 7f 00 00 06       	mov    $0x600007f,%eax
     53f:	04 6a                	add    $0x6a,%al
     541:	01 00                	add    %eax,(%eax)
     543:	00 14 ad 01 00 00 01 	add    %dl,0x1000001(,%ebp,4)
     54a:	7e 09                	jle    555 <FLAGS+0x554>
     54c:	51                   	push   %ecx
     54d:	03 00                	add    (%eax),%eax
     54f:	00 bf 03 10 00 e3    	add    %bh,-0x1cffeffd(%edi)
     555:	00 00                	add    %al,(%eax)
     557:	00 01                	add    %al,(%ecx)
     559:	9c                   	pushf  
     55a:	c8 05 00 00          	enter  $0x5,$0x0
     55e:	15 d7 04 00 00       	adc    $0x4d7,%eax
     563:	01 7e 1b             	add    %edi,0x1b(%esi)
     566:	59                   	pop    %ecx
     567:	00 00                	add    %al,(%eax)
     569:	00 02                	add    %al,(%edx)
     56b:	91                   	xchg   %eax,%ecx
     56c:	00 1a                	add    %bl,(%edx)
     56e:	65 6e                	outsb  %gs:(%esi),(%dx)
     570:	64 00 01             	add    %al,%fs:(%ecx)
     573:	7e 28                	jle    59d <FLAGS+0x59c>
     575:	59                   	pop    %ecx
     576:	00 00                	add    %al,(%eax)
     578:	00 02                	add    %al,(%edx)
     57a:	91                   	xchg   %eax,%ecx
     57b:	04 1a                	add    $0x1a,%al
     57d:	6d                   	insl   (%dx),%es:(%edi)
     57e:	61                   	popa   
     57f:	78 00                	js     581 <FLAGS+0x580>
     581:	01 7e 33             	add    %edi,0x33(%esi)
     584:	59                   	pop    %ecx
     585:	00 00                	add    %al,(%eax)
     587:	00 02                	add    %al,(%edx)
     589:	91                   	xchg   %eax,%ecx
     58a:	08 15 00 00 00 00    	or     %dl,0x0
     590:	01 7e 3d             	add    %edi,0x3d(%esi)
     593:	25 00 00 00 02       	and    $0x2000000,%eax
     598:	91                   	xchg   %eax,%ecx
     599:	5c                   	pop    %esp
     59a:	15 8b 00 00 00       	adc    $0x8b,%eax
     59f:	01 7e 4e             	add    %edi,0x4e(%esi)
     5a2:	25 00 00 00 02       	and    $0x2000000,%eax
     5a7:	91                   	xchg   %eax,%ecx
     5a8:	58                   	pop    %eax
     5a9:	16                   	push   %ss
     5aa:	b4 01                	mov    $0x1,%ah
     5ac:	00 00                	add    %al,(%eax)
     5ae:	01 7f 0d             	add    %edi,0xd(%edi)
     5b1:	51                   	push   %ecx
     5b2:	03 00                	add    (%eax),%eax
     5b4:	00 02                	add    %al,(%edx)
     5b6:	91                   	xchg   %eax,%ecx
     5b7:	6c                   	insb   (%dx),%es:(%edi)
     5b8:	16                   	push   %ss
     5b9:	69 02 00 00 01 8c    	imul   $0x8c010000,(%edx),%eax
     5bf:	0f 64 01             	pcmpgtb (%ecx),%mm0
     5c2:	00 00                	add    %al,(%eax)
     5c4:	02 91 68 00 1b 88    	add    -0x77e4ff98(%ecx),%dl
     5ca:	01 00                	add    %eax,(%eax)
     5cc:	00 01                	add    %al,(%ecx)
     5ce:	7b 0d                	jnp    5dd <FLAGS+0x5dc>
     5d0:	38 00                	cmp    %al,(%eax)
     5d2:	00 00                	add    %al,(%eax)
     5d4:	a9 03 10 00 16       	test   $0x16001003,%eax
     5d9:	00 00                	add    %al,(%eax)
     5db:	00 01                	add    %al,(%ecx)
     5dd:	9c                   	pushf  
     5de:	fd                   	std    
     5df:	05 00 00 1a 61       	add    $0x611a0000,%eax
     5e4:	00 01                	add    %al,(%ecx)
     5e6:	7b 26                	jnp    60e <FLAGS+0x60d>
     5e8:	8b 00                	mov    (%eax),%eax
     5ea:	00 00                	add    %al,(%eax)
     5ec:	02 91 00 1a 62 00    	add    0x621a00(%ecx),%dl
     5f2:	01 7b 2f             	add    %edi,0x2f(%ebx)
     5f5:	8b 00                	mov    (%eax),%eax
     5f7:	00 00                	add    %al,(%eax)
     5f9:	02 91 04 00 1c 94    	add    -0x6be3fffc(%ecx),%dl
     5ff:	00 00                	add    %al,(%eax)
     601:	00 01                	add    %al,(%ecx)
     603:	4c                   	dec    %esp
     604:	0e                   	push   %cs
     605:	6c                   	insb   (%dx),%es:(%edi)
     606:	00 00                	add    %al,(%eax)
     608:	00 9e 02 10 00 0b    	add    %bl,0xb001002(%esi)
     60e:	01 00                	add    %eax,(%eax)
     610:	00 01                	add    %al,(%ecx)
     612:	9c                   	pushf  
     613:	a8 06                	test   $0x6,%al
     615:	00 00                	add    %al,(%eax)
     617:	15 e2 00 00 00       	adc    $0xe2,%eax
     61c:	01 4c 27 59          	add    %ecx,0x59(%edi,%eiz,1)
     620:	00 00                	add    %al,(%eax)
     622:	00 02                	add    %al,(%edx)
     624:	91                   	xchg   %eax,%ecx
     625:	00 15 7d 01 00 00    	add    %dl,0x17d
     62b:	01 4c 32 25          	add    %ecx,0x25(%edx,%esi,1)
     62f:	00 00                	add    %al,(%eax)
     631:	00 02                	add    %al,(%edx)
     633:	91                   	xchg   %eax,%ecx
     634:	4c                   	dec    %esp
     635:	15 b4 01 00 00       	adc    $0x1b4,%eax
     63a:	01 4c 46 51          	add    %ecx,0x51(%esi,%eax,2)
     63e:	03 00                	add    (%eax),%eax
     640:	00 02                	add    %al,(%edx)
     642:	91                   	xchg   %eax,%ecx
     643:	08 17                	or     %dl,(%edi)
     645:	69 00 01 4d 09 78    	imul   $0x78094d01,(%eax),%eax
     64b:	00 00                	add    %al,(%eax)
     64d:	00 02                	add    %al,(%edx)
     64f:	91                   	xchg   %eax,%ecx
     650:	6c                   	insb   (%dx),%es:(%edi)
     651:	1d 00 00 00 00       	sbb    $0x0,%eax
     656:	16                   	push   %ss
     657:	0a 04 00             	or     (%eax,%eax,1),%al
     65a:	00 01                	add    %al,(%ecx)
     65c:	55                   	push   %ebp
     65d:	0c 64                	or     $0x64,%al
     65f:	01 00                	add    %eax,(%eax)
     661:	00 02                	add    %al,(%edx)
     663:	91                   	xchg   %eax,%ecx
     664:	68 19 d6 02 10       	push   $0x1002d619
     669:	00 97 00 00 00 16    	add    %dl,0x16000000(%edi)
     66f:	11 0a                	adc    %ecx,(%edx)
     671:	00 00                	add    %al,(%eax)
     673:	01 57 0c             	add    %edx,0xc(%edi)
     676:	59                   	pop    %ecx
     677:	00 00                	add    %al,(%eax)
     679:	00 02                	add    %al,(%edx)
     67b:	91                   	xchg   %eax,%ecx
     67c:	64 16                	fs push %ss
     67e:	43                   	inc    %ebx
     67f:	01 00                	add    %eax,(%eax)
     681:	00 01                	add    %al,(%ecx)
     683:	61                   	popa   
     684:	0a 78 00             	or     0x0(%eax),%bh
     687:	00 00                	add    %al,(%eax)
     689:	02 91 60 19 f6 02    	add    0x2f61960(%ecx),%dl
     68f:	10 00                	adc    %al,(%eax)
     691:	77 00                	ja     693 <FLAGS+0x692>
     693:	00 00                	add    %al,(%eax)
     695:	16                   	push   %ss
     696:	7b 02                	jnp    69a <FLAGS+0x699>
     698:	00 00                	add    %al,(%eax)
     69a:	01 64 09 6c          	add    %esp,0x6c(%ecx,%ecx,1)
     69e:	00 00                	add    %al,(%eax)
     6a0:	00 02                	add    %al,(%edx)
     6a2:	91                   	xchg   %eax,%ecx
     6a3:	5c                   	pop    %esp
     6a4:	00 00                	add    %al,(%eax)
     6a6:	00 00                	add    %al,(%eax)
     6a8:	14 ed                	adc    $0xed,%al
     6aa:	00 00                	add    %al,(%eax)
     6ac:	00 01                	add    %al,(%ecx)
     6ae:	48                   	dec    %eax
     6af:	07                   	pop    %es
     6b0:	59                   	pop    %ecx
     6b1:	00 00                	add    %al,(%eax)
     6b3:	00 83 02 10 00 1b    	add    %al,0x1b001002(%ebx)
     6b9:	00 00                	add    %al,(%eax)
     6bb:	00 01                	add    %al,(%ecx)
     6bd:	9c                   	pushf  
     6be:	e1 06                	loope  6c6 <FLAGS+0x6c5>
     6c0:	00 00                	add    %al,(%eax)
     6c2:	15 e2 00 00 00       	adc    $0xe2,%eax
     6c7:	01 48 18             	add    %ecx,0x18(%eax)
     6ca:	59                   	pop    %ecx
     6cb:	00 00                	add    %al,(%eax)
     6cd:	00 02                	add    %al,(%edx)
     6cf:	91                   	xchg   %eax,%ecx
     6d0:	00 15 51 01 00 00    	add    %dl,0x151
     6d6:	01 48 25             	add    %ecx,0x25(%eax)
     6d9:	e1 06                	loope  6e1 <FLAGS+0x6e0>
     6db:	00 00                	add    %al,(%eax)
     6dd:	02 91 04 00 06 04    	add    0x4060004(%ecx),%dl
     6e3:	59                   	pop    %ecx
     6e4:	00 00                	add    %al,(%eax)
     6e6:	00 14 41             	add    %dl,(%ecx,%eax,2)
     6e9:	02 00                	add    (%eax),%al
     6eb:	00 01                	add    %al,(%ecx)
     6ed:	44                   	inc    %esp
     6ee:	07                   	pop    %es
     6ef:	59                   	pop    %ecx
     6f0:	00 00                	add    %al,(%eax)
     6f2:	00 68 02             	add    %ch,0x2(%eax)
     6f5:	10 00                	adc    %al,(%eax)
     6f7:	1b 00                	sbb    (%eax),%eax
     6f9:	00 00                	add    %al,(%eax)
     6fb:	01 9c 20 07 00 00 15 	add    %ebx,0x15000007(%eax,%eiz,1)
     702:	e2 00                	loop   704 <FLAGS+0x703>
     704:	00 00                	add    %al,(%eax)
     706:	01 44 17 59          	add    %eax,0x59(%edi,%edx,1)
     70a:	00 00                	add    %al,(%eax)
     70c:	00 02                	add    %al,(%edx)
     70e:	91                   	xchg   %eax,%ecx
     70f:	00 15 51 01 00 00    	add    %dl,0x151
     715:	01 44 24 e1          	add    %eax,-0x1f(%esp)
     719:	06                   	push   %es
     71a:	00 00                	add    %al,(%eax)
     71c:	02 91 04 00 14 18    	add    0x18140004(%ecx),%dl
     722:	02 00                	add    (%eax),%al
     724:	00 01                	add    %al,(%ecx)
     726:	40                   	inc    %eax
     727:	07                   	pop    %es
     728:	59                   	pop    %ecx
     729:	00 00                	add    %al,(%eax)
     72b:	00 4e 02             	add    %cl,0x2(%esi)
     72e:	10 00                	adc    %al,(%eax)
     730:	1a 00                	sbb    (%eax),%al
     732:	00 00                	add    %al,(%eax)
     734:	01 9c 4a 07 00 00 15 	add    %ebx,0x15000007(%edx,%ecx,2)
     73b:	e2 00                	loop   73d <FLAGS+0x73c>
     73d:	00 00                	add    %al,(%eax)
     73f:	01 40 17             	add    %eax,0x17(%eax)
     742:	59                   	pop    %ecx
     743:	00 00                	add    %al,(%eax)
     745:	00 02                	add    %al,(%edx)
     747:	91                   	xchg   %eax,%ecx
     748:	00 00                	add    %al,(%eax)
     74a:	14 d1                	adc    $0xd1,%al
     74c:	01 00                	add    %eax,(%eax)
     74e:	00 01                	add    %al,(%ecx)
     750:	3c 07                	cmp    $0x7,%al
     752:	59                   	pop    %ecx
     753:	00 00                	add    %al,(%eax)
     755:	00 34 02             	add    %dh,(%edx,%eax,1)
     758:	10 00                	adc    %al,(%eax)
     75a:	1a 00                	sbb    (%eax),%al
     75c:	00 00                	add    %al,(%eax)
     75e:	01 9c 74 07 00 00 15 	add    %ebx,0x15000007(%esp,%esi,2)
     765:	e2 00                	loop   767 <FLAGS+0x766>
     767:	00 00                	add    %al,(%eax)
     769:	01 3c 15 59 00 00 00 	add    %edi,0x59(,%edx,1)
     770:	02 91 00 00 1c b9    	add    -0x46e40000(%ecx),%dl
     776:	02 00                	add    (%eax),%al
     778:	00 01                	add    %al,(%ecx)
     77a:	1d 0e 59 00 00       	sbb    $0x590e,%eax
     77f:	00 22                	add    %ah,(%edx)
     781:	01 10                	add    %edx,(%eax)
     783:	00 12                	add    %dl,(%edx)
     785:	01 00                	add    %eax,(%eax)
     787:	00 01                	add    %al,(%ecx)
     789:	9c                   	pushf  
     78a:	0b 08                	or     (%eax),%ecx
     78c:	00 00                	add    %al,(%eax)
     78e:	15 e2 00 00 00       	adc    $0xe2,%eax
     793:	01 1d 25 59 00 00    	add    %ebx,0x5925
     799:	00 02                	add    %al,(%edx)
     79b:	91                   	xchg   %eax,%ecx
     79c:	00 15 82 01 00 00    	add    %dl,0x182
     7a2:	01 1d 2f 78 00 00    	add    %ebx,0x782f
     7a8:	00 02                	add    %al,(%edx)
     7aa:	91                   	xchg   %eax,%ecx
     7ab:	04 15                	add    $0x15,%al
     7ad:	51                   	push   %ecx
     7ae:	01 00                	add    %eax,(%eax)
     7b0:	00 01                	add    %al,(%ecx)
     7b2:	1d 3d e1 06 00       	sbb    $0x6e13d,%eax
     7b7:	00 02                	add    %al,(%edx)
     7b9:	91                   	xchg   %eax,%ecx
     7ba:	08 18                	or     %bl,(%eax)
     7bc:	35 01 10 00 9f       	xor    $0x9f001001,%eax
     7c1:	00 00                	add    %al,(%eax)
     7c3:	00 f1                	add    %dh,%cl
     7c5:	07                   	pop    %es
     7c6:	00 00                	add    %al,(%eax)
     7c8:	16                   	push   %ss
     7c9:	62 04 00             	bound  %eax,(%eax,%eax,1)
     7cc:	00 01                	add    %al,(%ecx)
     7ce:	20 08                	and    %cl,(%eax)
     7d0:	8b 00                	mov    (%eax),%eax
     7d2:	00 00                	add    %al,(%eax)
     7d4:	02 91 68 19 96 01    	add    0x1961968(%ecx),%dl
     7da:	10 00                	adc    %al,(%eax)
     7dc:	39 00                	cmp    %eax,(%eax)
     7de:	00 00                	add    %al,(%eax)
     7e0:	16                   	push   %ss
     7e1:	50                   	push   %eax
     7e2:	06                   	push   %es
     7e3:	00 00                	add    %al,(%eax)
     7e5:	01 25 0e 0b 08 00    	add    %esp,0x80b0e
     7eb:	00 02                	add    %al,(%edx)
     7ed:	91                   	xchg   %eax,%ecx
     7ee:	64 00 00             	add    %al,%fs:(%eax)
     7f1:	19 d4                	sbb    %edx,%esp
     7f3:	01 10                	add    %edx,(%eax)
     7f5:	00 5e 00             	add    %bl,0x0(%esi)
     7f8:	00 00                	add    %al,(%eax)
     7fa:	17                   	pop    %ss
     7fb:	74 6d                	je     86a <FLAGS+0x869>
     7fd:	70 00                	jo     7ff <FLAGS+0x7fe>
     7ff:	01 32                	add    %esi,(%edx)
     801:	0f 59 00             	mulps  (%eax),%xmm0
     804:	00 00                	add    %al,(%eax)
     806:	02 91 6c 00 00 06    	add    0x600006c(%ecx),%dl
     80c:	04 57                	add    $0x57,%al
     80e:	02 00                	add    (%eax),%al
     810:	00 1e                	add    %bl,(%esi)
     812:	4b                   	dec    %ebx
     813:	02 00                	add    (%eax),%al
     815:	00 01                	add    %al,(%ecx)
     817:	0a 0d 1a 00 10 00    	or     0x10001a,%cl
     81d:	08 01                	or     %al,(%ecx)
     81f:	00 00                	add    %al,(%eax)
     821:	01 9c 15 9a 02 00 00 	add    %ebx,0x29a(%ebp,%edx,1)
     828:	01 0a                	add    %ecx,(%edx)
     82a:	1a 59 00             	sbb    0x0(%ecx),%bl
     82d:	00 00                	add    %al,(%eax)
     82f:	02 91 00 15 b4 01    	add    0x1b41500(%ecx),%dl
     835:	00 00                	add    %al,(%eax)
     837:	01 0a                	add    %ecx,(%edx)
     839:	2c 51                	sub    $0x51,%al
     83b:	03 00                	add    (%eax),%eax
     83d:	00 02                	add    %al,(%edx)
     83f:	91                   	xchg   %eax,%ecx
     840:	04 16                	add    $0x16,%al
     842:	de 00                	fiadds (%eax)
     844:	00 00                	add    %al,(%eax)
     846:	01 13                	add    %edx,(%ebx)
     848:	0b 59 00             	or     0x0(%ecx),%ebx
     84b:	00 00                	add    %al,(%eax)
     84d:	02 91 68 17 69 00    	add    0x691768(%ecx),%dl
     853:	01 14 0b             	add    %edx,(%ebx,%ecx,1)
     856:	59                   	pop    %ecx
     857:	00 00                	add    %al,(%eax)
     859:	00 02                	add    %al,(%edx)
     85b:	91                   	xchg   %eax,%ecx
     85c:	6c                   	insb   (%dx),%es:(%edi)
     85d:	00 00                	add    %al,(%eax)
     85f:	15 05 00 00 04       	adc    $0x4000005,%eax
     864:	00 e1                	add    %ah,%cl
     866:	01 00                	add    %eax,(%eax)
     868:	00 04 01             	add    %al,(%ecx,%eax,1)
     86b:	2f                   	das    
     86c:	00 00                	add    %al,(%eax)
     86e:	00 0c c1             	add    %cl,(%ecx,%eax,8)
     871:	03 00                	add    (%eax),%eax
     873:	00 2d 02 00 00 4f    	add    %ch,0x4f000002
     879:	08 10                	or     %dl,(%eax)
     87b:	00 2c 07             	add    %ch,(%edi,%eax,1)
     87e:	00 00                	add    %al,(%eax)
     880:	90                   	nop
     881:	03 00                	add    (%eax),%eax
     883:	00 02                	add    %al,(%edx)
     885:	5b                   	pop    %ebx
     886:	02 00                	add    (%eax),%al
     888:	00 02                	add    %al,(%edx)
     88a:	04 17                	add    $0x17,%al
     88c:	31 00                	xor    %eax,(%eax)
     88e:	00 00                	add    %al,(%eax)
     890:	03 01                	add    (%ecx),%eax
     892:	08 61 01             	or     %ah,0x1(%ecx)
     895:	00 00                	add    %al,(%eax)
     897:	03 01                	add    (%ecx),%eax
     899:	06                   	push   %es
     89a:	6a 01                	push   $0x1
     89c:	00 00                	add    %al,(%eax)
     89e:	03 02                	add    (%edx),%eax
     8a0:	07                   	pop    %es
     8a1:	be 01 00 00 03       	mov    $0x3000001,%esi
     8a6:	02 05 70 00 00 00    	add    0x70,%al
     8ac:	02 60 02             	add    0x2(%eax),%ah
     8af:	00 00                	add    %al,(%eax)
     8b1:	02 08                	add    (%eax),%cl
     8b3:	16                   	push   %ss
     8b4:	59                   	pop    %ecx
     8b5:	00 00                	add    %al,(%eax)
     8b7:	00 03                	add    %al,(%ebx)
     8b9:	04 07                	add    $0x7,%al
     8bb:	dc 06                	faddl  (%esi)
     8bd:	00 00                	add    %al,(%eax)
     8bf:	04 04                	add    $0x4,%al
     8c1:	05 69 6e 74 00       	add    $0x746e69,%eax
     8c6:	02 39                	add    (%ecx),%bh
     8c8:	03 00                	add    (%eax),%eax
     8ca:	00 03                	add    %al,(%ebx)
     8cc:	10 11                	adc    %dl,(%ecx)
     8ce:	73 00                	jae    8d0 <FLAGS+0x8cf>
     8d0:	00 00                	add    %al,(%eax)
     8d2:	05 04 79 00 00       	add    $0x7904,%eax
     8d7:	00 06                	add    %al,(%esi)
     8d9:	4d                   	dec    %ebp
     8da:	00 00                	add    %al,(%eax)
     8dc:	00 97 00 00 00 07    	add    %dl,0x7000000(%edi)
     8e2:	97                   	xchg   %eax,%edi
     8e3:	00 00                	add    %al,(%eax)
     8e5:	00 07                	add    %al,(%edi)
     8e7:	4d                   	dec    %ebp
     8e8:	00 00                	add    %al,(%eax)
     8ea:	00 07                	add    %al,(%edi)
     8ec:	4d                   	dec    %ebp
     8ed:	00 00                	add    %al,(%eax)
     8ef:	00 07                	add    %al,(%edi)
     8f1:	6e                   	outsb  %ds:(%esi),(%dx)
     8f2:	01 00                	add    %eax,(%eax)
     8f4:	00 00                	add    %al,(%eax)
     8f6:	05 04 9d 00 00       	add    $0x9d04,%eax
     8fb:	00 08                	add    %cl,(%eax)
     8fd:	21 03                	and    %eax,(%ebx)
     8ff:	00 00                	add    %al,(%eax)
     901:	b8 03 17 10 6e       	mov    $0x6e101703,%eax
     906:	01 00                	add    %eax,(%eax)
     908:	00 09                	add    %cl,(%ecx)
     90a:	4a                   	dec    %edx
     90b:	07                   	pop    %es
     90c:	00 00                	add    %al,(%eax)
     90e:	03 18                	add    (%eax),%ebx
     910:	0a 29                	or     (%ecx),%ch
     912:	02 00                	add    (%eax),%al
     914:	00 00                	add    %al,(%eax)
     916:	09 29                	or     %ebp,(%ecx)
     918:	03 00                	add    (%eax),%eax
     91a:	00 03                	add    %al,(%ebx)
     91c:	19 0b                	sbb    %ecx,(%ebx)
     91e:	4d                   	dec    %ebp
     91f:	00 00                	add    %al,(%eax)
     921:	00 80 0a 75 69 64    	add    %al,0x6469750a(%eax)
     927:	00 03                	add    %al,(%ebx)
     929:	1a 0b                	sbb    (%ebx),%cl
     92b:	4d                   	dec    %ebp
     92c:	00 00                	add    %al,(%eax)
     92e:	00 84 0a 67 69 64 00 	add    %al,0x646967(%edx,%ecx,1)
     935:	03 1b                	add    (%ebx),%ebx
     937:	0b 4d 00             	or     0x0(%ebp),%ecx
     93a:	00 00                	add    %al,(%eax)
     93c:	88 09                	mov    %cl,(%ecx)
     93e:	80 05 00 00 03 1c 0b 	addb   $0xb,0x1c030000
     945:	4d                   	dec    %ebp
     946:	00 00                	add    %al,(%eax)
     948:	00 8c 09 3f 04 00 00 	add    %cl,0x43f(%ecx,%ecx,1)
     94f:	03 1d 0b 4d 00 00    	add    0x4d0b,%ebx
     955:	00 90 09 26 02 00    	add    %dl,0x22609(%eax)
     95b:	00 03                	add    %al,(%ebx)
     95d:	1e                   	push   %ds
     95e:	0b 4d 00             	or     0x0(%ebp),%ecx
     961:	00 00                	add    %al,(%eax)
     963:	94                   	xchg   %eax,%esp
     964:	09 fe                	or     %edi,%esi
     966:	03 00                	add    (%eax),%eax
     968:	00 03                	add    %al,(%ebx)
     96a:	1f                   	pop    %ds
     96b:	0b 4d 00             	or     0x0(%ebp),%ecx
     96e:	00 00                	add    %al,(%eax)
     970:	98                   	cwtl   
     971:	09 ac 03 00 00 03 20 	or     %ebp,0x20030000(%ebx,%eax,1)
     978:	11 67 00             	adc    %esp,0x0(%edi)
     97b:	00 00                	add    %al,(%eax)
     97d:	9c                   	pushf  
     97e:	09 c2                	or     %eax,%edx
     980:	0b 00                	or     (%eax),%eax
     982:	00 03                	add    %al,(%ebx)
     984:	21 12                	and    %edx,(%edx)
     986:	74 01                	je     989 <FLAGS+0x988>
     988:	00 00                	add    %al,(%eax)
     98a:	a0 09 f8 02 00       	mov    0x2f809,%al
     98f:	00 03                	add    %al,(%ebx)
     991:	22 11                	and    (%ecx),%dl
     993:	80 01 00             	addb   $0x0,(%ecx)
     996:	00 a4 09 45 04 00 00 	add    %ah,0x445(%ecx,%ecx,1)
     99d:	03 23                	add    (%ebx),%esp
     99f:	12 9d 01 00 00 a8    	adc    -0x57ffffff(%ebp),%bl
     9a5:	09 f6                	or     %esi,%esi
     9a7:	03 00                	add    (%eax),%eax
     9a9:	00 03                	add    %al,(%ebx)
     9ab:	24 14                	and    $0x14,%al
     9ad:	a9 01 00 00 ac       	test   $0xac000001,%eax
     9b2:	09 37                	or     %esi,(%edi)
     9b4:	04 00                	add    $0x0,%al
     9b6:	00 03                	add    %al,(%ebx)
     9b8:	25 14 fd 01 00       	and    $0x1fd14,%eax
     9bd:	00 b0 0a 70 74 72    	add    %dh,0x7274700a(%eax)
     9c3:	00 03                	add    %al,(%ebx)
     9c5:	26 15 97 00 00 00    	es adc $0x97,%eax
     9cb:	b4 00                	mov    $0x0,%ah
     9cd:	05 04 25 00 00       	add    $0x2504,%eax
     9d2:	00 02                	add    %al,(%edx)
     9d4:	73 03                	jae    9d9 <FLAGS+0x9d8>
     9d6:	00 00                	add    %al,(%eax)
     9d8:	03 11                	add    (%ecx),%edx
     9da:	11 73 00             	adc    %esi,0x0(%ebx)
     9dd:	00 00                	add    %al,(%eax)
     9df:	02 8d 03 00 00 03    	add    0x3000003(%ebp),%cl
     9e5:	12 10                	adc    (%eax),%dl
     9e7:	8c 01                	mov    %es,(%ecx)
     9e9:	00 00                	add    %al,(%eax)
     9eb:	05 04 92 01 00       	add    $0x19204,%eax
     9f0:	00 0b                	add    %cl,(%ebx)
     9f2:	9d                   	popf   
     9f3:	01 00                	add    %eax,(%eax)
     9f5:	00 07                	add    %al,(%edi)
     9f7:	97                   	xchg   %eax,%edi
     9f8:	00 00                	add    %al,(%eax)
     9fa:	00 00                	add    %al,(%eax)
     9fc:	02 51 03             	add    0x3(%ecx),%dl
     9ff:	00 00                	add    %al,(%eax)
     a01:	03 13                	add    (%ebx),%edx
     a03:	10 8c 01 00 00 02 21 	adc    %cl,0x21020000(%ecx,%eax,1)
     a0a:	04 00                	add    $0x0,%al
     a0c:	00 03                	add    %al,(%ebx)
     a0e:	14 1a                	adc    $0x1a,%al
     a10:	b5 01                	mov    $0x1,%ch
     a12:	00 00                	add    %al,(%eax)
     a14:	05 04 e3 01 00       	add    $0x1e304,%eax
     a19:	00 08                	add    %cl,(%eax)
     a1b:	1a 03                	sbb    (%ebx),%al
     a1d:	00 00                	add    %al,(%eax)
     a1f:	84 03                	test   %al,(%ebx)
     a21:	2a 08                	sub    (%eax),%cl
     a23:	e3 01                	jecxz  a26 <FLAGS+0xa25>
     a25:	00 00                	add    %al,(%eax)
     a27:	09 4a 07             	or     %ecx,0x7(%edx)
     a2a:	00 00                	add    %al,(%eax)
     a2c:	03 2b                	add    (%ebx),%ebp
     a2e:	0a 29                	or     (%ecx),%ch
     a30:	02 00                	add    (%eax),%al
     a32:	00 00                	add    %al,(%eax)
     a34:	0a 69 6e             	or     0x6e(%ecx),%ch
     a37:	6f                   	outsl  %ds:(%esi),(%dx)
     a38:	00 03                	add    %al,(%ebx)
     a3a:	2c 0b                	sub    $0xb,%al
     a3c:	4d                   	dec    %ebp
     a3d:	00 00                	add    %al,(%eax)
     a3f:	00 80 00 06 f7 01    	add    %al,0x1f70600(%eax)
     a45:	00 00                	add    %al,(%eax)
     a47:	f7 01 00 00 07 97    	testl  $0x97070000,(%ecx)
     a4d:	00 00                	add    %al,(%eax)
     a4f:	00 07                	add    %al,(%edi)
     a51:	4d                   	dec    %ebp
     a52:	00 00                	add    %al,(%eax)
     a54:	00 00                	add    %al,(%eax)
     a56:	05 04 bb 01 00       	add    $0x1bb04,%eax
     a5b:	00 02                	add    %al,(%edx)
     a5d:	d5 03                	aad    $0x3
     a5f:	00 00                	add    %al,(%eax)
     a61:	03 15 1b 09 02 00    	add    0x2091b,%edx
     a67:	00 05 04 0f 02 00    	add    %al,0x20f04
     a6d:	00 06                	add    %al,(%esi)
     a6f:	97                   	xchg   %eax,%edi
     a70:	00 00                	add    %al,(%eax)
     a72:	00 23                	add    %ah,(%ebx)
     a74:	02 00                	add    (%eax),%al
     a76:	00 07                	add    %al,(%edi)
     a78:	97                   	xchg   %eax,%edi
     a79:	00 00                	add    %al,(%eax)
     a7b:	00 07                	add    %al,(%edi)
     a7d:	23 02                	and    (%edx),%eax
     a7f:	00 00                	add    %al,(%eax)
     a81:	00 05 04 38 00 00    	add    %al,0x3804
     a87:	00 0c 38             	add    %cl,(%eax,%edi,1)
     a8a:	00 00                	add    %al,(%eax)
     a8c:	00 39                	add    %bh,(%ecx)
     a8e:	02 00                	add    (%eax),%al
     a90:	00 0d 39 02 00 00    	add    %cl,0x239
     a96:	7f 00                	jg     a98 <FLAGS+0xa97>
     a98:	03 04 07             	add    (%edi,%eax,1),%eax
     a9b:	d7                   	xlat   %ds:(%ebx)
     a9c:	06                   	push   %es
     a9d:	00 00                	add    %al,(%eax)
     a9f:	02 fd                	add    %ch,%bh
     aa1:	02 00                	add    (%eax),%al
     aa3:	00 03                	add    %al,(%ebx)
     aa5:	27                   	daa    
     aa6:	03 9d 00 00 00 0e    	add    0xe000000(%ebp),%ebx
     aac:	4b                   	dec    %ebx
     aad:	04 00                	add    $0x0,%al
     aaf:	00 03                	add    %al,(%ebx)
     ab1:	30 13                	xor    %dl,(%ebx)
     ab3:	58                   	pop    %eax
     ab4:	02 00                	add    (%eax),%al
     ab6:	00 05 04 40 02 00    	add    %al,0x24004
     abc:	00 0f                	add    %cl,(%edi)
     abe:	04 04                	add    $0x4,%al
     ac0:	07                   	pop    %es
     ac1:	09 75 02             	or     %esi,0x2(%ebp)
     ac4:	00 00                	add    %al,(%eax)
     ac6:	09 53 04             	or     %edx,0x4(%ebx)
     ac9:	00 00                	add    %al,(%eax)
     acb:	04 08                	add    $0x8,%al
     acd:	0b 4d 00             	or     0x0(%ebp),%ecx
     ad0:	00 00                	add    %al,(%eax)
     ad2:	00 00                	add    %al,(%eax)
     ad4:	02 b1 03 00 00 04    	add    0x4000003(%ecx),%dh
     ada:	09 03                	or     %eax,(%ebx)
     adc:	5e                   	pop    %esi
     add:	02 00                	add    (%eax),%al
     adf:	00 0f                	add    %cl,(%edi)
     ae1:	4c                   	dec    %esp
     ae2:	04 0b                	add    $0xb,%al
     ae4:	09 bf 02 00 00 09    	or     %edi,0x9000002(%edi)
     aea:	a3 02 00 00 04       	mov    %eax,0x4000002
     aef:	0c 0a                	or     $0xa,%al
     af1:	25 00 00 00 00       	and    $0x0,%eax
     af6:	09 4a 07             	or     %ecx,0x7(%edx)
     af9:	00 00                	add    %al,(%eax)
     afb:	04 0d                	add    $0xd,%al
     afd:	0a bf 02 00 00 01    	or     0x1000002(%edi),%bh
     b03:	09 43 01             	or     %eax,0x1(%ebx)
     b06:	00 00                	add    %al,(%eax)
     b08:	04 0e                	add    $0xe,%al
     b0a:	0b 4d 00             	or     0x0(%ebp),%ecx
     b0d:	00 00                	add    %al,(%eax)
     b0f:	44                   	inc    %esp
     b10:	09 26                	or     %esp,(%esi)
     b12:	02 00                	add    (%eax),%al
     b14:	00 04 0f             	add    %al,(%edi,%ecx,1)
     b17:	0b 4d 00             	or     0x0(%ebp),%ecx
     b1a:	00 00                	add    %al,(%eax)
     b1c:	48                   	dec    %eax
     b1d:	00 0c 38             	add    %cl,(%eax,%edi,1)
     b20:	00 00                	add    %al,(%eax)
     b22:	00 cf                	add    %cl,%bh
     b24:	02 00                	add    (%eax),%al
     b26:	00 0d 39 02 00 00    	add    %cl,0x239
     b2c:	3f                   	aas    
     b2d:	00 02                	add    %al,(%edx)
     b2f:	5e                   	pop    %esi
     b30:	03 00                	add    (%eax),%eax
     b32:	00 04 10             	add    %al,(%eax,%edx,1)
     b35:	03 81 02 00 00 10    	add    0x10000002(%ecx),%eax
     b3b:	03 04 00             	add    (%eax,%eax,1),%eax
     b3e:	00 01                	add    %al,(%ecx)
     b40:	06                   	push   %es
     b41:	12 ed                	adc    %ch,%ch
     b43:	02 00                	add    (%eax),%al
     b45:	00 05 03 d0 60 10    	add    %al,0x1060d003
     b4b:	00 05 04 75 02 00    	add    %al,0x27504
     b51:	00 10                	add    %dl,(%eax)
     b53:	80 03 00             	addb   $0x0,(%ebx)
     b56:	00 01                	add    %al,(%ecx)
     b58:	07                   	pop    %es
     b59:	17                   	pop    %ss
     b5a:	05 03 00 00 05       	add    $0x5000003,%eax
     b5f:	03 c4                	add    %esp,%eax
     b61:	60                   	pusha  
     b62:	10 00                	adc    %al,(%eax)
     b64:	05 04 cf 02 00       	add    $0x2cf04,%eax
     b69:	00 10                	add    %dl,(%eax)
     b6b:	99                   	cltd   
     b6c:	03 00                	add    (%eax),%eax
     b6e:	00 01                	add    %al,(%ecx)
     b70:	08 0c 58             	or     %cl,(%eax,%ebx,2)
     b73:	02 00                	add    (%eax),%al
     b75:	00 05 03 c8 60 10    	add    %al,0x1060c803
     b7b:	00 10                	add    %dl,(%eax)
     b7d:	e4 03                	in     $0x3,%al
     b7f:	00 00                	add    %al,(%eax)
     b81:	01 09                	add    %ecx,(%ecx)
     b83:	0c 58                	or     $0x58,%al
     b85:	02 00                	add    (%eax),%al
     b87:	00 05 03 24 60 10    	add    %al,0x10602403
     b8d:	00 10                	add    %dl,(%eax)
     b8f:	08 03                	or     %al,(%ebx)
     b91:	00 00                	add    %al,(%eax)
     b93:	01 0a                	add    %ecx,(%edx)
     b95:	0c 58                	or     $0x58,%al
     b97:	02 00                	add    (%eax),%al
     b99:	00 05 03 cc 60 10    	add    %al,0x1060cc03
     b9f:	00 10                	add    %dl,(%eax)
     ba1:	07                   	pop    %es
     ba2:	03 00                	add    (%eax),%eax
     ba4:	00 01                	add    %al,(%ecx)
     ba6:	0b 05 60 00 00 00    	or     0x60,%eax
     bac:	05 03 20 60 10       	add    $0x10602003,%eax
     bb1:	00 10                	add    %dl,(%eax)
     bb3:	1a 03                	sbb    (%ebx),%al
     bb5:	00 00                	add    %al,(%eax)
     bb7:	01 0c 0f             	add    %ecx,(%edi,%ecx,1)
     bba:	bb 01 00 00 05       	mov    $0x5000001,%ebx
     bbf:	03 40 60             	add    0x60(%eax),%eax
     bc2:	10 00                	adc    %al,(%eax)
     bc4:	11 11                	adc    %edx,(%ecx)
     bc6:	04 00                	add    $0x0,%al
     bc8:	00 01                	add    %al,(%ecx)
     bca:	73 06                	jae    bd2 <FLAGS+0xbd1>
     bcc:	96                   	xchg   %eax,%esi
     bcd:	0e                   	push   %cs
     bce:	10 00                	adc    %al,(%eax)
     bd0:	e5 00                	in     $0x0,%eax
     bd2:	00 00                	add    %al,(%eax)
     bd4:	01 9c d9 03 00 00 12 	add    %ebx,0x12000003(%ecx,%ebx,8)
     bdb:	4b                   	dec    %ebx
     bdc:	04 00                	add    $0x0,%al
     bde:	00 01                	add    %al,(%ecx)
     be0:	73 1a                	jae    bfc <FLAGS+0xbfb>
     be2:	58                   	pop    %eax
     be3:	02 00                	add    (%eax),%al
     be5:	00 02                	add    %al,(%edx)
     be7:	91                   	xchg   %eax,%ecx
     be8:	00 13                	add    %dl,(%ebx)
     bea:	69 00 01 74 09 60    	imul   $0x60097401,(%eax),%eax
     bf0:	00 00                	add    %al,(%eax)
     bf2:	00 02                	add    %al,(%edx)
     bf4:	91                   	xchg   %eax,%ecx
     bf5:	6c                   	insb   (%dx),%es:(%edi)
     bf6:	14 24                	adc    $0x24,%al
     bf8:	03 00                	add    (%eax),%eax
     bfa:	00 01                	add    %al,(%ecx)
     bfc:	75 14                	jne    c12 <FLAGS+0xc11>
     bfe:	f7 01 00 00 02 91    	testl  $0x91020000,(%ecx)
     c04:	68 15 af 0e 10       	push   $0x100eaf15
     c09:	00 a9 00 00 00 14    	add    %ch,0x14000000(%ecx)
     c0f:	1a 04 00             	sbb    (%eax,%eax,1),%al
     c12:	00 01                	add    %al,(%ecx)
     c14:	7a 0d                	jp     c23 <FLAGS+0xc22>
     c16:	58                   	pop    %eax
     c17:	02 00                	add    (%eax),%al
     c19:	00 02                	add    %al,(%edx)
     c1b:	91                   	xchg   %eax,%ecx
     c1c:	64 15 21 0f 10 00    	fs adc $0x100f21,%eax
     c22:	33 00                	xor    (%eax),%eax
     c24:	00 00                	add    %al,(%eax)
     c26:	13 62 75             	adc    0x75(%edx),%esp
     c29:	66 00 01             	data16 add %al,(%ecx)
     c2c:	80 0c 23 02          	orb    $0x2,(%ebx,%eiz,1)
     c30:	00 00                	add    %al,(%eax)
     c32:	02 91 60 00 00 00    	add    0x60(%ecx),%dl
     c38:	11 2e                	adc    %ebp,(%esi)
     c3a:	03 00                	add    (%eax),%eax
     c3c:	00 01                	add    %al,(%ecx)
     c3e:	69 06 2f 0e 10 00    	imul   $0x100e2f,(%esi),%eax
     c44:	67 00 00             	add    %al,(%bx,%si)
     c47:	00 01                	add    %al,(%ecx)
     c49:	9c                   	pushf  
     c4a:	ff 03                	incl   (%ebx)
     c4c:	00 00                	add    %al,(%eax)
     c4e:	12 24 03             	adc    (%ebx,%eax,1),%ah
     c51:	00 00                	add    %al,(%eax)
     c53:	01 69 1c             	add    %ebp,0x1c(%ecx)
     c56:	58                   	pop    %eax
     c57:	02 00                	add    (%eax),%al
     c59:	00 02                	add    %al,(%edx)
     c5b:	91                   	xchg   %eax,%ecx
     c5c:	00 00                	add    %al,(%eax)
     c5e:	16                   	push   %ss
     c5f:	45                   	inc    %ebp
     c60:	03 00                	add    (%eax),%eax
     c62:	00 01                	add    %al,(%ecx)
     c64:	33 0c 58             	xor    (%eax,%ebx,2),%ecx
     c67:	02 00                	add    (%eax),%al
     c69:	00 ee                	add    %ch,%dh
     c6b:	09 10                	or     %edx,(%eax)
     c6d:	00 41 04             	add    %al,0x4(%ecx)
     c70:	00 00                	add    %al,(%eax)
     c72:	01 9c 36 04 00 00 12 	add    %ebx,0x12000004(%esi,%esi,1)
     c79:	11 0a                	adc    %ecx,(%edx)
     c7b:	00 00                	add    %al,(%eax)
     c7d:	01 33                	add    %esi,(%ebx)
     c7f:	1e                   	push   %ds
     c80:	4d                   	dec    %ebp
     c81:	00 00                	add    %al,(%eax)
     c83:	00 02                	add    %al,(%edx)
     c85:	91                   	xchg   %eax,%ecx
     c86:	00 13                	add    %dl,(%ebx)
     c88:	69 00 01 55 09 60    	imul   $0x60095501,(%eax),%eax
     c8e:	00 00                	add    %al,(%eax)
     c90:	00 02                	add    %al,(%edx)
     c92:	91                   	xchg   %eax,%ecx
     c93:	6c                   	insb   (%dx),%es:(%edi)
     c94:	00 17                	add    %dl,(%edi)
     c96:	30 04 00             	xor    %al,(%eax,%eax,1)
     c99:	00 01                	add    %al,(%ecx)
     c9b:	27                   	daa    
     c9c:	13 58 02             	adc    0x2(%eax),%ebx
     c9f:	00 00                	add    %al,(%eax)
     ca1:	6b 09 10             	imul   $0x10,(%ecx),%ecx
     ca4:	00 83 00 00 00 01    	add    %al,0x1000000(%ebx)
     caa:	9c                   	pushf  
     cab:	7c 04                	jl     cb1 <FLAGS+0xcb0>
     cad:	00 00                	add    %al,(%eax)
     caf:	12 24 03             	adc    (%ebx,%eax,1),%ah
     cb2:	00 00                	add    %al,(%eax)
     cb4:	01 27                	add    %esp,(%edi)
     cb6:	2d 58 02 00 00       	sub    $0x258,%eax
     cbb:	02 91 00 12 4a 07    	add    0x74a1200(%ecx),%dl
     cc1:	00 00                	add    %al,(%eax)
     cc3:	01 27                	add    %esp,(%edi)
     cc5:	39 23                	cmp    %esp,(%ebx)
     cc7:	02 00                	add    (%eax),%al
     cc9:	00 02                	add    %al,(%edx)
     ccb:	91                   	xchg   %eax,%ecx
     ccc:	04 13                	add    $0x13,%al
     cce:	69 00 01 2b 09 60    	imul   $0x60092b01,(%eax),%eax
     cd4:	00 00                	add    %al,(%eax)
     cd6:	00 02                	add    %al,(%edx)
     cd8:	91                   	xchg   %eax,%ecx
     cd9:	6c                   	insb   (%dx),%es:(%edi)
     cda:	00 17                	add    %dl,(%edi)
     cdc:	ef                   	out    %eax,(%dx)
     cdd:	03 00                	add    (%eax),%eax
     cdf:	00 01                	add    %al,(%ecx)
     ce1:	18 17                	sbb    %dl,(%edi)
     ce3:	f7 01 00 00 ca 08    	testl  $0x8ca0000,(%ecx)
     ce9:	10 00                	adc    %al,(%eax)
     ceb:	a1 00 00 00 01       	mov    0x1000000,%eax
     cf0:	9c                   	pushf  
     cf1:	b5 04                	mov    $0x4,%ch
     cf3:	00 00                	add    %al,(%eax)
     cf5:	12 24 03             	adc    (%ebx,%eax,1),%ah
     cf8:	00 00                	add    %al,(%eax)
     cfa:	01 18                	add    %ebx,(%eax)
     cfc:	31 58 02             	xor    %ebx,0x2(%eax)
     cff:	00 00                	add    %al,(%eax)
     d01:	02 91 00 12 80 06    	add    0x6801200(%ecx),%dl
     d07:	00 00                	add    %al,(%eax)
     d09:	01 18                	add    %ebx,(%eax)
     d0b:	3d 4d 00 00 00       	cmp    $0x4d,%eax
     d10:	02 91 04 00 18 a5    	add    -0x5ae7fffc(%ecx),%dl
     d16:	03 00                	add    (%eax),%eax
     d18:	00 01                	add    %al,(%ecx)
     d1a:	0e                   	push   %cs
     d1b:	0e                   	push   %cs
     d1c:	4d                   	dec    %ebp
     d1d:	00 00                	add    %al,(%eax)
     d1f:	00 4f 08             	add    %cl,0x8(%edi)
     d22:	10 00                	adc    %al,(%eax)
     d24:	7b 00                	jnp    d26 <FLAGS+0xd25>
     d26:	00 00                	add    %al,(%eax)
     d28:	01 9c 12 24 03 00 00 	add    %ebx,0x324(%edx,%edx,1)
     d2f:	01 0e                	add    %ecx,(%esi)
     d31:	25 58 02 00 00       	and    $0x258,%eax
     d36:	02 91 00 12 43 01    	add    0x1431200(%ecx),%dl
     d3c:	00 00                	add    %al,(%eax)
     d3e:	01 0e                	add    %ecx,(%esi)
     d40:	30 4d 00             	xor    %cl,0x0(%ebp)
     d43:	00 00                	add    %al,(%eax)
     d45:	02 91 04 12 e2 00    	add    0xe21204(%ecx),%dl
     d4b:	00 00                	add    %al,(%eax)
     d4d:	01 0e                	add    %ecx,(%esi)
     d4f:	3d 4d 00 00 00       	cmp    $0x4d,%eax
     d54:	02 91 08 12 13 03    	add    0x3131208(%ecx),%dl
     d5a:	00 00                	add    %al,(%eax)
     d5c:	01 0e                	add    %ecx,(%esi)
     d5e:	48                   	dec    %eax
     d5f:	6e                   	outsb  %ds:(%esi),(%dx)
     d60:	01 00                	add    %eax,(%eax)
     d62:	00 02                	add    %al,(%edx)
     d64:	91                   	xchg   %eax,%ecx
     d65:	0c 14                	or     $0x14,%al
     d67:	0a 04 00             	or     (%eax,%eax,1),%al
     d6a:	00 01                	add    %al,(%ecx)
     d6c:	0f 1a cf             	nop    %edi
     d6f:	02 00                	add    (%eax),%al
     d71:	00 03                	add    %al,(%ebx)
     d73:	91                   	xchg   %eax,%ecx
     d74:	94                   	xchg   %eax,%esp
     d75:	7f 00                	jg     d77 <FLAGS+0xd76>
     d77:	00 3b                	add    %bh,(%ebx)
     d79:	04 00                	add    $0x0,%al
     d7b:	00 04 00             	add    %al,(%eax,%eax,1)
     d7e:	64 03 00             	add    %fs:(%eax),%eax
     d81:	00 04 01             	add    %al,(%ecx,%eax,1)
     d84:	2f                   	das    
     d85:	00 00                	add    %al,(%eax)
     d87:	00 0c dd 04 00 00 2d 	add    %cl,0x2d000004(,%ebx,8)
     d8e:	02 00                	add    (%eax),%al
     d90:	00 7b 0f             	add    %bh,0xf(%ebx)
     d93:	10 00                	adc    %al,(%eax)
     d95:	2f                   	das    
     d96:	03 00                	add    (%eax),%eax
     d98:	00 51 07             	add    %dl,0x7(%ecx)
     d9b:	00 00                	add    %al,(%eax)
     d9d:	02 01                	add    (%ecx),%al
     d9f:	08 61 01             	or     %ah,0x1(%ecx)
     da2:	00 00                	add    %al,(%eax)
     da4:	02 01                	add    (%ecx),%al
     da6:	06                   	push   %es
     da7:	6a 01                	push   $0x1
     da9:	00 00                	add    %al,(%eax)
     dab:	02 02                	add    (%edx),%al
     dad:	07                   	pop    %es
     dae:	be 01 00 00 02       	mov    $0x2000001,%esi
     db3:	02 05 70 00 00 00    	add    0x70,%al
     db9:	03 60 02             	add    0x2(%eax),%esp
     dbc:	00 00                	add    %al,(%eax)
     dbe:	03 08                	add    (%eax),%ecx
     dc0:	16                   	push   %ss
     dc1:	4d                   	dec    %ebp
     dc2:	00 00                	add    %al,(%eax)
     dc4:	00 02                	add    %al,(%edx)
     dc6:	04 07                	add    $0x7,%al
     dc8:	dc 06                	faddl  (%esi)
     dca:	00 00                	add    %al,(%eax)
     dcc:	04 04                	add    $0x4,%al
     dce:	05 69 6e 74 00       	add    $0x746e69,%eax
     dd3:	05 50 06 00 00       	add    $0x650,%eax
     dd8:	04 02                	add    $0x2,%al
     dda:	07                   	pop    %es
     ddb:	10 d8                	adc    %bl,%al
     ddd:	00 00                	add    %al,(%eax)
     ddf:	00 06                	add    %al,(%esi)
     de1:	6e                   	outsb  %ds:(%esi),(%dx)
     de2:	02 00                	add    (%eax),%al
     de4:	00 02                	add    %al,(%edx)
     de6:	08 0b                	or     %cl,(%ebx)
     de8:	41                   	inc    %ecx
     de9:	00 00                	add    %al,(%eax)
     deb:	00 04 01             	add    %al,(%ecx,%eax,1)
     dee:	1f                   	pop    %ds
     def:	00 07                	add    %al,(%edi)
     df1:	72 77                	jb     e6a <FLAGS+0xe69>
     df3:	00 02                	add    %al,(%edx)
     df5:	09 0b                	or     %ecx,(%ebx)
     df7:	41                   	inc    %ecx
     df8:	00 00                	add    %al,(%eax)
     dfa:	00 04 01             	add    %al,(%ecx,%eax,1)
     dfd:	1e                   	push   %ds
     dfe:	00 06                	add    %al,(%esi)
     e00:	b9 01 00 00 02       	mov    $0x2000001,%ecx
     e05:	0a 0b                	or     (%ebx),%cl
     e07:	41                   	inc    %ecx
     e08:	00 00                	add    %al,(%eax)
     e0a:	00 04 01             	add    %al,(%ecx,%eax,1)
     e0d:	1d 00 06 52 02       	sbb    $0x2520600,%eax
     e12:	00 00                	add    %al,(%eax)
     e14:	02 0b                	add    (%ebx),%cl
     e16:	0b 41 00             	or     0x0(%ecx),%eax
     e19:	00 00                	add    %al,(%eax)
     e1b:	04 01                	add    $0x1,%al
     e1d:	1c 00                	sbb    $0x0,%al
     e1f:	06                   	push   %es
     e20:	a7                   	cmpsl  %es:(%edi),%ds:(%esi)
     e21:	01 00                	add    %eax,(%eax)
     e23:	00 02                	add    %al,(%edx)
     e25:	0c 0b                	or     $0xb,%al
     e27:	41                   	inc    %ecx
     e28:	00 00                	add    %al,(%eax)
     e2a:	00 04 01             	add    %al,(%ecx,%eax,1)
     e2d:	1b 00                	sbb    (%eax),%eax
     e2f:	06                   	push   %es
     e30:	d0 02                	rolb   (%edx)
     e32:	00 00                	add    %al,(%eax)
     e34:	02 0d 0b 41 00 00    	add    0x410b,%cl
     e3a:	00 04 07             	add    %al,(%edi,%eax,1)
     e3d:	14 00                	adc    $0x0,%al
     e3f:	06                   	push   %es
     e40:	c7 05 00 00 02 0e 0b 	movl   $0x410b,0xe020000
     e47:	41 00 00 
     e4a:	00 04 14             	add    %al,(%esp,%edx,1)
     e4d:	00 00                	add    %al,(%eax)
     e4f:	00 03                	add    %al,(%ebx)
     e51:	4a                   	dec    %edx
     e52:	01 00                	add    %eax,(%eax)
     e54:	00 02                	add    %al,(%edx)
     e56:	0f 03 5b 00          	lsl    0x0(%ebx),%ebx
     e5a:	00 00                	add    %al,(%eax)
     e5c:	08 56 01             	or     %dl,0x1(%esi)
     e5f:	00 00                	add    %al,(%eax)
     e61:	00 10                	add    %dl,(%eax)
     e63:	02 11                	add    (%ecx),%dl
     e65:	10 00                	adc    %al,(%eax)
     e67:	01 00                	add    %eax,(%eax)
     e69:	00 09                	add    %cl,(%ecx)
     e6b:	ca 02 00             	lret   $0x2
     e6e:	00 02                	add    %al,(%edx)
     e70:	12 0c 00             	adc    (%eax,%eax,1),%cl
     e73:	01 00                	add    %eax,(%eax)
     e75:	00 00                	add    %al,(%eax)
     e77:	00 0a                	add    %cl,(%edx)
     e79:	d8 00                	fadds  (%eax)
     e7b:	00 00                	add    %al,(%eax)
     e7d:	11 01                	adc    %eax,(%ecx)
     e7f:	00 00                	add    %al,(%eax)
     e81:	0b 11                	or     (%ecx),%edx
     e83:	01 00                	add    %eax,(%eax)
     e85:	00 ff                	add    %bh,%bh
     e87:	03 00                	add    (%eax),%eax
     e89:	02 04 07             	add    (%edi,%eax,1),%al
     e8c:	d7                   	xlat   %ds:(%ebx)
     e8d:	06                   	push   %es
     e8e:	00 00                	add    %al,(%eax)
     e90:	03 be 00 00 00 02    	add    0x2000000(%esi),%edi
     e96:	13 03                	adc    (%ebx),%eax
     e98:	e4 00                	in     $0x0,%al
     e9a:	00 00                	add    %al,(%eax)
     e9c:	08 70 05             	or     %dh,0x5(%eax)
     e9f:	00 00                	add    %al,(%eax)
     ea1:	04 20                	add    $0x20,%al
     ea3:	02 15 10 5c 01 00    	add    0x15c10,%dl
     ea9:	00 09                	add    %cl,(%ecx)
     eab:	19 01                	sbb    %eax,(%ecx)
     ead:	00 00                	add    %al,(%eax)
     eaf:	02 16                	add    (%esi),%dl
     eb1:	13 5c 01 00          	adc    0x0(%ecx,%eax,1),%ebx
     eb5:	00 00                	add    %al,(%eax)
     eb7:	0c a9                	or     $0xa9,%al
     eb9:	02 00                	add    (%eax),%al
     ebb:	00 02                	add    %al,(%edx)
     ebd:	17                   	pop    %ss
     ebe:	0b 73 01             	or     0x1(%ebx),%esi
     ec1:	00 00                	add    %al,(%eax)
     ec3:	00 10                	add    %dl,(%eax)
     ec5:	0c f8                	or     $0xf8,%al
     ec7:	00 00                	add    %al,(%eax)
     ec9:	00 02                	add    %al,(%edx)
     ecb:	18 0b                	sbb    %cl,(%ebx)
     ecd:	41                   	inc    %ecx
     ece:	00 00                	add    %al,(%eax)
     ed0:	00 00                	add    %al,(%eax)
     ed2:	20 00                	and    %al,(%eax)
     ed4:	0a 6d 01             	or     0x1(%ebp),%ch
     ed7:	00 00                	add    %al,(%eax)
     ed9:	6d                   	insl   (%dx),%es:(%edi)
     eda:	01 00                	add    %eax,(%eax)
     edc:	00 0b                	add    %cl,(%ebx)
     ede:	11 01                	adc    %eax,(%ecx)
     ee0:	00 00                	add    %al,(%eax)
     ee2:	ff 03                	incl   (%ebx)
     ee4:	00 0d 04 18 01 00    	add    %cl,0x11804
     eea:	00 0a                	add    %cl,(%edx)
     eec:	41                   	inc    %ecx
     eed:	00 00                	add    %al,(%eax)
     eef:	00 84 01 00 00 0b 11 	add    %al,0x110b0000(%ecx,%eax,1)
     ef6:	01 00                	add    %eax,(%eax)
     ef8:	00 ff                	add    %bh,%bh
     efa:	03 00                	add    (%eax),%eax
     efc:	03 ad 00 00 00 02    	add    0x2000000(%ebp),%ebp
     f02:	19 03                	sbb    %eax,(%ebx)
     f04:	24 01                	and    $0x1,%al
     f06:	00 00                	add    %al,(%eax)
     f08:	05 23 05 00 00       	add    $0x523,%eax
     f0d:	18 04 07             	sbb    %al,(%edi,%eax,1)
     f10:	10 eb                	adc    %ch,%bl
     f12:	01 00                	add    %eax,(%eax)
     f14:	00 0e                	add    %cl,(%esi)
     f16:	69 64 00 04 08 09 54 	imul   $0x540908,0x4(%eax,%eax,1),%esp
     f1d:	00 
     f1e:	00 00                	add    %al,(%eax)
     f20:	00 0e                	add    %cl,(%esi)
     f22:	65 73 70             	gs jae f95 <FLAGS+0xf94>
     f25:	00 04 09             	add    %al,(%ecx,%ecx,1)
     f28:	0b 41 00             	or     0x0(%ecx),%eax
     f2b:	00 00                	add    %al,(%eax)
     f2d:	04 0e                	add    $0xe,%al
     f2f:	65 62 70 00          	bound  %esi,%gs:0x0(%eax)
     f33:	04 09                	add    $0x9,%al
     f35:	10 41 00             	adc    %al,0x0(%ecx)
     f38:	00 00                	add    %al,(%eax)
     f3a:	08 0e                	or     %cl,(%esi)
     f3c:	65 69 70 00 04 0a 0b 	imul   $0x410b0a04,%gs:0x0(%eax),%esi
     f43:	41 
     f44:	00 00                	add    %al,(%eax)
     f46:	00 0c 09             	add    %cl,(%ecx,%ecx,1)
     f49:	70 05                	jo     f50 <FLAGS+0xf4f>
     f4b:	00 00                	add    %al,(%eax)
     f4d:	04 0b                	add    $0xb,%al
     f4f:	17                   	pop    %ss
     f50:	eb 01                	jmp    f53 <FLAGS+0xf52>
     f52:	00 00                	add    %al,(%eax)
     f54:	10 09                	adc    %cl,(%ecx)
     f56:	3c 05                	cmp    $0x5,%al
     f58:	00 00                	add    %al,(%eax)
     f5a:	04 0c                	add    $0xc,%al
     f5c:	12 f1                	adc    %cl,%dh
     f5e:	01 00                	add    %eax,(%eax)
     f60:	00 14 00             	add    %dl,(%eax,%eax,1)
     f63:	0d 04 84 01 00       	or     $0x18404,%eax
     f68:	00 0d 04 90 01 00    	add    %cl,0x19004
     f6e:	00 03                	add    %al,(%ebx)
     f70:	97                   	xchg   %eax,%edi
     f71:	04 00                	add    $0x0,%al
     f73:	00 04 0d 03 90 01 00 	add    %al,0x19003(,%ecx,1)
     f7a:	00 0f                	add    %cl,(%edi)
     f7c:	f7 01 00 00 10 04    	testl  $0x4100000,(%ecx)
     f82:	11 c0                	adc    %eax,%eax
     f84:	04 00                	add    $0x0,%al
     f86:	00 01                	add    %al,(%ecx)
     f88:	05 12 1c 02 00       	add    $0x21c12,%eax
     f8d:	00 05 03 d8 60 10    	add    %al,0x1060d803
     f93:	00 0d 04 03 02 00    	add    %cl,0x20304
     f99:	00 11                	add    %dl,(%ecx)
     f9b:	30 05 00 00 01 06    	xor    %al,0x6010000
     fa1:	12 1c 02             	adc    (%edx,%eax,1),%bl
     fa4:	00 00                	add    %al,(%eax)
     fa6:	05 03 d4 60 10       	add    $0x1060d403,%eax
     fab:	00 12                	add    %dl,(%edx)
     fad:	7a 00                	jp     faf <FLAGS+0xfae>
     faf:	00 00                	add    %al,(%eax)
     fb1:	01 08                	add    %ecx,(%eax)
     fb3:	1a eb                	sbb    %bl,%ch
     fb5:	01 00                	add    %eax,(%eax)
     fb7:	00 12                	add    %dl,(%edx)
     fb9:	9e                   	sahf   
     fba:	04 00                	add    $0x0,%al
     fbc:	00 01                	add    %al,(%ecx)
     fbe:	09 1a                	or     %ebx,(%edx)
     fc0:	eb 01                	jmp    fc3 <FLAGS+0xfc2>
     fc2:	00 00                	add    %al,(%eax)
     fc4:	12 f9                	adc    %cl,%bh
     fc6:	04 00                	add    $0x0,%al
     fc8:	00 01                	add    %al,(%ecx)
     fca:	0a 0e                	or     (%esi),%cl
     fcc:	41                   	inc    %ecx
     fcd:	00 00                	add    %al,(%eax)
     fcf:	00 11                	add    %dl,(%ecx)
     fd1:	13 05 00 00 01 0d    	adc    0xd010000,%eax
     fd7:	07                   	pop    %es
     fd8:	41                   	inc    %ecx
     fd9:	00 00                	add    %al,(%eax)
     fdb:	00 05 03 04 50 10    	add    %al,0x10500403
     fe1:	00 13                	add    %dl,(%ebx)
     fe3:	b8 04 00 00 01       	mov    $0x1000004,%eax
     fe8:	79 05                	jns    fef <FLAGS+0xfee>
     fea:	54                   	push   %esp
     feb:	00 00                	add    %al,(%eax)
     fed:	00 9e 12 10 00 0c    	add    %bl,0xc001012(%esi)
     ff3:	00 00                	add    %al,(%eax)
     ff5:	00 01                	add    %al,(%ecx)
     ff7:	9c                   	pushf  
     ff8:	14 5a                	adc    $0x5a,%al
     ffa:	04 00                	add    $0x0,%al
     ffc:	00 01                	add    %al,(%ecx)
     ffe:	5b                   	pop    %ebx
     fff:	05 54 00 00 00       	add    $0x54,%eax
    1004:	b7 11                	mov    $0x11,%bh
    1006:	10 00                	adc    %al,(%eax)
    1008:	e7 00                	out    %eax,$0x0
    100a:	00 00                	add    %al,(%eax)
    100c:	01 9c 0e 03 00 00 15 	add    %ebx,0x15000003(%esi,%ecx,1)
    1013:	83 04 00 00          	addl   $0x0,(%eax,%eax,1)
    1017:	01 5d 0d             	add    %ebx,0xd(%ebp)
    101a:	0e                   	push   %cs
    101b:	03 00                	add    (%eax),%eax
    101d:	00 02                	add    %al,(%edx)
    101f:	91                   	xchg   %eax,%ecx
    1020:	68 15 75 05 00       	push   $0x57515
    1025:	00 01                	add    %al,(%ecx)
    1027:	5e                   	pop    %esi
    1028:	17                   	pop    %ss
    1029:	eb 01                	jmp    102c <FLAGS+0x102b>
    102b:	00 00                	add    %al,(%eax)
    102d:	02 91 64 15 7a 04    	add    0x47a1564(%ecx),%dl
    1033:	00 00                	add    %al,(%eax)
    1035:	01 5f 0d             	add    %ebx,0xd(%edi)
    1038:	0e                   	push   %cs
    1039:	03 00                	add    (%eax),%eax
    103b:	00 02                	add    %al,(%edx)
    103d:	91                   	xchg   %eax,%ecx
    103e:	60                   	pusha  
    103f:	15 05 05 00 00       	adc    $0x505,%eax
    1044:	01 66 0d             	add    %esp,0xd(%esi)
    1047:	0e                   	push   %cs
    1048:	03 00                	add    (%eax),%eax
    104a:	00 02                	add    %al,(%edx)
    104c:	91                   	xchg   %eax,%ecx
    104d:	6c                   	insb   (%dx),%es:(%edi)
    104e:	16                   	push   %ss
    104f:	65 69 70 00 01 6a 0b 	imul   $0x410b6a01,%gs:0x0(%eax),%esi
    1056:	41 
    1057:	00 00                	add    %al,(%eax)
    1059:	00 02                	add    %al,(%edx)
    105b:	91                   	xchg   %eax,%ecx
    105c:	5c                   	pop    %esp
    105d:	17                   	pop    %ss
    105e:	6a 12                	push   $0x12
    1060:	10 00                	adc    %al,(%eax)
    1062:	2d 00 00 00 16       	sub    $0x16000000,%eax
    1067:	65 73 70             	gs jae 10da <FLAGS+0x10d9>
    106a:	00 01                	add    %al,(%ecx)
    106c:	6d                   	insl   (%dx),%es:(%edi)
    106d:	08 41 00             	or     %al,0x0(%ecx)
    1070:	00 00                	add    %al,(%eax)
    1072:	02 91 58 16 65 62    	add    0x62651658(%ecx),%dl
    1078:	70 00                	jo     107a <FLAGS+0x1079>
    107a:	01 6e 08             	add    %ebp,0x8(%esi)
    107d:	41                   	inc    %ecx
    107e:	00 00                	add    %al,(%eax)
    1080:	00 02                	add    %al,(%edx)
    1082:	91                   	xchg   %eax,%ecx
    1083:	54                   	push   %esp
    1084:	00 00                	add    %al,(%eax)
    1086:	0d 04 f7 01 00       	or     $0x1f704,%eax
    108b:	00 18                	add    %bl,(%eax)
    108d:	1c 05                	sbb    $0x5,%al
    108f:	00 00                	add    %al,(%eax)
    1091:	01 40 06             	add    %eax,0x6(%eax)
    1094:	fb                   	sti    
    1095:	10 10                	adc    %dl,(%eax)
    1097:	00 bc 00 00 00 01 9c 	add    %bh,-0x63ff0000(%eax,%eax,1)
    109e:	58                   	pop    %eax
    109f:	03 00                	add    (%eax),%eax
    10a1:	00 16                	add    %dl,(%esi)
    10a3:	65 73 70             	gs jae 1116 <FLAGS+0x1115>
    10a6:	00 01                	add    %al,(%ecx)
    10a8:	42                   	inc    %edx
    10a9:	0b 41 00             	or     0x0(%ecx),%eax
    10ac:	00 00                	add    %al,(%eax)
    10ae:	02 91 6c 16 65 62    	add    0x6265166c(%ecx),%dl
    10b4:	70 00                	jo     10b6 <FLAGS+0x10b5>
    10b6:	01 42 10             	add    %eax,0x10(%edx)
    10b9:	41                   	inc    %ecx
    10ba:	00 00                	add    %al,(%eax)
    10bc:	00 02                	add    %al,(%edx)
    10be:	91                   	xchg   %eax,%ecx
    10bf:	68 16 65 69 70       	push   $0x70696516
    10c4:	00 01                	add    %al,(%ecx)
    10c6:	42                   	inc    %edx
    10c7:	15 41 00 00 00       	adc    $0x41,%eax
    10cc:	02 91 64 00 19 6f    	add    0x6f190064(%ecx),%dl
    10d2:	04 00                	add    $0x0,%al
    10d4:	00 01                	add    %al,(%ecx)
    10d6:	21 06                	and    %eax,(%esi)
    10d8:	0a 10                	or     (%eax),%dl
    10da:	10 00                	adc    %al,(%eax)
    10dc:	f1                   	icebp  
    10dd:	00 00                	add    %al,(%eax)
    10df:	00 01                	add    %al,(%ecx)
    10e1:	9c                   	pushf  
    10e2:	26 04 00             	es add $0x0,%al
    10e5:	00 1a                	add    %bl,(%edx)
    10e7:	cd 04                	int    $0x4
    10e9:	00 00                	add    %al,(%eax)
    10eb:	01 21                	add    %esp,(%ecx)
    10ed:	17                   	pop    %ss
    10ee:	08 02                	or     %al,(%edx)
    10f0:	00 00                	add    %al,(%eax)
    10f2:	02 91 00 1a e2 00    	add    0xe21a00(%ecx),%dl
    10f8:	00 00                	add    %al,(%eax)
    10fa:	01 21                	add    %esp,(%ecx)
    10fc:	2e 41                	cs inc %ecx
    10fe:	00 00                	add    %al,(%eax)
    1100:	00 02                	add    %al,(%edx)
    1102:	91                   	xchg   %eax,%ecx
    1103:	04 16                	add    $0x16,%al
    1105:	69 00 01 22 0b 41    	imul   $0x410b2201,(%eax),%eax
    110b:	00 00                	add    %al,(%eax)
    110d:	00 02                	add    %al,(%edx)
    110f:	91                   	xchg   %eax,%ecx
    1110:	6c                   	insb   (%dx),%es:(%edi)
    1111:	15 5f 04 00 00       	adc    $0x45f,%eax
    1116:	01 27                	add    %esp,(%edi)
    1118:	0b 41 00             	or     0x0(%ecx),%eax
    111b:	00 00                	add    %al,(%eax)
    111d:	02 91 68 15 67 04    	add    0x4671568(%ecx),%dl
    1123:	00 00                	add    %al,(%eax)
    1125:	01 2b                	add    %ebp,(%ebx)
    1127:	0b 41 00             	or     0x0(%ecx),%eax
    112a:	00 00                	add    %al,(%eax)
    112c:	02 91 64 15 b0 04    	add    0x4b01564(%ecx),%dl
    1132:	00 00                	add    %al,(%eax)
    1134:	01 2c 0b             	add    %ebp,(%ebx,%ecx,1)
    1137:	41                   	inc    %ecx
    1138:	00 00                	add    %al,(%eax)
    113a:	00 02                	add    %al,(%edx)
    113c:	91                   	xchg   %eax,%ecx
    113d:	60                   	pusha  
    113e:	15 43 01 00 00       	adc    $0x143,%eax
    1143:	01 2e                	add    %ebp,(%esi)
    1145:	0b 41 00             	or     0x0(%ecx),%eax
    1148:	00 00                	add    %al,(%eax)
    114a:	02 91 5c 15 28 05    	add    0x528155c(%ecx),%dl
    1150:	00 00                	add    %al,(%eax)
    1152:	01 2f                	add    %ebp,(%edi)
    1154:	0b 41 00             	or     0x0(%ecx),%eax
    1157:	00 00                	add    %al,(%eax)
    1159:	02 91 58 15 8f 04    	add    0x48f1558(%ecx),%dl
    115f:	00 00                	add    %al,(%eax)
    1161:	01 30                	add    %esi,(%eax)
    1163:	0b 41 00             	or     0x0(%ecx),%eax
    1166:	00 00                	add    %al,(%eax)
    1168:	02 91 54 17 b1 10    	add    0x10b11754(%ecx),%dl
    116e:	10 00                	adc    %al,(%eax)
    1170:	2e 00 00             	add    %al,%cs:(%eax)
    1173:	00 16                	add    %dl,(%esi)
    1175:	74 6d                	je     11e4 <FLAGS+0x11e3>
    1177:	70 00                	jo     1179 <FLAGS+0x1178>
    1179:	01 35 08 41 00 00    	add    %esi,0x4108
    117f:	00 02                	add    %al,(%edx)
    1181:	91                   	xchg   %eax,%ecx
    1182:	50                   	push   %eax
    1183:	17                   	pop    %ss
    1184:	cb                   	lret   
    1185:	10 10                	adc    %dl,(%eax)
    1187:	00 14 00             	add    %dl,(%eax,%eax,1)
    118a:	00 00                	add    %al,(%eax)
    118c:	15 0e 05 00 00       	adc    $0x50e,%eax
    1191:	01 38                	add    %edi,(%eax)
    1193:	0d 26 04 00 00       	or     $0x426,%eax
    1198:	02 91 4c 00 00 00    	add    0x4c(%ecx),%dl
    119e:	0d 04 41 00 00       	or     $0x4104,%eax
    11a3:	00 1b                	add    %bl,(%ebx)
    11a5:	ef                   	out    %eax,(%dx)
    11a6:	04 00                	add    $0x0,%al
    11a8:	00 01                	add    %al,(%ecx)
    11aa:	0f 06                	clts   
    11ac:	7b 0f                	jnp    11bd <FLAGS+0x11bc>
    11ae:	10 00                	adc    %al,(%eax)
    11b0:	8f 00                	popl   (%eax)
    11b2:	00 00                	add    %al,(%eax)
    11b4:	01 9c 00 ba 07 00 00 	add    %ebx,0x7ba(%eax,%eax,1)
    11bb:	04 00                	add    $0x0,%al
    11bd:	2f                   	das    
    11be:	05 00 00 04 01       	add    $0x1040000,%eax
    11c3:	2f                   	das    
    11c4:	00 00                	add    %al,(%eax)
    11c6:	00 0c fc             	add    %cl,(%esp,%edi,8)
    11c9:	05 00 00 2d 02       	add    $0x22d0000,%eax
    11ce:	00 00                	add    %al,(%eax)
    11d0:	aa                   	stos   %al,%es:(%edi)
    11d1:	12 10                	adc    (%eax),%dl
    11d3:	00 d7                	add    %dl,%bh
    11d5:	08 00                	or     %al,(%eax)
    11d7:	00 55 09             	add    %dl,0x9(%ebp)
    11da:	00 00                	add    %al,(%eax)
    11dc:	02 5b 02             	add    0x2(%ebx),%bl
    11df:	00 00                	add    %al,(%eax)
    11e1:	02 04 17             	add    (%edi,%edx,1),%al
    11e4:	31 00                	xor    %eax,(%eax)
    11e6:	00 00                	add    %al,(%eax)
    11e8:	03 01                	add    (%ecx),%eax
    11ea:	08 61 01             	or     %ah,0x1(%ecx)
    11ed:	00 00                	add    %al,(%eax)
    11ef:	02 31                	add    (%ecx),%dh
    11f1:	01 00                	add    %eax,(%eax)
    11f3:	00 02                	add    %al,(%edx)
    11f5:	05 0e 44 00 00       	add    $0x440e,%eax
    11fa:	00 03                	add    %al,(%ebx)
    11fc:	01 06                	add    %eax,(%esi)
    11fe:	6a 01                	push   $0x1
    1200:	00 00                	add    %al,(%eax)
    1202:	03 02                	add    (%edx),%eax
    1204:	07                   	pop    %es
    1205:	be 01 00 00 03       	mov    $0x3000001,%esi
    120a:	02 05 70 00 00 00    	add    0x70,%al
    1210:	02 60 02             	add    0x2(%eax),%ah
    1213:	00 00                	add    %al,(%eax)
    1215:	02 08                	add    (%eax),%cl
    1217:	16                   	push   %ss
    1218:	65 00 00             	add    %al,%gs:(%eax)
    121b:	00 03                	add    %al,(%ebx)
    121d:	04 07                	add    $0x7,%al
    121f:	dc 06                	faddl  (%esi)
    1221:	00 00                	add    %al,(%eax)
    1223:	04 04                	add    $0x4,%al
    1225:	05 69 6e 74 00       	add    $0x746e69,%eax
    122a:	05 69 06 00 00       	add    $0x669,%eax
    122f:	40                   	inc    %eax
    1230:	03 1d 10 4e 01 00    	add    0x14e10,%ebx
    1236:	00 06                	add    %al,(%esi)
    1238:	64 73 00             	fs jae 123b <FLAGS+0x123a>
    123b:	03 1e                	add    (%esi),%ebx
    123d:	0b 59 00             	or     0x0(%ecx),%ebx
    1240:	00 00                	add    %al,(%eax)
    1242:	00 06                	add    %al,(%esi)
    1244:	65 64 69 00 03 1f 0b 	gs imul $0x590b1f03,%fs:(%eax),%eax
    124b:	59 
    124c:	00 00                	add    %al,(%eax)
    124e:	00 04 06             	add    %al,(%esi,%eax,1)
    1251:	65 73 69             	gs jae 12bd <FLAGS+0x12bc>
    1254:	00 03                	add    %al,(%ebx)
    1256:	1f                   	pop    %ds
    1257:	0f 59 00             	mulps  (%eax),%xmm0
    125a:	00 00                	add    %al,(%eax)
    125c:	08 06                	or     %al,(%esi)
    125e:	65 62 70 00          	bound  %esi,%gs:0x0(%eax)
    1262:	03 1f                	add    (%edi),%ebx
    1264:	13 59 00             	adc    0x0(%ecx),%ebx
    1267:	00 00                	add    %al,(%eax)
    1269:	0c 06                	or     $0x6,%al
    126b:	65 73 70             	gs jae 12de <FLAGS+0x12dd>
    126e:	00 03                	add    %al,(%ebx)
    1270:	1f                   	pop    %ds
    1271:	17                   	pop    %ss
    1272:	59                   	pop    %ecx
    1273:	00 00                	add    %al,(%eax)
    1275:	00 10                	add    %dl,(%eax)
    1277:	06                   	push   %es
    1278:	65 62 78 00          	bound  %edi,%gs:0x0(%eax)
    127c:	03 1f                	add    (%edi),%ebx
    127e:	1b 59 00             	sbb    0x0(%ecx),%ebx
    1281:	00 00                	add    %al,(%eax)
    1283:	14 06                	adc    $0x6,%al
    1285:	65 64 78 00          	gs fs js 1289 <FLAGS+0x1288>
    1289:	03 1f                	add    (%edi),%ebx
    128b:	1f                   	pop    %ds
    128c:	59                   	pop    %ecx
    128d:	00 00                	add    %al,(%eax)
    128f:	00 18                	add    %bl,(%eax)
    1291:	06                   	push   %es
    1292:	65 63 78 00          	arpl   %di,%gs:0x0(%eax)
    1296:	03 1f                	add    (%edi),%ebx
    1298:	23 59 00             	and    0x0(%ecx),%ebx
    129b:	00 00                	add    %al,(%eax)
    129d:	1c 06                	sbb    $0x6,%al
    129f:	65 61                	gs popa 
    12a1:	78 00                	js     12a3 <FLAGS+0x12a2>
    12a3:	03 1f                	add    (%edi),%ebx
    12a5:	27                   	daa    
    12a6:	59                   	pop    %ecx
    12a7:	00 00                	add    %al,(%eax)
    12a9:	00 20                	add    %ah,(%eax)
    12ab:	07                   	pop    %es
    12ac:	31 06                	xor    %eax,(%esi)
    12ae:	00 00                	add    %al,(%eax)
    12b0:	03 20                	add    (%eax),%esp
    12b2:	0b 59 00             	or     0x0(%ecx),%ebx
    12b5:	00 00                	add    %al,(%eax)
    12b7:	24 07                	and    $0x7,%al
    12b9:	55                   	push   %ebp
    12ba:	06                   	push   %es
    12bb:	00 00                	add    %al,(%eax)
    12bd:	03 20                	add    (%eax),%esp
    12bf:	12 59 00             	adc    0x0(%ecx),%bl
    12c2:	00 00                	add    %al,(%eax)
    12c4:	28 06                	sub    %al,(%esi)
    12c6:	65 69 70 00 03 21 0b 	imul   $0x590b2103,%gs:0x0(%eax),%esi
    12cd:	59 
    12ce:	00 00                	add    %al,(%eax)
    12d0:	00 2c 06             	add    %ch,(%esi,%eax,1)
    12d3:	63 73 00             	arpl   %si,0x0(%ebx)
    12d6:	03 21                	add    (%ecx),%esp
    12d8:	0f 59 00             	mulps  (%eax),%xmm0
    12db:	00 00                	add    %al,(%eax)
    12dd:	30 07                	xor    %al,(%edi)
    12df:	7f 05                	jg     12e6 <FLAGS+0x12e5>
    12e1:	00 00                	add    %al,(%eax)
    12e3:	03 21                	add    (%ecx),%esp
    12e5:	12 59 00             	adc    0x0(%ecx),%bl
    12e8:	00 00                	add    %al,(%eax)
    12ea:	34 07                	xor    $0x7,%al
    12ec:	ec                   	in     (%dx),%al
    12ed:	05 00 00 03 21       	add    $0x21030000,%eax
    12f2:	19 59 00             	sbb    %ebx,0x0(%ecx)
    12f5:	00 00                	add    %al,(%eax)
    12f7:	38 06                	cmp    %al,(%esi)
    12f9:	73 73                	jae    136e <FLAGS+0x136d>
    12fb:	00 03                	add    %al,(%ebx)
    12fd:	21 21                	and    %esp,(%ecx)
    12ff:	59                   	pop    %ecx
    1300:	00 00                	add    %al,(%eax)
    1302:	00 3c 00             	add    %bh,(%eax,%eax,1)
    1305:	02 41 05             	add    0x5(%ecx),%al
    1308:	00 00                	add    %al,(%eax)
    130a:	03 22                	add    (%edx),%esp
    130c:	03 73 00             	add    0x0(%ebx),%esi
    130f:	00 00                	add    %al,(%eax)
    1311:	05 50 06 00 00       	add    $0x650,%eax
    1316:	04 04                	add    $0x4,%al
    1318:	07                   	pop    %es
    1319:	10 d7                	adc    %dl,%bh
    131b:	01 00                	add    %eax,(%eax)
    131d:	00 08                	add    %cl,(%eax)
    131f:	6e                   	outsb  %ds:(%esi),(%dx)
    1320:	02 00                	add    (%eax),%al
    1322:	00 04 08             	add    %al,(%eax,%ecx,1)
    1325:	0b 59 00             	or     0x0(%ecx),%ebx
    1328:	00 00                	add    %al,(%eax)
    132a:	04 01                	add    $0x1,%al
    132c:	1f                   	pop    %ds
    132d:	00 09                	add    %cl,(%ecx)
    132f:	72 77                	jb     13a8 <FLAGS+0x13a7>
    1331:	00 04 09             	add    %al,(%ecx,%ecx,1)
    1334:	0b 59 00             	or     0x0(%ecx),%ebx
    1337:	00 00                	add    %al,(%eax)
    1339:	04 01                	add    $0x1,%al
    133b:	1e                   	push   %ds
    133c:	00 08                	add    %cl,(%eax)
    133e:	b9 01 00 00 04       	mov    $0x4000001,%ecx
    1343:	0a 0b                	or     (%ebx),%cl
    1345:	59                   	pop    %ecx
    1346:	00 00                	add    %al,(%eax)
    1348:	00 04 01             	add    %al,(%ecx,%eax,1)
    134b:	1d 00 08 52 02       	sbb    $0x2520800,%eax
    1350:	00 00                	add    %al,(%eax)
    1352:	04 0b                	add    $0xb,%al
    1354:	0b 59 00             	or     0x0(%ecx),%ebx
    1357:	00 00                	add    %al,(%eax)
    1359:	04 01                	add    $0x1,%al
    135b:	1c 00                	sbb    $0x0,%al
    135d:	08 a7 01 00 00 04    	or     %ah,0x4000001(%edi)
    1363:	0c 0b                	or     $0xb,%al
    1365:	59                   	pop    %ecx
    1366:	00 00                	add    %al,(%eax)
    1368:	00 04 01             	add    %al,(%ecx,%eax,1)
    136b:	1b 00                	sbb    (%eax),%eax
    136d:	08 d0                	or     %dl,%al
    136f:	02 00                	add    (%eax),%al
    1371:	00 04 0d 0b 59 00 00 	add    %al,0x590b(,%ecx,1)
    1378:	00 04 07             	add    %al,(%edi,%eax,1)
    137b:	14 00                	adc    $0x0,%al
    137d:	08 c7                	or     %al,%bh
    137f:	05 00 00 04 0e       	add    $0xe040000,%eax
    1384:	0b 59 00             	or     0x0(%ecx),%ebx
    1387:	00 00                	add    %al,(%eax)
    1389:	04 14                	add    $0x14,%al
    138b:	00 00                	add    %al,(%eax)
    138d:	00 02                	add    %al,(%edx)
    138f:	4a                   	dec    %edx
    1390:	01 00                	add    %eax,(%eax)
    1392:	00 04 0f             	add    %al,(%edi,%ecx,1)
    1395:	03 5a 01             	add    0x1(%edx),%ebx
    1398:	00 00                	add    %al,(%eax)
    139a:	0a 56 01             	or     0x1(%esi),%dl
    139d:	00 00                	add    %al,(%eax)
    139f:	00 10                	add    %dl,(%eax)
    13a1:	04 11                	add    $0x11,%al
    13a3:	10 ff                	adc    %bh,%bh
    13a5:	01 00                	add    %eax,(%eax)
    13a7:	00 07                	add    %al,(%edi)
    13a9:	ca 02 00             	lret   $0x2
    13ac:	00 04 12             	add    %al,(%edx,%edx,1)
    13af:	0c ff                	or     $0xff,%al
    13b1:	01 00                	add    %eax,(%eax)
    13b3:	00 00                	add    %al,(%eax)
    13b5:	00 0b                	add    %cl,(%ebx)
    13b7:	d7                   	xlat   %ds:(%ebx)
    13b8:	01 00                	add    %eax,(%eax)
    13ba:	00 10                	add    %dl,(%eax)
    13bc:	02 00                	add    (%eax),%al
    13be:	00 0c 10             	add    %cl,(%eax,%edx,1)
    13c1:	02 00                	add    (%eax),%al
    13c3:	00 ff                	add    %bh,%bh
    13c5:	03 00                	add    (%eax),%eax
    13c7:	03 04 07             	add    (%edi,%eax,1),%eax
    13ca:	d7                   	xlat   %ds:(%ebx)
    13cb:	06                   	push   %es
    13cc:	00 00                	add    %al,(%eax)
    13ce:	02 be 00 00 00 04    	add    0x4000000(%esi),%bh
    13d4:	13 03                	adc    (%ebx),%eax
    13d6:	e3 01                	jecxz  13d9 <FLAGS+0x13d8>
    13d8:	00 00                	add    %al,(%eax)
    13da:	0a 70 05             	or     0x5(%eax),%dh
    13dd:	00 00                	add    %al,(%eax)
    13df:	04 20                	add    $0x20,%al
    13e1:	04 15                	add    $0x15,%al
    13e3:	10 5b 02             	adc    %bl,0x2(%ebx)
    13e6:	00 00                	add    %al,(%eax)
    13e8:	07                   	pop    %es
    13e9:	19 01                	sbb    %eax,(%ecx)
    13eb:	00 00                	add    %al,(%eax)
    13ed:	04 16                	add    $0x16,%al
    13ef:	13 5b 02             	adc    0x2(%ebx),%ebx
    13f2:	00 00                	add    %al,(%eax)
    13f4:	00 0d a9 02 00 00    	add    %cl,0x2a9
    13fa:	04 17                	add    $0x17,%al
    13fc:	0b 72 02             	or     0x2(%edx),%esi
    13ff:	00 00                	add    %al,(%eax)
    1401:	00 10                	add    %dl,(%eax)
    1403:	0d f8 00 00 00       	or     $0xf8,%eax
    1408:	04 18                	add    $0x18,%al
    140a:	0b 59 00             	or     0x0(%ecx),%ebx
    140d:	00 00                	add    %al,(%eax)
    140f:	00 20                	add    %ah,(%eax)
    1411:	00 0b                	add    %cl,(%ebx)
    1413:	6c                   	insb   (%dx),%es:(%edi)
    1414:	02 00                	add    (%eax),%al
    1416:	00 6c 02 00          	add    %ch,0x0(%edx,%eax,1)
    141a:	00 0c 10             	add    %cl,(%eax,%edx,1)
    141d:	02 00                	add    (%eax),%al
    141f:	00 ff                	add    %bh,%bh
    1421:	03 00                	add    (%eax),%eax
    1423:	0e                   	push   %cs
    1424:	04 17                	add    $0x17,%al
    1426:	02 00                	add    (%eax),%al
    1428:	00 0b                	add    %cl,(%ebx)
    142a:	59                   	pop    %ecx
    142b:	00 00                	add    %al,(%eax)
    142d:	00 83 02 00 00 0c    	add    %al,0xc000002(%ebx)
    1433:	10 02                	adc    %al,(%edx)
    1435:	00 00                	add    %al,(%eax)
    1437:	ff 03                	incl   (%ebx)
    1439:	00 02                	add    %al,(%edx)
    143b:	ad                   	lods   %ds:(%esi),%eax
    143c:	00 00                	add    %al,(%eax)
    143e:	00 04 19             	add    %al,(%ecx,%ebx,1)
    1441:	03 23                	add    (%ebx),%esp
    1443:	02 00                	add    (%eax),%al
    1445:	00 02                	add    %al,(%edx)
    1447:	3e 03 00             	add    %ds:(%eax),%eax
    144a:	00 05 07 0f 9b 02    	add    %al,0x29b0f07
    1450:	00 00                	add    %al,(%eax)
    1452:	0f 04                	(bad)  
    1454:	02 8e 02 00 00 05    	add    0x5000002(%esi),%cl
    145a:	08 10                	or     %dl,(%eax)
    145c:	a9 02 00 00 0e       	test   $0xe000002,%eax
    1461:	04 af                	add    $0xaf,%al
    1463:	02 00                	add    (%eax),%al
    1465:	00 10                	add    %dl,(%eax)
    1467:	38 00                	cmp    %al,(%eax)
    1469:	00 00                	add    %al,(%eax)
    146b:	c3                   	ret    
    146c:	02 00                	add    (%eax),%al
    146e:	00 11                	add    %dl,(%ecx)
    1470:	8f 02                	popl   (%edx)
    1472:	00 00                	add    %al,(%eax)
    1474:	11 8f 02 00 00 00    	adc    %ecx,0x2(%edi)
    147a:	12 10                	adc    (%eax),%dl
    147c:	05 0a 09 01 03       	add    $0x301090a,%eax
    1481:	00 00                	add    %al,(%eax)
    1483:	07                   	pop    %es
    1484:	ee                   	out    %al,(%dx)
    1485:	0d 00 00 05 0b       	or     $0xb050000,%eax
    148a:	0d 01 03 00 00       	or     $0x301,%eax
    148f:	00 07                	add    %al,(%edi)
    1491:	e2 00                	loop   1493 <FLAGS+0x1492>
    1493:	00 00                	add    %al,(%eax)
    1495:	05 0c 0b 59 00       	add    $0x590b0c,%eax
    149a:	00 00                	add    %al,(%eax)
    149c:	04 07                	add    $0x7,%al
    149e:	85 02                	test   %eax,(%edx)
    14a0:	00 00                	add    %al,(%eax)
    14a2:	05 0d 0b 59 00       	add    $0x590b0d,%eax
    14a7:	00 00                	add    %al,(%eax)
    14a9:	08 07                	or     %al,(%edi)
    14ab:	91                   	xchg   %eax,%ecx
    14ac:	01 00                	add    %eax,(%eax)
    14ae:	00 05 0e 11 9d 02    	add    %al,0x29d110e
    14b4:	00 00                	add    %al,(%eax)
    14b6:	0c 00                	or     $0x0,%al
    14b8:	0e                   	push   %cs
    14b9:	04 8f                	add    $0x8f,%al
    14bb:	02 00                	add    (%eax),%al
    14bd:	00 02                	add    %al,(%edx)
    14bf:	08 02                	or     %al,(%edx)
    14c1:	00 00                	add    %al,(%eax)
    14c3:	05 0f 03 c3 02       	add    $0x2c3030f,%eax
    14c8:	00 00                	add    %al,(%eax)
    14ca:	12 20                	adc    (%eax),%ah
    14cc:	06                   	push   %es
    14cd:	18 09                	sbb    %cl,(%ecx)
    14cf:	6b 03 00             	imul   $0x0,(%ebx),%eax
    14d2:	00 07                	add    %al,(%edi)
    14d4:	80 06 00             	addb   $0x0,(%esi)
    14d7:	00 06                	add    %al,(%esi)
    14d9:	19 15 07 03 00 00    	sbb    %edx,0x307
    14df:	00 07                	add    %al,(%edi)
    14e1:	6f                   	outsl  %ds:(%esi),(%dx)
    14e2:	01 00                	add    %eax,(%eax)
    14e4:	00 06                	add    %al,(%esi)
    14e6:	1a 0b                	sbb    (%ebx),%cl
    14e8:	59                   	pop    %ecx
    14e9:	00 00                	add    %al,(%eax)
    14eb:	00 10                	add    %dl,(%eax)
    14ed:	07                   	pop    %es
    14ee:	ec                   	in     (%dx),%al
    14ef:	02 00                	add    (%eax),%al
    14f1:	00 06                	add    %al,(%esi)
    14f3:	1b 0b                	sbb    (%ebx),%ecx
    14f5:	59                   	pop    %ecx
    14f6:	00 00                	add    %al,(%eax)
    14f8:	00 14 07             	add    %dl,(%edi,%eax,1)
    14fb:	9b                   	fwait
    14fc:	01 00                	add    %eax,(%eax)
    14fe:	00 06                	add    %al,(%esi)
    1500:	1c 0b                	sbb    $0xb,%al
    1502:	59                   	pop    %ecx
    1503:	00 00                	add    %al,(%eax)
    1505:	00 18                	add    %bl,(%eax)
    1507:	07                   	pop    %es
    1508:	00 00                	add    %al,(%eax)
    150a:	00 00                	add    %al,(%eax)
    150c:	06                   	push   %es
    150d:	1d 0a 25 00 00       	sbb    $0x250a,%eax
    1512:	00 1c 07             	add    %bl,(%edi,%eax,1)
    1515:	8b 00                	mov    (%eax),%eax
    1517:	00 00                	add    %al,(%eax)
    1519:	06                   	push   %es
    151a:	1e                   	push   %ds
    151b:	0a 25 00 00 00 1d    	or     0x1d000000,%ah
    1521:	00 02                	add    %al,(%edx)
    1523:	0b 00                	or     (%eax),%eax
    1525:	00 00                	add    %al,(%eax)
    1527:	06                   	push   %es
    1528:	1f                   	pop    %ds
    1529:	03 13                	add    (%ebx),%edx
    152b:	03 00                	add    (%eax),%eax
    152d:	00 13                	add    %dl,(%ebx)
    152f:	5b                   	pop    %ebx
    1530:	05 00 00 01 09       	add    $0x9010000,%eax
    1535:	08 89 03 00 00 05    	or     %cl,0x5000003(%ecx)
    153b:	03 e0                	add    %eax,%esp
    153d:	60                   	pusha  
    153e:	10 00                	adc    %al,(%eax)
    1540:	0e                   	push   %cs
    1541:	04 59                	add    $0x59,%al
    1543:	00 00                	add    %al,(%eax)
    1545:	00 13                	add    %dl,(%ebx)
    1547:	f4                   	hlt    
    1548:	05 00 00 01 0a       	add    $0xa010000,%eax
    154d:	07                   	pop    %es
    154e:	59                   	pop    %ecx
    154f:	00 00                	add    %al,(%eax)
    1551:	00 05 03 dc 60 10    	add    %al,0x1060dc03
    1557:	00 13                	add    %dl,(%ebx)
    1559:	7a 00                	jp     155b <FLAGS+0x155a>
    155b:	00 00                	add    %al,(%eax)
    155d:	01 0b                	add    %ecx,(%ebx)
    155f:	13 b3 03 00 00 05    	adc    0x5000003(%ebx),%esi
    1565:	03 04 60             	add    (%eax,%eiz,2),%eax
    1568:	10 00                	adc    %al,(%eax)
    156a:	0e                   	push   %cs
    156b:	04 83                	add    $0x83,%al
    156d:	02 00                	add    (%eax),%al
    156f:	00 13                	add    %dl,(%ebx)
    1571:	9e                   	sahf   
    1572:	04 00                	add    $0x0,%al
    1574:	00 01                	add    %al,(%ecx)
    1576:	0c 13                	or     $0x13,%al
    1578:	b3 03                	mov    $0x3,%bl
    157a:	00 00                	add    %al,(%eax)
    157c:	05 03 08 60 10       	add    $0x10600803,%eax
    1581:	00 14 12             	add    %dl,(%edx,%edx,1)
    1584:	00 00                	add    %al,(%eax)
    1586:	00 01                	add    %al,(%ecx)
    1588:	0e                   	push   %cs
    1589:	0e                   	push   %cs
    158a:	59                   	pop    %ecx
    158b:	00 00                	add    %al,(%eax)
    158d:	00 14 d8             	add    %dl,(%eax,%ebx,8)
    1590:	00 00                	add    %al,(%eax)
    1592:	00 01                	add    %al,(%ecx)
    1594:	0f 10 e3             	movups %xmm3,%xmm4
    1597:	03 00                	add    (%eax),%eax
    1599:	00 0e                	add    %cl,(%esi)
    159b:	04 6b                	add    $0x6b,%al
    159d:	03 00                	add    (%eax),%eax
    159f:	00 14 24             	add    %dl,(%esp)
    15a2:	00 00                	add    %al,(%eax)
    15a4:	00 01                	add    %al,(%ecx)
    15a6:	10 0e                	adc    %cl,(%esi)
    15a8:	59                   	pop    %ecx
    15a9:	00 00                	add    %al,(%eax)
    15ab:	00 15 99 05 00 00    	add    %dl,0x599
    15b1:	01 d6                	add    %edx,%esi
    15b3:	16                   	push   %ss
    15b4:	6c                   	insb   (%dx),%es:(%edi)
    15b5:	02 00                	add    (%eax),%al
    15b7:	00 1b                	add    %bl,(%ebx)
    15b9:	1a 10                	sbb    (%eax),%dl
    15bb:	00 66 01             	add    %ah,0x1(%esi)
    15be:	00 00                	add    %al,(%eax)
    15c0:	01 9c 54 04 00 00 16 	add    %ebx,0x16000004(%esp,%edx,2)
    15c7:	73 72                	jae    163b <FLAGS+0x163a>
    15c9:	63 00                	arpl   %ax,(%eax)
    15cb:	01 d6                	add    %edx,%esi
    15cd:	30 6c 02 00          	xor    %ch,0x0(%edx,%eax,1)
    15d1:	00 02                	add    %al,(%edx)
    15d3:	91                   	xchg   %eax,%ecx
    15d4:	00 17                	add    %dl,(%edi)
    15d6:	51                   	push   %ecx
    15d7:	01 00                	add    %eax,(%eax)
    15d9:	00 01                	add    %al,(%ecx)
    15db:	d6                   	(bad)  
    15dc:	3c 89                	cmp    $0x89,%al
    15de:	03 00                	add    (%eax),%eax
    15e0:	00 02                	add    %al,(%edx)
    15e2:	91                   	xchg   %eax,%ecx
    15e3:	04 18                	add    $0x18,%al
    15e5:	5b                   	pop    %ebx
    15e6:	01 00                	add    %eax,(%eax)
    15e8:	00 01                	add    %al,(%ecx)
    15ea:	d7                   	xlat   %ds:(%ebx)
    15eb:	13 6c 02 00          	adc    0x0(%edx,%eax,1),%ebp
    15ef:	00 02                	add    %al,(%edx)
    15f1:	91                   	xchg   %eax,%ecx
    15f2:	68 19 4c 1a 10       	push   $0x101a4c19
    15f7:	00 30                	add    %dh,(%eax)
    15f9:	01 00                	add    %eax,(%eax)
    15fb:	00 1a                	add    %bl,(%edx)
    15fd:	69 00 01 d9 0d 6c    	imul   $0x6c0dd901,(%eax),%eax
    1603:	00 00                	add    %al,(%eax)
    1605:	00 02                	add    %al,(%edx)
    1607:	91                   	xchg   %eax,%ecx
    1608:	6c                   	insb   (%dx),%es:(%edi)
    1609:	00 00                	add    %al,(%eax)
    160b:	1b b1 05 00 00 01    	sbb    0x1000005(%ecx),%esi
    1611:	bf 13 b3 03 00       	mov    $0x3b313,%edi
    1616:	00 06                	add    %al,(%esi)
    1618:	19 10                	sbb    %edx,(%eax)
    161a:	00 15 01 00 00 01    	add    %dl,0x1000001
    1620:	9c                   	pushf  
    1621:	db 04 00             	fildl  (%eax,%eax,1)
    1624:	00 16                	add    %dl,(%esi)
    1626:	73 72                	jae    169a <FLAGS+0x1699>
    1628:	63 00                	arpl   %ax,(%eax)
    162a:	01 bf 35 b3 03 00    	add    %edi,0x3b335(%edi)
    1630:	00 02                	add    %al,(%edx)
    1632:	91                   	xchg   %eax,%ecx
    1633:	00 18                	add    %bl,(%eax)
    1635:	51                   	push   %ecx
    1636:	01 00                	add    %eax,(%eax)
    1638:	00 01                	add    %al,(%ecx)
    163a:	c0 0b 59             	rorb   $0x59,(%ebx)
    163d:	00 00                	add    %al,(%eax)
    163f:	00 02                	add    %al,(%edx)
    1641:	91                   	xchg   %eax,%ecx
    1642:	64 1a 64 69 72       	sbb    %fs:0x72(%ecx,%ebp,2),%ah
    1647:	00 01                	add    %al,(%ecx)
    1649:	c1 17 b3             	rcll   $0xb3,(%edi)
    164c:	03 00                	add    (%eax),%eax
    164e:	00 02                	add    %al,(%edx)
    1650:	91                   	xchg   %eax,%ecx
    1651:	60                   	pusha  
    1652:	18 43 01             	sbb    %al,0x1(%ebx)
    1655:	00 00                	add    %al,(%eax)
    1657:	01 c3                	add    %eax,%ebx
    1659:	0b 59 00             	or     0x0(%ecx),%ebx
    165c:	00 00                	add    %al,(%eax)
    165e:	02 91 68 19 5f 19    	add    0x195f1968(%ecx),%dl
    1664:	10 00                	adc    %al,(%eax)
    1666:	b4 00                	mov    $0x0,%ah
    1668:	00 00                	add    %al,(%eax)
    166a:	1a 69 00             	sbb    0x0(%ecx),%ch
    166d:	01 c7                	add    %eax,%edi
    166f:	0d 6c 00 00 00       	or     $0x6c,%eax
    1674:	02 91 6c 19 c6 19    	add    0x19c6196c(%ecx),%dl
    167a:	10 00                	adc    %al,(%eax)
    167c:	3b 00                	cmp    (%eax),%eax
    167e:	00 00                	add    %al,(%eax)
    1680:	18 51 01             	sbb    %dl,0x1(%ecx)
    1683:	00 00                	add    %al,(%eax)
    1685:	01 ce                	add    %ecx,%esi
    1687:	0c 59                	or     $0x59,%al
    1689:	00 00                	add    %al,(%eax)
    168b:	00 02                	add    %al,(%edx)
    168d:	91                   	xchg   %eax,%ecx
    168e:	5c                   	pop    %esp
    168f:	00 00                	add    %al,(%eax)
    1691:	00 1c 26             	add    %bl,(%esi,%eiz,1)
    1694:	06                   	push   %es
    1695:	00 00                	add    %al,(%eax)
    1697:	01 b5 06 ca 18 10    	add    %esi,0x1018ca06(%ebp)
    169d:	00 3c 00             	add    %bh,(%eax,%eax,1)
    16a0:	00 00                	add    %al,(%eax)
    16a2:	01 9c 10 05 00 00 17 	add    %ebx,0x17000005(%eax,%edx,1)
    16a9:	92                   	xchg   %eax,%edx
    16aa:	06                   	push   %es
    16ab:	00 00                	add    %al,(%eax)
    16ad:	01 b5 1d 4e 01 00    	add    %esi,0x14e1d(%ebp)
    16b3:	00 02                	add    %al,(%edx)
    16b5:	91                   	xchg   %eax,%ecx
    16b6:	00 18                	add    %bl,(%eax)
    16b8:	4d                   	dec    %ebp
    16b9:	05 00 00 01 b6       	add    $0xb6010000,%eax
    16be:	0b 59 00             	or     0x0(%ecx),%ebx
    16c1:	00 00                	add    %al,(%eax)
    16c3:	02 91 6c 00 1b 10    	add    0x101b006c(%ecx),%dl
    16c9:	06                   	push   %es
    16ca:	00 00                	add    %al,(%eax)
    16cc:	01 8b 09 80 05 00    	add    %ecx,0x58009(%ebx)
    16d2:	00 4d 17             	add    %cl,0x17(%ebp)
    16d5:	10 00                	adc    %al,(%eax)
    16d7:	7d 01                	jge    16da <FLAGS+0x16d9>
    16d9:	00 00                	add    %al,(%eax)
    16db:	01 9c 80 05 00 00 17 	add    %ebx,0x17000005(%eax,%eax,4)
    16e2:	f0 02 00             	lock add (%eax),%al
    16e5:	00 01                	add    %al,(%ecx)
    16e7:	8b 18                	mov    (%eax),%ebx
    16e9:	59                   	pop    %ecx
    16ea:	00 00                	add    %al,(%eax)
    16ec:	00 02                	add    %al,(%edx)
    16ee:	91                   	xchg   %eax,%ecx
    16ef:	00 17                	add    %dl,(%edi)
    16f1:	43                   	inc    %ebx
    16f2:	06                   	push   %es
    16f3:	00 00                	add    %al,(%eax)
    16f5:	01 8b 25 6c 00 00    	add    %ecx,0x6c25(%ebx)
    16fb:	00 02                	add    %al,(%edx)
    16fd:	91                   	xchg   %eax,%ecx
    16fe:	04 16                	add    $0x16,%al
    1700:	64 69 72 00 01 8b 3d 	imul   $0xb33d8b01,%fs:0x0(%edx),%esi
    1707:	b3 
    1708:	03 00                	add    (%eax),%eax
    170a:	00 02                	add    %al,(%edx)
    170c:	91                   	xchg   %eax,%ecx
    170d:	08 18                	or     %bl,(%eax)
    170f:	7a 06                	jp     1717 <FLAGS+0x1716>
    1711:	00 00                	add    %al,(%eax)
    1713:	01 91 0b 59 00 00    	add    %edx,0x590b(%ecx)
    1719:	00 02                	add    %al,(%edx)
    171b:	91                   	xchg   %eax,%ecx
    171c:	6c                   	insb   (%dx),%es:(%edi)
    171d:	19 b5 17 10 00 fe    	sbb    %esi,-0x1ffefe9(%ebp)
    1723:	00 00                	add    %al,(%eax)
    1725:	00 1a                	add    %bl,(%edx)
    1727:	74 6d                	je     1796 <FLAGS+0x1795>
    1729:	70 00                	jo     172b <FLAGS+0x172a>
    172b:	01 a1 08 59 00 00    	add    %esp,0x5908(%ecx)
    1731:	00 02                	add    %al,(%edx)
    1733:	91                   	xchg   %eax,%ecx
    1734:	68 00 00 0e 04       	push   $0x40e0000
    1739:	d7                   	xlat   %ds:(%ebx)
    173a:	01 00                	add    %eax,(%eax)
    173c:	00 1d 69 05 00 00    	add    %bl,0x569
    1742:	01 82 06 1d 17 10    	add    %eax,0x10171d06(%edx)
    1748:	00 30                	add    %dh,(%eax)
    174a:	00 00                	add    %al,(%eax)
    174c:	00 01                	add    %al,(%ecx)
    174e:	9c                   	pushf  
    174f:	bb 05 00 00 16       	mov    $0x16000005,%ebx
    1754:	64 69 72 00 01 82 2e 	imul   $0xb32e8201,%fs:0x0(%edx),%esi
    175b:	b3 
    175c:	03 00                	add    (%eax),%eax
    175e:	00 02                	add    %al,(%edx)
    1760:	91                   	xchg   %eax,%ecx
    1761:	00 1a                	add    %bl,(%edx)
    1763:	63 72 30             	arpl   %si,0x30(%edx)
    1766:	00 01                	add    %al,(%ecx)
    1768:	85 0b                	test   %ecx,(%ebx)
    176a:	59                   	pop    %ecx
    176b:	00 00                	add    %al,(%eax)
    176d:	00 02                	add    %al,(%edx)
    176f:	91                   	xchg   %eax,%ecx
    1770:	74 00                	je     1772 <FLAGS+0x1771>
    1772:	1e                   	push   %ds
    1773:	86 06                	xchg   %al,(%esi)
    1775:	00 00                	add    %al,(%eax)
    1777:	01 57 06             	add    %edx,0x6(%edi)
    177a:	53                   	push   %ebx
    177b:	15 10 00 ca 01       	adc    $0x1ca0010,%eax
    1780:	00 00                	add    %al,(%eax)
    1782:	01 9c 07 06 00 00 18 	add    %ebx,0x18000006(%edi,%eax,1)
    1789:	48                   	dec    %eax
    178a:	06                   	push   %es
    178b:	00 00                	add    %al,(%eax)
    178d:	01 58 0b             	add    %ebx,0xb(%eax)
    1790:	59                   	pop    %ecx
    1791:	00 00                	add    %al,(%eax)
    1793:	00 02                	add    %al,(%edx)
    1795:	91                   	xchg   %eax,%ecx
    1796:	64 1f                	fs pop %ds
    1798:	51                   	push   %ecx
    1799:	01 00                	add    %eax,(%eax)
    179b:	00 01                	add    %al,(%ecx)
    179d:	5d                   	pop    %ebp
    179e:	0b 59 00             	or     0x0(%ecx),%ebx
    17a1:	00 00                	add    %al,(%eax)
    17a3:	1a 68 00             	sbb    0x0(%eax),%ch
    17a6:	01 64 0b 59          	add    %esp,0x59(%ebx,%ecx,1)
    17aa:	00 00                	add    %al,(%eax)
    17ac:	00 02                	add    %al,(%edx)
    17ae:	91                   	xchg   %eax,%ecx
    17af:	6c                   	insb   (%dx),%es:(%edi)
    17b0:	1a 69 00             	sbb    0x0(%ecx),%ch
    17b3:	01 6c 09 6c          	add    %ebp,0x6c(%ecx,%ecx,1)
    17b7:	00 00                	add    %al,(%eax)
    17b9:	00 02                	add    %al,(%edx)
    17bb:	91                   	xchg   %eax,%ecx
    17bc:	68 00 20 5e 06       	push   $0x65e2000
    17c1:	00 00                	add    %al,(%eax)
    17c3:	01 50 0d             	add    %edx,0xd(%eax)
    17c6:	1f                   	pop    %ds
    17c7:	15 10 00 34 00       	adc    $0x340010,%eax
    17cc:	00 00                	add    %al,(%eax)
    17ce:	01 9c 3c 06 00 00 17 	add    %ebx,0x17000006(%esp,%edi,1)
    17d5:	50                   	push   %eax
    17d6:	06                   	push   %es
    17d7:	00 00                	add    %al,(%eax)
    17d9:	01 50 20             	add    %edx,0x20(%eax)
    17dc:	80 05 00 00 02 91 00 	addb   $0x0,0x91020000
    17e3:	18 c7                	sbb    %al,%bh
    17e5:	05 00 00 01 51       	add    $0x51010000,%eax
    17ea:	0b 59 00             	or     0x0(%ecx),%ebx
    17ed:	00 00                	add    %al,(%eax)
    17ef:	02 91 74 00 1c c1    	add    -0x3ee3ff8c(%ecx),%dl
    17f5:	05 00 00 01 3d       	add    $0x3d010000,%eax
    17fa:	06                   	push   %es
    17fb:	25 14 10 00 fa       	and    $0xfa001014,%eax
    1800:	00 00                	add    %al,(%eax)
    1802:	00 01                	add    %al,(%ecx)
    1804:	9c                   	pushf  
    1805:	8f 06                	popl   (%esi)
    1807:	00 00                	add    %al,(%eax)
    1809:	17                   	pop    %ss
    180a:	50                   	push   %eax
    180b:	06                   	push   %es
    180c:	00 00                	add    %al,(%eax)
    180e:	01 3d 1a 80 05 00    	add    %edi,0x5801a
    1814:	00 02                	add    %al,(%edx)
    1816:	91                   	xchg   %eax,%ecx
    1817:	00 17                	add    %dl,(%edi)
    1819:	e2 05                	loop   1820 <FLAGS+0x181f>
    181b:	00 00                	add    %al,(%eax)
    181d:	01 3d 24 6c 00 00    	add    %edi,0x6c24
    1823:	00 02                	add    %al,(%edx)
    1825:	91                   	xchg   %eax,%ecx
    1826:	04 17                	add    $0x17,%al
    1828:	19 06                	sbb    %eax,(%esi)
    182a:	00 00                	add    %al,(%eax)
    182c:	01 3d 33 6c 00 00    	add    %edi,0x6c33
    1832:	00 02                	add    %al,(%edx)
    1834:	91                   	xchg   %eax,%ecx
    1835:	08 18                	or     %bl,(%eax)
    1837:	80 06 00             	addb   $0x0,(%esi)
    183a:	00 01                	add    %al,(%ecx)
    183c:	3f                   	aas    
    183d:	0b 59 00             	or     0x0(%ecx),%ebx
    1840:	00 00                	add    %al,(%eax)
    1842:	02 91 6c 00 21 86    	add    -0x79deff94(%ecx),%dl
    1848:	05 00 00 01 30       	add    $0x30010000,%eax
    184d:	0e                   	push   %cs
    184e:	59                   	pop    %ecx
    184f:	00 00                	add    %al,(%eax)
    1851:	00 a5 13 10 00 80    	add    %ah,-0x7fffefed(%ebp)
    1857:	00 00                	add    %al,(%eax)
    1859:	00 01                	add    %al,(%ecx)
    185b:	9c                   	pushf  
    185c:	c4 06                	les    (%esi),%eax
    185e:	00 00                	add    %al,(%eax)
    1860:	1a 69 00             	sbb    0x0(%ecx),%ch
    1863:	01 31                	add    %esi,(%ecx)
    1865:	0b 59 00             	or     0x0(%ecx),%ebx
    1868:	00 00                	add    %al,(%eax)
    186a:	02 91 70 1a 6a 00    	add    0x6a1a70(%ecx),%dl
    1870:	01 31                	add    %esi,(%ecx)
    1872:	0e                   	push   %cs
    1873:	59                   	pop    %ecx
    1874:	00 00                	add    %al,(%eax)
    1876:	00 02                	add    %al,(%edx)
    1878:	91                   	xchg   %eax,%ecx
    1879:	6c                   	insb   (%dx),%es:(%edi)
    187a:	00 22                	add    %ah,(%edx)
    187c:	d7                   	xlat   %ds:(%ebx)
    187d:	05 00 00 01 29       	add    $0x29010000,%eax
    1882:	0e                   	push   %cs
    1883:	59                   	pop    %ecx
    1884:	00 00                	add    %al,(%eax)
    1886:	00 5e 13             	add    %bl,0x13(%esi)
    1889:	10 00                	adc    %al,(%eax)
    188b:	47                   	inc    %edi
    188c:	00 00                	add    %al,(%eax)
    188e:	00 01                	add    %al,(%ecx)
    1890:	9c                   	pushf  
    1891:	1b 07                	sbb    (%edi),%eax
    1893:	00 00                	add    %al,(%eax)
    1895:	17                   	pop    %ss
    1896:	38 06                	cmp    %al,(%esi)
    1898:	00 00                	add    %al,(%eax)
    189a:	01 29                	add    %ebp,(%ecx)
    189c:	1f                   	pop    %ds
    189d:	59                   	pop    %ecx
    189e:	00 00                	add    %al,(%eax)
    18a0:	00 02                	add    %al,(%edx)
    18a2:	91                   	xchg   %eax,%ecx
    18a3:	00 18                	add    %bl,(%eax)
    18a5:	c7 05 00 00 01 2a 0b 	movl   $0x590b,0x2a010000
    18ac:	59 00 00 
    18af:	00 02                	add    %al,(%edx)
    18b1:	91                   	xchg   %eax,%ecx
    18b2:	70 18                	jo     18cc <FLAGS+0x18cb>
    18b4:	80 06 00             	addb   $0x0,(%esi)
    18b7:	00 01                	add    %al,(%ecx)
    18b9:	2b 0b                	sub    (%ebx),%ecx
    18bb:	59                   	pop    %ecx
    18bc:	00 00                	add    %al,(%eax)
    18be:	00 02                	add    %al,(%edx)
    18c0:	91                   	xchg   %eax,%ecx
    18c1:	6c                   	insb   (%dx),%es:(%edi)
    18c2:	18 43 01             	sbb    %al,0x1(%ebx)
    18c5:	00 00                	add    %al,(%eax)
    18c7:	01 2c 0b             	add    %ebp,(%ebx,%ecx,1)
    18ca:	59                   	pop    %ecx
    18cb:	00 00                	add    %al,(%eax)
    18cd:	00 02                	add    %al,(%edx)
    18cf:	91                   	xchg   %eax,%ecx
    18d0:	68 00 23 a5 05       	push   $0x5a52300
    18d5:	00 00                	add    %al,(%eax)
    18d7:	01 22                	add    %esp,(%edx)
    18d9:	0d 03 13 10 00       	or     $0x101303,%eax
    18de:	5b                   	pop    %ebx
    18df:	00 00                	add    %al,(%eax)
    18e1:	00 01                	add    %al,(%ecx)
    18e3:	9c                   	pushf  
    18e4:	6e                   	outsb  %ds:(%esi),(%dx)
    18e5:	07                   	pop    %es
    18e6:	00 00                	add    %al,(%eax)
    18e8:	17                   	pop    %ss
    18e9:	38 06                	cmp    %al,(%esi)
    18eb:	00 00                	add    %al,(%eax)
    18ed:	01 22                	add    %esp,(%edx)
    18ef:	1f                   	pop    %ds
    18f0:	59                   	pop    %ecx
    18f1:	00 00                	add    %al,(%eax)
    18f3:	00 02                	add    %al,(%edx)
    18f5:	91                   	xchg   %eax,%ecx
    18f6:	00 18                	add    %bl,(%eax)
    18f8:	c7 05 00 00 01 23 0b 	movl   $0x590b,0x23010000
    18ff:	59 00 00 
    1902:	00 02                	add    %al,(%edx)
    1904:	91                   	xchg   %eax,%ecx
    1905:	70 18                	jo     191f <FLAGS+0x191e>
    1907:	80 06 00             	addb   $0x0,(%esi)
    190a:	00 01                	add    %al,(%ecx)
    190c:	24 0b                	and    $0xb,%al
    190e:	59                   	pop    %ecx
    190f:	00 00                	add    %al,(%eax)
    1911:	00 02                	add    %al,(%edx)
    1913:	91                   	xchg   %eax,%ecx
    1914:	6c                   	insb   (%dx),%es:(%edi)
    1915:	18 43 01             	sbb    %al,0x1(%ebx)
    1918:	00 00                	add    %al,(%eax)
    191a:	01 25 0b 59 00 00    	add    %esp,0x590b
    1920:	00 02                	add    %al,(%edx)
    1922:	91                   	xchg   %eax,%ecx
    1923:	68 00 24 cd 05       	push   $0x5cd2400
    1928:	00 00                	add    %al,(%eax)
    192a:	01 1b                	add    %ebx,(%ebx)
    192c:	0d aa 12 10 00       	or     $0x1012aa,%eax
    1931:	59                   	pop    %ecx
    1932:	00 00                	add    %al,(%eax)
    1934:	00 01                	add    %al,(%ecx)
    1936:	9c                   	pushf  
    1937:	17                   	pop    %ss
    1938:	38 06                	cmp    %al,(%esi)
    193a:	00 00                	add    %al,(%eax)
    193c:	01 1b                	add    %ebx,(%ebx)
    193e:	1d 59 00 00 00       	sbb    $0x59,%eax
    1943:	02 91 00 18 c7 05    	add    0x5c71800(%ecx),%dl
    1949:	00 00                	add    %al,(%eax)
    194b:	01 1c 0b             	add    %ebx,(%ebx,%ecx,1)
    194e:	59                   	pop    %ecx
    194f:	00 00                	add    %al,(%eax)
    1951:	00 02                	add    %al,(%edx)
    1953:	91                   	xchg   %eax,%ecx
    1954:	70 18                	jo     196e <FLAGS+0x196d>
    1956:	80 06 00             	addb   $0x0,(%esi)
    1959:	00 01                	add    %al,(%ecx)
    195b:	1d 0b 59 00 00       	sbb    $0x590b,%eax
    1960:	00 02                	add    %al,(%edx)
    1962:	91                   	xchg   %eax,%ecx
    1963:	6c                   	insb   (%dx),%es:(%edi)
    1964:	18 43 01             	sbb    %al,0x1(%ebx)
    1967:	00 00                	add    %al,(%eax)
    1969:	01 1e                	add    %ebx,(%esi)
    196b:	0b 59 00             	or     0x0(%ecx),%ebx
    196e:	00 00                	add    %al,(%eax)
    1970:	02 91 68 00 00 87    	add    -0x78ffff98(%ecx),%dl
    1976:	06                   	push   %es
    1977:	00 00                	add    %al,(%eax)
    1979:	04 00                	add    $0x0,%al
    197b:	be 07 00 00 04       	mov    $0x4000007,%esi
    1980:	01 2f                	add    %ebp,(%edi)
    1982:	00 00                	add    %al,(%eax)
    1984:	00 0c 94             	add    %cl,(%esp,%edx,4)
    1987:	08 00                	or     %al,(%eax)
    1989:	00 2d 02 00 00 81    	add    %ch,0x81000002
    198f:	1b 10                	sbb    (%eax),%edx
    1991:	00 de                	add    %bl,%dh
    1993:	01 00                	add    %eax,(%eax)
    1995:	00 16                	add    %dl,(%esi)
    1997:	0d 00 00 02 5b       	or     $0x5b020000,%eax
    199c:	02 00                	add    (%eax),%al
    199e:	00 02                	add    %al,(%edx)
    19a0:	04 17                	add    $0x17,%al
    19a2:	31 00                	xor    %eax,(%eax)
    19a4:	00 00                	add    %al,(%eax)
    19a6:	03 01                	add    (%ecx),%eax
    19a8:	08 61 01             	or     %ah,0x1(%ecx)
    19ab:	00 00                	add    %al,(%eax)
    19ad:	03 01                	add    (%ecx),%eax
    19af:	06                   	push   %es
    19b0:	6a 01                	push   $0x1
    19b2:	00 00                	add    %al,(%eax)
    19b4:	03 02                	add    (%edx),%eax
    19b6:	07                   	pop    %es
    19b7:	be 01 00 00 03       	mov    $0x3000001,%esi
    19bc:	02 05 70 00 00 00    	add    0x70,%al
    19c2:	02 60 02             	add    0x2(%eax),%ah
    19c5:	00 00                	add    %al,(%eax)
    19c7:	02 08                	add    (%eax),%cl
    19c9:	16                   	push   %ss
    19ca:	59                   	pop    %ecx
    19cb:	00 00                	add    %al,(%eax)
    19cd:	00 03                	add    %al,(%ebx)
    19cf:	04 07                	add    $0x7,%al
    19d1:	dc 06                	faddl  (%esi)
    19d3:	00 00                	add    %al,(%eax)
    19d5:	04 04                	add    $0x4,%al
    19d7:	05 69 6e 74 00       	add    $0x746e69,%eax
    19dc:	02 2c 07             	add    (%edi,%eax,1),%ch
    19df:	00 00                	add    %al,(%eax)
    19e1:	03 49 21             	add    0x21(%ecx),%ecx
    19e4:	31 00                	xor    %eax,(%eax)
    19e6:	00 00                	add    %al,(%eax)
    19e8:	02 ef                	add    %bh,%ch
    19ea:	06                   	push   %es
    19eb:	00 00                	add    %al,(%eax)
    19ed:	03 4a 21             	add    0x21(%edx),%ecx
    19f0:	3f                   	aas    
    19f1:	00 00                	add    %al,(%eax)
    19f3:	00 02                	add    %al,(%edx)
    19f5:	2b 09                	sub    (%ecx),%ecx
    19f7:	00 00                	add    %al,(%eax)
    19f9:	03 4b 21             	add    0x21(%ebx),%ecx
    19fc:	59                   	pop    %ecx
    19fd:	00 00                	add    %al,(%eax)
    19ff:	00 02                	add    %al,(%edx)
    1a01:	1a 0a                	sbb    (%edx),%cl
    1a03:	00 00                	add    %al,(%eax)
    1a05:	03 4c 21 97          	add    -0x69(%ecx,%eiz,1),%ecx
    1a09:	00 00                	add    %al,(%eax)
    1a0b:	00 03                	add    %al,(%ebx)
    1a0d:	08 07                	or     %al,(%edi)
    1a0f:	d2 06                	rolb   %cl,(%esi)
    1a11:	00 00                	add    %al,(%eax)
    1a13:	05 fb 07 00 00       	add    $0x7fb,%eax
    1a18:	10 03                	adc    %al,(%ebx)
    1a1a:	68 08 e0 00 00       	push   $0xe008
    1a1f:	00 06                	add    %al,(%esi)
    1a21:	ba 06 00 00 03       	mov    $0x3000006,%edx
    1a26:	6a 16                	push   $0x16
    1a28:	7f 00                	jg     1a2a <FLAGS+0x1a29>
    1a2a:	00 00                	add    %al,(%eax)
    1a2c:	00 06                	add    %al,(%esi)
    1a2e:	98                   	cwtl   
    1a2f:	09 00                	or     %eax,(%eax)
    1a31:	00 03                	add    %al,(%ebx)
    1a33:	6b 16 7f             	imul   $0x7f,(%esi),%edx
    1a36:	00 00                	add    %al,(%eax)
    1a38:	00 04 06             	add    %al,(%esi,%eax,1)
    1a3b:	62 04 00             	bound  %eax,(%eax,%eax,1)
    1a3e:	00 03                	add    %al,(%ebx)
    1a40:	6c                   	insb   (%dx),%es:(%edi)
    1a41:	16                   	push   %ss
    1a42:	7f 00                	jg     1a44 <FLAGS+0x1a43>
    1a44:	00 00                	add    %al,(%eax)
    1a46:	08 06                	or     %al,(%esi)
    1a48:	d7                   	xlat   %ds:(%ebx)
    1a49:	07                   	pop    %es
    1a4a:	00 00                	add    %al,(%eax)
    1a4c:	03 6d 16             	add    0x16(%ebp),%ebp
    1a4f:	7f 00                	jg     1a51 <FLAGS+0x1a50>
    1a51:	00 00                	add    %al,(%eax)
    1a53:	0c 00                	or     $0x0,%al
    1a55:	02 4b 08             	add    0x8(%ebx),%cl
    1a58:	00 00                	add    %al,(%eax)
    1a5a:	03 6f 2c             	add    0x2c(%edi),%ebp
    1a5d:	9e                   	sahf   
    1a5e:	00 00                	add    %al,(%eax)
    1a60:	00 05 7b 07 00 00    	add    %al,0x77b
    1a66:	10 03                	adc    %al,(%ebx)
    1a68:	72 08                	jb     1a72 <FLAGS+0x1a71>
    1a6a:	2e 01 00             	add    %eax,%cs:(%eax)
    1a6d:	00 07                	add    %al,(%edi)
    1a6f:	6e                   	outsb  %ds:(%esi),(%dx)
    1a70:	75 6d                	jne    1adf <FLAGS+0x1ade>
    1a72:	00 03                	add    %al,(%ebx)
    1a74:	74 16                	je     1a8c <FLAGS+0x1a8b>
    1a76:	7f 00                	jg     1a78 <FLAGS+0x1a77>
    1a78:	00 00                	add    %al,(%eax)
    1a7a:	00 06                	add    %al,(%esi)
    1a7c:	e2 00                	loop   1a7e <FLAGS+0x1a7d>
    1a7e:	00 00                	add    %al,(%eax)
    1a80:	03 75 16             	add    0x16(%ebp),%esi
    1a83:	7f 00                	jg     1a85 <FLAGS+0x1a84>
    1a85:	00 00                	add    %al,(%eax)
    1a87:	04 06                	add    $0x6,%al
    1a89:	62 04 00             	bound  %eax,(%eax,%eax,1)
    1a8c:	00 03                	add    %al,(%ebx)
    1a8e:	76 16                	jbe    1aa6 <FLAGS+0x1aa5>
    1a90:	7f 00                	jg     1a92 <FLAGS+0x1a91>
    1a92:	00 00                	add    %al,(%eax)
    1a94:	08 06                	or     %al,(%esi)
    1a96:	e9 06 00 00 03       	jmp    3001aa1 <kernel_end+0x2efad3b>
    1a9b:	77 16                	ja     1ab3 <FLAGS+0x1ab2>
    1a9d:	7f 00                	jg     1a9f <FLAGS+0x1a9e>
    1a9f:	00 00                	add    %al,(%eax)
    1aa1:	0c 00                	or     $0x0,%al
    1aa3:	02 a8 08 00 00 03    	add    0x3000008(%eax),%ch
    1aa9:	79 33                	jns    1ade <FLAGS+0x1add>
    1aab:	ec                   	in     (%dx),%al
    1aac:	00 00                	add    %al,(%eax)
    1aae:	00 08                	add    %cl,(%eax)
    1ab0:	10 03                	adc    %al,(%ebx)
    1ab2:	8e 03                	mov    (%ebx),%es
    1ab4:	5c                   	pop    %esp
    1ab5:	01 00                	add    %eax,(%eax)
    1ab7:	00 09                	add    %cl,(%ecx)
    1ab9:	e0 08                	loopne 1ac3 <FLAGS+0x1ac2>
    1abb:	00 00                	add    %al,(%eax)
    1abd:	03 90 23 e0 00 00    	add    0xe023(%eax),%edx
    1ac3:	00 09                	add    %cl,(%ecx)
    1ac5:	17                   	pop    %ss
    1ac6:	08 00                	or     %al,(%eax)
    1ac8:	00 03                	add    %al,(%ebx)
    1aca:	91                   	xchg   %eax,%ecx
    1acb:	2a 2e                	sub    (%esi),%ch
    1acd:	01 00                	add    %eax,(%eax)
    1acf:	00 00                	add    %al,(%eax)
    1ad1:	0a 08                	or     (%eax),%cl
    1ad3:	03 b8 05 80 01 00    	add    0x18005(%eax),%edi
    1ad9:	00 06                	add    %al,(%esi)
    1adb:	69 08 00 00 03 ba    	imul   $0xba030000,(%eax),%ecx
    1ae1:	1a 7f 00             	sbb    0x0(%edi),%bh
    1ae4:	00 00                	add    %al,(%eax)
    1ae6:	00 06                	add    %al,(%esi)
    1ae8:	0c 09                	or     $0x9,%al
    1aea:	00 00                	add    %al,(%eax)
    1aec:	03 bb 1a 73 00 00    	add    0x731a(%ebx),%edi
    1af2:	00 04 00             	add    %al,(%eax,%eax,1)
    1af5:	0a 06                	or     (%esi),%al
    1af7:	03 bd 05 d8 01 00    	add    0x1d805(%ebp),%edi
    1afd:	00 06                	add    %al,(%esi)
    1aff:	0d 07 00 00 03       	or     $0x3000007,%eax
    1b04:	bf 19 67 00 00       	mov    $0x6719,%edi
    1b09:	00 00                	add    %al,(%eax)
    1b0b:	06                   	push   %es
    1b0c:	4f                   	dec    %edi
    1b0d:	07                   	pop    %es
    1b0e:	00 00                	add    %al,(%eax)
    1b10:	03 c0                	add    %eax,%eax
    1b12:	19 67 00             	sbb    %esp,0x0(%edi)
    1b15:	00 00                	add    %al,(%eax)
    1b17:	01 06                	add    %eax,(%esi)
    1b19:	a0 09 00 00 03       	mov    0x3000009,%al
    1b1e:	c1 19 67             	rcrl   $0x67,(%ecx)
    1b21:	00 00                	add    %al,(%eax)
    1b23:	00 02                	add    %al,(%edx)
    1b25:	06                   	push   %es
    1b26:	3e 09 00             	or     %eax,%ds:(%eax)
    1b29:	00 03                	add    %al,(%ebx)
    1b2b:	c2 19 67             	ret    $0x6719
    1b2e:	00 00                	add    %al,(%eax)
    1b30:	00 03                	add    %al,(%ebx)
    1b32:	06                   	push   %es
    1b33:	2b 08                	sub    (%eax),%ecx
    1b35:	00 00                	add    %al,(%eax)
    1b37:	03 c3                	add    %ebx,%eax
    1b39:	19 67 00             	sbb    %esp,0x0(%edi)
    1b3c:	00 00                	add    %al,(%eax)
    1b3e:	04 06                	add    $0x6,%al
    1b40:	cb                   	lret   
    1b41:	09 00                	or     %eax,(%eax)
    1b43:	00 03                	add    %al,(%ebx)
    1b45:	c4 19                	les    (%ecx),%ebx
    1b47:	67 00 00             	add    %al,(%bx,%si)
    1b4a:	00 05 00 08 08 03    	add    %al,0x3080800
    1b50:	b6 03                	mov    $0x3,%dh
    1b52:	ec                   	in     (%dx),%al
    1b53:	01 00                	add    %eax,(%eax)
    1b55:	00 0b                	add    %cl,(%ebx)
    1b57:	5c                   	pop    %esp
    1b58:	01 00                	add    %eax,(%eax)
    1b5a:	00 0b                	add    %cl,(%ebx)
    1b5c:	80 01 00             	addb   $0x0,(%ecx)
    1b5f:	00 00                	add    %al,(%eax)
    1b61:	05 4e 0a 00 00       	add    $0xa4e,%eax
    1b66:	78 03                	js     1b6b <FLAGS+0x1b6a>
    1b68:	7b 08                	jnp    1b72 <FLAGS+0x1b71>
    1b6a:	5d                   	pop    %ebp
    1b6b:	03 00                	add    (%eax),%eax
    1b6d:	00 06                	add    %al,(%esi)
    1b6f:	80 05 00 00 03 7e 16 	addb   $0x16,0x7e030000
    1b76:	7f 00                	jg     1b78 <FLAGS+0x1b77>
    1b78:	00 00                	add    %al,(%eax)
    1b7a:	00 06                	add    %al,(%esi)
    1b7c:	8e 09                	mov    (%ecx),%cs
    1b7e:	00 00                	add    %al,(%eax)
    1b80:	03 81 16 7f 00 00    	add    0x7f16(%ecx),%eax
    1b86:	00 04 06             	add    %al,(%esi,%eax,1)
    1b89:	02 09                	add    (%ecx),%cl
    1b8b:	00 00                	add    %al,(%eax)
    1b8d:	03 82 16 7f 00 00    	add    0x7f16(%edx),%eax
    1b93:	00 08                	add    %cl,(%eax)
    1b95:	06                   	push   %es
    1b96:	82 09 00             	orb    $0x0,(%ecx)
    1b99:	00 03                	add    %al,(%ebx)
    1b9b:	85 16                	test   %edx,(%esi)
    1b9d:	7f 00                	jg     1b9f <FLAGS+0x1b9e>
    1b9f:	00 00                	add    %al,(%eax)
    1ba1:	0c 06                	or     $0x6,%al
    1ba3:	f4                   	hlt    
    1ba4:	09 00                	or     %eax,(%eax)
    1ba6:	00 03                	add    %al,(%ebx)
    1ba8:	88 16                	mov    %dl,(%esi)
    1baa:	7f 00                	jg     1bac <FLAGS+0x1bab>
    1bac:	00 00                	add    %al,(%eax)
    1bae:	10 06                	adc    %al,(%esi)
    1bb0:	ac                   	lods   %ds:(%esi),%al
    1bb1:	07                   	pop    %es
    1bb2:	00 00                	add    %al,(%eax)
    1bb4:	03 8b 16 7f 00 00    	add    0x7f16(%ebx),%ecx
    1bba:	00 14 06             	add    %dl,(%esi,%eax,1)
    1bbd:	f1                   	icebp  
    1bbe:	07                   	pop    %es
    1bbf:	00 00                	add    %al,(%eax)
    1bc1:	03 8c 16 7f 00 00 00 	add    0x7f(%esi,%edx,1),%ecx
    1bc8:	18 07                	sbb    %al,(%edi)
    1bca:	75 00                	jne    1bcc <FLAGS+0x1bcb>
    1bcc:	03 92 05 3a 01 00    	add    0x13a05(%edx),%edx
    1bd2:	00 1c 06             	add    %bl,(%esi,%eax,1)
    1bd5:	73 0a                	jae    1be1 <FLAGS+0x1be0>
    1bd7:	00 00                	add    %al,(%eax)
    1bd9:	03 95 16 7f 00 00    	add    0x7f16(%ebp),%edx
    1bdf:	00 2c 06             	add    %ch,(%esi,%eax,1)
    1be2:	c1 09 00             	rorl   $0x0,(%ecx)
    1be5:	00 03                	add    %al,(%ebx)
    1be7:	96                   	xchg   %eax,%esi
    1be8:	16                   	push   %ss
    1be9:	7f 00                	jg     1beb <FLAGS+0x1bea>
    1beb:	00 00                	add    %al,(%eax)
    1bed:	30 06                	xor    %al,(%esi)
    1bef:	40                   	inc    %eax
    1bf0:	0a 00                	or     (%eax),%al
    1bf2:	00 03                	add    %al,(%ebx)
    1bf4:	99                   	cltd   
    1bf5:	16                   	push   %ss
    1bf6:	7f 00                	jg     1bf8 <FLAGS+0x1bf7>
    1bf8:	00 00                	add    %al,(%eax)
    1bfa:	34 06                	xor    $0x6,%al
    1bfc:	1f                   	pop    %ds
    1bfd:	08 00                	or     %al,(%eax)
    1bff:	00 03                	add    %al,(%ebx)
    1c01:	9a 16 7f 00 00 00 38 	lcall  $0x3800,$0x7f16
    1c08:	06                   	push   %es
    1c09:	e9 08 00 00 03       	jmp    3001c16 <kernel_end+0x2efaeb0>
    1c0e:	9d                   	popf   
    1c0f:	16                   	push   %ss
    1c10:	7f 00                	jg     1c12 <FLAGS+0x1c11>
    1c12:	00 00                	add    %al,(%eax)
    1c14:	3c 06                	cmp    $0x6,%al
    1c16:	3e 07                	ds pop %es
    1c18:	00 00                	add    %al,(%eax)
    1c1a:	03 a0 16 7f 00 00    	add    0x7f16(%eax),%esp
    1c20:	00 40 06             	add    %al,0x6(%eax)
    1c23:	cd 08                	int    $0x8
    1c25:	00 00                	add    %al,(%eax)
    1c27:	03 a3 16 7f 00 00    	add    0x7f16(%ebx),%esp
    1c2d:	00 44 06 97          	add    %al,-0x69(%esi,%eax,1)
    1c31:	06                   	push   %es
    1c32:	00 00                	add    %al,(%eax)
    1c34:	03 a6 16 7f 00 00    	add    0x7f16(%esi),%esp
    1c3a:	00 48 06             	add    %cl,0x6(%eax)
    1c3d:	c9                   	leave  
    1c3e:	07                   	pop    %es
    1c3f:	00 00                	add    %al,(%eax)
    1c41:	03 a7 16 7f 00 00    	add    0x7f16(%edi),%esp
    1c47:	00 4c 06 d7          	add    %cl,-0x29(%esi,%eax,1)
    1c4b:	08 00                	or     %al,(%eax)
    1c4d:	00 03                	add    %al,(%ebx)
    1c4f:	a8 16                	test   $0x16,%al
    1c51:	73 00                	jae    1c53 <FLAGS+0x1c52>
    1c53:	00 00                	add    %al,(%eax)
    1c55:	50                   	push   %eax
    1c56:	06                   	push   %es
    1c57:	b7 07                	mov    $0x7,%bh
    1c59:	00 00                	add    %al,(%eax)
    1c5b:	03 a9 16 73 00 00    	add    0x7316(%ecx),%ebp
    1c61:	00 52 06             	add    %dl,0x6(%edx)
    1c64:	69 07 00 00 03 aa    	imul   $0xaa030000,(%edi),%eax
    1c6a:	16                   	push   %ss
    1c6b:	73 00                	jae    1c6d <FLAGS+0x1c6c>
    1c6d:	00 00                	add    %al,(%eax)
    1c6f:	54                   	push   %esp
    1c70:	06                   	push   %es
    1c71:	5a                   	pop    %edx
    1c72:	09 00                	or     %eax,(%eax)
    1c74:	00 03                	add    %al,(%ebx)
    1c76:	ab                   	stos   %eax,%es:(%edi)
    1c77:	16                   	push   %ss
    1c78:	73 00                	jae    1c7a <FLAGS+0x1c79>
    1c7a:	00 00                	add    %al,(%eax)
    1c7c:	56                   	push   %esi
    1c7d:	06                   	push   %es
    1c7e:	62 0a                	bound  %ecx,(%edx)
    1c80:	00 00                	add    %al,(%eax)
    1c82:	03 ad 16 8b 00 00    	add    0x8b16(%ebp),%ebp
    1c88:	00 58 06             	add    %bl,0x6(%eax)
    1c8b:	82 08 00             	orb    $0x0,(%eax)
    1c8e:	00 03                	add    %al,(%ebx)
    1c90:	ae                   	scas   %es:(%edi),%al
    1c91:	16                   	push   %ss
    1c92:	7f 00                	jg     1c94 <FLAGS+0x1c93>
    1c94:	00 00                	add    %al,(%eax)
    1c96:	60                   	pusha  
    1c97:	06                   	push   %es
    1c98:	a8 06                	test   $0x6,%al
    1c9a:	00 00                	add    %al,(%eax)
    1c9c:	03 af 16 7f 00 00    	add    0x7f16(%edi),%ebp
    1ca2:	00 64 06 2d          	add    %ah,0x2d(%esi,%eax,1)
    1ca6:	0a 00                	or     (%eax),%al
    1ca8:	00 03                	add    %al,(%ebx)
    1caa:	b0 16                	mov    $0x16,%al
    1cac:	7f 00                	jg     1cae <FLAGS+0x1cad>
    1cae:	00 00                	add    %al,(%eax)
    1cb0:	68 06 c2 06 00       	push   $0x6c206
    1cb5:	00 03                	add    %al,(%ebx)
    1cb7:	b1 15                	mov    $0x15,%cl
    1cb9:	67 00 00             	add    %al,(%bx,%si)
    1cbc:	00 6c 06 6c          	add    %ch,0x6c(%esi,%eax,1)
    1cc0:	09 00                	or     %eax,(%eax)
    1cc2:	00 03                	add    %al,(%ebx)
    1cc4:	b5 15                	mov    $0x15,%ch
    1cc6:	67 00 00             	add    %al,(%bx,%si)
    1cc9:	00 6d 0c             	add    %ch,0xc(%ebp)
    1ccc:	d8 01                	fadds  (%ecx)
    1cce:	00 00                	add    %al,(%eax)
    1cd0:	70 00                	jo     1cd2 <FLAGS+0x1cd1>
    1cd2:	02 e0                	add    %al,%ah
    1cd4:	07                   	pop    %es
    1cd5:	00 00                	add    %al,(%eax)
    1cd7:	03 c8                	add    %eax,%ecx
    1cd9:	1f                   	pop    %ds
    1cda:	ec                   	in     (%dx),%al
    1cdb:	01 00                	add    %eax,(%eax)
    1cdd:	00 03                	add    %al,(%ebx)
    1cdf:	04 07                	add    $0x7,%al
    1ce1:	d7                   	xlat   %ds:(%ebx)
    1ce2:	06                   	push   %es
    1ce3:	00 00                	add    %al,(%eax)
    1ce5:	02 39                	add    (%ecx),%bh
    1ce7:	03 00                	add    (%eax),%eax
    1ce9:	00 04 10             	add    %al,(%eax,%edx,1)
    1cec:	11 7c 03 00          	adc    %edi,0x0(%ebx,%eax,1)
    1cf0:	00 0d 04 82 03 00    	add    %cl,0x38204
    1cf6:	00 0e                	add    %cl,(%esi)
    1cf8:	4d                   	dec    %ebp
    1cf9:	00 00                	add    %al,(%eax)
    1cfb:	00 a0 03 00 00 0f    	add    %ah,0xf000003(%eax)
    1d01:	a0 03 00 00 0f       	mov    0xf000003,%al
    1d06:	4d                   	dec    %ebp
    1d07:	00 00                	add    %al,(%eax)
    1d09:	00 0f                	add    %cl,(%edi)
    1d0b:	4d                   	dec    %ebp
    1d0c:	00 00                	add    %al,(%eax)
    1d0e:	00 0f                	add    %cl,(%edi)
    1d10:	77 04                	ja     1d16 <FLAGS+0x1d15>
    1d12:	00 00                	add    %al,(%eax)
    1d14:	00 0d 04 a6 03 00    	add    %cl,0x3a604
    1d1a:	00 05 21 03 00 00    	add    %al,0x321
    1d20:	b8 04 17 10 77       	mov    $0x77101704,%eax
    1d25:	04 00                	add    $0x0,%al
    1d27:	00 06                	add    %al,(%esi)
    1d29:	4a                   	dec    %edx
    1d2a:	07                   	pop    %es
    1d2b:	00 00                	add    %al,(%eax)
    1d2d:	04 18                	add    $0x18,%al
    1d2f:	0a 32                	or     (%edx),%dh
    1d31:	05 00 00 00 06       	add    $0x6000000,%eax
    1d36:	29 03                	sub    %eax,(%ebx)
    1d38:	00 00                	add    %al,(%eax)
    1d3a:	04 19                	add    $0x19,%al
    1d3c:	0b 4d 00             	or     0x0(%ebp),%ecx
    1d3f:	00 00                	add    %al,(%eax)
    1d41:	80 07 75             	addb   $0x75,(%edi)
    1d44:	69 64 00 04 1a 0b 4d 	imul   $0x4d0b1a,0x4(%eax,%eax,1),%esp
    1d4b:	00 
    1d4c:	00 00                	add    %al,(%eax)
    1d4e:	84 07                	test   %al,(%edi)
    1d50:	67 69 64 00 04 1b 0b 	imul   $0x4d0b1b04,0x0(%si),%esp
    1d57:	4d 
    1d58:	00 00                	add    %al,(%eax)
    1d5a:	00 88 06 80 05 00    	add    %cl,0x58006(%eax)
    1d60:	00 04 1c             	add    %al,(%esp,%ebx,1)
    1d63:	0b 4d 00             	or     0x0(%ebp),%ecx
    1d66:	00 00                	add    %al,(%eax)
    1d68:	8c 06                	mov    %es,(%esi)
    1d6a:	3f                   	aas    
    1d6b:	04 00                	add    $0x0,%al
    1d6d:	00 04 1d 0b 4d 00 00 	add    %al,0x4d0b(,%ebx,1)
    1d74:	00 90 06 26 02 00    	add    %dl,0x22606(%eax)
    1d7a:	00 04 1e             	add    %al,(%esi,%ebx,1)
    1d7d:	0b 4d 00             	or     0x0(%ebp),%ecx
    1d80:	00 00                	add    %al,(%eax)
    1d82:	94                   	xchg   %eax,%esp
    1d83:	06                   	push   %es
    1d84:	fe 03                	incb   (%ebx)
    1d86:	00 00                	add    %al,(%eax)
    1d88:	04 1f                	add    $0x1f,%al
    1d8a:	0b 4d 00             	or     0x0(%ebp),%ecx
    1d8d:	00 00                	add    %al,(%eax)
    1d8f:	98                   	cwtl   
    1d90:	06                   	push   %es
    1d91:	ac                   	lods   %ds:(%esi),%al
    1d92:	03 00                	add    (%eax),%eax
    1d94:	00 04 20             	add    %al,(%eax,%eiz,1)
    1d97:	11 70 03             	adc    %esi,0x3(%eax)
    1d9a:	00 00                	add    %al,(%eax)
    1d9c:	9c                   	pushf  
    1d9d:	06                   	push   %es
    1d9e:	c2 0b 00             	ret    $0xb
    1da1:	00 04 21             	add    %al,(%ecx,%eiz,1)
    1da4:	12 7d 04             	adc    0x4(%ebp),%bh
    1da7:	00 00                	add    %al,(%eax)
    1da9:	a0 06 f8 02 00       	mov    0x2f806,%al
    1dae:	00 04 22             	add    %al,(%edx,%eiz,1)
    1db1:	11 89 04 00 00 a4    	adc    %ecx,-0x5bfffffc(%ecx)
    1db7:	06                   	push   %es
    1db8:	45                   	inc    %ebp
    1db9:	04 00                	add    $0x0,%al
    1dbb:	00 04 23             	add    %al,(%ebx,%eiz,1)
    1dbe:	12 a6 04 00 00 a8    	adc    -0x57fffffc(%esi),%ah
    1dc4:	06                   	push   %es
    1dc5:	f6 03 00             	testb  $0x0,(%ebx)
    1dc8:	00 04 24             	add    %al,(%esp)
    1dcb:	14 b2                	adc    $0xb2,%al
    1dcd:	04 00                	add    $0x0,%al
    1dcf:	00 ac 06 37 04 00 00 	add    %ch,0x437(%esi,%eax,1)
    1dd6:	04 25                	add    $0x25,%al
    1dd8:	14 06                	adc    $0x6,%al
    1dda:	05 00 00 b0 07       	add    $0x7b00000,%eax
    1ddf:	70 74                	jo     1e55 <FLAGS+0x1e54>
    1de1:	72 00                	jb     1de3 <FLAGS+0x1de2>
    1de3:	04 26                	add    $0x26,%al
    1de5:	15 a0 03 00 00       	adc    $0x3a0,%eax
    1dea:	b4 00                	mov    $0x0,%ah
    1dec:	0d 04 25 00 00       	or     $0x2504,%eax
    1df1:	00 02                	add    %al,(%edx)
    1df3:	73 03                	jae    1df8 <FLAGS+0x1df7>
    1df5:	00 00                	add    %al,(%eax)
    1df7:	04 11                	add    $0x11,%al
    1df9:	11 7c 03 00          	adc    %edi,0x0(%ebx,%eax,1)
    1dfd:	00 02                	add    %al,(%edx)
    1dff:	8d 03                	lea    (%ebx),%eax
    1e01:	00 00                	add    %al,(%eax)
    1e03:	04 12                	add    $0x12,%al
    1e05:	10 95 04 00 00 0d    	adc    %dl,0xd000004(%ebp)
    1e0b:	04 9b                	add    $0x9b,%al
    1e0d:	04 00                	add    $0x0,%al
    1e0f:	00 10                	add    %dl,(%eax)
    1e11:	a6                   	cmpsb  %es:(%edi),%ds:(%esi)
    1e12:	04 00                	add    $0x0,%al
    1e14:	00 0f                	add    %cl,(%edi)
    1e16:	a0 03 00 00 00       	mov    0x3,%al
    1e1b:	02 51 03             	add    0x3(%ecx),%dl
    1e1e:	00 00                	add    %al,(%eax)
    1e20:	04 13                	add    $0x13,%al
    1e22:	10 95 04 00 00 02    	adc    %dl,0x2000004(%ebp)
    1e28:	21 04 00             	and    %eax,(%eax,%eax,1)
    1e2b:	00 04 14             	add    %al,(%esp,%edx,1)
    1e2e:	1a be 04 00 00 0d    	sbb    0xd000004(%esi),%bh
    1e34:	04 ec                	add    $0xec,%al
    1e36:	04 00                	add    $0x0,%al
    1e38:	00 05 1a 03 00 00    	add    %al,0x31a
    1e3e:	84 04 2a             	test   %al,(%edx,%ebp,1)
    1e41:	08 ec                	or     %ch,%ah
    1e43:	04 00                	add    $0x0,%al
    1e45:	00 06                	add    %al,(%esi)
    1e47:	4a                   	dec    %edx
    1e48:	07                   	pop    %es
    1e49:	00 00                	add    %al,(%eax)
    1e4b:	04 2b                	add    $0x2b,%al
    1e4d:	0a 32                	or     (%edx),%dh
    1e4f:	05 00 00 00 07       	add    $0x7000000,%eax
    1e54:	69 6e 6f 00 04 2c 0b 	imul   $0xb2c0400,0x6f(%esi),%ebp
    1e5b:	4d                   	dec    %ebp
    1e5c:	00 00                	add    %al,(%eax)
    1e5e:	00 80 00 0e 00 05    	add    %al,0x5000e00(%eax)
    1e64:	00 00                	add    %al,(%eax)
    1e66:	00 05 00 00 0f a0    	add    %al,0xa00f0000
    1e6c:	03 00                	add    (%eax),%eax
    1e6e:	00 0f                	add    %cl,(%edi)
    1e70:	4d                   	dec    %ebp
    1e71:	00 00                	add    %al,(%eax)
    1e73:	00 00                	add    %al,(%eax)
    1e75:	0d 04 c4 04 00       	or     $0x4c404,%eax
    1e7a:	00 02                	add    %al,(%edx)
    1e7c:	d5 03                	aad    $0x3
    1e7e:	00 00                	add    %al,(%eax)
    1e80:	04 15                	add    $0x15,%al
    1e82:	1b 12                	sbb    (%edx),%edx
    1e84:	05 00 00 0d 04       	add    $0x40d0000,%eax
    1e89:	18 05 00 00 0e a0    	sbb    %al,0xa00e0000
    1e8f:	03 00                	add    (%eax),%eax
    1e91:	00 2c 05 00 00 0f a0 	add    %ch,-0x5ff10000(,%eax,1)
    1e98:	03 00                	add    (%eax),%eax
    1e9a:	00 0f                	add    %cl,(%edi)
    1e9c:	2c 05                	sub    $0x5,%al
    1e9e:	00 00                	add    %al,(%eax)
    1ea0:	00 0d 04 38 00 00    	add    %cl,0x3804
    1ea6:	00 11                	add    %dl,(%ecx)
    1ea8:	38 00                	cmp    %al,(%eax)
    1eaa:	00 00                	add    %al,(%eax)
    1eac:	42                   	inc    %edx
    1ead:	05 00 00 12 69       	add    $0x69120000,%eax
    1eb2:	03 00                	add    (%eax),%eax
    1eb4:	00 7f 00             	add    %bh,0x0(%edi)
    1eb7:	02 fd                	add    %ch,%bh
    1eb9:	02 00                	add    (%eax),%al
    1ebb:	00 04 27             	add    %al,(%edi,%eiz,1)
    1ebe:	03 a6 03 00 00 13    	add    0x13000003(%esi),%esp
    1ec4:	4b                   	dec    %ebx
    1ec5:	04 00                	add    $0x0,%al
    1ec7:	00 04 30             	add    %al,(%eax,%esi,1)
    1eca:	13 5a 05             	adc    0x5(%edx),%ebx
    1ecd:	00 00                	add    %al,(%eax)
    1ecf:	0d 04 42 05 00       	or     $0x54204,%eax
    1ed4:	00 0a                	add    %cl,(%edx)
    1ed6:	4c                   	dec    %esp
    1ed7:	05 0b 09 9e 05       	add    $0x59e090b,%eax
    1edc:	00 00                	add    %al,(%eax)
    1ede:	06                   	push   %es
    1edf:	a3 02 00 00 05       	mov    %eax,0x5000002
    1ee4:	0c 0a                	or     $0xa,%al
    1ee6:	25 00 00 00 00       	and    $0x0,%eax
    1eeb:	06                   	push   %es
    1eec:	4a                   	dec    %edx
    1eed:	07                   	pop    %es
    1eee:	00 00                	add    %al,(%eax)
    1ef0:	05 0d 0a 9e 05       	add    $0x59e0a0d,%eax
    1ef5:	00 00                	add    %al,(%eax)
    1ef7:	01 06                	add    %eax,(%esi)
    1ef9:	43                   	inc    %ebx
    1efa:	01 00                	add    %eax,(%eax)
    1efc:	00 05 0e 0b 4d 00    	add    %al,0x4d0b0e
    1f02:	00 00                	add    %al,(%eax)
    1f04:	44                   	inc    %esp
    1f05:	06                   	push   %es
    1f06:	26 02 00             	add    %es:(%eax),%al
    1f09:	00 05 0f 0b 4d 00    	add    %al,0x4d0b0f
    1f0f:	00 00                	add    %al,(%eax)
    1f11:	48                   	dec    %eax
    1f12:	00 11                	add    %dl,(%ecx)
    1f14:	38 00                	cmp    %al,(%eax)
    1f16:	00 00                	add    %al,(%eax)
    1f18:	ae                   	scas   %es:(%edi),%al
    1f19:	05 00 00 12 69       	add    $0x69120000,%eax
    1f1e:	03 00                	add    (%eax),%eax
    1f20:	00 3f                	add    %bh,(%edi)
    1f22:	00 02                	add    %al,(%edx)
    1f24:	5e                   	pop    %esi
    1f25:	03 00                	add    (%eax),%eax
    1f27:	00 05 10 03 60 05    	add    %al,0x5600310
    1f2d:	00 00                	add    %al,(%eax)
    1f2f:	13 12                	adc    (%edx),%edx
    1f31:	00 00                	add    %al,(%eax)
    1f33:	00 01                	add    %al,(%ecx)
    1f35:	0d 0e 4d 00 00       	or     $0x4d0e,%eax
    1f3a:	00 14 f9             	add    %dl,(%ecx,%edi,8)
    1f3d:	04 00                	add    $0x0,%al
    1f3f:	00 01                	add    %al,(%ecx)
    1f41:	0e                   	push   %cs
    1f42:	07                   	pop    %es
    1f43:	4d                   	dec    %ebp
    1f44:	00 00                	add    %al,(%eax)
    1f46:	00 05 03 e4 60 10    	add    %al,0x1060e403
    1f4c:	00 15 5d 0a 00 00    	add    %dl,0xa5d
    1f52:	01 10                	add    %edx,(%eax)
    1f54:	05 60 00 00 00       	add    $0x60,%eax
    1f59:	81 1b 10 00 de 01    	sbbl   $0x1de0010,(%ebx)
    1f5f:	00 00                	add    %al,(%eax)
    1f61:	01 9c 77 06 00 00 16 	add    %ebx,0x16000006(%edi,%esi,2)
    1f68:	4e                   	dec    %esi
    1f69:	0a 00                	or     (%eax),%al
    1f6b:	00 01                	add    %al,(%ecx)
    1f6d:	10 1c 77             	adc    %bl,(%edi,%esi,2)
    1f70:	06                   	push   %es
    1f71:	00 00                	add    %al,(%eax)
    1f73:	02 91 00 16 9e 07    	add    0x79e1600(%ecx),%dl
    1f79:	00 00                	add    %al,(%eax)
    1f7b:	01 10                	add    %edx,(%eax)
    1f7d:	32 4d 00             	xor    0x0(%ebp),%cl
    1f80:	00 00                	add    %al,(%eax)
    1f82:	02 91 04 17 f6 08    	add    0x8f61704(%ecx),%dl
    1f88:	00 00                	add    %al,(%eax)
    1f8a:	01 1a                	add    %ebx,(%edx)
    1f8c:	0b 4d 00             	or     0x0(%ebp),%ecx
    1f8f:	00 00                	add    %al,(%eax)
    1f91:	02 75 74             	add    0x74(%ebp),%dh
    1f94:	17                   	pop    %ss
    1f95:	0a 0a                	or     (%edx),%cl
    1f97:	00 00                	add    %al,(%eax)
    1f99:	01 1b                	add    %ebx,(%ebx)
    1f9b:	0b 4d 00             	or     0x0(%ebp),%ecx
    1f9e:	00 00                	add    %al,(%eax)
    1fa0:	02 75 70             	add    0x70(%ebp),%dh
    1fa3:	17                   	pop    %ss
    1fa4:	02 07                	add    (%edi),%al
    1fa6:	00 00                	add    %al,(%eax)
    1fa8:	01 1c 0b             	add    %ebx,(%ebx,%ecx,1)
    1fab:	4d                   	dec    %ebp
    1fac:	00 00                	add    %al,(%eax)
    1fae:	00 02                	add    %al,(%edx)
    1fb0:	75 6c                	jne    201e <FLAGS+0x201d>
    1fb2:	17                   	pop    %ss
    1fb3:	7d 09                	jge    1fbe <FLAGS+0x1fbd>
    1fb5:	00 00                	add    %al,(%eax)
    1fb7:	01 2a                	add    %ebp,(%edx)
    1fb9:	1b 7d 06             	sbb    0x6(%ebp),%edi
    1fbc:	00 00                	add    %al,(%eax)
    1fbe:	02 75 68             	add    0x68(%ebp),%dh
    1fc1:	02 e6                	add    %dh,%ah
    1fc3:	09 00                	or     %eax,(%eax)
    1fc5:	00 01                	add    %al,(%ecx)
    1fc7:	2e 14 83             	cs adc $0x83,%al
    1fca:	06                   	push   %es
    1fcb:	00 00                	add    %al,(%eax)
    1fcd:	17                   	pop    %ss
    1fce:	fc                   	cld    
    1fcf:	09 00                	or     %eax,(%eax)
    1fd1:	00 01                	add    %al,(%ecx)
    1fd3:	2f                   	das    
    1fd4:	13 4c 06 00          	adc    0x0(%esi,%eax,1),%ecx
    1fd8:	00 02                	add    %al,(%edx)
    1fda:	75 64                	jne    2040 <FLAGS+0x203f>
    1fdc:	17                   	pop    %ss
    1fdd:	4b                   	dec    %ebx
    1fde:	04 00                	add    $0x0,%al
    1fe0:	00 01                	add    %al,(%ecx)
    1fe2:	41                   	inc    %ecx
    1fe3:	10 5a 05             	adc    %bl,0x5(%edx)
    1fe6:	00 00                	add    %al,(%eax)
    1fe8:	02 75 60             	add    0x60(%ebp),%dh
    1feb:	00 0d 04 5d 03 00    	add    %cl,0x35d04
    1ff1:	00 0d 04 ae 05 00    	add    %cl,0x5ae04
    1ff7:	00 0d 04 89 06 00    	add    %cl,0x68904
    1ffd:	00 18                	add    %bl,(%eax)
    1fff:	00 ef                	add    %ch,%bh
    2001:	03 00                	add    (%eax),%eax
    2003:	00 04 00             	add    %al,(%eax,%eax,1)
    2006:	0a 09                	or     (%ecx),%cl
    2008:	00 00                	add    %al,(%eax)
    200a:	04 01                	add    $0x1,%al
    200c:	2f                   	das    
    200d:	00 00                	add    %al,(%eax)
    200f:	00 0c 93             	add    %cl,(%ebx,%edx,4)
    2012:	0a 00                	or     (%eax),%al
    2014:	00 2d 02 00 00 5f    	add    %ch,0x5f000002
    201a:	1d 10 00 52 01       	sbb    $0x1520010,%eax
    201f:	00 00                	add    %al,(%eax)
    2021:	10 0e                	adc    %cl,(%esi)
    2023:	00 00                	add    %al,(%eax)
    2025:	02 5b 02             	add    0x2(%ebx),%bl
    2028:	00 00                	add    %al,(%eax)
    202a:	02 04 17             	add    (%edi,%edx,1),%al
    202d:	31 00                	xor    %eax,(%eax)
    202f:	00 00                	add    %al,(%eax)
    2031:	03 01                	add    (%ecx),%eax
    2033:	08 61 01             	or     %ah,0x1(%ecx)
    2036:	00 00                	add    %al,(%eax)
    2038:	03 01                	add    (%ecx),%eax
    203a:	06                   	push   %es
    203b:	6a 01                	push   $0x1
    203d:	00 00                	add    %al,(%eax)
    203f:	03 02                	add    (%edx),%eax
    2041:	07                   	pop    %es
    2042:	be 01 00 00 03       	mov    $0x3000001,%esi
    2047:	02 05 70 00 00 00    	add    0x70,%al
    204d:	02 60 02             	add    0x2(%eax),%ah
    2050:	00 00                	add    %al,(%eax)
    2052:	02 08                	add    (%eax),%cl
    2054:	16                   	push   %ss
    2055:	59                   	pop    %ecx
    2056:	00 00                	add    %al,(%eax)
    2058:	00 03                	add    %al,(%ebx)
    205a:	04 07                	add    $0x7,%al
    205c:	dc 06                	faddl  (%esi)
    205e:	00 00                	add    %al,(%eax)
    2060:	04 04                	add    $0x4,%al
    2062:	05 69 6e 74 00       	add    $0x746e69,%eax
    2067:	02 39                	add    (%ecx),%bh
    2069:	03 00                	add    (%eax),%eax
    206b:	00 03                	add    %al,(%ebx)
    206d:	10 11                	adc    %dl,(%ecx)
    206f:	73 00                	jae    2071 <FLAGS+0x2070>
    2071:	00 00                	add    %al,(%eax)
    2073:	05 04 79 00 00       	add    $0x7904,%eax
    2078:	00 06                	add    %al,(%esi)
    207a:	4d                   	dec    %ebp
    207b:	00 00                	add    %al,(%eax)
    207d:	00 97 00 00 00 07    	add    %dl,0x7000000(%edi)
    2083:	97                   	xchg   %eax,%edi
    2084:	00 00                	add    %al,(%eax)
    2086:	00 07                	add    %al,(%edi)
    2088:	4d                   	dec    %ebp
    2089:	00 00                	add    %al,(%eax)
    208b:	00 07                	add    %al,(%edi)
    208d:	4d                   	dec    %ebp
    208e:	00 00                	add    %al,(%eax)
    2090:	00 07                	add    %al,(%edi)
    2092:	6e                   	outsb  %ds:(%esi),(%dx)
    2093:	01 00                	add    %eax,(%eax)
    2095:	00 00                	add    %al,(%eax)
    2097:	05 04 9d 00 00       	add    $0x9d04,%eax
    209c:	00 08                	add    %cl,(%eax)
    209e:	21 03                	and    %eax,(%ebx)
    20a0:	00 00                	add    %al,(%eax)
    20a2:	b8 03 17 10 6e       	mov    $0x6e101703,%eax
    20a7:	01 00                	add    %eax,(%eax)
    20a9:	00 09                	add    %cl,(%ecx)
    20ab:	4a                   	dec    %edx
    20ac:	07                   	pop    %es
    20ad:	00 00                	add    %al,(%eax)
    20af:	03 18                	add    (%eax),%ebx
    20b1:	0a 29                	or     (%ecx),%ch
    20b3:	02 00                	add    (%eax),%al
    20b5:	00 00                	add    %al,(%eax)
    20b7:	09 29                	or     %ebp,(%ecx)
    20b9:	03 00                	add    (%eax),%eax
    20bb:	00 03                	add    %al,(%ebx)
    20bd:	19 0b                	sbb    %ecx,(%ebx)
    20bf:	4d                   	dec    %ebp
    20c0:	00 00                	add    %al,(%eax)
    20c2:	00 80 0a 75 69 64    	add    %al,0x6469750a(%eax)
    20c8:	00 03                	add    %al,(%ebx)
    20ca:	1a 0b                	sbb    (%ebx),%cl
    20cc:	4d                   	dec    %ebp
    20cd:	00 00                	add    %al,(%eax)
    20cf:	00 84 0a 67 69 64 00 	add    %al,0x646967(%edx,%ecx,1)
    20d6:	03 1b                	add    (%ebx),%ebx
    20d8:	0b 4d 00             	or     0x0(%ebp),%ecx
    20db:	00 00                	add    %al,(%eax)
    20dd:	88 09                	mov    %cl,(%ecx)
    20df:	80 05 00 00 03 1c 0b 	addb   $0xb,0x1c030000
    20e6:	4d                   	dec    %ebp
    20e7:	00 00                	add    %al,(%eax)
    20e9:	00 8c 09 3f 04 00 00 	add    %cl,0x43f(%ecx,%ecx,1)
    20f0:	03 1d 0b 4d 00 00    	add    0x4d0b,%ebx
    20f6:	00 90 09 26 02 00    	add    %dl,0x22609(%eax)
    20fc:	00 03                	add    %al,(%ebx)
    20fe:	1e                   	push   %ds
    20ff:	0b 4d 00             	or     0x0(%ebp),%ecx
    2102:	00 00                	add    %al,(%eax)
    2104:	94                   	xchg   %eax,%esp
    2105:	09 fe                	or     %edi,%esi
    2107:	03 00                	add    (%eax),%eax
    2109:	00 03                	add    %al,(%ebx)
    210b:	1f                   	pop    %ds
    210c:	0b 4d 00             	or     0x0(%ebp),%ecx
    210f:	00 00                	add    %al,(%eax)
    2111:	98                   	cwtl   
    2112:	09 ac 03 00 00 03 20 	or     %ebp,0x20030000(%ebx,%eax,1)
    2119:	11 67 00             	adc    %esp,0x0(%edi)
    211c:	00 00                	add    %al,(%eax)
    211e:	9c                   	pushf  
    211f:	09 c2                	or     %eax,%edx
    2121:	0b 00                	or     (%eax),%eax
    2123:	00 03                	add    %al,(%ebx)
    2125:	21 12                	and    %edx,(%edx)
    2127:	74 01                	je     212a <FLAGS+0x2129>
    2129:	00 00                	add    %al,(%eax)
    212b:	a0 09 f8 02 00       	mov    0x2f809,%al
    2130:	00 03                	add    %al,(%ebx)
    2132:	22 11                	and    (%ecx),%dl
    2134:	80 01 00             	addb   $0x0,(%ecx)
    2137:	00 a4 09 45 04 00 00 	add    %ah,0x445(%ecx,%ecx,1)
    213e:	03 23                	add    (%ebx),%esp
    2140:	12 9d 01 00 00 a8    	adc    -0x57ffffff(%ebp),%bl
    2146:	09 f6                	or     %esi,%esi
    2148:	03 00                	add    (%eax),%eax
    214a:	00 03                	add    %al,(%ebx)
    214c:	24 14                	and    $0x14,%al
    214e:	a9 01 00 00 ac       	test   $0xac000001,%eax
    2153:	09 37                	or     %esi,(%edi)
    2155:	04 00                	add    $0x0,%al
    2157:	00 03                	add    %al,(%ebx)
    2159:	25 14 fd 01 00       	and    $0x1fd14,%eax
    215e:	00 b0 0a 70 74 72    	add    %dh,0x7274700a(%eax)
    2164:	00 03                	add    %al,(%ebx)
    2166:	26 15 97 00 00 00    	es adc $0x97,%eax
    216c:	b4 00                	mov    $0x0,%ah
    216e:	05 04 25 00 00       	add    $0x2504,%eax
    2173:	00 02                	add    %al,(%edx)
    2175:	73 03                	jae    217a <FLAGS+0x2179>
    2177:	00 00                	add    %al,(%eax)
    2179:	03 11                	add    (%ecx),%edx
    217b:	11 73 00             	adc    %esi,0x0(%ebx)
    217e:	00 00                	add    %al,(%eax)
    2180:	02 8d 03 00 00 03    	add    0x3000003(%ebp),%cl
    2186:	12 10                	adc    (%eax),%dl
    2188:	8c 01                	mov    %es,(%ecx)
    218a:	00 00                	add    %al,(%eax)
    218c:	05 04 92 01 00       	add    $0x19204,%eax
    2191:	00 0b                	add    %cl,(%ebx)
    2193:	9d                   	popf   
    2194:	01 00                	add    %eax,(%eax)
    2196:	00 07                	add    %al,(%edi)
    2198:	97                   	xchg   %eax,%edi
    2199:	00 00                	add    %al,(%eax)
    219b:	00 00                	add    %al,(%eax)
    219d:	02 51 03             	add    0x3(%ecx),%dl
    21a0:	00 00                	add    %al,(%eax)
    21a2:	03 13                	add    (%ebx),%edx
    21a4:	10 8c 01 00 00 02 21 	adc    %cl,0x21020000(%ecx,%eax,1)
    21ab:	04 00                	add    $0x0,%al
    21ad:	00 03                	add    %al,(%ebx)
    21af:	14 1a                	adc    $0x1a,%al
    21b1:	b5 01                	mov    $0x1,%ch
    21b3:	00 00                	add    %al,(%eax)
    21b5:	05 04 e3 01 00       	add    $0x1e304,%eax
    21ba:	00 08                	add    %cl,(%eax)
    21bc:	1a 03                	sbb    (%ebx),%al
    21be:	00 00                	add    %al,(%eax)
    21c0:	84 03                	test   %al,(%ebx)
    21c2:	2a 08                	sub    (%eax),%cl
    21c4:	e3 01                	jecxz  21c7 <FLAGS+0x21c6>
    21c6:	00 00                	add    %al,(%eax)
    21c8:	09 4a 07             	or     %ecx,0x7(%edx)
    21cb:	00 00                	add    %al,(%eax)
    21cd:	03 2b                	add    (%ebx),%ebp
    21cf:	0a 29                	or     (%ecx),%ch
    21d1:	02 00                	add    (%eax),%al
    21d3:	00 00                	add    %al,(%eax)
    21d5:	0a 69 6e             	or     0x6e(%ecx),%ch
    21d8:	6f                   	outsl  %ds:(%esi),(%dx)
    21d9:	00 03                	add    %al,(%ebx)
    21db:	2c 0b                	sub    $0xb,%al
    21dd:	4d                   	dec    %ebp
    21de:	00 00                	add    %al,(%eax)
    21e0:	00 80 00 06 f7 01    	add    %al,0x1f70600(%eax)
    21e6:	00 00                	add    %al,(%eax)
    21e8:	f7 01 00 00 07 97    	testl  $0x97070000,(%ecx)
    21ee:	00 00                	add    %al,(%eax)
    21f0:	00 07                	add    %al,(%edi)
    21f2:	4d                   	dec    %ebp
    21f3:	00 00                	add    %al,(%eax)
    21f5:	00 00                	add    %al,(%eax)
    21f7:	05 04 bb 01 00       	add    $0x1bb04,%eax
    21fc:	00 02                	add    %al,(%edx)
    21fe:	d5 03                	aad    $0x3
    2200:	00 00                	add    %al,(%eax)
    2202:	03 15 1b 09 02 00    	add    0x2091b,%edx
    2208:	00 05 04 0f 02 00    	add    %al,0x20f04
    220e:	00 06                	add    %al,(%esi)
    2210:	97                   	xchg   %eax,%edi
    2211:	00 00                	add    %al,(%eax)
    2213:	00 23                	add    %ah,(%ebx)
    2215:	02 00                	add    (%eax),%al
    2217:	00 07                	add    %al,(%edi)
    2219:	97                   	xchg   %eax,%edi
    221a:	00 00                	add    %al,(%eax)
    221c:	00 07                	add    %al,(%edi)
    221e:	23 02                	and    (%edx),%eax
    2220:	00 00                	add    %al,(%eax)
    2222:	00 05 04 38 00 00    	add    %al,0x3804
    2228:	00 0c 38             	add    %cl,(%eax,%edi,1)
    222b:	00 00                	add    %al,(%eax)
    222d:	00 39                	add    %bh,(%ecx)
    222f:	02 00                	add    (%eax),%al
    2231:	00 0d 39 02 00 00    	add    %cl,0x239
    2237:	7f 00                	jg     2239 <FLAGS+0x2238>
    2239:	03 04 07             	add    (%edi,%eax,1),%eax
    223c:	d7                   	xlat   %ds:(%ebx)
    223d:	06                   	push   %es
    223e:	00 00                	add    %al,(%eax)
    2240:	02 fd                	add    %ch,%bh
    2242:	02 00                	add    (%eax),%al
    2244:	00 03                	add    %al,(%ebx)
    2246:	27                   	daa    
    2247:	03 9d 00 00 00 0e    	add    0xe000000(%ebp),%ebx
    224d:	4b                   	dec    %ebx
    224e:	04 00                	add    $0x0,%al
    2250:	00 03                	add    %al,(%ebx)
    2252:	30 13                	xor    %dl,(%ebx)
    2254:	58                   	pop    %eax
    2255:	02 00                	add    (%eax),%al
    2257:	00 05 04 40 02 00    	add    %al,0x24004
    225d:	00 0f                	add    %cl,(%edi)
    225f:	4c                   	dec    %esp
    2260:	02 00                	add    (%eax),%al
    2262:	00 01                	add    %al,(%ecx)
    2264:	03 0c 05 03 0c 60 10 	add    0x10600c03(,%eax,1),%ecx
    226b:	00 10                	add    %dl,(%eax)
    226d:	ac                   	lods   %ds:(%esi),%al
    226e:	0a 00                	or     (%eax),%al
    2270:	00 01                	add    %al,(%ecx)
    2272:	1d 0c 58 02 00       	sbb    $0x2580c,%eax
    2277:	00 6d 1e             	add    %ch,0x1e(%ebp)
    227a:	10 00                	adc    %al,(%eax)
    227c:	44                   	inc    %esp
    227d:	00 00                	add    %al,(%eax)
    227f:	00 01                	add    %al,(%ecx)
    2281:	9c                   	pushf  
    2282:	a5                   	movsl  %ds:(%esi),%es:(%edi)
    2283:	02 00                	add    (%eax),%al
    2285:	00 11                	add    %dl,(%ecx)
    2287:	24 03                	and    $0x3,%al
    2289:	00 00                	add    %al,(%eax)
    228b:	01 1d 22 58 02 00    	add    %ebx,0x25822
    2291:	00 02                	add    %al,(%edx)
    2293:	91                   	xchg   %eax,%ecx
    2294:	00 11                	add    %dl,(%ecx)
    2296:	4a                   	dec    %edx
    2297:	07                   	pop    %es
    2298:	00 00                	add    %al,(%eax)
    229a:	01 1d 2e 23 02 00    	add    %ebx,0x2232e
    22a0:	00 02                	add    %al,(%edx)
    22a2:	91                   	xchg   %eax,%ecx
    22a3:	04 00                	add    $0x0,%al
    22a5:	10 88 0a 00 00 01    	adc    %cl,0x100000a(%eax)
    22ab:	18 10                	sbb    %dl,(%eax)
    22ad:	f7 01 00 00 29 1e    	testl  $0x1e290000,(%ecx)
    22b3:	10 00                	adc    %al,(%eax)
    22b5:	44                   	inc    %esp
    22b6:	00 00                	add    %al,(%eax)
    22b8:	00 01                	add    %al,(%ecx)
    22ba:	9c                   	pushf  
    22bb:	de 02                	fiadds (%edx)
    22bd:	00 00                	add    %al,(%eax)
    22bf:	11 24 03             	adc    %esp,(%ebx,%eax,1)
    22c2:	00 00                	add    %al,(%eax)
    22c4:	01 18                	add    %ebx,(%eax)
    22c6:	26 58                	es pop %eax
    22c8:	02 00                	add    (%eax),%al
    22ca:	00 02                	add    %al,(%edx)
    22cc:	91                   	xchg   %eax,%ecx
    22cd:	00 11                	add    %dl,(%ecx)
    22cf:	80 06 00             	addb   $0x0,(%esi)
    22d2:	00 01                	add    %al,(%ecx)
    22d4:	18 32                	sbb    %dh,(%edx)
    22d6:	4d                   	dec    %ebp
    22d7:	00 00                	add    %al,(%eax)
    22d9:	00 02                	add    %al,(%edx)
    22db:	91                   	xchg   %eax,%ecx
    22dc:	04 00                	add    $0x0,%al
    22de:	12 a3 0a 00 00 01    	adc    0x100000a(%ebx),%ah
    22e4:	14 06                	adc    $0x6,%al
    22e6:	00 1e                	add    %bl,(%esi)
    22e8:	10 00                	adc    %al,(%eax)
    22ea:	29 00                	sub    %eax,(%eax)
    22ec:	00 00                	add    %al,(%eax)
    22ee:	01 9c 04 03 00 00 11 	add    %ebx,0x11000003(%esp,%eax,1)
    22f5:	24 03                	and    $0x3,%al
    22f7:	00 00                	add    %al,(%eax)
    22f9:	01 14 1a             	add    %edx,(%edx,%ebx,1)
    22fc:	58                   	pop    %eax
    22fd:	02 00                	add    (%eax),%al
    22ff:	00 02                	add    %al,(%edx)
    2301:	91                   	xchg   %eax,%ecx
    2302:	00 00                	add    %al,(%eax)
    2304:	12 bf 0a 00 00 01    	adc    0x100000a(%edi),%bh
    230a:	10 06                	adc    %al,(%esi)
    230c:	cb                   	lret   
    230d:	1d 10 00 35 00       	sbb    $0x350010,%eax
    2312:	00 00                	add    %al,(%eax)
    2314:	01 9c 48 03 00 00 11 	add    %ebx,0x11000003(%eax,%ecx,2)
    231b:	24 03                	and    $0x3,%al
    231d:	00 00                	add    %al,(%eax)
    231f:	01 10                	add    %edx,(%eax)
    2321:	19 58 02             	sbb    %ebx,0x2(%eax)
    2324:	00 00                	add    %al,(%eax)
    2326:	02 91 00 11 ac 03    	add    0x3ac1100(%ecx),%dl
    232c:	00 00                	add    %al,(%eax)
    232e:	01 10                	add    %edx,(%eax)
    2330:	24 25                	and    $0x25,%al
    2332:	00 00                	add    %al,(%eax)
    2334:	00 02                	add    %al,(%edx)
    2336:	91                   	xchg   %eax,%ecx
    2337:	6c                   	insb   (%dx),%es:(%edi)
    2338:	11 c2                	adc    %eax,%edx
    233a:	0b 00                	or     (%eax),%eax
    233c:	00 01                	add    %al,(%ecx)
    233e:	10 2f                	adc    %ch,(%edi)
    2340:	25 00 00 00 02       	and    $0x2000000,%eax
    2345:	91                   	xchg   %eax,%ecx
    2346:	68 00 10 7f 0a       	push   $0xa7f1000
    234b:	00 00                	add    %al,(%eax)
    234d:	01 0b                	add    %ecx,(%ebx)
    234f:	07                   	pop    %es
    2350:	4d                   	dec    %ebp
    2351:	00 00                	add    %al,(%eax)
    2353:	00 95 1d 10 00 36    	add    %dl,0x3600101d(%ebp)
    2359:	00 00                	add    %al,(%eax)
    235b:	00 01                	add    %al,(%ecx)
    235d:	9c                   	pushf  
    235e:	9f                   	lahf   
    235f:	03 00                	add    (%eax),%eax
    2361:	00 11                	add    %dl,(%ecx)
    2363:	24 03                	and    $0x3,%al
    2365:	00 00                	add    %al,(%eax)
    2367:	01 0b                	add    %ecx,(%ebx)
    2369:	1b 58 02             	sbb    0x2(%eax),%ebx
    236c:	00 00                	add    %al,(%eax)
    236e:	02 91 00 11 43 01    	add    0x1431100(%ecx),%dl
    2374:	00 00                	add    %al,(%eax)
    2376:	01 0b                	add    %ecx,(%ebx)
    2378:	27                   	daa    
    2379:	4d                   	dec    %ebp
    237a:	00 00                	add    %al,(%eax)
    237c:	00 02                	add    %al,(%edx)
    237e:	91                   	xchg   %eax,%ecx
    237f:	04 11                	add    $0x11,%al
    2381:	e2 00                	loop   2383 <FLAGS+0x2382>
    2383:	00 00                	add    %al,(%eax)
    2385:	01 0b                	add    %ecx,(%ebx)
    2387:	35 4d 00 00 00       	xor    $0x4d,%eax
    238c:	02 91 08 11 13 03    	add    0x3131108(%ecx),%dl
    2392:	00 00                	add    %al,(%eax)
    2394:	01 0b                	add    %ecx,(%ebx)
    2396:	41                   	inc    %ecx
    2397:	6e                   	outsb  %ds:(%esi),(%dx)
    2398:	01 00                	add    %eax,(%eax)
    239a:	00 02                	add    %al,(%edx)
    239c:	91                   	xchg   %eax,%ecx
    239d:	0c 00                	or     $0x0,%al
    239f:	13 b7 0a 00 00 01    	adc    0x100000a(%edi),%esi
    23a5:	05 07 4d 00 00       	add    $0x4d07,%eax
    23aa:	00 5f 1d             	add    %bl,0x1d(%edi)
    23ad:	10 00                	adc    %al,(%eax)
    23af:	36 00 00             	add    %al,%ss:(%eax)
    23b2:	00 01                	add    %al,(%ecx)
    23b4:	9c                   	pushf  
    23b5:	11 24 03             	adc    %esp,(%ebx,%eax,1)
    23b8:	00 00                	add    %al,(%eax)
    23ba:	01 05 1a 58 02 00    	add    %eax,0x2581a
    23c0:	00 02                	add    %al,(%edx)
    23c2:	91                   	xchg   %eax,%ecx
    23c3:	00 11                	add    %dl,(%ecx)
    23c5:	43                   	inc    %ebx
    23c6:	01 00                	add    %eax,(%eax)
    23c8:	00 01                	add    %al,(%ecx)
    23ca:	05 26 4d 00 00       	add    $0x4d26,%eax
    23cf:	00 02                	add    %al,(%edx)
    23d1:	91                   	xchg   %eax,%ecx
    23d2:	04 11                	add    $0x11,%al
    23d4:	e2 00                	loop   23d6 <FLAGS+0x23d5>
    23d6:	00 00                	add    %al,(%eax)
    23d8:	01 05 34 4d 00 00    	add    %eax,0x4d34
    23de:	00 02                	add    %al,(%edx)
    23e0:	91                   	xchg   %eax,%ecx
    23e1:	08 11                	or     %dl,(%ecx)
    23e3:	13 03                	adc    (%ebx),%eax
    23e5:	00 00                	add    %al,(%eax)
    23e7:	01 05 40 6e 01 00    	add    %eax,0x16e40
    23ed:	00 02                	add    %al,(%edx)
    23ef:	91                   	xchg   %eax,%ecx
    23f0:	0c 00                	or     $0x0,%al
    23f2:	00 b5 01 00 00 04    	add    %dh,0x4000001(%ebp)
    23f8:	00 35 0a 00 00 04    	add    %dh,0x400000a
    23fe:	01 2f                	add    %ebp,(%edi)
    2400:	00 00                	add    %al,(%eax)
    2402:	00 0c 69             	add    %cl,(%ecx,%ebp,2)
    2405:	0b 00                	or     (%eax),%eax
    2407:	00 2d 02 00 00 b1    	add    %ch,0xb1000002
    240d:	1e                   	push   %ds
    240e:	10 00                	adc    %al,(%eax)
    2410:	45                   	inc    %ebp
    2411:	01 00                	add    %eax,(%eax)
    2413:	00 11                	add    %dl,(%ecx)
    2415:	0f 00 00             	sldt   (%eax)
    2418:	02 5b 02             	add    0x2(%ebx),%bl
    241b:	00 00                	add    %al,(%eax)
    241d:	02 04 17             	add    (%edi,%edx,1),%al
    2420:	31 00                	xor    %eax,(%eax)
    2422:	00 00                	add    %al,(%eax)
    2424:	03 01                	add    (%ecx),%eax
    2426:	08 61 01             	or     %ah,0x1(%ecx)
    2429:	00 00                	add    %al,(%eax)
    242b:	03 01                	add    (%ecx),%eax
    242d:	06                   	push   %es
    242e:	6a 01                	push   $0x1
    2430:	00 00                	add    %al,(%eax)
    2432:	02 63 0b             	add    0xb(%ebx),%ah
    2435:	00 00                	add    %al,(%eax)
    2437:	02 06                	add    (%esi),%al
    2439:	18 4b 00             	sbb    %cl,0x0(%ebx)
    243c:	00 00                	add    %al,(%eax)
    243e:	03 02                	add    (%edx),%eax
    2440:	07                   	pop    %es
    2441:	be 01 00 00 03       	mov    $0x3000001,%esi
    2446:	02 05 70 00 00 00    	add    0x70,%al
    244c:	02 60 02             	add    0x2(%eax),%ah
    244f:	00 00                	add    %al,(%eax)
    2451:	02 08                	add    (%eax),%cl
    2453:	16                   	push   %ss
    2454:	65 00 00             	add    %al,%gs:(%eax)
    2457:	00 03                	add    %al,(%ebx)
    2459:	04 07                	add    $0x7,%al
    245b:	dc 06                	faddl  (%esi)
    245d:	00 00                	add    %al,(%eax)
    245f:	04 04                	add    $0x4,%al
    2461:	05 69 6e 74 00       	add    $0x746e69,%eax
    2466:	05 42 0b 00 00       	add    $0xb42,%eax
    246b:	06                   	push   %es
    246c:	03 05 08 9b 00 00    	add    0x9b08,%eax
    2472:	00 06                	add    %al,(%esi)
    2474:	fa                   	cli    
    2475:	0a 00                	or     (%eax),%al
    2477:	00 03                	add    %al,(%ebx)
    2479:	06                   	push   %es
    247a:	0b 3f                	or     (%edi),%edi
    247c:	00 00                	add    %al,(%eax)
    247e:	00 00                	add    %al,(%eax)
    2480:	06                   	push   %es
    2481:	0c 0b                	or     $0xb,%al
    2483:	00 00                	add    %al,(%eax)
    2485:	03 07                	add    (%edi),%eax
    2487:	0b 59 00             	or     0x0(%ecx),%ebx
    248a:	00 00                	add    %al,(%eax)
    248c:	02 00                	add    (%eax),%al
    248e:	02 e8                	add    %al,%ch
    2490:	0a 00                	or     (%eax),%al
    2492:	00 03                	add    %al,(%ebx)
    2494:	0a 1b                	or     (%ebx),%bl
    2496:	73 00                	jae    2498 <FLAGS+0x2497>
    2498:	00 00                	add    %al,(%eax)
    249a:	05 d0 0a 00 00       	add    $0xad0,%eax
    249f:	08 03                	or     %al,(%ebx)
    24a1:	0c 08                	or     $0x8,%al
    24a3:	03 01                	add    (%ecx),%eax
    24a5:	00 00                	add    %al,(%eax)
    24a7:	06                   	push   %es
    24a8:	16                   	push   %ss
    24a9:	0b 00                	or     (%eax),%eax
    24ab:	00 03                	add    %al,(%ebx)
    24ad:	0d 0b 3f 00 00       	or     $0x3f0b,%eax
    24b2:	00 00                	add    %al,(%eax)
    24b4:	06                   	push   %es
    24b5:	4d                   	dec    %ebp
    24b6:	0b 00                	or     (%eax),%eax
    24b8:	00 03                	add    %al,(%ebx)
    24ba:	0e                   	push   %cs
    24bb:	0b 3f                	or     (%edi),%edi
    24bd:	00 00                	add    %al,(%eax)
    24bf:	00 02                	add    %al,(%edx)
    24c1:	06                   	push   %es
    24c2:	2a 0b                	sub    (%ebx),%cl
    24c4:	00 00                	add    %al,(%eax)
    24c6:	03 0f                	add    (%edi),%ecx
    24c8:	0a 25 00 00 00 04    	or     0x4000000,%ah
    24ce:	06                   	push   %es
    24cf:	e1 0a                	loope  24db <FLAGS+0x24da>
    24d1:	00 00                	add    %al,(%eax)
    24d3:	03 10                	add    (%eax),%edx
    24d5:	0a 25 00 00 00 05    	or     0x5000000,%ah
    24db:	06                   	push   %es
    24dc:	36 0b 00             	or     %ss:(%eax),%eax
    24df:	00 03                	add    %al,(%ebx)
    24e1:	11 0a                	adc    %ecx,(%edx)
    24e3:	25 00 00 00 06       	and    $0x6000000,%eax
    24e8:	06                   	push   %es
    24e9:	20 0b                	and    %cl,(%ebx)
    24eb:	00 00                	add    %al,(%eax)
    24ed:	03 12                	add    (%edx),%edx
    24ef:	0a 25 00 00 00 07    	or     0x7000000,%ah
    24f5:	00 02                	add    %al,(%edx)
    24f7:	ee                   	out    %al,(%dx)
    24f8:	0a 00                	or     (%eax),%al
    24fa:	00 03                	add    %al,(%ebx)
    24fc:	15 21 a7 00 00       	adc    $0xa721,%eax
    2501:	00 07                	add    %al,(%edi)
    2503:	67 64 74 00          	addr16 fs je 2507 <FLAGS+0x2506>
    2507:	01 04 07             	add    %eax,(%edi,%eax,1)
    250a:	9b                   	fwait
    250b:	00 00                	add    %al,(%eax)
    250d:	00 05 03 00 61 10    	add    %al,0x10610003
    2513:	00 08                	add    %cl,(%eax)
    2515:	03 01                	add    (%ecx),%eax
    2517:	00 00                	add    %al,(%eax)
    2519:	31 01                	xor    %eax,(%ecx)
    251b:	00 00                	add    %al,(%eax)
    251d:	09 31                	or     %esi,(%ecx)
    251f:	01 00                	add    %eax,(%eax)
    2521:	00 04 00             	add    %al,(%eax,%eax,1)
    2524:	03 04 07             	add    (%edi,%eax,1),%eax
    2527:	d7                   	xlat   %ds:(%ebx)
    2528:	06                   	push   %es
    2529:	00 00                	add    %al,(%eax)
    252b:	0a 00                	or     (%eax),%al
    252d:	0b 00                	or     (%eax),%eax
    252f:	00 01                	add    %al,(%ecx)
    2531:	05 0d 21 01 00       	add    $0x1210d,%eax
    2536:	00 05 03 20 61 10    	add    %al,0x10612003
    253c:	00 0b                	add    %cl,(%ebx)
    253e:	c7                   	(bad)  
    253f:	0a 00                	or     (%eax),%al
    2541:	00 01                	add    %al,(%ecx)
    2543:	14 06                	adc    $0x6,%al
    2545:	57                   	push   %edi
    2546:	1f                   	pop    %ds
    2547:	10 00                	adc    %al,(%eax)
    2549:	9f                   	lahf   
    254a:	00 00                	add    %al,(%eax)
    254c:	00 01                	add    %al,(%ecx)
    254e:	9c                   	pushf  
    254f:	0c 56                	or     $0x56,%al
    2551:	0b 00                	or     (%eax),%eax
    2553:	00 01                	add    %al,(%ecx)
    2555:	07                   	pop    %es
    2556:	0d b1 1e 10 00       	or     $0x101eb1,%eax
    255b:	a6                   	cmpsb  %es:(%edi),%ds:(%esi)
    255c:	00 00                	add    %al,(%eax)
    255e:	00 01                	add    %al,(%ecx)
    2560:	9c                   	pushf  
    2561:	0d 6e 00 01 07       	or     $0x701006e,%eax
    2566:	1f                   	pop    %ds
    2567:	25 00 00 00 02       	and    $0x2000000,%eax
    256c:	91                   	xchg   %eax,%ecx
    256d:	74 0e                	je     257d <FLAGS+0x257c>
    256f:	0c 0b                	or     $0xb,%al
    2571:	00 00                	add    %al,(%eax)
    2573:	01 07                	add    %eax,(%edi)
    2575:	27                   	daa    
    2576:	59                   	pop    %ecx
    2577:	00 00                	add    %al,(%eax)
    2579:	00 02                	add    %al,(%edx)
    257b:	91                   	xchg   %eax,%ecx
    257c:	04 0e                	add    $0xe,%al
    257e:	fa                   	cli    
    257f:	0a 00                	or     (%eax),%al
    2581:	00 01                	add    %al,(%ecx)
    2583:	07                   	pop    %es
    2584:	32 59 00             	xor    0x0(%ecx),%bl
    2587:	00 00                	add    %al,(%eax)
    2589:	02 91 08 0e e1 0a    	add    0xae10e08(%ecx),%dl
    258f:	00 00                	add    %al,(%eax)
    2591:	01 07                	add    %eax,(%edi)
    2593:	3d 25 00 00 00       	cmp    $0x25,%eax
    2598:	02 91 70 0e 11 0b    	add    0xb110e70(%ecx),%dl
    259e:	00 00                	add    %al,(%eax)
    25a0:	01 07                	add    %eax,(%edi)
    25a2:	49                   	dec    %ecx
    25a3:	25 00 00 00 02       	and    $0x2000000,%eax
    25a8:	91                   	xchg   %eax,%ecx
    25a9:	6c                   	insb   (%dx),%es:(%edi)
    25aa:	00 00                	add    %al,(%eax)
    25ac:	56                   	push   %esi
    25ad:	02 00                	add    (%eax),%al
    25af:	00 04 00             	add    %al,(%eax,%eax,1)
    25b2:	1a 0b                	sbb    (%ebx),%cl
    25b4:	00 00                	add    %al,(%eax)
    25b6:	04 01                	add    $0x1,%al
    25b8:	2f                   	das    
    25b9:	00 00                	add    %al,(%eax)
    25bb:	00 0c d6             	add    %cl,(%esi,%edx,8)
    25be:	0b 00                	or     (%eax),%eax
    25c0:	00 2d 02 00 00 f6    	add    %ch,0xf6000002
    25c6:	1f                   	pop    %ds
    25c7:	10 00                	adc    %al,(%eax)
    25c9:	0c 02                	or     $0x2,%al
    25cb:	00 00                	add    %al,(%eax)
    25cd:	d1 0f                	rorl   (%edi)
    25cf:	00 00                	add    %al,(%eax)
    25d1:	02 5b 02             	add    0x2(%ebx),%bl
    25d4:	00 00                	add    %al,(%eax)
    25d6:	02 04 17             	add    (%edi,%edx,1),%al
    25d9:	31 00                	xor    %eax,(%eax)
    25db:	00 00                	add    %al,(%eax)
    25dd:	03 01                	add    (%ecx),%eax
    25df:	08 61 01             	or     %ah,0x1(%ecx)
    25e2:	00 00                	add    %al,(%eax)
    25e4:	03 01                	add    (%ecx),%eax
    25e6:	06                   	push   %es
    25e7:	6a 01                	push   $0x1
    25e9:	00 00                	add    %al,(%eax)
    25eb:	02 63 0b             	add    0xb(%ebx),%ah
    25ee:	00 00                	add    %al,(%eax)
    25f0:	02 06                	add    (%esi),%al
    25f2:	18 4b 00             	sbb    %cl,0x0(%ebx)
    25f5:	00 00                	add    %al,(%eax)
    25f7:	03 02                	add    (%edx),%eax
    25f9:	07                   	pop    %es
    25fa:	be 01 00 00 03       	mov    $0x3000001,%esi
    25ff:	02 05 70 00 00 00    	add    0x70,%al
    2605:	02 60 02             	add    0x2(%eax),%ah
    2608:	00 00                	add    %al,(%eax)
    260a:	02 08                	add    (%eax),%cl
    260c:	16                   	push   %ss
    260d:	65 00 00             	add    %al,%gs:(%eax)
    2610:	00 03                	add    %al,(%ebx)
    2612:	04 07                	add    $0x7,%al
    2614:	dc 06                	faddl  (%esi)
    2616:	00 00                	add    %al,(%eax)
    2618:	04 04                	add    $0x4,%al
    261a:	05 69 6e 74 00       	add    $0x746e69,%eax
    261f:	05 69 6e 62 00       	add    $0x626e69,%eax
    2624:	01 3d 06 25 00 00    	add    %edi,0x2506
    262a:	00 e5                	add    %ah,%ch
    262c:	21 10                	and    %edx,(%eax)
    262e:	00 1d 00 00 00 01    	add    %bl,0x1000000
    2634:	9c                   	pushf  
    2635:	ac                   	lods   %ds:(%esi),%al
    2636:	00 00                	add    %al,(%eax)
    2638:	00 06                	add    %al,(%esi)
    263a:	9f                   	lahf   
    263b:	0b 00                	or     (%eax),%eax
    263d:	00 01                	add    %al,(%ecx)
    263f:	3d 10 3f 00 00       	cmp    $0x3f10,%eax
    2644:	00 02                	add    %al,(%edx)
    2646:	91                   	xchg   %eax,%ecx
    2647:	64 07                	fs pop %es
    2649:	9a 0b 00 00 01 3e 0a 	lcall  $0xa3e,$0x100000b
    2650:	25 00 00 00 02       	and    $0x2000000,%eax
    2655:	91                   	xchg   %eax,%ecx
    2656:	77 00                	ja     2658 <FLAGS+0x2657>
    2658:	08 95 0b 00 00 01    	or     %dl,0x100000b(%ebp)
    265e:	38 06                	cmp    %al,(%esi)
    2660:	c4 21                	les    (%ecx),%esp
    2662:	10 00                	adc    %al,(%eax)
    2664:	21 00                	and    %eax,(%eax)
    2666:	00 00                	add    %al,(%eax)
    2668:	01 9c e1 00 00 00 06 	add    %ebx,0x6000000(%ecx,%eiz,8)
    266f:	9f                   	lahf   
    2670:	0b 00                	or     (%eax),%eax
    2672:	00 01                	add    %al,(%ecx)
    2674:	38 11                	cmp    %dl,(%ecx)
    2676:	3f                   	aas    
    2677:	00 00                	add    %al,(%eax)
    2679:	00 02                	add    %al,(%edx)
    267b:	91                   	xchg   %eax,%ecx
    267c:	74 06                	je     2684 <FLAGS+0x2683>
    267e:	9a 0b 00 00 01 38 1c 	lcall  $0x1c38,$0x100000b
    2685:	25 00 00 00 02       	and    $0x2000000,%eax
    268a:	91                   	xchg   %eax,%ecx
    268b:	70 00                	jo     268d <FLAGS+0x268c>
    268d:	08 a4 0b 00 00 01 31 	or     %ah,0x31010000(%ebx,%ecx,1)
    2694:	06                   	push   %es
    2695:	99                   	cltd   
    2696:	21 10                	and    %edx,(%eax)
    2698:	00 2b                	add    %ch,(%ebx)
    269a:	00 00                	add    %al,(%eax)
    269c:	00 01                	add    %al,(%ecx)
    269e:	9c                   	pushf  
    269f:	25 01 00 00 06       	and    $0x6000001,%eax
    26a4:	82 0b 00             	orb    $0x0,(%ebx)
    26a7:	00 01                	add    %al,(%ecx)
    26a9:	31 14 25 01 00 00 02 	xor    %edx,0x2000001(,%eiz,1)
    26b0:	91                   	xchg   %eax,%ecx
    26b1:	00 06                	add    %al,(%esi)
    26b3:	78 0b                	js     26c0 <FLAGS+0x26bf>
    26b5:	00 00                	add    %al,(%eax)
    26b7:	01 31                	add    %esi,(%ecx)
    26b9:	1f                   	pop    %ds
    26ba:	38 00                	cmp    %al,(%eax)
    26bc:	00 00                	add    %al,(%eax)
    26be:	02 91 74 09 6c 65    	add    0x656c0974(%ecx),%dl
    26c4:	6e                   	outsb  %ds:(%esi),(%dx)
    26c5:	00 01                	add    %al,(%ecx)
    26c7:	31 30                	xor    %esi,(%eax)
    26c9:	59                   	pop    %ecx
    26ca:	00 00                	add    %al,(%eax)
    26cc:	00 02                	add    %al,(%edx)
    26ce:	91                   	xchg   %eax,%ecx
    26cf:	08 00                	or     %al,(%eax)
    26d1:	0a 04 38             	or     (%eax,%edi,1),%al
    26d4:	00 00                	add    %al,(%eax)
    26d6:	00 08                	add    %cl,(%eax)
    26d8:	b6 0b                	mov    $0xb,%dh
    26da:	00 00                	add    %al,(%eax)
    26dc:	01 2a                	add    %ebp,(%edx)
    26de:	06                   	push   %es
    26df:	6f                   	outsl  %ds:(%esi),(%dx)
    26e0:	21 10                	and    %edx,(%eax)
    26e2:	00 2a                	add    %ch,(%edx)
    26e4:	00 00                	add    %al,(%eax)
    26e6:	00 01                	add    %al,(%ecx)
    26e8:	9c                   	pushf  
    26e9:	6f                   	outsl  %ds:(%esi),(%dx)
    26ea:	01 00                	add    %eax,(%eax)
    26ec:	00 09                	add    %cl,(%ecx)
    26ee:	73 72                	jae    2762 <FLAGS+0x2761>
    26f0:	63 00                	arpl   %ax,(%eax)
    26f2:	01 2a                	add    %ebp,(%edx)
    26f4:	15 25 01 00 00       	adc    $0x125,%eax
    26f9:	02 91 00 06 82 0b    	add    0xb820600(%ecx),%dl
    26ff:	00 00                	add    %al,(%eax)
    2701:	01 2a                	add    %ebp,(%edx)
    2703:	20 25 01 00 00 02    	and    %ah,0x2000001
    2709:	91                   	xchg   %eax,%ecx
    270a:	04 09                	add    $0x9,%al
    270c:	6c                   	insb   (%dx),%es:(%edi)
    270d:	65 6e                	outsb  %gs:(%esi),(%dx)
    270f:	00 01                	add    %al,(%ecx)
    2711:	2a 2c 59             	sub    (%ecx,%ebx,2),%ch
    2714:	00 00                	add    %al,(%eax)
    2716:	00 02                	add    %al,(%edx)
    2718:	91                   	xchg   %eax,%ecx
    2719:	08 00                	or     %al,(%eax)
    271b:	0b ac 0b 00 00 01 21 	or     0x21010000(%ebx,%ecx,1),%ebp
    2722:	07                   	pop    %es
    2723:	3f                   	aas    
    2724:	00 00                	add    %al,(%eax)
    2726:	00 f5                	add    %dh,%ch
    2728:	20 10                	and    %dl,(%eax)
    272a:	00 7a 00             	add    %bh,0x0(%edx)
    272d:	00 00                	add    %al,(%eax)
    272f:	01 9c be 01 00 00 06 	add    %ebx,0x6000001(%esi,%edi,4)
    2736:	23 07                	and    (%edi),%eax
    2738:	00 00                	add    %al,(%eax)
    273a:	01 21                	add    %esp,(%ecx)
    273c:	17                   	pop    %ss
    273d:	3f                   	aas    
    273e:	00 00                	add    %al,(%eax)
    2740:	00 02                	add    %al,(%edx)
    2742:	91                   	xchg   %eax,%ecx
    2743:	5c                   	pop    %esp
    2744:	0c 66                	or     $0x66,%al
    2746:	62 00                	bound  %eax,(%eax)
    2748:	01 22                	add    %esp,(%edx)
    274a:	0b be 01 00 00 02    	or     0x2000001(%esi),%edi
    2750:	91                   	xchg   %eax,%ecx
    2751:	68 0d 17 21 10       	push   $0x1021170d
    2756:	00 51 00             	add    %dl,0x0(%ecx)
    2759:	00 00                	add    %al,(%eax)
    275b:	0c 69                	or     $0x69,%al
    275d:	00 01                	add    %al,(%ecx)
    275f:	24 0d                	and    $0xd,%al
    2761:	6c                   	insb   (%dx),%es:(%edi)
    2762:	00 00                	add    %al,(%eax)
    2764:	00 02                	add    %al,(%edx)
    2766:	91                   	xchg   %eax,%ecx
    2767:	6c                   	insb   (%dx),%es:(%edi)
    2768:	00 00                	add    %al,(%eax)
    276a:	0a 04 25 00 00 00 08 	or     0x8000000(,%eiz,1),%al
    2771:	bf 0b 00 00 01       	mov    $0x100000b,%edi
    2776:	1b 06                	sbb    (%esi),%eax
    2778:	bf 20 10 00 36       	mov    $0x36001020,%edi
    277d:	00 00                	add    %al,(%eax)
    277f:	00 01                	add    %al,(%ecx)
    2781:	9c                   	pushf  
    2782:	07                   	pop    %es
    2783:	02 00                	add    (%eax),%al
    2785:	00 06                	add    %al,(%esi)
    2787:	78 0b                	js     2794 <FLAGS+0x2793>
    2789:	00 00                	add    %al,(%eax)
    278b:	01 1b                	add    %ebx,(%ebx)
    278d:	14 38                	adc    $0x38,%al
    278f:	00 00                	add    %al,(%eax)
    2791:	00 02                	add    %al,(%edx)
    2793:	91                   	xchg   %eax,%ecx
    2794:	64 06                	fs push %es
    2796:	23 07                	and    (%edi),%eax
    2798:	00 00                	add    %al,(%eax)
    279a:	01 1b                	add    %ebx,(%ebx)
    279c:	25 3f 00 00 00       	and    $0x3f,%eax
    27a1:	02 91 60 0c 66 62    	add    0x62660c60(%ecx),%dl
    27a7:	00 01                	add    %al,(%ecx)
    27a9:	1c 0c                	sbb    $0xc,%al
    27ab:	07                   	pop    %es
    27ac:	02 00                	add    (%eax),%al
    27ae:	00 02                	add    %al,(%edx)
    27b0:	91                   	xchg   %eax,%ecx
    27b1:	74 00                	je     27b3 <FLAGS+0x27b2>
    27b3:	0a 04 3f             	or     (%edi,%edi,1),%al
    27b6:	00 00                	add    %al,(%eax)
    27b8:	00 0e                	add    %cl,(%esi)
    27ba:	c8 0b 00 00          	enter  $0xb,$0x0
    27be:	01 13                	add    %edx,(%ebx)
    27c0:	06                   	push   %es
    27c1:	57                   	push   %edi
    27c2:	20 10                	and    %dl,(%eax)
    27c4:	00 68 00             	add    %ch,0x0(%eax)
    27c7:	00 00                	add    %al,(%eax)
    27c9:	01 9c 33 02 00 00 06 	add    %ebx,0x6000002(%ebx,%esi,1)
    27d0:	23 07                	and    (%edi),%eax
    27d2:	00 00                	add    %al,(%eax)
    27d4:	01 13                	add    %edx,(%ebx)
    27d6:	1a 3f                	sbb    (%edi),%bh
    27d8:	00 00                	add    %al,(%eax)
    27da:	00 02                	add    %al,(%edx)
    27dc:	91                   	xchg   %eax,%ecx
    27dd:	6c                   	insb   (%dx),%es:(%edi)
    27de:	00 0f                	add    %cl,(%edi)
    27e0:	87 0b                	xchg   %ecx,(%ebx)
    27e2:	00 00                	add    %al,(%eax)
    27e4:	01 0a                	add    %ecx,(%edx)
    27e6:	07                   	pop    %es
    27e7:	3f                   	aas    
    27e8:	00 00                	add    %al,(%eax)
    27ea:	00 f6                	add    %dh,%dh
    27ec:	1f                   	pop    %ds
    27ed:	10 00                	adc    %al,(%eax)
    27ef:	61                   	popa   
    27f0:	00 00                	add    %al,(%eax)
    27f2:	00 01                	add    %al,(%ecx)
    27f4:	9c                   	pushf  
    27f5:	0c 70                	or     $0x70,%al
    27f7:	6f                   	outsl  %ds:(%esi),(%dx)
    27f8:	73 00                	jae    27fa <FLAGS+0x27f9>
    27fa:	01 0b                	add    %ecx,(%ebx)
    27fc:	0b 3f                	or     (%edi),%edi
    27fe:	00 00                	add    %al,(%eax)
    2800:	00 02                	add    %al,(%edx)
    2802:	91                   	xchg   %eax,%ecx
    2803:	6e                   	outsb  %ds:(%esi),(%dx)
    2804:	00 00                	add    %al,(%eax)
    2806:	29 04 00             	sub    %eax,(%eax,%eax,1)
    2809:	00 04 00             	add    %al,(%eax,%eax,1)
    280c:	37                   	aaa    
    280d:	0c 00                	or     $0x0,%al
    280f:	00 04 01             	add    %al,(%ecx,%eax,1)
    2812:	2f                   	das    
    2813:	00 00                	add    %al,(%eax)
    2815:	00 0c b8             	add    %cl,(%eax,%edi,4)
    2818:	0c 00                	or     $0x0,%al
    281a:	00 2d 02 00 00 02    	add    %ch,0x2000002
    2820:	22 10                	and    (%eax),%dl
    2822:	00 81 07 00 00 0e    	add    %al,0xe000007(%ecx)
    2828:	11 00                	adc    %eax,(%eax)
    282a:	00 02                	add    %al,(%edx)
    282c:	5b                   	pop    %ebx
    282d:	02 00                	add    (%eax),%al
    282f:	00 02                	add    %al,(%edx)
    2831:	04 17                	add    $0x17,%al
    2833:	31 00                	xor    %eax,(%eax)
    2835:	00 00                	add    %al,(%eax)
    2837:	03 01                	add    (%ecx),%eax
    2839:	08 61 01             	or     %ah,0x1(%ecx)
    283c:	00 00                	add    %al,(%eax)
    283e:	03 01                	add    (%ecx),%eax
    2840:	06                   	push   %es
    2841:	6a 01                	push   $0x1
    2843:	00 00                	add    %al,(%eax)
    2845:	02 63 0b             	add    0xb(%ebx),%ah
    2848:	00 00                	add    %al,(%eax)
    284a:	02 06                	add    (%esi),%al
    284c:	18 4b 00             	sbb    %cl,0x0(%ebx)
    284f:	00 00                	add    %al,(%eax)
    2851:	03 02                	add    (%edx),%eax
    2853:	07                   	pop    %es
    2854:	be 01 00 00 03       	mov    $0x3000001,%esi
    2859:	02 05 70 00 00 00    	add    0x70,%al
    285f:	02 60 02             	add    0x2(%eax),%ah
    2862:	00 00                	add    %al,(%eax)
    2864:	02 08                	add    (%eax),%cl
    2866:	16                   	push   %ss
    2867:	65 00 00             	add    %al,%gs:(%eax)
    286a:	00 03                	add    %al,(%ebx)
    286c:	04 07                	add    $0x7,%al
    286e:	dc 06                	faddl  (%esi)
    2870:	00 00                	add    %al,(%eax)
    2872:	04 04                	add    $0x4,%al
    2874:	05 69 6e 74 00       	add    $0x746e69,%eax
    2879:	05 90 0c 00 00       	add    $0xc90,%eax
    287e:	06                   	push   %es
    287f:	03 0e                	add    (%esi),%ecx
    2881:	08 9b 00 00 00 06    	or     %bl,0x6000000(%ebx)
    2887:	fa                   	cli    
    2888:	0a 00                	or     (%eax),%al
    288a:	00 03                	add    %al,(%ebx)
    288c:	0f 0b                	ud2    
    288e:	3f                   	aas    
    288f:	00 00                	add    %al,(%eax)
    2891:	00 00                	add    %al,(%eax)
    2893:	06                   	push   %es
    2894:	0c 0b                	or     $0xb,%al
    2896:	00 00                	add    %al,(%eax)
    2898:	03 10                	add    (%eax),%edx
    289a:	0b 59 00             	or     0x0(%ecx),%ebx
    289d:	00 00                	add    %al,(%eax)
    289f:	02 00                	add    (%eax),%al
    28a1:	02 ec                	add    %ah,%ch
    28a3:	0c 00                	or     $0x0,%al
    28a5:	00 03                	add    %al,(%ebx)
    28a7:	12 1b                	adc    (%ebx),%bl
    28a9:	73 00                	jae    28ab <FLAGS+0x28aa>
    28ab:	00 00                	add    %al,(%eax)
    28ad:	05 9b 0c 00 00       	add    $0xc9b,%eax
    28b2:	08 03                	or     %al,(%ebx)
    28b4:	14 08                	adc    $0x8,%al
    28b6:	f6 00 00             	testb  $0x0,(%eax)
    28b9:	00 06                	add    %al,(%esi)
    28bb:	4d                   	dec    %ebp
    28bc:	0b 00                	or     (%eax),%eax
    28be:	00 03                	add    %al,(%ebx)
    28c0:	15 0b 3f 00 00       	adc    $0x3f0b,%eax
    28c5:	00 00                	add    %al,(%eax)
    28c7:	06                   	push   %es
    28c8:	6a 0c                	push   $0xc
    28ca:	00 00                	add    %al,(%eax)
    28cc:	03 16                	add    (%esi),%edx
    28ce:	0b 3f                	or     (%edi),%edi
    28d0:	00 00                	add    %al,(%eax)
    28d2:	00 02                	add    %al,(%edx)
    28d4:	06                   	push   %es
    28d5:	82 0c 00 00          	orb    $0x0,(%eax,%eax,1)
    28d9:	03 17                	add    (%edi),%edx
    28db:	0a 25 00 00 00 04    	or     0x4000000,%ah
    28e1:	06                   	push   %es
    28e2:	80 05 00 00 03 18 0a 	addb   $0xa,0x18030000
    28e9:	25 00 00 00 05       	and    $0x5000000,%eax
    28ee:	06                   	push   %es
    28ef:	20 0b                	and    %cl,(%ebx)
    28f1:	00 00                	add    %al,(%eax)
    28f3:	03 19                	add    (%ecx),%ebx
    28f5:	0b 3f                	or     (%edi),%edi
    28f7:	00 00                	add    %al,(%eax)
    28f9:	00 06                	add    %al,(%esi)
    28fb:	00 02                	add    %al,(%edx)
    28fd:	1d 0c 00 00 03       	sbb    $0x300000c,%eax
    2902:	1b 21                	sbb    (%ecx),%esp
    2904:	a7                   	cmpsl  %es:(%edi),%ds:(%esi)
    2905:	00 00                	add    %al,(%eax)
    2907:	00 05 69 06 00 00    	add    %al,0x669
    290d:	40                   	inc    %eax
    290e:	03 1d 10 dd 01 00    	add    0x1dd10,%ebx
    2914:	00 07                	add    %al,(%edi)
    2916:	64 73 00             	fs jae 2919 <FLAGS+0x2918>
    2919:	03 1e                	add    (%esi),%ebx
    291b:	0b 59 00             	or     0x0(%ecx),%ebx
    291e:	00 00                	add    %al,(%eax)
    2920:	00 07                	add    %al,(%edi)
    2922:	65 64 69 00 03 1f 0b 	gs imul $0x590b1f03,%fs:(%eax),%eax
    2929:	59 
    292a:	00 00                	add    %al,(%eax)
    292c:	00 04 07             	add    %al,(%edi,%eax,1)
    292f:	65 73 69             	gs jae 299b <FLAGS+0x299a>
    2932:	00 03                	add    %al,(%ebx)
    2934:	1f                   	pop    %ds
    2935:	0f 59 00             	mulps  (%eax),%xmm0
    2938:	00 00                	add    %al,(%eax)
    293a:	08 07                	or     %al,(%edi)
    293c:	65 62 70 00          	bound  %esi,%gs:0x0(%eax)
    2940:	03 1f                	add    (%edi),%ebx
    2942:	13 59 00             	adc    0x0(%ecx),%ebx
    2945:	00 00                	add    %al,(%eax)
    2947:	0c 07                	or     $0x7,%al
    2949:	65 73 70             	gs jae 29bc <FLAGS+0x29bb>
    294c:	00 03                	add    %al,(%ebx)
    294e:	1f                   	pop    %ds
    294f:	17                   	pop    %ss
    2950:	59                   	pop    %ecx
    2951:	00 00                	add    %al,(%eax)
    2953:	00 10                	add    %dl,(%eax)
    2955:	07                   	pop    %es
    2956:	65 62 78 00          	bound  %edi,%gs:0x0(%eax)
    295a:	03 1f                	add    (%edi),%ebx
    295c:	1b 59 00             	sbb    0x0(%ecx),%ebx
    295f:	00 00                	add    %al,(%eax)
    2961:	14 07                	adc    $0x7,%al
    2963:	65 64 78 00          	gs fs js 2967 <FLAGS+0x2966>
    2967:	03 1f                	add    (%edi),%ebx
    2969:	1f                   	pop    %ds
    296a:	59                   	pop    %ecx
    296b:	00 00                	add    %al,(%eax)
    296d:	00 18                	add    %bl,(%eax)
    296f:	07                   	pop    %es
    2970:	65 63 78 00          	arpl   %di,%gs:0x0(%eax)
    2974:	03 1f                	add    (%edi),%ebx
    2976:	23 59 00             	and    0x0(%ecx),%ebx
    2979:	00 00                	add    %al,(%eax)
    297b:	1c 07                	sbb    $0x7,%al
    297d:	65 61                	gs popa 
    297f:	78 00                	js     2981 <FLAGS+0x2980>
    2981:	03 1f                	add    (%edi),%ebx
    2983:	27                   	daa    
    2984:	59                   	pop    %ecx
    2985:	00 00                	add    %al,(%eax)
    2987:	00 20                	add    %ah,(%eax)
    2989:	06                   	push   %es
    298a:	31 06                	xor    %eax,(%esi)
    298c:	00 00                	add    %al,(%eax)
    298e:	03 20                	add    (%eax),%esp
    2990:	0b 59 00             	or     0x0(%ecx),%ebx
    2993:	00 00                	add    %al,(%eax)
    2995:	24 06                	and    $0x6,%al
    2997:	55                   	push   %ebp
    2998:	06                   	push   %es
    2999:	00 00                	add    %al,(%eax)
    299b:	03 20                	add    (%eax),%esp
    299d:	12 59 00             	adc    0x0(%ecx),%bl
    29a0:	00 00                	add    %al,(%eax)
    29a2:	28 07                	sub    %al,(%edi)
    29a4:	65 69 70 00 03 21 0b 	imul   $0x590b2103,%gs:0x0(%eax),%esi
    29ab:	59 
    29ac:	00 00                	add    %al,(%eax)
    29ae:	00 2c 07             	add    %ch,(%edi,%eax,1)
    29b1:	63 73 00             	arpl   %si,0x0(%ebx)
    29b4:	03 21                	add    (%ecx),%esp
    29b6:	0f 59 00             	mulps  (%eax),%xmm0
    29b9:	00 00                	add    %al,(%eax)
    29bb:	30 06                	xor    %al,(%esi)
    29bd:	7f 05                	jg     29c4 <FLAGS+0x29c3>
    29bf:	00 00                	add    %al,(%eax)
    29c1:	03 21                	add    (%ecx),%esp
    29c3:	12 59 00             	adc    0x0(%ecx),%bl
    29c6:	00 00                	add    %al,(%eax)
    29c8:	34 06                	xor    $0x6,%al
    29ca:	ec                   	in     (%dx),%al
    29cb:	05 00 00 03 21       	add    $0x21030000,%eax
    29d0:	19 59 00             	sbb    %ebx,0x0(%ecx)
    29d3:	00 00                	add    %al,(%eax)
    29d5:	38 07                	cmp    %al,(%edi)
    29d7:	73 73                	jae    2a4c <FLAGS+0x2a4b>
    29d9:	00 03                	add    %al,(%ebx)
    29db:	21 21                	and    %esp,(%ecx)
    29dd:	59                   	pop    %ecx
    29de:	00 00                	add    %al,(%eax)
    29e0:	00 3c 00             	add    %bh,(%eax,%eax,1)
    29e3:	02 41 05             	add    0x5(%ecx),%al
    29e6:	00 00                	add    %al,(%eax)
    29e8:	03 22                	add    (%edx),%esp
    29ea:	03 02                	add    (%edx),%eax
    29ec:	01 00                	add    %eax,(%eax)
    29ee:	00 02                	add    %al,(%edx)
    29f0:	09 0c 00             	or     %ecx,(%eax,%eax,1)
    29f3:	00 03                	add    %al,(%ebx)
    29f5:	24 10                	and    $0x10,%al
    29f7:	f5                   	cmc    
    29f8:	01 00                	add    %eax,(%eax)
    29fa:	00 08                	add    %cl,(%eax)
    29fc:	04 fb                	add    $0xfb,%al
    29fe:	01 00                	add    %eax,(%eax)
    2a00:	00 09                	add    %cl,(%ecx)
    2a02:	06                   	push   %es
    2a03:	02 00                	add    (%eax),%al
    2a05:	00 0a                	add    %cl,(%edx)
    2a07:	dd 01                	fldl   (%ecx)
    2a09:	00 00                	add    %al,(%eax)
    2a0b:	00 0b                	add    %cl,(%ebx)
    2a0d:	69 64 74 00 01 08 07 	imul   $0x9b070801,0x0(%esp,%esi,2),%esp
    2a14:	9b 
    2a15:	00 00                	add    %al,(%eax)
    2a17:	00 05 03 60 6d 10    	add    %al,0x106d6003
    2a1d:	00 0c f6             	add    %cl,(%esi,%esi,8)
    2a20:	00 00                	add    %al,(%eax)
    2a22:	00 28                	add    %ch,(%eax)
    2a24:	02 00                	add    (%eax),%al
    2a26:	00 0d 28 02 00 00    	add    %cl,0x228
    2a2c:	ff 00                	incl   (%eax)
    2a2e:	03 04 07             	add    (%edi,%eax,1),%eax
    2a31:	d7                   	xlat   %ds:(%ebx)
    2a32:	06                   	push   %es
    2a33:	00 00                	add    %al,(%eax)
    2a35:	0e                   	push   %cs
    2a36:	ac                   	lods   %ds:(%esi),%al
    2a37:	0c 00                	or     $0x0,%al
    2a39:	00 01                	add    %al,(%ecx)
    2a3b:	09 0d 18 02 00 00    	or     %ecx,0x218
    2a41:	05 03 60 65 10       	add    $0x10656003,%eax
    2a46:	00 0c e9             	add    %cl,(%ecx,%ebp,8)
    2a49:	01 00                	add    %eax,(%eax)
    2a4b:	00 51 02             	add    %dl,0x2(%ecx)
    2a4e:	00 00                	add    %al,(%eax)
    2a50:	0d 28 02 00 00       	or     $0x228,%eax
    2a55:	ff 00                	incl   (%eax)
    2a57:	0e                   	push   %cs
    2a58:	50                   	push   %eax
    2a59:	0c 00                	or     $0x0,%al
    2a5b:	00 01                	add    %al,(%ecx)
    2a5d:	0a 15 41 02 00 00    	or     0x241,%dl
    2a63:	05 03 60 61 10       	add    $0x10616003,%eax
    2a68:	00 0f                	add    %cl,(%edi)
    2a6a:	29 0c 00             	sub    %ecx,(%eax,%eax,1)
    2a6d:	00 01                	add    %al,(%ecx)
    2a6f:	9a 06 70 29 10 00 13 	lcall  $0x1300,$0x10297006
    2a76:	00 00                	add    %al,(%eax)
    2a78:	00 01                	add    %al,(%ecx)
    2a7a:	9c                   	pushf  
    2a7b:	98                   	cwtl   
    2a7c:	02 00                	add    (%eax),%al
    2a7e:	00 10                	add    %dl,(%eax)
    2a80:	31 06                	xor    %eax,(%esi)
    2a82:	00 00                	add    %al,(%eax)
    2a84:	01 9a 27 59 00 00    	add    %ebx,0x5927(%edx)
    2a8a:	00 02                	add    %al,(%edx)
    2a8c:	91                   	xchg   %eax,%ecx
    2a8d:	00 10                	add    %dl,(%eax)
    2a8f:	48                   	dec    %eax
    2a90:	0c 00                	or     $0x0,%al
    2a92:	00 01                	add    %al,(%ecx)
    2a94:	9a 43 e9 01 00 00 02 	lcall  $0x200,$0x1e943
    2a9b:	91                   	xchg   %eax,%ecx
    2a9c:	04 00                	add    $0x0,%al
    2a9e:	11 44 0c 00          	adc    %eax,0x0(%esp,%ecx,1)
    2aa2:	00 01                	add    %al,(%ecx)
    2aa4:	8d 06                	lea    (%esi),%eax
    2aa6:	d4 28                	aam    $0x28
    2aa8:	10 00                	adc    %al,(%eax)
    2aaa:	9c                   	pushf  
    2aab:	00 00                	add    %al,(%eax)
    2aad:	00 01                	add    %al,(%ecx)
    2aaf:	9c                   	pushf  
    2ab0:	d7                   	xlat   %ds:(%ebx)
    2ab1:	02 00                	add    (%eax),%al
    2ab3:	00 10                	add    %dl,(%eax)
    2ab5:	92                   	xchg   %eax,%edx
    2ab6:	06                   	push   %es
    2ab7:	00 00                	add    %al,(%eax)
    2ab9:	01 8d 1e dd 01 00    	add    %ecx,0x1dd1e(%ebp)
    2abf:	00 02                	add    %al,(%edx)
    2ac1:	91                   	xchg   %eax,%ecx
    2ac2:	00 12                	add    %dl,(%edx)
    2ac4:	f7 28                	imull  (%eax)
    2ac6:	10 00                	adc    %al,(%eax)
    2ac8:	45                   	inc    %ebp
    2ac9:	00 00                	add    %al,(%eax)
    2acb:	00 13                	add    %dl,(%ebx)
    2acd:	48                   	dec    %eax
    2ace:	0c 00                	or     $0x0,%al
    2ad0:	00 01                	add    %al,(%ecx)
    2ad2:	90                   	nop
    2ad3:	16                   	push   %ss
    2ad4:	e9 01 00 00 02       	jmp    2002ada <kernel_end+0x1efbd74>
    2ad9:	91                   	xchg   %eax,%ecx
    2ada:	6c                   	insb   (%dx),%es:(%edi)
    2adb:	00 00                	add    %al,(%eax)
    2add:	11 f0                	adc    %esi,%eax
    2adf:	0b 00                	or     (%eax),%eax
    2ae1:	00 01                	add    %al,(%ecx)
    2ae3:	82 06 47             	addb   $0x47,(%esi)
    2ae6:	28 10                	sub    %dl,(%eax)
    2ae8:	00 8d 00 00 00 01    	add    %cl,0x1000000(%ebp)
    2aee:	9c                   	pushf  
    2aef:	16                   	push   %ss
    2af0:	03 00                	add    (%eax),%eax
    2af2:	00 10                	add    %dl,(%eax)
    2af4:	92                   	xchg   %eax,%edx
    2af5:	06                   	push   %es
    2af6:	00 00                	add    %al,(%eax)
    2af8:	01 82 1e dd 01 00    	add    %eax,0x1dd1e(%edx)
    2afe:	00 02                	add    %al,(%edx)
    2b00:	91                   	xchg   %eax,%ecx
    2b01:	00 12                	add    %dl,(%edx)
    2b03:	5b                   	pop    %ebx
    2b04:	28 10                	sub    %dl,(%eax)
    2b06:	00 45 00             	add    %al,0x0(%ebp)
    2b09:	00 00                	add    %al,(%eax)
    2b0b:	13 48 0c             	adc    0xc(%eax),%ecx
    2b0e:	00 00                	add    %al,(%eax)
    2b10:	01 84 16 e9 01 00 00 	add    %eax,0x1e9(%esi,%edx,1)
    2b17:	02 91 6c 00 00 14    	add    0x1400006c(%ecx),%dl
    2b1d:	d0 0c 00             	rorb   (%eax,%eax,1)
    2b20:	00 01                	add    %al,(%ecx)
    2b22:	48                   	dec    %eax
    2b23:	06                   	push   %es
    2b24:	dc 23                	fsubl  (%ebx)
    2b26:	10 00                	adc    %al,(%eax)
    2b28:	6b 04 00 00          	imul   $0x0,(%eax,%eax,1),%eax
    2b2c:	01 9c 15 fc 0b 00 00 	add    %ebx,0xbfc(%ebp,%edx,1)
    2b33:	01 40 0d             	add    %eax,0xd(%eax)
    2b36:	79 23                	jns    2b5b <FLAGS+0x2b5a>
    2b38:	10 00                	adc    %al,(%eax)
    2b3a:	63 00                	arpl   %ax,(%eax)
    2b3c:	00 00                	add    %al,(%eax)
    2b3e:	01 9c 79 03 00 00 16 	add    %ebx,0x16000003(%ecx,%edi,2)
    2b45:	6e                   	outsb  %ds:(%esi),(%dx)
    2b46:	00 01                	add    %al,(%ecx)
    2b48:	40                   	inc    %eax
    2b49:	20 59 00             	and    %bl,0x0(%ecx)
    2b4c:	00 00                	add    %al,(%eax)
    2b4e:	02 91 00 10 0c 0b    	add    0xb0c1000(%ecx),%dl
    2b54:	00 00                	add    %al,(%eax)
    2b56:	01 40 28             	add    %eax,0x28(%eax)
    2b59:	59                   	pop    %ecx
    2b5a:	00 00                	add    %al,(%eax)
    2b5c:	00 02                	add    %al,(%edx)
    2b5e:	91                   	xchg   %eax,%ecx
    2b5f:	04 10                	add    $0x10,%al
    2b61:	6a 0c                	push   $0xc
    2b63:	00 00                	add    %al,(%eax)
    2b65:	01 40 34             	add    %eax,0x34(%eax)
    2b68:	3f                   	aas    
    2b69:	00 00                	add    %al,(%eax)
    2b6b:	00 02                	add    %al,(%edx)
    2b6d:	91                   	xchg   %eax,%ecx
    2b6e:	74 10                	je     2b80 <FLAGS+0x2b7f>
    2b70:	80 05 00 00 01 40 41 	addb   $0x41,0x40010000
    2b77:	25 00 00 00 02       	and    $0x2000000,%eax
    2b7c:	91                   	xchg   %eax,%ecx
    2b7d:	70 00                	jo     2b7f <FLAGS+0x2b7e>
    2b7f:	17                   	pop    %ss
    2b80:	72 0c                	jb     2b8e <FLAGS+0x2b8d>
    2b82:	00 00                	add    %al,(%eax)
    2b84:	01 35 0d 39 23 10    	add    %esi,0x1023390d
    2b8a:	00 40 00             	add    %al,0x0(%eax)
    2b8d:	00 00                	add    %al,(%eax)
    2b8f:	01 9c 9f 03 00 00 10 	add    %ebx,0x10000003(%edi,%ebx,4)
    2b96:	31 06                	xor    %eax,(%esi)
    2b98:	00 00                	add    %al,(%eax)
    2b9a:	01 35 23 59 00 00    	add    %esi,0x5923
    2ba0:	00 02                	add    %al,(%edx)
    2ba2:	91                   	xchg   %eax,%ecx
    2ba3:	00 00                	add    %al,(%eax)
    2ba5:	18 e7                	sbb    %ah,%bh
    2ba7:	0b 00                	or     (%eax),%eax
    2ba9:	00 01                	add    %al,(%ecx)
    2bab:	25 0d 85 22 10       	and    $0x1022850d,%eax
    2bb0:	00 b4 00 00 00 01 9c 	add    %dh,-0x63ff0000(%eax,%eax,1)
    2bb7:	19 d9                	sbb    %ebx,%ecx
    2bb9:	0c 00                	or     $0x0,%al
    2bbb:	00 01                	add    %al,(%ecx)
    2bbd:	13 0d 1d 22 10 00    	adc    0x10221d,%ecx
    2bc3:	68 00 00 00 01       	push   $0x1000000
    2bc8:	9c                   	pushf  
    2bc9:	e6 03                	out    %al,$0x3
    2bcb:	00 00                	add    %al,(%eax)
    2bcd:	1a 65 61             	sbb    0x61(%ebp),%ah
    2bd0:	78 00                	js     2bd2 <FLAGS+0x2bd1>
    2bd2:	01 14 0b             	add    %edx,(%ebx,%ecx,1)
    2bd5:	59                   	pop    %ecx
    2bd6:	00 00                	add    %al,(%eax)
    2bd8:	00 02                	add    %al,(%edx)
    2bda:	91                   	xchg   %eax,%ecx
    2bdb:	6c                   	insb   (%dx),%es:(%edi)
    2bdc:	1a 65 64             	sbb    0x64(%ebp),%ah
    2bdf:	78 00                	js     2be1 <FLAGS+0x2be0>
    2be1:	01 15 0b 59 00 00    	add    %edx,0x590b
    2be7:	00 02                	add    %al,(%edx)
    2be9:	91                   	xchg   %eax,%ecx
    2bea:	68 00 15 8a 0c       	push   $0xc8a1500
    2bef:	00 00                	add    %al,(%eax)
    2bf1:	01 0f                	add    %ecx,(%edi)
    2bf3:	0d 02 22 10 00       	or     $0x102202,%eax
    2bf8:	1b 00                	sbb    (%eax),%eax
    2bfa:	00 00                	add    %al,(%eax)
    2bfc:	01 9c 26 04 00 00 10 	add    %ebx,0x10000004(%esi,%eiz,1)
    2c03:	59                   	pop    %ecx
    2c04:	06                   	push   %es
    2c05:	00 00                	add    %al,(%eax)
    2c07:	01 0f                	add    %ecx,(%edi)
    2c09:	17                   	pop    %ss
    2c0a:	6c                   	insb   (%dx),%es:(%edi)
    2c0b:	00 00                	add    %al,(%eax)
    2c0d:	00 02                	add    %al,(%edx)
    2c0f:	91                   	xchg   %eax,%ecx
    2c10:	00 16                	add    %dl,(%esi)
    2c12:	61                   	popa   
    2c13:	00 01                	add    %al,(%ecx)
    2c15:	0f 24                	(bad)  
    2c17:	26 04 00             	es add $0x0,%al
    2c1a:	00 02                	add    %al,(%edx)
    2c1c:	91                   	xchg   %eax,%ecx
    2c1d:	04 16                	add    $0x16,%al
    2c1f:	64 00 01             	add    %al,%fs:(%ecx)
    2c22:	0f 2e 26             	ucomiss (%esi),%xmm4
    2c25:	04 00                	add    $0x0,%al
    2c27:	00 02                	add    %al,(%edx)
    2c29:	91                   	xchg   %eax,%ecx
    2c2a:	08 00                	or     %al,(%eax)
    2c2c:	08 04 59             	or     %al,(%ecx,%ebx,2)
    2c2f:	00 00                	add    %al,(%eax)
    2c31:	00 00                	add    %al,(%eax)
    2c33:	42                   	inc    %edx
    2c34:	02 00                	add    (%eax),%al
    2c36:	00 04 00             	add    %al,(%eax,%eax,1)
    2c39:	f3 0d 00 00 04 01    	repz or $0x1040000,%eax
    2c3f:	2f                   	das    
    2c40:	00 00                	add    %al,(%eax)
    2c42:	00 0c 6a             	add    %cl,(%edx,%ebp,2)
    2c45:	0d 00 00 2d 02       	or     $0x22d0000,%eax
    2c4a:	00 00                	add    %al,(%eax)
    2c4c:	83 29 10             	subl   $0x10,(%ecx)
    2c4f:	00 45 01             	add    %al,0x1(%ebp)
    2c52:	00 00                	add    %al,(%eax)
    2c54:	c7                   	(bad)  
    2c55:	12 00                	adc    (%eax),%al
    2c57:	00 02                	add    %al,(%edx)
    2c59:	5b                   	pop    %ebx
    2c5a:	02 00                	add    (%eax),%al
    2c5c:	00 02                	add    %al,(%edx)
    2c5e:	04 17                	add    $0x17,%al
    2c60:	31 00                	xor    %eax,(%eax)
    2c62:	00 00                	add    %al,(%eax)
    2c64:	03 01                	add    (%ecx),%eax
    2c66:	08 61 01             	or     %ah,0x1(%ecx)
    2c69:	00 00                	add    %al,(%eax)
    2c6b:	03 01                	add    (%ecx),%eax
    2c6d:	06                   	push   %es
    2c6e:	6a 01                	push   $0x1
    2c70:	00 00                	add    %al,(%eax)
    2c72:	03 02                	add    (%edx),%eax
    2c74:	07                   	pop    %es
    2c75:	be 01 00 00 03       	mov    $0x3000001,%esi
    2c7a:	02 05 70 00 00 00    	add    0x70,%al
    2c80:	02 60 02             	add    0x2(%eax),%ah
    2c83:	00 00                	add    %al,(%eax)
    2c85:	02 08                	add    (%eax),%cl
    2c87:	16                   	push   %ss
    2c88:	59                   	pop    %ecx
    2c89:	00 00                	add    %al,(%eax)
    2c8b:	00 03                	add    %al,(%ebx)
    2c8d:	04 07                	add    $0x7,%al
    2c8f:	dc 06                	faddl  (%esi)
    2c91:	00 00                	add    %al,(%eax)
    2c93:	04 04                	add    $0x4,%al
    2c95:	05 69 6e 74 00       	add    $0x746e69,%eax
    2c9a:	05 69 06 00 00       	add    $0x669,%eax
    2c9f:	40                   	inc    %eax
    2ca0:	03 1d 10 42 01 00    	add    0x14210,%ebx
    2ca6:	00 06                	add    %al,(%esi)
    2ca8:	64 73 00             	fs jae 2cab <FLAGS+0x2caa>
    2cab:	03 1e                	add    (%esi),%ebx
    2cad:	0b 4d 00             	or     0x0(%ebp),%ecx
    2cb0:	00 00                	add    %al,(%eax)
    2cb2:	00 06                	add    %al,(%esi)
    2cb4:	65 64 69 00 03 1f 0b 	gs imul $0x4d0b1f03,%fs:(%eax),%eax
    2cbb:	4d 
    2cbc:	00 00                	add    %al,(%eax)
    2cbe:	00 04 06             	add    %al,(%esi,%eax,1)
    2cc1:	65 73 69             	gs jae 2d2d <FLAGS+0x2d2c>
    2cc4:	00 03                	add    %al,(%ebx)
    2cc6:	1f                   	pop    %ds
    2cc7:	0f 4d 00             	cmovge (%eax),%eax
    2cca:	00 00                	add    %al,(%eax)
    2ccc:	08 06                	or     %al,(%esi)
    2cce:	65 62 70 00          	bound  %esi,%gs:0x0(%eax)
    2cd2:	03 1f                	add    (%edi),%ebx
    2cd4:	13 4d 00             	adc    0x0(%ebp),%ecx
    2cd7:	00 00                	add    %al,(%eax)
    2cd9:	0c 06                	or     $0x6,%al
    2cdb:	65 73 70             	gs jae 2d4e <FLAGS+0x2d4d>
    2cde:	00 03                	add    %al,(%ebx)
    2ce0:	1f                   	pop    %ds
    2ce1:	17                   	pop    %ss
    2ce2:	4d                   	dec    %ebp
    2ce3:	00 00                	add    %al,(%eax)
    2ce5:	00 10                	add    %dl,(%eax)
    2ce7:	06                   	push   %es
    2ce8:	65 62 78 00          	bound  %edi,%gs:0x0(%eax)
    2cec:	03 1f                	add    (%edi),%ebx
    2cee:	1b 4d 00             	sbb    0x0(%ebp),%ecx
    2cf1:	00 00                	add    %al,(%eax)
    2cf3:	14 06                	adc    $0x6,%al
    2cf5:	65 64 78 00          	gs fs js 2cf9 <FLAGS+0x2cf8>
    2cf9:	03 1f                	add    (%edi),%ebx
    2cfb:	1f                   	pop    %ds
    2cfc:	4d                   	dec    %ebp
    2cfd:	00 00                	add    %al,(%eax)
    2cff:	00 18                	add    %bl,(%eax)
    2d01:	06                   	push   %es
    2d02:	65 63 78 00          	arpl   %di,%gs:0x0(%eax)
    2d06:	03 1f                	add    (%edi),%ebx
    2d08:	23 4d 00             	and    0x0(%ebp),%ecx
    2d0b:	00 00                	add    %al,(%eax)
    2d0d:	1c 06                	sbb    $0x6,%al
    2d0f:	65 61                	gs popa 
    2d11:	78 00                	js     2d13 <FLAGS+0x2d12>
    2d13:	03 1f                	add    (%edi),%ebx
    2d15:	27                   	daa    
    2d16:	4d                   	dec    %ebp
    2d17:	00 00                	add    %al,(%eax)
    2d19:	00 20                	add    %ah,(%eax)
    2d1b:	07                   	pop    %es
    2d1c:	31 06                	xor    %eax,(%esi)
    2d1e:	00 00                	add    %al,(%eax)
    2d20:	03 20                	add    (%eax),%esp
    2d22:	0b 4d 00             	or     0x0(%ebp),%ecx
    2d25:	00 00                	add    %al,(%eax)
    2d27:	24 07                	and    $0x7,%al
    2d29:	55                   	push   %ebp
    2d2a:	06                   	push   %es
    2d2b:	00 00                	add    %al,(%eax)
    2d2d:	03 20                	add    (%eax),%esp
    2d2f:	12 4d 00             	adc    0x0(%ebp),%cl
    2d32:	00 00                	add    %al,(%eax)
    2d34:	28 06                	sub    %al,(%esi)
    2d36:	65 69 70 00 03 21 0b 	imul   $0x4d0b2103,%gs:0x0(%eax),%esi
    2d3d:	4d 
    2d3e:	00 00                	add    %al,(%eax)
    2d40:	00 2c 06             	add    %ch,(%esi,%eax,1)
    2d43:	63 73 00             	arpl   %si,0x0(%ebx)
    2d46:	03 21                	add    (%ecx),%esp
    2d48:	0f 4d 00             	cmovge (%eax),%eax
    2d4b:	00 00                	add    %al,(%eax)
    2d4d:	30 07                	xor    %al,(%edi)
    2d4f:	7f 05                	jg     2d56 <FLAGS+0x2d55>
    2d51:	00 00                	add    %al,(%eax)
    2d53:	03 21                	add    (%ecx),%esp
    2d55:	12 4d 00             	adc    0x0(%ebp),%cl
    2d58:	00 00                	add    %al,(%eax)
    2d5a:	34 07                	xor    $0x7,%al
    2d5c:	ec                   	in     (%dx),%al
    2d5d:	05 00 00 03 21       	add    $0x21030000,%eax
    2d62:	19 4d 00             	sbb    %ecx,0x0(%ebp)
    2d65:	00 00                	add    %al,(%eax)
    2d67:	38 06                	cmp    %al,(%esi)
    2d69:	73 73                	jae    2dde <FLAGS+0x2ddd>
    2d6b:	00 03                	add    %al,(%ebx)
    2d6d:	21 21                	and    %esp,(%ecx)
    2d6f:	4d                   	dec    %ebp
    2d70:	00 00                	add    %al,(%eax)
    2d72:	00 3c 00             	add    %bh,(%eax,%eax,1)
    2d75:	02 41 05             	add    0x5(%ecx),%al
    2d78:	00 00                	add    %al,(%eax)
    2d7a:	03 22                	add    (%edx),%esp
    2d7c:	03 67 00             	add    0x0(%edi),%esp
    2d7f:	00 00                	add    %al,(%eax)
    2d81:	08 5b 0d             	or     %bl,0xd(%ebx)
    2d84:	00 00                	add    %al,(%eax)
    2d86:	01 48 0d             	add    %ecx,0xd(%eax)
    2d89:	93                   	xchg   %eax,%ebx
    2d8a:	2a 10                	sub    (%eax),%dl
    2d8c:	00 35 00 00 00 01    	add    %dh,0x1000000
    2d92:	9c                   	pushf  
    2d93:	74 01                	je     2d96 <FLAGS+0x2d95>
    2d95:	00 00                	add    %al,(%eax)
    2d97:	09 63 61             	or     %esp,0x61(%ebx)
    2d9a:	70 00                	jo     2d9c <FLAGS+0x2d9b>
    2d9c:	01 48 21             	add    %ecx,0x21(%eax)
    2d9f:	25 00 00 00 02       	and    $0x2000000,%eax
    2da4:	91                   	xchg   %eax,%ecx
    2da5:	6c                   	insb   (%dx),%es:(%edi)
    2da6:	00 0a                	add    %cl,(%edx)
    2da8:	4b                   	dec    %ebx
    2da9:	0d 00 00 01 44       	or     $0x44010000,%eax
    2dae:	0d 25 00 00 00       	or     $0x25,%eax
    2db3:	7e 2a                	jle    2ddf <FLAGS+0x2dde>
    2db5:	10 00                	adc    %al,(%eax)
    2db7:	15 00 00 00 01       	adc    $0x1000000,%eax
    2dbc:	9c                   	pushf  
    2dbd:	08 f2                	or     %dh,%dl
    2dbf:	0c 00                	or     $0x0,%al
    2dc1:	00 01                	add    %al,(%ecx)
    2dc3:	3b 0d 6b 2a 10 00    	cmp    0x102a6b,%ecx
    2dc9:	13 00                	adc    (%eax),%eax
    2dcb:	00 00                	add    %al,(%eax)
    2dcd:	01 9c b0 01 00 00 09 	add    %ebx,0x9000001(%eax,%esi,4)
    2dd4:	63 6d 64             	arpl   %bp,0x64(%ebp)
    2dd7:	00 01                	add    %al,(%ecx)
    2dd9:	3b 22                	cmp    (%edx),%esp
    2ddb:	25 00 00 00 02       	and    $0x2000000,%eax
    2de0:	91                   	xchg   %eax,%ecx
    2de1:	6c                   	insb   (%dx),%es:(%edi)
    2de2:	00 08                	add    %cl,(%eax)
    2de4:	2c 0d                	sub    $0xd,%al
    2de6:	00 00                	add    %al,(%eax)
    2de8:	01 33                	add    %esi,(%ebx)
    2dea:	0d 58 2a 10 00       	or     $0x102a58,%eax
    2def:	13 00                	adc    (%eax),%eax
    2df1:	00 00                	add    %al,(%eax)
    2df3:	01 9c d6 01 00 00 09 	add    %ebx,0x9000001(%esi,%edx,8)
    2dfa:	63 6d 64             	arpl   %bp,0x64(%ebp)
    2dfd:	00 01                	add    %al,(%ecx)
    2dff:	33 23                	xor    (%ebx),%esp
    2e01:	25 00 00 00 02       	and    $0x2000000,%eax
    2e06:	91                   	xchg   %eax,%ecx
    2e07:	6c                   	insb   (%dx),%es:(%edi)
    2e08:	00 0a                	add    %cl,(%edx)
    2e0a:	18 0d 00 00 01 2f    	sbb    %cl,0x2f010000
    2e10:	0d 25 00 00 00       	or     $0x25,%eax
    2e15:	43                   	inc    %ebx
    2e16:	2a 10                	sub    (%eax),%dl
    2e18:	00 15 00 00 00 01    	add    %dl,0x1000000
    2e1e:	9c                   	pushf  
    2e1f:	0b 02                	or     (%edx),%eax
    2e21:	0d 00 00 01 2c       	or     $0x2c010000,%eax
    2e26:	0d 3d 2a 10 00       	or     $0x102a3d,%eax
    2e2b:	06                   	push   %es
    2e2c:	00 00                	add    %al,(%eax)
    2e2e:	00 01                	add    %al,(%ecx)
    2e30:	9c                   	pushf  
    2e31:	08 0c 0d 00 00 01 1d 	or     %cl,0x1d010000(,%ecx,1)
    2e38:	0d 9e 29 10 00       	or     $0x10299e,%eax
    2e3d:	9f                   	lahf   
    2e3e:	00 00                	add    %al,(%eax)
    2e40:	00 01                	add    %al,(%ecx)
    2e42:	9c                   	pushf  
    2e43:	33 02                	xor    (%edx),%eax
    2e45:	00 00                	add    %al,(%eax)
    2e47:	0c 92                	or     $0x92,%al
    2e49:	06                   	push   %es
    2e4a:	00 00                	add    %al,(%eax)
    2e4c:	01 1d 25 42 01 00    	add    %ebx,0x14225
    2e52:	00 02                	add    %al,(%edx)
    2e54:	91                   	xchg   %eax,%ecx
    2e55:	00 0d 59 06 00 00    	add    %cl,0x659
    2e5b:	01 21                	add    %esp,(%ecx)
    2e5d:	09 60 00             	or     %esp,0x0(%eax)
    2e60:	00 00                	add    %al,(%eax)
    2e62:	02 91 6c 00 0e 3d    	add    0x3d0e006c(%ecx),%dl
    2e68:	0d 00 00 01 17       	or     $0x17010000,%eax
    2e6d:	06                   	push   %es
    2e6e:	83 29 10             	subl   $0x10,(%ecx)
    2e71:	00 1b                	add    %bl,(%ebx)
    2e73:	00 00                	add    %al,(%eax)
    2e75:	00 01                	add    %al,(%ecx)
    2e77:	9c                   	pushf  
    2e78:	00 d5                	add    %dl,%ch
    2e7a:	01 00                	add    %eax,(%eax)
    2e7c:	00 04 00             	add    %al,(%eax,%eax,1)
    2e7f:	f2 0e                	repnz push %cs
    2e81:	00 00                	add    %al,(%eax)
    2e83:	04 01                	add    $0x1,%al
    2e85:	2f                   	das    
    2e86:	00 00                	add    %al,(%eax)
    2e88:	00 0c b2             	add    %cl,(%edx,%esi,4)
    2e8b:	0d 00 00 2d 02       	or     $0x22d0000,%eax
    2e90:	00 00                	add    %al,(%eax)
    2e92:	c8 2a 10 00          	enter  $0x102a,$0x0
    2e96:	88 00                	mov    %al,(%eax)
    2e98:	00 00                	add    %al,(%eax)
    2e9a:	a5                   	movsl  %ds:(%esi),%es:(%edi)
    2e9b:	13 00                	adc    (%eax),%eax
    2e9d:	00 02                	add    %al,(%edx)
    2e9f:	5b                   	pop    %ebx
    2ea0:	02 00                	add    (%eax),%al
    2ea2:	00 02                	add    %al,(%edx)
    2ea4:	04 17                	add    $0x17,%al
    2ea6:	31 00                	xor    %eax,(%eax)
    2ea8:	00 00                	add    %al,(%eax)
    2eaa:	03 01                	add    (%ecx),%eax
    2eac:	08 61 01             	or     %ah,0x1(%ecx)
    2eaf:	00 00                	add    %al,(%eax)
    2eb1:	03 01                	add    (%ecx),%eax
    2eb3:	06                   	push   %es
    2eb4:	6a 01                	push   $0x1
    2eb6:	00 00                	add    %al,(%eax)
    2eb8:	03 02                	add    (%edx),%eax
    2eba:	07                   	pop    %es
    2ebb:	be 01 00 00 03       	mov    $0x3000001,%esi
    2ec0:	02 05 70 00 00 00    	add    0x70,%al
    2ec6:	02 60 02             	add    0x2(%eax),%ah
    2ec9:	00 00                	add    %al,(%eax)
    2ecb:	02 08                	add    (%eax),%cl
    2ecd:	16                   	push   %ss
    2ece:	59                   	pop    %ecx
    2ecf:	00 00                	add    %al,(%eax)
    2ed1:	00 03                	add    %al,(%ebx)
    2ed3:	04 07                	add    $0x7,%al
    2ed5:	dc 06                	faddl  (%esi)
    2ed7:	00 00                	add    %al,(%eax)
    2ed9:	04 04                	add    $0x4,%al
    2edb:	05 69 6e 74 00       	add    $0x746e69,%eax
    2ee0:	05 69 06 00 00       	add    $0x669,%eax
    2ee5:	40                   	inc    %eax
    2ee6:	03 1d 10 42 01 00    	add    0x14210,%ebx
    2eec:	00 06                	add    %al,(%esi)
    2eee:	64 73 00             	fs jae 2ef1 <FLAGS+0x2ef0>
    2ef1:	03 1e                	add    (%esi),%ebx
    2ef3:	0b 4d 00             	or     0x0(%ebp),%ecx
    2ef6:	00 00                	add    %al,(%eax)
    2ef8:	00 06                	add    %al,(%esi)
    2efa:	65 64 69 00 03 1f 0b 	gs imul $0x4d0b1f03,%fs:(%eax),%eax
    2f01:	4d 
    2f02:	00 00                	add    %al,(%eax)
    2f04:	00 04 06             	add    %al,(%esi,%eax,1)
    2f07:	65 73 69             	gs jae 2f73 <FLAGS+0x2f72>
    2f0a:	00 03                	add    %al,(%ebx)
    2f0c:	1f                   	pop    %ds
    2f0d:	0f 4d 00             	cmovge (%eax),%eax
    2f10:	00 00                	add    %al,(%eax)
    2f12:	08 06                	or     %al,(%esi)
    2f14:	65 62 70 00          	bound  %esi,%gs:0x0(%eax)
    2f18:	03 1f                	add    (%edi),%ebx
    2f1a:	13 4d 00             	adc    0x0(%ebp),%ecx
    2f1d:	00 00                	add    %al,(%eax)
    2f1f:	0c 06                	or     $0x6,%al
    2f21:	65 73 70             	gs jae 2f94 <FLAGS+0x2f93>
    2f24:	00 03                	add    %al,(%ebx)
    2f26:	1f                   	pop    %ds
    2f27:	17                   	pop    %ss
    2f28:	4d                   	dec    %ebp
    2f29:	00 00                	add    %al,(%eax)
    2f2b:	00 10                	add    %dl,(%eax)
    2f2d:	06                   	push   %es
    2f2e:	65 62 78 00          	bound  %edi,%gs:0x0(%eax)
    2f32:	03 1f                	add    (%edi),%ebx
    2f34:	1b 4d 00             	sbb    0x0(%ebp),%ecx
    2f37:	00 00                	add    %al,(%eax)
    2f39:	14 06                	adc    $0x6,%al
    2f3b:	65 64 78 00          	gs fs js 2f3f <FLAGS+0x2f3e>
    2f3f:	03 1f                	add    (%edi),%ebx
    2f41:	1f                   	pop    %ds
    2f42:	4d                   	dec    %ebp
    2f43:	00 00                	add    %al,(%eax)
    2f45:	00 18                	add    %bl,(%eax)
    2f47:	06                   	push   %es
    2f48:	65 63 78 00          	arpl   %di,%gs:0x0(%eax)
    2f4c:	03 1f                	add    (%edi),%ebx
    2f4e:	23 4d 00             	and    0x0(%ebp),%ecx
    2f51:	00 00                	add    %al,(%eax)
    2f53:	1c 06                	sbb    $0x6,%al
    2f55:	65 61                	gs popa 
    2f57:	78 00                	js     2f59 <FLAGS+0x2f58>
    2f59:	03 1f                	add    (%edi),%ebx
    2f5b:	27                   	daa    
    2f5c:	4d                   	dec    %ebp
    2f5d:	00 00                	add    %al,(%eax)
    2f5f:	00 20                	add    %ah,(%eax)
    2f61:	07                   	pop    %es
    2f62:	31 06                	xor    %eax,(%esi)
    2f64:	00 00                	add    %al,(%eax)
    2f66:	03 20                	add    (%eax),%esp
    2f68:	0b 4d 00             	or     0x0(%ebp),%ecx
    2f6b:	00 00                	add    %al,(%eax)
    2f6d:	24 07                	and    $0x7,%al
    2f6f:	55                   	push   %ebp
    2f70:	06                   	push   %es
    2f71:	00 00                	add    %al,(%eax)
    2f73:	03 20                	add    (%eax),%esp
    2f75:	12 4d 00             	adc    0x0(%ebp),%cl
    2f78:	00 00                	add    %al,(%eax)
    2f7a:	28 06                	sub    %al,(%esi)
    2f7c:	65 69 70 00 03 21 0b 	imul   $0x4d0b2103,%gs:0x0(%eax),%esi
    2f83:	4d 
    2f84:	00 00                	add    %al,(%eax)
    2f86:	00 2c 06             	add    %ch,(%esi,%eax,1)
    2f89:	63 73 00             	arpl   %si,0x0(%ebx)
    2f8c:	03 21                	add    (%ecx),%esp
    2f8e:	0f 4d 00             	cmovge (%eax),%eax
    2f91:	00 00                	add    %al,(%eax)
    2f93:	30 07                	xor    %al,(%edi)
    2f95:	7f 05                	jg     2f9c <FLAGS+0x2f9b>
    2f97:	00 00                	add    %al,(%eax)
    2f99:	03 21                	add    (%ecx),%esp
    2f9b:	12 4d 00             	adc    0x0(%ebp),%cl
    2f9e:	00 00                	add    %al,(%eax)
    2fa0:	34 07                	xor    $0x7,%al
    2fa2:	ec                   	in     (%dx),%al
    2fa3:	05 00 00 03 21       	add    $0x21030000,%eax
    2fa8:	19 4d 00             	sbb    %ecx,0x0(%ebp)
    2fab:	00 00                	add    %al,(%eax)
    2fad:	38 06                	cmp    %al,(%esi)
    2faf:	73 73                	jae    3024 <FLAGS+0x3023>
    2fb1:	00 03                	add    %al,(%ebx)
    2fb3:	21 21                	and    %esp,(%ecx)
    2fb5:	4d                   	dec    %ebp
    2fb6:	00 00                	add    %al,(%eax)
    2fb8:	00 3c 00             	add    %bh,(%eax,%eax,1)
    2fbb:	02 41 05             	add    0x5(%ecx),%al
    2fbe:	00 00                	add    %al,(%eax)
    2fc0:	03 22                	add    (%edx),%esp
    2fc2:	03 67 00             	add    0x0(%edi),%esp
    2fc5:	00 00                	add    %al,(%eax)
    2fc7:	03 04 07             	add    (%edi,%eax,1),%eax
    2fca:	d7                   	xlat   %ds:(%ebx)
    2fcb:	06                   	push   %es
    2fcc:	00 00                	add    %al,(%eax)
    2fce:	08 a5 0d 00 00 01    	or     %ah,0x100000d(%ebp)
    2fd4:	07                   	pop    %es
    2fd5:	07                   	pop    %es
    2fd6:	4d                   	dec    %ebp
    2fd7:	00 00                	add    %al,(%eax)
    2fd9:	00 05 03 10 60 10    	add    %al,0x10601003
    2fdf:	00 09                	add    %cl,(%ecx)
    2fe1:	9a 0d 00 00 01 14 06 	lcall  $0x614,$0x100000d
    2fe8:	e3 2a                	jecxz  3014 <FLAGS+0x3013>
    2fea:	10 00                	adc    %al,(%eax)
    2fec:	6d                   	insl   (%dx),%es:(%edi)
    2fed:	00 00                	add    %al,(%eax)
    2fef:	00 01                	add    %al,(%ecx)
    2ff1:	9c                   	pushf  
    2ff2:	b6 01                	mov    $0x1,%dh
    2ff4:	00 00                	add    %al,(%eax)
    2ff6:	0a 81 0d 00 00 01    	or     0x100000d(%ecx),%al
    2ffc:	14 17                	adc    $0x17,%al
    2ffe:	4d                   	dec    %ebp
    2fff:	00 00                	add    %al,(%eax)
    3001:	00 02                	add    %al,(%edx)
    3003:	91                   	xchg   %eax,%ecx
    3004:	00 0b                	add    %cl,(%ebx)
    3006:	aa                   	stos   %al,%es:(%edi)
    3007:	0d 00 00 01 16       	or     $0x16010000,%eax
    300c:	0b 4d 00             	or     0x0(%ebp),%ecx
    300f:	00 00                	add    %al,(%eax)
    3011:	02 91 6c 0c 6c 00    	add    0x6c0c6c(%ecx),%dl
    3017:	01 18                	add    %ebx,(%eax)
    3019:	0a 25 00 00 00 02    	or     0x2000000,%ah
    301f:	91                   	xchg   %eax,%ecx
    3020:	6b 0c 68 00          	imul   $0x0,(%eax,%ebp,2),%ecx
    3024:	01 19                	add    %ebx,(%ecx)
    3026:	0a 25 00 00 00 02    	or     0x2000000,%ah
    302c:	91                   	xchg   %eax,%ecx
    302d:	6a 00                	push   $0x0
    302f:	0d 8b 0d 00 00       	or     $0xd8b,%eax
    3034:	01 09                	add    %ecx,(%ecx)
    3036:	0d c8 2a 10 00       	or     $0x102ac8,%eax
    303b:	1b 00                	sbb    (%eax),%eax
    303d:	00 00                	add    %al,(%eax)
    303f:	01 9c 0a 92 06 00 00 	add    %ebx,0x692(%edx,%ecx,1)
    3046:	01 09                	add    %ecx,(%ecx)
    3048:	28 42 01             	sub    %al,0x1(%edx)
    304b:	00 00                	add    %al,(%eax)
    304d:	02 91 00 00 00 83    	add    -0x7d000000(%ecx),%dl
    3053:	02 00                	add    (%eax),%al
    3055:	00 04 00             	add    %al,(%eax,%eax,1)
    3058:	d8 0f                	fmuls  (%edi)
    305a:	00 00                	add    %al,(%eax)
    305c:	04 01                	add    $0x1,%al
    305e:	2f                   	das    
    305f:	00 00                	add    %al,(%eax)
    3061:	00 0c 3a             	add    %cl,(%edx,%edi,1)
    3064:	0e                   	push   %cs
    3065:	00 00                	add    %al,(%eax)
    3067:	2d 02 00 00 50       	sub    $0x50000002,%eax
    306c:	2b 10                	sub    (%eax),%edx
    306e:	00 6a 02             	add    %ch,0x2(%edx)
    3071:	00 00                	add    %al,(%eax)
    3073:	40                   	inc    %eax
    3074:	14 00                	adc    $0x0,%al
    3076:	00 02                	add    %al,(%edx)
    3078:	5b                   	pop    %ebx
    3079:	02 00                	add    (%eax),%al
    307b:	00 02                	add    %al,(%edx)
    307d:	04 17                	add    $0x17,%al
    307f:	31 00                	xor    %eax,(%eax)
    3081:	00 00                	add    %al,(%eax)
    3083:	03 01                	add    (%ecx),%eax
    3085:	08 61 01             	or     %ah,0x1(%ecx)
    3088:	00 00                	add    %al,(%eax)
    308a:	02 31                	add    (%ecx),%dh
    308c:	01 00                	add    %eax,(%eax)
    308e:	00 02                	add    %al,(%edx)
    3090:	05 0e 44 00 00       	add    $0x440e,%eax
    3095:	00 03                	add    %al,(%ebx)
    3097:	01 06                	add    %eax,(%esi)
    3099:	6a 01                	push   $0x1
    309b:	00 00                	add    %al,(%eax)
    309d:	03 02                	add    (%edx),%eax
    309f:	07                   	pop    %es
    30a0:	be 01 00 00 03       	mov    $0x3000001,%esi
    30a5:	02 05 70 00 00 00    	add    0x70,%al
    30ab:	02 60 02             	add    0x2(%eax),%ah
    30ae:	00 00                	add    %al,(%eax)
    30b0:	02 08                	add    (%eax),%cl
    30b2:	16                   	push   %ss
    30b3:	65 00 00             	add    %al,%gs:(%eax)
    30b6:	00 03                	add    %al,(%ebx)
    30b8:	04 07                	add    $0x7,%al
    30ba:	dc 06                	faddl  (%esi)
    30bc:	00 00                	add    %al,(%eax)
    30be:	04 04                	add    $0x4,%al
    30c0:	05 69 6e 74 00       	add    $0x746e69,%eax
    30c5:	02 3e                	add    (%esi),%bh
    30c7:	03 00                	add    (%eax),%eax
    30c9:	00 03                	add    %al,(%ebx)
    30cb:	07                   	pop    %es
    30cc:	0f 7f 00             	movq   %mm0,(%eax)
    30cf:	00 00                	add    %al,(%eax)
    30d1:	05 04 02 8e 02       	add    $0x28e0204,%eax
    30d6:	00 00                	add    %al,(%eax)
    30d8:	03 08                	add    (%eax),%ecx
    30da:	10 8d 00 00 00 06    	adc    %cl,0x6000000(%ebp)
    30e0:	04 93                	add    $0x93,%al
    30e2:	00 00                	add    %al,(%eax)
    30e4:	00 07                	add    %al,(%edi)
    30e6:	38 00                	cmp    %al,(%eax)
    30e8:	00 00                	add    %al,(%eax)
    30ea:	a7                   	cmpsl  %es:(%edi),%ds:(%esi)
    30eb:	00 00                	add    %al,(%eax)
    30ed:	00 08                	add    %cl,(%eax)
    30ef:	73 00                	jae    30f1 <FLAGS+0x30f0>
    30f1:	00 00                	add    %al,(%eax)
    30f3:	08 73 00             	or     %dh,0x0(%ebx)
    30f6:	00 00                	add    %al,(%eax)
    30f8:	00 09                	add    %cl,(%ecx)
    30fa:	10 03                	adc    %al,(%ebx)
    30fc:	0a 09                	or     (%ecx),%cl
    30fe:	e5 00                	in     $0x0,%eax
    3100:	00 00                	add    %al,(%eax)
    3102:	0a ee                	or     %dh,%ch
    3104:	0d 00 00 03 0b       	or     $0xb030000,%eax
    3109:	0d e5 00 00 00       	or     $0xe5,%eax
    310e:	00 0a                	add    %cl,(%edx)
    3110:	e2 00                	loop   3112 <FLAGS+0x3111>
    3112:	00 00                	add    %al,(%eax)
    3114:	03 0c 0b             	add    (%ebx,%ecx,1),%ecx
    3117:	59                   	pop    %ecx
    3118:	00 00                	add    %al,(%eax)
    311a:	00 04 0a             	add    %al,(%edx,%ecx,1)
    311d:	85 02                	test   %eax,(%edx)
    311f:	00 00                	add    %al,(%eax)
    3121:	03 0d 0b 59 00 00    	add    0x590b,%ecx
    3127:	00 08                	add    %cl,(%eax)
    3129:	0a 91 01 00 00 03    	or     0x3000001(%ecx),%dl
    312f:	0e                   	push   %cs
    3130:	11 81 00 00 00 0c    	adc    %eax,0xc000000(%ecx)
    3136:	00 06                	add    %al,(%esi)
    3138:	04 73                	add    $0x73,%al
    313a:	00 00                	add    %al,(%eax)
    313c:	00 02                	add    %al,(%edx)
    313e:	08 02                	or     %al,(%edx)
    3140:	00 00                	add    %al,(%eax)
    3142:	03 0f                	add    (%edi),%ecx
    3144:	03 a7 00 00 00 0b    	add    0xb000000(%edi),%esp
    314a:	f4                   	hlt    
    314b:	0d 00 00 01 37       	or     $0x37010000,%eax
    3150:	06                   	push   %es
    3151:	6f                   	outsl  %ds:(%esi),(%dx)
    3152:	2d 10 00 4b 00       	sub    $0x4b0010,%eax
    3157:	00 00                	add    %al,(%eax)
    3159:	01 9c 2a 01 00 00 0c 	add    %ebx,0xc000001(%edx,%ebp,1)
    3160:	69 00 01 37 21 59    	imul   $0x59213701,(%eax),%eax
    3166:	00 00                	add    %al,(%eax)
    3168:	00 02                	add    %al,(%edx)
    316a:	91                   	xchg   %eax,%ecx
    316b:	00 0d ee 0d 00 00    	add    %cl,0xdee
    3171:	01 37                	add    %esi,(%edi)
    3173:	35 2a 01 00 00       	xor    $0x12a,%eax
    3178:	02 91 04 00 06 04    	add    0x4060004(%ecx),%dl
    317e:	eb 00                	jmp    3180 <FLAGS+0x317f>
    3180:	00 00                	add    %al,(%eax)
    3182:	0e                   	push   %cs
    3183:	10 0e                	adc    %cl,(%esi)
    3185:	00 00                	add    %al,(%eax)
    3187:	01 31                	add    %esi,(%ecx)
    3189:	08 73 00             	or     %dh,0x0(%ebx)
    318c:	00 00                	add    %al,(%eax)
    318e:	36 2d 10 00 39 00    	ss sub $0x390010,%eax
    3194:	00 00                	add    %al,(%eax)
    3196:	01 9c 67 01 00 00 0c 	add    %ebx,0xc000001(%edi,%eiz,2)
    319d:	69 00 01 31 23 59    	imul   $0x59233101,(%eax),%eax
    31a3:	00 00                	add    %al,(%eax)
    31a5:	00 02                	add    %al,(%edx)
    31a7:	91                   	xchg   %eax,%ecx
    31a8:	00 0d ee 0d 00 00    	add    %cl,0xdee
    31ae:	01 31                	add    %esi,(%ecx)
    31b0:	37                   	aaa    
    31b1:	2a 01                	sub    (%ecx),%al
    31b3:	00 00                	add    %al,(%eax)
    31b5:	02 91 04 00 0f 25    	add    0x250f0004(%ecx),%dl
    31bb:	0e                   	push   %cs
    31bc:	00 00                	add    %al,(%eax)
    31be:	01 22                	add    %esp,(%edx)
    31c0:	06                   	push   %es
    31c1:	54                   	push   %esp
    31c2:	2c 10                	sub    $0x10,%al
    31c4:	00 e2                	add    %ah,%dl
    31c6:	00 00                	add    %al,(%eax)
    31c8:	00 01                	add    %al,(%ecx)
    31ca:	9c                   	pushf  
    31cb:	b6 01                	mov    $0x1,%dh
    31cd:	00 00                	add    %al,(%eax)
    31cf:	0d c6 0d 00 00       	or     $0xdc6,%eax
    31d4:	01 22                	add    %esp,(%edx)
    31d6:	22 73 00             	and    0x0(%ebx),%dh
    31d9:	00 00                	add    %al,(%eax)
    31db:	02 91 00 0d ee 0d    	add    0xdee0d00(%ecx),%dl
    31e1:	00 00                	add    %al,(%eax)
    31e3:	01 22                	add    %esp,(%edx)
    31e5:	39 2a                	cmp    %ebp,(%edx)
    31e7:	01 00                	add    %eax,(%eax)
    31e9:	00 02                	add    %al,(%edx)
    31eb:	91                   	xchg   %eax,%ecx
    31ec:	04 10                	add    $0x10,%al
    31ee:	69 00 01 25 09 6c    	imul   $0x6c092501,(%eax),%eax
    31f4:	00 00                	add    %al,(%eax)
    31f6:	00 02                	add    %al,(%edx)
    31f8:	91                   	xchg   %eax,%ecx
    31f9:	6c                   	insb   (%dx),%es:(%edi)
    31fa:	10 6a 00             	adc    %ch,0x0(%edx)
    31fd:	01 28                	add    %ebp,(%eax)
    31ff:	09 6c 00 00          	or     %ebp,0x0(%eax,%eax,1)
    3203:	00 02                	add    %al,(%edx)
    3205:	91                   	xchg   %eax,%ecx
    3206:	68 00 0e e0 0d       	push   $0xde00e00
    320b:	00 00                	add    %al,(%eax)
    320d:	01 14 11             	add    %edx,(%ecx,%edx,1)
    3210:	eb 00                	jmp    3212 <FLAGS+0x3211>
    3212:	00 00                	add    %al,(%eax)
    3214:	c9                   	leave  
    3215:	2b 10                	sub    (%eax),%edx
    3217:	00 8b 00 00 00 01    	add    %cl,0x1000000(%ebx)
    321d:	9c                   	pushf  
    321e:	0d 02 00 00 0d       	or     $0xd000002,%eax
    3223:	62 04 00             	bound  %eax,(%eax,%eax,1)
    3226:	00 01                	add    %al,(%ecx)
    3228:	14 2b                	adc    $0x2b,%al
    322a:	7f 00                	jg     322c <FLAGS+0x322b>
    322c:	00 00                	add    %al,(%eax)
    322e:	02 91 04 0d 85 02    	add    0x2850d04(%ecx),%dl
    3234:	00 00                	add    %al,(%eax)
    3236:	01 14 36             	add    %edx,(%esi,%esi,1)
    3239:	59                   	pop    %ecx
    323a:	00 00                	add    %al,(%eax)
    323c:	00 02                	add    %al,(%edx)
    323e:	91                   	xchg   %eax,%ecx
    323f:	08 0d 91 01 00 00    	or     %cl,0x191
    3245:	01 14 4c             	add    %edx,(%esp,%ecx,2)
    3248:	81 00 00 00 02 91    	addl   $0x91020000,(%eax)
    324e:	0c 11                	or     $0x11,%al
    3250:	09 0e                	or     %ecx,(%esi)
    3252:	00 00                	add    %al,(%eax)
    3254:	01 15 15 eb 00 00    	add    %edx,0xeb15
    325a:	00 02                	add    %al,(%edx)
    325c:	91                   	xchg   %eax,%ecx
    325d:	60                   	pusha  
    325e:	00 0e                	add    %cl,(%esi)
    3260:	cb                   	lret   
    3261:	0d 00 00 01 09       	or     $0x9010000,%eax
    3266:	11 eb                	adc    %ebp,%ebx
    3268:	00 00                	add    %al,(%eax)
    326a:	00 5e 2b             	add    %bl,0x2b(%esi)
    326d:	10 00                	adc    %al,(%eax)
    326f:	6b 00 00             	imul   $0x0,(%eax),%eax
    3272:	00 01                	add    %al,(%ecx)
    3274:	9c                   	pushf  
    3275:	55                   	push   %ebp
    3276:	02 00                	add    (%eax),%al
    3278:	00 0d 85 02 00 00    	add    %cl,0x285
    327e:	01 09                	add    %ecx,(%ecx)
    3280:	2c 59                	sub    $0x59,%al
    3282:	00 00                	add    %al,(%eax)
    3284:	00 02                	add    %al,(%edx)
    3286:	91                   	xchg   %eax,%ecx
    3287:	04 0d                	add    $0xd,%al
    3289:	91                   	xchg   %eax,%ecx
    328a:	01 00                	add    %eax,(%eax)
    328c:	00 01                	add    %al,(%ecx)
    328e:	09 42 81             	or     %eax,-0x7f(%edx)
    3291:	00 00                	add    %al,(%eax)
    3293:	00 02                	add    %al,(%edx)
    3295:	91                   	xchg   %eax,%ecx
    3296:	08 11                	or     %dl,(%ecx)
    3298:	09 0e                	or     %ecx,(%esi)
    329a:	00 00                	add    %al,(%eax)
    329c:	01 0a                	add    %ecx,(%edx)
    329e:	15 eb 00 00 00       	adc    $0xeb,%eax
    32a3:	02 91 60 00 12 91    	add    -0x6eedffa0(%ecx),%dl
    32a9:	01 00                	add    %eax,(%eax)
    32ab:	00 01                	add    %al,(%ecx)
    32ad:	05 06 38 00 00       	add    $0x3806,%eax
    32b2:	00 50 2b             	add    %dl,0x2b(%eax)
    32b5:	10 00                	adc    %al,(%eax)
    32b7:	0e                   	push   %cs
    32b8:	00 00                	add    %al,(%eax)
    32ba:	00 01                	add    %al,(%ecx)
    32bc:	9c                   	pushf  
    32bd:	0c 61                	or     $0x61,%al
    32bf:	00 01                	add    %al,(%ecx)
    32c1:	05 17 73 00 00       	add    $0x7317,%eax
    32c6:	00 02                	add    %al,(%edx)
    32c8:	91                   	xchg   %eax,%ecx
    32c9:	00 0c 62             	add    %cl,(%edx,%eiz,2)
    32cc:	00 01                	add    %al,(%ecx)
    32ce:	05 21 73 00 00       	add    $0x7321,%eax
    32d3:	00 02                	add    %al,(%edx)
    32d5:	91                   	xchg   %eax,%ecx
    32d6:	04 00                	add    $0x0,%al
    32d8:	00 1e                	add    %bl,(%esi)
    32da:	04 00                	add    $0x0,%al
    32dc:	00 04 00             	add    %al,(%eax,%eax,1)
    32df:	09 11                	or     %edx,(%ecx)
    32e1:	00 00                	add    %al,(%eax)
    32e3:	04 01                	add    $0x1,%al
    32e5:	2f                   	das    
    32e6:	00 00                	add    %al,(%eax)
    32e8:	00 0c 98             	add    %cl,(%eax,%ebx,4)
    32eb:	0e                   	push   %cs
    32ec:	00 00                	add    %al,(%eax)
    32ee:	2d 02 00 00 ba       	sub    $0xba000002,%eax
    32f3:	2d 10 00 56 05       	sub    $0x5560010,%eax
    32f8:	00 00                	add    %al,(%eax)
    32fa:	c2 15 00             	ret    $0x15
    32fd:	00 02                	add    %al,(%edx)
    32ff:	01 08                	add    %ecx,(%eax)
    3301:	61                   	popa   
    3302:	01 00                	add    %eax,(%eax)
    3304:	00 03                	add    %al,(%ebx)
    3306:	25 00 00 00 02       	and    $0x2000000,%eax
    330b:	01 06                	add    %eax,(%esi)
    330d:	6a 01                	push   $0x1
    330f:	00 00                	add    %al,(%eax)
    3311:	03 31                	add    (%ecx),%esi
    3313:	00 00                	add    %al,(%eax)
    3315:	00 04 63             	add    %al,(%ebx,%eiz,2)
    3318:	0b 00                	or     (%eax),%eax
    331a:	00 02                	add    %al,(%edx)
    331c:	06                   	push   %es
    331d:	18 49 00             	sbb    %cl,0x0(%ecx)
    3320:	00 00                	add    %al,(%eax)
    3322:	02 02                	add    (%edx),%al
    3324:	07                   	pop    %es
    3325:	be 01 00 00 02       	mov    $0x2000001,%esi
    332a:	02 05 70 00 00 00    	add    0x70,%al
    3330:	04 60                	add    $0x60,%al
    3332:	02 00                	add    (%eax),%al
    3334:	00 02                	add    %al,(%edx)
    3336:	08 16                	or     %dl,(%esi)
    3338:	63 00                	arpl   %ax,(%eax)
    333a:	00 00                	add    %al,(%eax)
    333c:	02 04 07             	add    (%edi,%eax,1),%al
    333f:	dc 06                	faddl  (%esi)
    3341:	00 00                	add    %al,(%eax)
    3343:	04 a7                	add    $0xa7,%al
    3345:	00 00                	add    %al,(%eax)
    3347:	00 02                	add    %al,(%edx)
    3349:	09 0d 76 00 00 00    	or     %ecx,0x76
    334f:	05 04 05 69 6e       	add    $0x6e690504,%eax
    3354:	74 00                	je     3356 <FLAGS+0x3355>
    3356:	06                   	push   %es
    3357:	87 0e                	xchg   %ecx,(%esi)
    3359:	00 00                	add    %al,(%eax)
    335b:	01 a6 06 e5 32 10    	add    %esp,0x1032e506(%esi)
    3361:	00 2b                	add    %ch,(%ebx)
    3363:	00 00                	add    %al,(%eax)
    3365:	00 01                	add    %al,(%ecx)
    3367:	9c                   	pushf  
    3368:	c1 00 00             	roll   $0x0,(%eax)
    336b:	00 07                	add    %al,(%edi)
    336d:	82 0b 00             	orb    $0x0,(%ebx)
    3370:	00 01                	add    %al,(%ecx)
    3372:	a6                   	cmpsb  %es:(%edi),%ds:(%esi)
    3373:	13 c1                	adc    %ecx,%eax
    3375:	00 00                	add    %al,(%eax)
    3377:	00 02                	add    %al,(%edx)
    3379:	91                   	xchg   %eax,%ecx
    337a:	00 07                	add    %al,(%edi)
    337c:	78 0b                	js     3389 <FLAGS+0x3388>
    337e:	00 00                	add    %al,(%eax)
    3380:	01 a6 1e 31 00 00    	add    %esp,0x311e(%esi)
    3386:	00 02                	add    %al,(%edx)
    3388:	91                   	xchg   %eax,%ecx
    3389:	74 08                	je     3393 <FLAGS+0x3392>
    338b:	6c                   	insb   (%dx),%es:(%edi)
    338c:	65 6e                	outsb  %gs:(%esi),(%dx)
    338e:	00 01                	add    %al,(%ecx)
    3390:	a6                   	cmpsb  %es:(%edi),%ds:(%esi)
    3391:	2f                   	das    
    3392:	57                   	push   %edi
    3393:	00 00                	add    %al,(%eax)
    3395:	00 02                	add    %al,(%edx)
    3397:	91                   	xchg   %eax,%ecx
    3398:	08 00                	or     %al,(%eax)
    339a:	09 04 31             	or     %eax,(%ecx,%esi,1)
    339d:	00 00                	add    %al,(%eax)
    339f:	00 06                	add    %al,(%esi)
    33a1:	b8 0e 00 00 01       	mov    $0x100000e,%eax
    33a6:	a0 06 a9 32 10       	mov    0x1032a906,%al
    33ab:	00 3c 00             	add    %bh,(%eax,%eax,1)
    33ae:	00 00                	add    %al,(%eax)
    33b0:	01 9c 2f 01 00 00 07 	add    %ebx,0x7000001(%edi,%ebp,1)
    33b7:	82 0b 00             	orb    $0x0,(%ebx)
    33ba:	00 01                	add    %al,(%ecx)
    33bc:	a0 13 c1 00 00       	mov    0xc113,%al
    33c1:	00 02                	add    %al,(%edx)
    33c3:	91                   	xchg   %eax,%ecx
    33c4:	00 08                	add    %cl,(%eax)
    33c6:	73 72                	jae    343a <FLAGS+0x3439>
    33c8:	63 00                	arpl   %ax,(%eax)
    33ca:	01 a0 25 2f 01 00    	add    %esp,0x12f25(%eax)
    33d0:	00 02                	add    %al,(%edx)
    33d2:	91                   	xchg   %eax,%ecx
    33d3:	04 08                	add    $0x8,%al
    33d5:	6c                   	insb   (%dx),%es:(%edi)
    33d6:	65 6e                	outsb  %gs:(%esi),(%dx)
    33d8:	00 01                	add    %al,(%ecx)
    33da:	a0 30 57 00 00       	mov    0x5730,%al
    33df:	00 02                	add    %al,(%edx)
    33e1:	91                   	xchg   %eax,%ecx
    33e2:	08 0a                	or     %cl,(%edx)
    33e4:	73 00                	jae    33e6 <FLAGS+0x33e5>
    33e6:	01 a1 11 2f 01 00    	add    %esp,0x12f11(%ecx)
    33ec:	00 02                	add    %al,(%edx)
    33ee:	91                   	xchg   %eax,%ecx
    33ef:	74 0b                	je     33fc <FLAGS+0x33fb>
    33f1:	b5 32                	mov    $0x32,%ch
    33f3:	10 00                	adc    %al,(%eax)
    33f5:	2c 00                	sub    $0x0,%al
    33f7:	00 00                	add    %al,(%eax)
    33f9:	0a 69 00             	or     0x0(%ecx),%ch
    33fc:	01 a2 0d 76 00 00    	add    %esp,0x760d(%edx)
    3402:	00 02                	add    %al,(%edx)
    3404:	91                   	xchg   %eax,%ecx
    3405:	70 00                	jo     3407 <FLAGS+0x3406>
    3407:	00 09                	add    %cl,(%ecx)
    3409:	04 38                	add    $0x38,%al
    340b:	00 00                	add    %al,(%eax)
    340d:	00 0c 6f             	add    %cl,(%edi,%ebp,2)
    3410:	0e                   	push   %cs
    3411:	00 00                	add    %al,(%eax)
    3413:	01 9a 07 57 00 00    	add    %ebx,0x5707(%edx)
    3419:	00 82 32 10 00 27    	add    %al,0x27001032(%edx)
    341f:	00 00                	add    %al,(%eax)
    3421:	00 01                	add    %al,(%ecx)
    3423:	9c                   	pushf  
    3424:	6c                   	insb   (%dx),%es:(%edi)
    3425:	01 00                	add    %eax,(%eax)
    3427:	00 07                	add    %al,(%edi)
    3429:	82 0b 00             	orb    $0x0,(%ebx)
    342c:	00 01                	add    %al,(%ecx)
    342e:	9a 1a 2f 01 00 00 02 	lcall  $0x200,$0x12f1a
    3435:	91                   	xchg   %eax,%ecx
    3436:	00 0a                	add    %cl,(%edx)
    3438:	69 00 01 9b 09 76    	imul   $0x76099b01,(%eax),%eax
    343e:	00 00                	add    %al,(%eax)
    3440:	00 02                	add    %al,(%edx)
    3442:	91                   	xchg   %eax,%ecx
    3443:	74 00                	je     3445 <FLAGS+0x3444>
    3445:	0c ab                	or     $0xab,%al
    3447:	0e                   	push   %cs
    3448:	00 00                	add    %al,(%eax)
    344a:	01 8e 07 57 00 00    	add    %ecx,0x5707(%esi)
    3450:	00 27                	add    %ah,(%edi)
    3452:	32 10                	xor    (%eax),%dl
    3454:	00 5b 00             	add    %bl,0x0(%ebx)
    3457:	00 00                	add    %al,(%eax)
    3459:	01 9c dd 01 00 00 07 	add    %ebx,0x7000001(%ebp,%ebx,8)
    3460:	93                   	xchg   %eax,%ebx
    3461:	0e                   	push   %cs
    3462:	00 00                	add    %al,(%eax)
    3464:	01 8e 1a 2f 01 00    	add    %ecx,0x12f1a(%esi)
    346a:	00 02                	add    %al,(%edx)
    346c:	91                   	xchg   %eax,%ecx
    346d:	00 07                	add    %al,(%edi)
    346f:	8e 0e                	mov    (%esi),%cs
    3471:	00 00                	add    %al,(%eax)
    3473:	01 8e 2c 2f 01 00    	add    %ecx,0x12f2c(%esi)
    3479:	00 02                	add    %al,(%edx)
    347b:	91                   	xchg   %eax,%ecx
    347c:	04 0a                	add    $0xa,%al
    347e:	73 31                	jae    34b1 <FLAGS+0x34b0>
    3480:	00 01                	add    %al,(%ecx)
    3482:	8f                   	(bad)  
    3483:	1a dd                	sbb    %ch,%bl
    3485:	01 00                	add    %eax,(%eax)
    3487:	00 02                	add    %al,(%edx)
    3489:	91                   	xchg   %eax,%ecx
    348a:	74 0a                	je     3496 <FLAGS+0x3495>
    348c:	73 32                	jae    34c0 <FLAGS+0x34bf>
    348e:	00 01                	add    %al,(%ecx)
    3490:	90                   	nop
    3491:	1a dd                	sbb    %ch,%bl
    3493:	01 00                	add    %eax,(%eax)
    3495:	00 02                	add    %al,(%edx)
    3497:	91                   	xchg   %eax,%ecx
    3498:	70 0a                	jo     34a4 <FLAGS+0x34a3>
    349a:	63 31                	arpl   %si,(%ecx)
    349c:	00 01                	add    %al,(%ecx)
    349e:	91                   	xchg   %eax,%ecx
    349f:	13 25 00 00 00 02    	adc    0x2000000,%esp
    34a5:	91                   	xchg   %eax,%ecx
    34a6:	6f                   	outsl  %ds:(%esi),(%dx)
    34a7:	0a 63 32             	or     0x32(%ebx),%ah
    34aa:	00 01                	add    %al,(%ecx)
    34ac:	91                   	xchg   %eax,%ecx
    34ad:	17                   	pop    %ss
    34ae:	25 00 00 00 02       	and    $0x2000000,%eax
    34b3:	91                   	xchg   %eax,%ecx
    34b4:	6e                   	outsb  %ds:(%esi),(%dx)
    34b5:	00 09                	add    %cl,(%ecx)
    34b7:	04 2c                	add    $0x2c,%al
    34b9:	00 00                	add    %al,(%eax)
    34bb:	00 06                	add    %al,(%esi)
    34bd:	76 0e                	jbe    34cd <FLAGS+0x34cc>
    34bf:	00 00                	add    %al,(%eax)
    34c1:	01 7b 06             	add    %edi,0x6(%ebx)
    34c4:	e6 31                	out    %al,$0x31
    34c6:	10 00                	adc    %al,(%eax)
    34c8:	41                   	inc    %ecx
    34c9:	00 00                	add    %al,(%eax)
    34cb:	00 01                	add    %al,(%ecx)
    34cd:	9c                   	pushf  
    34ce:	2f                   	das    
    34cf:	02 00                	add    (%eax),%al
    34d1:	00 07                	add    %al,(%edi)
    34d3:	82 0b 00             	orb    $0x0,(%ebx)
    34d6:	00 01                	add    %al,(%ecx)
    34d8:	7b 13                	jnp    34ed <FLAGS+0x34ec>
    34da:	c1 00 00             	roll   $0x0,(%eax)
    34dd:	00 02                	add    %al,(%edx)
    34df:	91                   	xchg   %eax,%ecx
    34e0:	00 08                	add    %cl,(%eax)
    34e2:	73 72                	jae    3556 <FLAGS+0x3555>
    34e4:	63 00                	arpl   %ax,(%eax)
    34e6:	01 7b 25             	add    %edi,0x25(%ebx)
    34e9:	2f                   	das    
    34ea:	01 00                	add    %eax,(%eax)
    34ec:	00 02                	add    %al,(%edx)
    34ee:	91                   	xchg   %eax,%ecx
    34ef:	04 0b                	add    $0xb,%al
    34f1:	f4                   	hlt    
    34f2:	31 10                	xor    %edx,(%eax)
    34f4:	00 30                	add    %dh,(%eax)
    34f6:	00 00                	add    %al,(%eax)
    34f8:	00 0a                	add    %cl,(%edx)
    34fa:	69 00 01 7d 06 76    	imul   $0x76067d01,(%eax),%eax
    3500:	00 00                	add    %al,(%eax)
    3502:	00 02                	add    %al,(%edx)
    3504:	91                   	xchg   %eax,%ecx
    3505:	74 00                	je     3507 <FLAGS+0x3506>
    3507:	00 0d 62 0e 00 00    	add    %cl,0xe62
    350d:	01 6e 06             	add    %ebp,0x6(%esi)
    3510:	72 31                	jb     3543 <FLAGS+0x3542>
    3512:	10 00                	adc    %al,(%eax)
    3514:	74 00                	je     3516 <FLAGS+0x3515>
    3516:	00 00                	add    %al,(%eax)
    3518:	01 9c 73 02 00 00 07 	add    %ebx,0x7000002(%ebx,%esi,2)
    351f:	7d 09                	jge    352a <FLAGS+0x3529>
    3521:	00 00                	add    %al,(%eax)
    3523:	01 6e 1f             	add    %ebp,0x1f(%esi)
    3526:	2f                   	das    
    3527:	01 00                	add    %eax,(%eax)
    3529:	00 02                	add    %al,(%edx)
    352b:	91                   	xchg   %eax,%ecx
    352c:	00 07                	add    %al,(%edi)
    352e:	f7 09 00 00 01 6e    	testl  $0x6e010000,(%ecx)
    3534:	2b 57 00             	sub    0x0(%edi),%edx
    3537:	00 00                	add    %al,(%eax)
    3539:	02 91 04 07 5d 0e    	add    0xe5d0704(%ecx),%dl
    353f:	00 00                	add    %al,(%eax)
    3541:	01 6e 3d             	add    %ebp,0x3d(%esi)
    3544:	2f                   	das    
    3545:	01 00                	add    %eax,(%eax)
    3547:	00 02                	add    %al,(%edx)
    3549:	91                   	xchg   %eax,%ecx
    354a:	08 00                	or     %al,(%eax)
    354c:	0d b2 0e 00 00       	or     $0xeb2,%eax
    3551:	01 61 06             	add    %esp,0x6(%ecx)
    3554:	fe                   	(bad)  
    3555:	30 10                	xor    %dl,(%eax)
    3557:	00 74 00 00          	add    %dh,0x0(%eax,%eax,1)
    355b:	00 01                	add    %al,(%ecx)
    355d:	9c                   	pushf  
    355e:	b7 02                	mov    $0x2,%bh
    3560:	00 00                	add    %al,(%eax)
    3562:	07                   	pop    %es
    3563:	55                   	push   %ebp
    3564:	0e                   	push   %cs
    3565:	00 00                	add    %al,(%eax)
    3567:	01 61 18             	add    %esp,0x18(%ecx)
    356a:	2f                   	das    
    356b:	01 00                	add    %eax,(%eax)
    356d:	00 02                	add    %al,(%edx)
    356f:	91                   	xchg   %eax,%ecx
    3570:	00 07                	add    %al,(%edi)
    3572:	7d 09                	jge    357d <FLAGS+0x357c>
    3574:	00 00                	add    %al,(%eax)
    3576:	01 61 2d             	add    %esp,0x2d(%ecx)
    3579:	2f                   	das    
    357a:	01 00                	add    %eax,(%eax)
    357c:	00 02                	add    %al,(%edx)
    357e:	91                   	xchg   %eax,%ecx
    357f:	04 07                	add    $0x7,%al
    3581:	f7 09 00 00 01 61    	testl  $0x61010000,(%ecx)
    3587:	39 57 00             	cmp    %edx,0x0(%edi)
    358a:	00 00                	add    %al,(%eax)
    358c:	02 91 08 00 0d 7d    	add    0x7d0d0008(%ecx),%dl
    3592:	0e                   	push   %cs
    3593:	00 00                	add    %al,(%eax)
    3595:	01 3e                	add    %edi,(%esi)
    3597:	06                   	push   %es
    3598:	2b 30                	sub    (%eax),%esi
    359a:	10 00                	adc    %al,(%eax)
    359c:	d3 00                	roll   %cl,(%eax)
    359e:	00 00                	add    %al,(%eax)
    35a0:	01 9c 21 03 00 00 08 	add    %ebx,0x8000003(%ecx,%eiz,1)
    35a7:	6e                   	outsb  %ds:(%esi),(%dx)
    35a8:	00 01                	add    %al,(%ecx)
    35aa:	3e 16                	ds push %ss
    35ac:	57                   	push   %edi
    35ad:	00 00                	add    %al,(%eax)
    35af:	00 02                	add    %al,(%edx)
    35b1:	91                   	xchg   %eax,%ecx
    35b2:	00 0a                	add    %cl,(%edx)
    35b4:	73 74                	jae    362a <FLAGS+0x3629>
    35b6:	72 00                	jb     35b8 <FLAGS+0x35b7>
    35b8:	01 3f                	add    %edi,(%edi)
    35ba:	0a 21                	or     (%ecx),%ah
    35bc:	03 00                	add    (%eax),%eax
    35be:	00 02                	add    %al,(%edx)
    35c0:	91                   	xchg   %eax,%ecx
    35c1:	41                   	inc    %ecx
    35c2:	0a 69 00             	or     0x0(%ecx),%ch
    35c5:	01 40 09             	add    %eax,0x9(%eax)
    35c8:	76 00                	jbe    35ca <FLAGS+0x35c9>
    35ca:	00 00                	add    %al,(%eax)
    35cc:	02 91 6c 0a 68 00    	add    0x680a6c(%ecx),%dl
    35d2:	01 41 09             	add    %eax,0x9(%ecx)
    35d5:	76 00                	jbe    35d7 <FLAGS+0x35d6>
    35d7:	00 00                	add    %al,(%eax)
    35d9:	02 91 64 0e 8e 0e    	add    0xe8e0e64(%ecx),%dl
    35df:	00 00                	add    %al,(%eax)
    35e1:	01 53 0a             	add    %edx,0xa(%ebx)
    35e4:	21 03                	and    %eax,(%ebx)
    35e6:	00 00                	add    %al,(%eax)
    35e8:	03 91 9e 7f 0a 6a    	add    0x6a0a7f9e(%ecx),%edx
    35ee:	00 01                	add    %al,(%ecx)
    35f0:	55                   	push   %ebp
    35f1:	09 76 00             	or     %esi,0x0(%esi)
    35f4:	00 00                	add    %al,(%eax)
    35f6:	02 91 68 00 0f 31    	add    0x310f0068(%ecx),%dl
    35fc:	00 00                	add    %al,(%eax)
    35fe:	00 31                	add    %dh,(%ecx)
    3600:	03 00                	add    (%eax),%eax
    3602:	00 10                	add    %dl,(%eax)
    3604:	31 03                	xor    %eax,(%ebx)
    3606:	00 00                	add    %al,(%eax)
    3608:	22 00                	and    (%eax),%al
    360a:	02 04 07             	add    (%edi,%eax,1),%al
    360d:	d7                   	xlat   %ds:(%ebx)
    360e:	06                   	push   %es
    360f:	00 00                	add    %al,(%eax)
    3611:	0d bf 0e 00 00       	or     $0xebf,%eax
    3616:	01 20                	add    %esp,(%eax)
    3618:	06                   	push   %es
    3619:	f9                   	stc    
    361a:	2e 10 00             	adc    %al,%cs:(%eax)
    361d:	32 01                	xor    (%ecx),%al
    361f:	00 00                	add    %al,(%eax)
    3621:	01 9c a4 03 00 00 08 	add    %ebx,0x8000003(%esp,%eiz,4)
    3628:	6e                   	outsb  %ds:(%esi),(%dx)
    3629:	00 01                	add    %al,(%ecx)
    362b:	20 1a                	and    %bl,(%edx)
    362d:	6a 00                	push   $0x0
    362f:	00 00                	add    %al,(%eax)
    3631:	02 91 00 0a 73 74    	add    0x74730a00(%ecx),%dl
    3637:	72 00                	jb     3639 <FLAGS+0x3638>
    3639:	01 21                	add    %esp,(%ecx)
    363b:	0a 21                	or     (%ecx),%ah
    363d:	03 00                	add    (%eax),%eax
    363f:	00 02                	add    %al,(%edx)
    3641:	91                   	xchg   %eax,%ecx
    3642:	41                   	inc    %ecx
    3643:	0e                   	push   %cs
    3644:	e5 0e                	in     $0xe,%eax
    3646:	00 00                	add    %al,(%eax)
    3648:	01 22                	add    %esp,(%edx)
    364a:	09 76 00             	or     %esi,0x0(%esi)
    364d:	00 00                	add    %al,(%eax)
    364f:	02 91 6c 0a 69 00    	add    0x690a6c(%ecx),%dl
    3655:	01 27                	add    %esp,(%edi)
    3657:	09 76 00             	or     %esi,0x0(%esi)
    365a:	00 00                	add    %al,(%eax)
    365c:	02 91 68 0e 8e 0e    	add    0xe8e0e68(%ecx),%dl
    3662:	00 00                	add    %al,(%eax)
    3664:	01 30                	add    %esi,(%eax)
    3666:	0a 21                	or     (%ecx),%ah
    3668:	03 00                	add    (%eax),%eax
    366a:	00 03                	add    %al,(%ebx)
    366c:	91                   	xchg   %eax,%ecx
    366d:	9e                   	sahf   
    366e:	7f 0a                	jg     367a <FLAGS+0x3679>
    3670:	6a 00                	push   $0x0
    3672:	01 32                	add    %esi,(%edx)
    3674:	09 76 00             	or     %esi,0x0(%esi)
    3677:	00 00                	add    %al,(%eax)
    3679:	02 91 64 00 0d d8    	add    -0x27f2ff9c(%ecx),%dl
    367f:	0e                   	push   %cs
    3680:	00 00                	add    %al,(%eax)
    3682:	01 12                	add    %edx,(%edx)
    3684:	06                   	push   %es
    3685:	43                   	inc    %ebx
    3686:	2e 10 00             	adc    %al,%cs:(%eax)
    3689:	b6 00                	mov    $0x0,%dh
    368b:	00 00                	add    %al,(%eax)
    368d:	01 9c f0 03 00 00 08 	add    %ebx,0x8000003(%eax,%esi,8)
    3694:	73 74                	jae    370a <FLAGS+0x3709>
    3696:	72 00                	jb     3698 <FLAGS+0x3697>
    3698:	01 12                	add    %edx,(%edx)
    369a:	1f                   	pop    %ds
    369b:	2f                   	das    
    369c:	01 00                	add    %eax,(%eax)
    369e:	00 02                	add    %al,(%edx)
    36a0:	91                   	xchg   %eax,%ecx
    36a1:	00 0a                	add    %cl,(%edx)
    36a3:	70 6f                	jo     3714 <FLAGS+0x3713>
    36a5:	73 00                	jae    36a7 <FLAGS+0x36a6>
    36a7:	01 13                	add    %edx,(%ebx)
    36a9:	0b 3d 00 00 00 02    	or     0x2000000,%edi
    36af:	91                   	xchg   %eax,%ecx
    36b0:	6e                   	outsb  %ds:(%esi),(%dx)
    36b1:	0b 52 2e             	or     0x2e(%edx),%edx
    36b4:	10 00                	adc    %al,(%eax)
    36b6:	94                   	xchg   %eax,%esp
    36b7:	00 00                	add    %al,(%eax)
    36b9:	00 0a                	add    %cl,(%edx)
    36bb:	69 00 01 14 0d 76    	imul   $0x760d1401,(%eax),%eax
    36c1:	00 00                	add    %al,(%eax)
    36c3:	00 02                	add    %al,(%edx)
    36c5:	91                   	xchg   %eax,%ecx
    36c6:	68 00 00 11 cd       	push   $0xcd110000
    36cb:	0e                   	push   %cs
    36cc:	00 00                	add    %al,(%eax)
    36ce:	01 06                	add    %eax,(%esi)
    36d0:	06                   	push   %es
    36d1:	ba 2d 10 00 89       	mov    $0x8900102d,%edx
    36d6:	00 00                	add    %al,(%eax)
    36d8:	00 01                	add    %al,(%ecx)
    36da:	9c                   	pushf  
    36db:	07                   	pop    %es
    36dc:	78 0b                	js     36e9 <FLAGS+0x36e8>
    36de:	00 00                	add    %al,(%eax)
    36e0:	01 06                	add    %eax,(%esi)
    36e2:	16                   	push   %ss
    36e3:	31 00                	xor    %eax,(%eax)
    36e5:	00 00                	add    %al,(%eax)
    36e7:	02 91 5c 0a 70 6f    	add    0x6f700a5c(%ecx),%dl
    36ed:	73 00                	jae    36ef <FLAGS+0x36ee>
    36ef:	01 07                	add    %eax,(%edi)
    36f1:	0b 3d 00 00 00 02    	or     0x2000000,%edi
    36f7:	91                   	xchg   %eax,%ecx
    36f8:	6e                   	outsb  %ds:(%esi),(%dx)
	...

Disassembly of section .debug_abbrev:

00000000 <.debug_abbrev>:
       0:	01 11                	add    %edx,(%ecx)
       2:	01 25 0e 13 0b 03    	add    %esp,0x30b130e
       8:	0e                   	push   %cs
       9:	1b 0e                	sbb    (%esi),%ecx
       b:	11 01                	adc    %eax,(%ecx)
       d:	12 06                	adc    (%esi),%al
       f:	10 17                	adc    %dl,(%edi)
      11:	00 00                	add    %al,(%eax)
      13:	02 16                	add    (%esi),%dl
      15:	00 03                	add    %al,(%ebx)
      17:	0e                   	push   %cs
      18:	3a 0b                	cmp    (%ebx),%cl
      1a:	3b 0b                	cmp    (%ebx),%ecx
      1c:	39 0b                	cmp    %ecx,(%ebx)
      1e:	49                   	dec    %ecx
      1f:	13 00                	adc    (%eax),%eax
      21:	00 03                	add    %al,(%ebx)
      23:	24 00                	and    $0x0,%al
      25:	0b 0b                	or     (%ebx),%ecx
      27:	3e 0b 03             	or     %ds:(%ebx),%eax
      2a:	0e                   	push   %cs
      2b:	00 00                	add    %al,(%eax)
      2d:	04 24                	add    $0x24,%al
      2f:	00 0b                	add    %cl,(%ebx)
      31:	0b 3e                	or     (%esi),%edi
      33:	0b 03                	or     (%ebx),%eax
      35:	08 00                	or     %al,(%eax)
      37:	00 05 0f 00 0b 0b    	add    %al,0xb0b000f
      3d:	00 00                	add    %al,(%eax)
      3f:	06                   	push   %es
      40:	0f 00 0b             	str    (%ebx)
      43:	0b 49 13             	or     0x13(%ecx),%ecx
      46:	00 00                	add    %al,(%eax)
      48:	07                   	pop    %es
      49:	15 01 27 19 49       	adc    $0x49192701,%eax
      4e:	13 01                	adc    (%ecx),%eax
      50:	13 00                	adc    (%eax),%eax
      52:	00 08                	add    %cl,(%eax)
      54:	05 00 49 13 00       	add    $0x134900,%eax
      59:	00 09                	add    %cl,(%ecx)
      5b:	13 01                	adc    (%ecx),%eax
      5d:	0b 0b                	or     (%ebx),%ecx
      5f:	3a 0b                	cmp    (%ebx),%cl
      61:	3b 0b                	cmp    (%ebx),%ecx
      63:	39 0b                	cmp    %ecx,(%ebx)
      65:	01 13                	add    %edx,(%ebx)
      67:	00 00                	add    %al,(%eax)
      69:	0a 0d 00 03 0e 3a    	or     0x3a0e0300,%cl
      6f:	0b 3b                	or     (%ebx),%edi
      71:	0b 39                	or     (%ecx),%edi
      73:	0b 49 13             	or     0x13(%ecx),%ecx
      76:	38 0b                	cmp    %cl,(%ebx)
      78:	00 00                	add    %al,(%eax)
      7a:	0b 13                	or     (%ebx),%edx
      7c:	01 03                	add    %eax,(%ebx)
      7e:	0e                   	push   %cs
      7f:	0b 0b                	or     (%ebx),%ecx
      81:	3a 0b                	cmp    (%ebx),%cl
      83:	3b 0b                	cmp    (%ebx),%ecx
      85:	39 0b                	cmp    %ecx,(%ebx)
      87:	01 13                	add    %edx,(%ebx)
      89:	00 00                	add    %al,(%eax)
      8b:	0c 0d                	or     $0xd,%al
      8d:	00 03                	add    %al,(%ebx)
      8f:	0e                   	push   %cs
      90:	3a 0b                	cmp    (%ebx),%cl
      92:	3b 0b                	cmp    (%ebx),%ecx
      94:	39 0b                	cmp    %ecx,(%ebx)
      96:	49                   	dec    %ecx
      97:	13 0b                	adc    (%ebx),%ecx
      99:	0b 0d 0b 0c 0b 38    	or     0x380b0c0b,%ecx
      9f:	0b 00                	or     (%eax),%eax
      a1:	00 0d 0d 00 03 08    	add    %cl,0x803000d
      a7:	3a 0b                	cmp    (%ebx),%cl
      a9:	3b 0b                	cmp    (%ebx),%ecx
      ab:	39 0b                	cmp    %ecx,(%ebx)
      ad:	49                   	dec    %ecx
      ae:	13 0b                	adc    (%ebx),%ecx
      b0:	0b 0d 0b 0c 0b 38    	or     0x380b0c0b,%ecx
      b6:	0b 00                	or     (%eax),%eax
      b8:	00 0e                	add    %cl,(%esi)
      ba:	13 01                	adc    (%ecx),%eax
      bc:	03 0e                	add    (%esi),%ecx
      be:	0b 05 3a 0b 3b 0b    	or     0xb3b0b3a,%eax
      c4:	39 0b                	cmp    %ecx,(%ebx)
      c6:	01 13                	add    %edx,(%ebx)
      c8:	00 00                	add    %al,(%eax)
      ca:	0f 01 01             	sgdtl  (%ecx)
      cd:	49                   	dec    %ecx
      ce:	13 01                	adc    (%ecx),%eax
      d0:	13 00                	adc    (%eax),%eax
      d2:	00 10                	add    %dl,(%eax)
      d4:	21 00                	and    %eax,(%eax)
      d6:	49                   	dec    %ecx
      d7:	13 2f                	adc    (%edi),%ebp
      d9:	05 00 00 11 0d       	add    $0xd110000,%eax
      de:	00 03                	add    %al,(%ebx)
      e0:	0e                   	push   %cs
      e1:	3a 0b                	cmp    (%ebx),%cl
      e3:	3b 0b                	cmp    (%ebx),%ecx
      e5:	39 0b                	cmp    %ecx,(%ebx)
      e7:	49                   	dec    %ecx
      e8:	13 38                	adc    (%eax),%edi
      ea:	05 00 00 12 34       	add    $0x34120000,%eax
      ef:	00 03                	add    %al,(%ebx)
      f1:	0e                   	push   %cs
      f2:	3a 0b                	cmp    (%ebx),%cl
      f4:	3b 0b                	cmp    (%ebx),%ecx
      f6:	39 0b                	cmp    %ecx,(%ebx)
      f8:	49                   	dec    %ecx
      f9:	13 3f                	adc    (%edi),%edi
      fb:	19 3c 19             	sbb    %edi,(%ecx,%ebx,1)
      fe:	00 00                	add    %al,(%eax)
     100:	13 34 00             	adc    (%eax,%eax,1),%esi
     103:	03 0e                	add    (%esi),%ecx
     105:	3a 0b                	cmp    (%ebx),%cl
     107:	3b 0b                	cmp    (%ebx),%ecx
     109:	39 0b                	cmp    %ecx,(%ebx)
     10b:	49                   	dec    %ecx
     10c:	13 3f                	adc    (%edi),%edi
     10e:	19 02                	sbb    %eax,(%edx)
     110:	18 00                	sbb    %al,(%eax)
     112:	00 14 2e             	add    %dl,(%esi,%ebp,1)
     115:	01 3f                	add    %edi,(%edi)
     117:	19 03                	sbb    %eax,(%ebx)
     119:	0e                   	push   %cs
     11a:	3a 0b                	cmp    (%ebx),%cl
     11c:	3b 0b                	cmp    (%ebx),%ecx
     11e:	39 0b                	cmp    %ecx,(%ebx)
     120:	27                   	daa    
     121:	19 49 13             	sbb    %ecx,0x13(%ecx)
     124:	11 01                	adc    %eax,(%ecx)
     126:	12 06                	adc    (%esi),%al
     128:	40                   	inc    %eax
     129:	18 96 42 19 01 13    	sbb    %dl,0x13011942(%esi)
     12f:	00 00                	add    %al,(%eax)
     131:	15 05 00 03 0e       	adc    $0xe030005,%eax
     136:	3a 0b                	cmp    (%ebx),%cl
     138:	3b 0b                	cmp    (%ebx),%ecx
     13a:	39 0b                	cmp    %ecx,(%ebx)
     13c:	49                   	dec    %ecx
     13d:	13 02                	adc    (%edx),%eax
     13f:	18 00                	sbb    %al,(%eax)
     141:	00 16                	add    %dl,(%esi)
     143:	34 00                	xor    $0x0,%al
     145:	03 0e                	add    (%esi),%ecx
     147:	3a 0b                	cmp    (%ebx),%cl
     149:	3b 0b                	cmp    (%ebx),%ecx
     14b:	39 0b                	cmp    %ecx,(%ebx)
     14d:	49                   	dec    %ecx
     14e:	13 02                	adc    (%edx),%eax
     150:	18 00                	sbb    %al,(%eax)
     152:	00 17                	add    %dl,(%edi)
     154:	34 00                	xor    $0x0,%al
     156:	03 08                	add    (%eax),%ecx
     158:	3a 0b                	cmp    (%ebx),%cl
     15a:	3b 0b                	cmp    (%ebx),%ecx
     15c:	39 0b                	cmp    %ecx,(%ebx)
     15e:	49                   	dec    %ecx
     15f:	13 02                	adc    (%edx),%eax
     161:	18 00                	sbb    %al,(%eax)
     163:	00 18                	add    %bl,(%eax)
     165:	0b 01                	or     (%ecx),%eax
     167:	11 01                	adc    %eax,(%ecx)
     169:	12 06                	adc    (%esi),%al
     16b:	01 13                	add    %edx,(%ebx)
     16d:	00 00                	add    %al,(%eax)
     16f:	19 0b                	sbb    %ecx,(%ebx)
     171:	01 11                	add    %edx,(%ecx)
     173:	01 12                	add    %edx,(%edx)
     175:	06                   	push   %es
     176:	00 00                	add    %al,(%eax)
     178:	1a 05 00 03 08 3a    	sbb    0x3a080300,%al
     17e:	0b 3b                	or     (%ebx),%edi
     180:	0b 39                	or     (%ecx),%edi
     182:	0b 49 13             	or     0x13(%ecx),%ecx
     185:	02 18                	add    (%eax),%bl
     187:	00 00                	add    %al,(%eax)
     189:	1b 2e                	sbb    (%esi),%ebp
     18b:	01 03                	add    %eax,(%ebx)
     18d:	0e                   	push   %cs
     18e:	3a 0b                	cmp    (%ebx),%cl
     190:	3b 0b                	cmp    (%ebx),%ecx
     192:	39 0b                	cmp    %ecx,(%ebx)
     194:	27                   	daa    
     195:	19 49 13             	sbb    %ecx,0x13(%ecx)
     198:	11 01                	adc    %eax,(%ecx)
     19a:	12 06                	adc    (%esi),%al
     19c:	40                   	inc    %eax
     19d:	18 97 42 19 01 13    	sbb    %dl,0x13011942(%edi)
     1a3:	00 00                	add    %al,(%eax)
     1a5:	1c 2e                	sbb    $0x2e,%al
     1a7:	01 03                	add    %eax,(%ebx)
     1a9:	0e                   	push   %cs
     1aa:	3a 0b                	cmp    (%ebx),%cl
     1ac:	3b 0b                	cmp    (%ebx),%ecx
     1ae:	39 0b                	cmp    %ecx,(%ebx)
     1b0:	27                   	daa    
     1b1:	19 49 13             	sbb    %ecx,0x13(%ecx)
     1b4:	11 01                	adc    %eax,(%ecx)
     1b6:	12 06                	adc    (%esi),%al
     1b8:	40                   	inc    %eax
     1b9:	18 96 42 19 01 13    	sbb    %dl,0x13011942(%esi)
     1bf:	00 00                	add    %al,(%eax)
     1c1:	1d 0b 01 55 17       	sbb    $0x1755010b,%eax
     1c6:	00 00                	add    %al,(%eax)
     1c8:	1e                   	push   %ds
     1c9:	2e 01 03             	add    %eax,%cs:(%ebx)
     1cc:	0e                   	push   %cs
     1cd:	3a 0b                	cmp    (%ebx),%cl
     1cf:	3b 0b                	cmp    (%ebx),%ecx
     1d1:	39 0b                	cmp    %ecx,(%ebx)
     1d3:	27                   	daa    
     1d4:	19 11                	sbb    %edx,(%ecx)
     1d6:	01 12                	add    %edx,(%edx)
     1d8:	06                   	push   %es
     1d9:	40                   	inc    %eax
     1da:	18 96 42 19 00 00    	sbb    %dl,0x1942(%esi)
     1e0:	00 01                	add    %al,(%ecx)
     1e2:	11 01                	adc    %eax,(%ecx)
     1e4:	25 0e 13 0b 03       	and    $0x30b130e,%eax
     1e9:	0e                   	push   %cs
     1ea:	1b 0e                	sbb    (%esi),%ecx
     1ec:	11 01                	adc    %eax,(%ecx)
     1ee:	12 06                	adc    (%esi),%al
     1f0:	10 17                	adc    %dl,(%edi)
     1f2:	00 00                	add    %al,(%eax)
     1f4:	02 16                	add    (%esi),%dl
     1f6:	00 03                	add    %al,(%ebx)
     1f8:	0e                   	push   %cs
     1f9:	3a 0b                	cmp    (%ebx),%cl
     1fb:	3b 0b                	cmp    (%ebx),%ecx
     1fd:	39 0b                	cmp    %ecx,(%ebx)
     1ff:	49                   	dec    %ecx
     200:	13 00                	adc    (%eax),%eax
     202:	00 03                	add    %al,(%ebx)
     204:	24 00                	and    $0x0,%al
     206:	0b 0b                	or     (%ebx),%ecx
     208:	3e 0b 03             	or     %ds:(%ebx),%eax
     20b:	0e                   	push   %cs
     20c:	00 00                	add    %al,(%eax)
     20e:	04 24                	add    $0x24,%al
     210:	00 0b                	add    %cl,(%ebx)
     212:	0b 3e                	or     (%esi),%edi
     214:	0b 03                	or     (%ebx),%eax
     216:	08 00                	or     %al,(%eax)
     218:	00 05 0f 00 0b 0b    	add    %al,0xb0b000f
     21e:	49                   	dec    %ecx
     21f:	13 00                	adc    (%eax),%eax
     221:	00 06                	add    %al,(%esi)
     223:	15 01 27 19 49       	adc    $0x49192701,%eax
     228:	13 01                	adc    (%ecx),%eax
     22a:	13 00                	adc    (%eax),%eax
     22c:	00 07                	add    %al,(%edi)
     22e:	05 00 49 13 00       	add    $0x134900,%eax
     233:	00 08                	add    %cl,(%eax)
     235:	13 01                	adc    (%ecx),%eax
     237:	03 0e                	add    (%esi),%ecx
     239:	0b 0b                	or     (%ebx),%ecx
     23b:	3a 0b                	cmp    (%ebx),%cl
     23d:	3b 0b                	cmp    (%ebx),%ecx
     23f:	39 0b                	cmp    %ecx,(%ebx)
     241:	01 13                	add    %edx,(%ebx)
     243:	00 00                	add    %al,(%eax)
     245:	09 0d 00 03 0e 3a    	or     %ecx,0x3a0e0300
     24b:	0b 3b                	or     (%ebx),%edi
     24d:	0b 39                	or     (%ecx),%edi
     24f:	0b 49 13             	or     0x13(%ecx),%ecx
     252:	38 0b                	cmp    %cl,(%ebx)
     254:	00 00                	add    %al,(%eax)
     256:	0a 0d 00 03 08 3a    	or     0x3a080300,%cl
     25c:	0b 3b                	or     (%ebx),%edi
     25e:	0b 39                	or     (%ecx),%edi
     260:	0b 49 13             	or     0x13(%ecx),%ecx
     263:	38 0b                	cmp    %cl,(%ebx)
     265:	00 00                	add    %al,(%eax)
     267:	0b 15 01 27 19 01    	or     0x1192701,%edx
     26d:	13 00                	adc    (%eax),%eax
     26f:	00 0c 01             	add    %cl,(%ecx,%eax,1)
     272:	01 49 13             	add    %ecx,0x13(%ecx)
     275:	01 13                	add    %edx,(%ebx)
     277:	00 00                	add    %al,(%eax)
     279:	0d 21 00 49 13       	or     $0x13490021,%eax
     27e:	2f                   	das    
     27f:	0b 00                	or     (%eax),%eax
     281:	00 0e                	add    %cl,(%esi)
     283:	34 00                	xor    $0x0,%al
     285:	03 0e                	add    (%esi),%ecx
     287:	3a 0b                	cmp    (%ebx),%cl
     289:	3b 0b                	cmp    (%ebx),%ecx
     28b:	39 0b                	cmp    %ecx,(%ebx)
     28d:	49                   	dec    %ecx
     28e:	13 3f                	adc    (%edi),%edi
     290:	19 3c 19             	sbb    %edi,(%ecx,%ebx,1)
     293:	00 00                	add    %al,(%eax)
     295:	0f 13 01             	movlps %xmm0,(%ecx)
     298:	0b 0b                	or     (%ebx),%ecx
     29a:	3a 0b                	cmp    (%ebx),%cl
     29c:	3b 0b                	cmp    (%ebx),%ecx
     29e:	39 0b                	cmp    %ecx,(%ebx)
     2a0:	01 13                	add    %edx,(%ebx)
     2a2:	00 00                	add    %al,(%eax)
     2a4:	10 34 00             	adc    %dh,(%eax,%eax,1)
     2a7:	03 0e                	add    (%esi),%ecx
     2a9:	3a 0b                	cmp    (%ebx),%cl
     2ab:	3b 0b                	cmp    (%ebx),%ecx
     2ad:	39 0b                	cmp    %ecx,(%ebx)
     2af:	49                   	dec    %ecx
     2b0:	13 3f                	adc    (%edi),%edi
     2b2:	19 02                	sbb    %eax,(%edx)
     2b4:	18 00                	sbb    %al,(%eax)
     2b6:	00 11                	add    %dl,(%ecx)
     2b8:	2e 01 3f             	add    %edi,%cs:(%edi)
     2bb:	19 03                	sbb    %eax,(%ebx)
     2bd:	0e                   	push   %cs
     2be:	3a 0b                	cmp    (%ebx),%cl
     2c0:	3b 0b                	cmp    (%ebx),%ecx
     2c2:	39 0b                	cmp    %ecx,(%ebx)
     2c4:	27                   	daa    
     2c5:	19 11                	sbb    %edx,(%ecx)
     2c7:	01 12                	add    %edx,(%edx)
     2c9:	06                   	push   %es
     2ca:	40                   	inc    %eax
     2cb:	18 96 42 19 01 13    	sbb    %dl,0x13011942(%esi)
     2d1:	00 00                	add    %al,(%eax)
     2d3:	12 05 00 03 0e 3a    	adc    0x3a0e0300,%al
     2d9:	0b 3b                	or     (%ebx),%edi
     2db:	0b 39                	or     (%ecx),%edi
     2dd:	0b 49 13             	or     0x13(%ecx),%ecx
     2e0:	02 18                	add    (%eax),%bl
     2e2:	00 00                	add    %al,(%eax)
     2e4:	13 34 00             	adc    (%eax,%eax,1),%esi
     2e7:	03 08                	add    (%eax),%ecx
     2e9:	3a 0b                	cmp    (%ebx),%cl
     2eb:	3b 0b                	cmp    (%ebx),%ecx
     2ed:	39 0b                	cmp    %ecx,(%ebx)
     2ef:	49                   	dec    %ecx
     2f0:	13 02                	adc    (%edx),%eax
     2f2:	18 00                	sbb    %al,(%eax)
     2f4:	00 14 34             	add    %dl,(%esp,%esi,1)
     2f7:	00 03                	add    %al,(%ebx)
     2f9:	0e                   	push   %cs
     2fa:	3a 0b                	cmp    (%ebx),%cl
     2fc:	3b 0b                	cmp    (%ebx),%ecx
     2fe:	39 0b                	cmp    %ecx,(%ebx)
     300:	49                   	dec    %ecx
     301:	13 02                	adc    (%edx),%eax
     303:	18 00                	sbb    %al,(%eax)
     305:	00 15 0b 01 11 01    	add    %dl,0x111010b
     30b:	12 06                	adc    (%esi),%al
     30d:	00 00                	add    %al,(%eax)
     30f:	16                   	push   %ss
     310:	2e 01 3f             	add    %edi,%cs:(%edi)
     313:	19 03                	sbb    %eax,(%ebx)
     315:	0e                   	push   %cs
     316:	3a 0b                	cmp    (%ebx),%cl
     318:	3b 0b                	cmp    (%ebx),%ecx
     31a:	39 0b                	cmp    %ecx,(%ebx)
     31c:	27                   	daa    
     31d:	19 49 13             	sbb    %ecx,0x13(%ecx)
     320:	11 01                	adc    %eax,(%ecx)
     322:	12 06                	adc    (%esi),%al
     324:	40                   	inc    %eax
     325:	18 96 42 19 01 13    	sbb    %dl,0x13011942(%esi)
     32b:	00 00                	add    %al,(%eax)
     32d:	17                   	pop    %ss
     32e:	2e 01 03             	add    %eax,%cs:(%ebx)
     331:	0e                   	push   %cs
     332:	3a 0b                	cmp    (%ebx),%cl
     334:	3b 0b                	cmp    (%ebx),%ecx
     336:	39 0b                	cmp    %ecx,(%ebx)
     338:	27                   	daa    
     339:	19 49 13             	sbb    %ecx,0x13(%ecx)
     33c:	11 01                	adc    %eax,(%ecx)
     33e:	12 06                	adc    (%esi),%al
     340:	40                   	inc    %eax
     341:	18 96 42 19 01 13    	sbb    %dl,0x13011942(%esi)
     347:	00 00                	add    %al,(%eax)
     349:	18 2e                	sbb    %ch,(%esi)
     34b:	01 03                	add    %eax,(%ebx)
     34d:	0e                   	push   %cs
     34e:	3a 0b                	cmp    (%ebx),%cl
     350:	3b 0b                	cmp    (%ebx),%ecx
     352:	39 0b                	cmp    %ecx,(%ebx)
     354:	27                   	daa    
     355:	19 49 13             	sbb    %ecx,0x13(%ecx)
     358:	11 01                	adc    %eax,(%ecx)
     35a:	12 06                	adc    (%esi),%al
     35c:	40                   	inc    %eax
     35d:	18 96 42 19 00 00    	sbb    %dl,0x1942(%esi)
     363:	00 01                	add    %al,(%ecx)
     365:	11 01                	adc    %eax,(%ecx)
     367:	25 0e 13 0b 03       	and    $0x30b130e,%eax
     36c:	0e                   	push   %cs
     36d:	1b 0e                	sbb    (%esi),%ecx
     36f:	11 01                	adc    %eax,(%ecx)
     371:	12 06                	adc    (%esi),%al
     373:	10 17                	adc    %dl,(%edi)
     375:	00 00                	add    %al,(%eax)
     377:	02 24 00             	add    (%eax,%eax,1),%ah
     37a:	0b 0b                	or     (%ebx),%ecx
     37c:	3e 0b 03             	or     %ds:(%ebx),%eax
     37f:	0e                   	push   %cs
     380:	00 00                	add    %al,(%eax)
     382:	03 16                	add    (%esi),%edx
     384:	00 03                	add    %al,(%ebx)
     386:	0e                   	push   %cs
     387:	3a 0b                	cmp    (%ebx),%cl
     389:	3b 0b                	cmp    (%ebx),%ecx
     38b:	39 0b                	cmp    %ecx,(%ebx)
     38d:	49                   	dec    %ecx
     38e:	13 00                	adc    (%eax),%eax
     390:	00 04 24             	add    %al,(%esp)
     393:	00 0b                	add    %cl,(%ebx)
     395:	0b 3e                	or     (%esi),%edi
     397:	0b 03                	or     (%ebx),%eax
     399:	08 00                	or     %al,(%eax)
     39b:	00 05 13 01 03 0e    	add    %al,0xe030113
     3a1:	0b 0b                	or     (%ebx),%ecx
     3a3:	3a 0b                	cmp    (%ebx),%cl
     3a5:	3b 0b                	cmp    (%ebx),%ecx
     3a7:	39 0b                	cmp    %ecx,(%ebx)
     3a9:	01 13                	add    %edx,(%ebx)
     3ab:	00 00                	add    %al,(%eax)
     3ad:	06                   	push   %es
     3ae:	0d 00 03 0e 3a       	or     $0x3a0e0300,%eax
     3b3:	0b 3b                	or     (%ebx),%edi
     3b5:	0b 39                	or     (%ecx),%edi
     3b7:	0b 49 13             	or     0x13(%ecx),%ecx
     3ba:	0b 0b                	or     (%ebx),%ecx
     3bc:	0d 0b 0c 0b 38       	or     $0x380b0c0b,%eax
     3c1:	0b 00                	or     (%eax),%eax
     3c3:	00 07                	add    %al,(%edi)
     3c5:	0d 00 03 08 3a       	or     $0x3a080300,%eax
     3ca:	0b 3b                	or     (%ebx),%edi
     3cc:	0b 39                	or     (%ecx),%edi
     3ce:	0b 49 13             	or     0x13(%ecx),%ecx
     3d1:	0b 0b                	or     (%ebx),%ecx
     3d3:	0d 0b 0c 0b 38       	or     $0x380b0c0b,%eax
     3d8:	0b 00                	or     (%eax),%eax
     3da:	00 08                	add    %cl,(%eax)
     3dc:	13 01                	adc    (%ecx),%eax
     3de:	03 0e                	add    (%esi),%ecx
     3e0:	0b 05 3a 0b 3b 0b    	or     0xb3b0b3a,%eax
     3e6:	39 0b                	cmp    %ecx,(%ebx)
     3e8:	01 13                	add    %edx,(%ebx)
     3ea:	00 00                	add    %al,(%eax)
     3ec:	09 0d 00 03 0e 3a    	or     %ecx,0x3a0e0300
     3f2:	0b 3b                	or     (%ebx),%edi
     3f4:	0b 39                	or     (%ecx),%edi
     3f6:	0b 49 13             	or     0x13(%ecx),%ecx
     3f9:	38 0b                	cmp    %cl,(%ebx)
     3fb:	00 00                	add    %al,(%eax)
     3fd:	0a 01                	or     (%ecx),%al
     3ff:	01 49 13             	add    %ecx,0x13(%ecx)
     402:	01 13                	add    %edx,(%ebx)
     404:	00 00                	add    %al,(%eax)
     406:	0b 21                	or     (%ecx),%esp
     408:	00 49 13             	add    %cl,0x13(%ecx)
     40b:	2f                   	das    
     40c:	05 00 00 0c 0d       	add    $0xd0c0000,%eax
     411:	00 03                	add    %al,(%ebx)
     413:	0e                   	push   %cs
     414:	3a 0b                	cmp    (%ebx),%cl
     416:	3b 0b                	cmp    (%ebx),%ecx
     418:	39 0b                	cmp    %ecx,(%ebx)
     41a:	49                   	dec    %ecx
     41b:	13 38                	adc    (%eax),%edi
     41d:	05 00 00 0d 0f       	add    $0xf0d0000,%eax
     422:	00 0b                	add    %cl,(%ebx)
     424:	0b 49 13             	or     0x13(%ecx),%ecx
     427:	00 00                	add    %al,(%eax)
     429:	0e                   	push   %cs
     42a:	0d 00 03 08 3a       	or     $0x3a080300,%eax
     42f:	0b 3b                	or     (%ebx),%edi
     431:	0b 39                	or     (%ecx),%edi
     433:	0b 49 13             	or     0x13(%ecx),%ecx
     436:	38 0b                	cmp    %cl,(%ebx)
     438:	00 00                	add    %al,(%eax)
     43a:	0f 35                	sysexit 
     43c:	00 49 13             	add    %cl,0x13(%ecx)
     43f:	00 00                	add    %al,(%eax)
     441:	10 0f                	adc    %cl,(%edi)
     443:	00 0b                	add    %cl,(%ebx)
     445:	0b 00                	or     (%eax),%eax
     447:	00 11                	add    %dl,(%ecx)
     449:	34 00                	xor    $0x0,%al
     44b:	03 0e                	add    (%esi),%ecx
     44d:	3a 0b                	cmp    (%ebx),%cl
     44f:	3b 0b                	cmp    (%ebx),%ecx
     451:	39 0b                	cmp    %ecx,(%ebx)
     453:	49                   	dec    %ecx
     454:	13 3f                	adc    (%edi),%edi
     456:	19 02                	sbb    %eax,(%edx)
     458:	18 00                	sbb    %al,(%eax)
     45a:	00 12                	add    %dl,(%edx)
     45c:	34 00                	xor    $0x0,%al
     45e:	03 0e                	add    (%esi),%ecx
     460:	3a 0b                	cmp    (%ebx),%cl
     462:	3b 0b                	cmp    (%ebx),%ecx
     464:	39 0b                	cmp    %ecx,(%ebx)
     466:	49                   	dec    %ecx
     467:	13 3f                	adc    (%edi),%edi
     469:	19 3c 19             	sbb    %edi,(%ecx,%ebx,1)
     46c:	00 00                	add    %al,(%eax)
     46e:	13 2e                	adc    (%esi),%ebp
     470:	00 3f                	add    %bh,(%edi)
     472:	19 03                	sbb    %eax,(%ebx)
     474:	0e                   	push   %cs
     475:	3a 0b                	cmp    (%ebx),%cl
     477:	3b 0b                	cmp    (%ebx),%ecx
     479:	39 0b                	cmp    %ecx,(%ebx)
     47b:	49                   	dec    %ecx
     47c:	13 11                	adc    (%ecx),%edx
     47e:	01 12                	add    %edx,(%edx)
     480:	06                   	push   %es
     481:	40                   	inc    %eax
     482:	18 97 42 19 00 00    	sbb    %dl,0x1942(%edi)
     488:	14 2e                	adc    $0x2e,%al
     48a:	01 3f                	add    %edi,(%edi)
     48c:	19 03                	sbb    %eax,(%ebx)
     48e:	0e                   	push   %cs
     48f:	3a 0b                	cmp    (%ebx),%cl
     491:	3b 0b                	cmp    (%ebx),%ecx
     493:	39 0b                	cmp    %ecx,(%ebx)
     495:	49                   	dec    %ecx
     496:	13 11                	adc    (%ecx),%edx
     498:	01 12                	add    %edx,(%edx)
     49a:	06                   	push   %es
     49b:	40                   	inc    %eax
     49c:	18 96 42 19 01 13    	sbb    %dl,0x13011942(%esi)
     4a2:	00 00                	add    %al,(%eax)
     4a4:	15 34 00 03 0e       	adc    $0xe030034,%eax
     4a9:	3a 0b                	cmp    (%ebx),%cl
     4ab:	3b 0b                	cmp    (%ebx),%ecx
     4ad:	39 0b                	cmp    %ecx,(%ebx)
     4af:	49                   	dec    %ecx
     4b0:	13 02                	adc    (%edx),%eax
     4b2:	18 00                	sbb    %al,(%eax)
     4b4:	00 16                	add    %dl,(%esi)
     4b6:	34 00                	xor    $0x0,%al
     4b8:	03 08                	add    (%eax),%ecx
     4ba:	3a 0b                	cmp    (%ebx),%cl
     4bc:	3b 0b                	cmp    (%ebx),%ecx
     4be:	39 0b                	cmp    %ecx,(%ebx)
     4c0:	49                   	dec    %ecx
     4c1:	13 02                	adc    (%edx),%eax
     4c3:	18 00                	sbb    %al,(%eax)
     4c5:	00 17                	add    %dl,(%edi)
     4c7:	0b 01                	or     (%ecx),%eax
     4c9:	11 01                	adc    %eax,(%ecx)
     4cb:	12 06                	adc    (%esi),%al
     4cd:	00 00                	add    %al,(%eax)
     4cf:	18 2e                	sbb    %ch,(%esi)
     4d1:	01 3f                	add    %edi,(%edi)
     4d3:	19 03                	sbb    %eax,(%ebx)
     4d5:	0e                   	push   %cs
     4d6:	3a 0b                	cmp    (%ebx),%cl
     4d8:	3b 0b                	cmp    (%ebx),%ecx
     4da:	39 0b                	cmp    %ecx,(%ebx)
     4dc:	11 01                	adc    %eax,(%ecx)
     4de:	12 06                	adc    (%esi),%al
     4e0:	40                   	inc    %eax
     4e1:	18 96 42 19 01 13    	sbb    %dl,0x13011942(%esi)
     4e7:	00 00                	add    %al,(%eax)
     4e9:	19 2e                	sbb    %ebp,(%esi)
     4eb:	01 3f                	add    %edi,(%edi)
     4ed:	19 03                	sbb    %eax,(%ebx)
     4ef:	0e                   	push   %cs
     4f0:	3a 0b                	cmp    (%ebx),%cl
     4f2:	3b 0b                	cmp    (%ebx),%ecx
     4f4:	39 0b                	cmp    %ecx,(%ebx)
     4f6:	27                   	daa    
     4f7:	19 11                	sbb    %edx,(%ecx)
     4f9:	01 12                	add    %edx,(%edx)
     4fb:	06                   	push   %es
     4fc:	40                   	inc    %eax
     4fd:	18 96 42 19 01 13    	sbb    %dl,0x13011942(%esi)
     503:	00 00                	add    %al,(%eax)
     505:	1a 05 00 03 0e 3a    	sbb    0x3a0e0300,%al
     50b:	0b 3b                	or     (%ebx),%edi
     50d:	0b 39                	or     (%ecx),%edi
     50f:	0b 49 13             	or     0x13(%ecx),%ecx
     512:	02 18                	add    (%eax),%bl
     514:	00 00                	add    %al,(%eax)
     516:	1b 2e                	sbb    (%esi),%ebp
     518:	00 3f                	add    %bh,(%edi)
     51a:	19 03                	sbb    %eax,(%ebx)
     51c:	0e                   	push   %cs
     51d:	3a 0b                	cmp    (%ebx),%cl
     51f:	3b 0b                	cmp    (%ebx),%ecx
     521:	39 0b                	cmp    %ecx,(%ebx)
     523:	11 01                	adc    %eax,(%ecx)
     525:	12 06                	adc    (%esi),%al
     527:	40                   	inc    %eax
     528:	18 96 42 19 00 00    	sbb    %dl,0x1942(%esi)
     52e:	00 01                	add    %al,(%ecx)
     530:	11 01                	adc    %eax,(%ecx)
     532:	25 0e 13 0b 03       	and    $0x30b130e,%eax
     537:	0e                   	push   %cs
     538:	1b 0e                	sbb    (%esi),%ecx
     53a:	11 01                	adc    %eax,(%ecx)
     53c:	12 06                	adc    (%esi),%al
     53e:	10 17                	adc    %dl,(%edi)
     540:	00 00                	add    %al,(%eax)
     542:	02 16                	add    (%esi),%dl
     544:	00 03                	add    %al,(%ebx)
     546:	0e                   	push   %cs
     547:	3a 0b                	cmp    (%ebx),%cl
     549:	3b 0b                	cmp    (%ebx),%ecx
     54b:	39 0b                	cmp    %ecx,(%ebx)
     54d:	49                   	dec    %ecx
     54e:	13 00                	adc    (%eax),%eax
     550:	00 03                	add    %al,(%ebx)
     552:	24 00                	and    $0x0,%al
     554:	0b 0b                	or     (%ebx),%ecx
     556:	3e 0b 03             	or     %ds:(%ebx),%eax
     559:	0e                   	push   %cs
     55a:	00 00                	add    %al,(%eax)
     55c:	04 24                	add    $0x24,%al
     55e:	00 0b                	add    %cl,(%ebx)
     560:	0b 3e                	or     (%esi),%edi
     562:	0b 03                	or     (%ebx),%eax
     564:	08 00                	or     %al,(%eax)
     566:	00 05 13 01 03 0e    	add    %al,0xe030113
     56c:	0b 0b                	or     (%ebx),%ecx
     56e:	3a 0b                	cmp    (%ebx),%cl
     570:	3b 0b                	cmp    (%ebx),%ecx
     572:	39 0b                	cmp    %ecx,(%ebx)
     574:	01 13                	add    %edx,(%ebx)
     576:	00 00                	add    %al,(%eax)
     578:	06                   	push   %es
     579:	0d 00 03 08 3a       	or     $0x3a080300,%eax
     57e:	0b 3b                	or     (%ebx),%edi
     580:	0b 39                	or     (%ecx),%edi
     582:	0b 49 13             	or     0x13(%ecx),%ecx
     585:	38 0b                	cmp    %cl,(%ebx)
     587:	00 00                	add    %al,(%eax)
     589:	07                   	pop    %es
     58a:	0d 00 03 0e 3a       	or     $0x3a0e0300,%eax
     58f:	0b 3b                	or     (%ebx),%edi
     591:	0b 39                	or     (%ecx),%edi
     593:	0b 49 13             	or     0x13(%ecx),%ecx
     596:	38 0b                	cmp    %cl,(%ebx)
     598:	00 00                	add    %al,(%eax)
     59a:	08 0d 00 03 0e 3a    	or     %cl,0x3a0e0300
     5a0:	0b 3b                	or     (%ebx),%edi
     5a2:	0b 39                	or     (%ecx),%edi
     5a4:	0b 49 13             	or     0x13(%ecx),%ecx
     5a7:	0b 0b                	or     (%ebx),%ecx
     5a9:	0d 0b 0c 0b 38       	or     $0x380b0c0b,%eax
     5ae:	0b 00                	or     (%eax),%eax
     5b0:	00 09                	add    %cl,(%ecx)
     5b2:	0d 00 03 08 3a       	or     $0x3a080300,%eax
     5b7:	0b 3b                	or     (%ebx),%edi
     5b9:	0b 39                	or     (%ecx),%edi
     5bb:	0b 49 13             	or     0x13(%ecx),%ecx
     5be:	0b 0b                	or     (%ebx),%ecx
     5c0:	0d 0b 0c 0b 38       	or     $0x380b0c0b,%eax
     5c5:	0b 00                	or     (%eax),%eax
     5c7:	00 0a                	add    %cl,(%edx)
     5c9:	13 01                	adc    (%ecx),%eax
     5cb:	03 0e                	add    (%esi),%ecx
     5cd:	0b 05 3a 0b 3b 0b    	or     0xb3b0b3a,%eax
     5d3:	39 0b                	cmp    %ecx,(%ebx)
     5d5:	01 13                	add    %edx,(%ebx)
     5d7:	00 00                	add    %al,(%eax)
     5d9:	0b 01                	or     (%ecx),%eax
     5db:	01 49 13             	add    %ecx,0x13(%ecx)
     5de:	01 13                	add    %edx,(%ebx)
     5e0:	00 00                	add    %al,(%eax)
     5e2:	0c 21                	or     $0x21,%al
     5e4:	00 49 13             	add    %cl,0x13(%ecx)
     5e7:	2f                   	das    
     5e8:	05 00 00 0d 0d       	add    $0xd0d0000,%eax
     5ed:	00 03                	add    %al,(%ebx)
     5ef:	0e                   	push   %cs
     5f0:	3a 0b                	cmp    (%ebx),%cl
     5f2:	3b 0b                	cmp    (%ebx),%ecx
     5f4:	39 0b                	cmp    %ecx,(%ebx)
     5f6:	49                   	dec    %ecx
     5f7:	13 38                	adc    (%eax),%edi
     5f9:	05 00 00 0e 0f       	add    $0xf0e0000,%eax
     5fe:	00 0b                	add    %cl,(%ebx)
     600:	0b 49 13             	or     0x13(%ecx),%ecx
     603:	00 00                	add    %al,(%eax)
     605:	0f                   	(bad)  
     606:	0f 00 0b             	str    (%ebx)
     609:	0b 00                	or     (%eax),%eax
     60b:	00 10                	add    %dl,(%eax)
     60d:	15 01 27 19 49       	adc    $0x49192701,%eax
     612:	13 01                	adc    (%ecx),%eax
     614:	13 00                	adc    (%eax),%eax
     616:	00 11                	add    %dl,(%ecx)
     618:	05 00 49 13 00       	add    $0x134900,%eax
     61d:	00 12                	add    %dl,(%edx)
     61f:	13 01                	adc    (%ecx),%eax
     621:	0b 0b                	or     (%ebx),%ecx
     623:	3a 0b                	cmp    (%ebx),%cl
     625:	3b 0b                	cmp    (%ebx),%ecx
     627:	39 0b                	cmp    %ecx,(%ebx)
     629:	01 13                	add    %edx,(%ebx)
     62b:	00 00                	add    %al,(%eax)
     62d:	13 34 00             	adc    (%eax,%eax,1),%esi
     630:	03 0e                	add    (%esi),%ecx
     632:	3a 0b                	cmp    (%ebx),%cl
     634:	3b 0b                	cmp    (%ebx),%ecx
     636:	39 0b                	cmp    %ecx,(%ebx)
     638:	49                   	dec    %ecx
     639:	13 3f                	adc    (%edi),%edi
     63b:	19 02                	sbb    %eax,(%edx)
     63d:	18 00                	sbb    %al,(%eax)
     63f:	00 14 34             	add    %dl,(%esp,%esi,1)
     642:	00 03                	add    %al,(%ebx)
     644:	0e                   	push   %cs
     645:	3a 0b                	cmp    (%ebx),%cl
     647:	3b 0b                	cmp    (%ebx),%ecx
     649:	39 0b                	cmp    %ecx,(%ebx)
     64b:	49                   	dec    %ecx
     64c:	13 3f                	adc    (%edi),%edi
     64e:	19 3c 19             	sbb    %edi,(%ecx,%ebx,1)
     651:	00 00                	add    %al,(%eax)
     653:	15 2e 01 03 0e       	adc    $0xe03012e,%eax
     658:	3a 0b                	cmp    (%ebx),%cl
     65a:	3b 0b                	cmp    (%ebx),%ecx
     65c:	39 0b                	cmp    %ecx,(%ebx)
     65e:	27                   	daa    
     65f:	19 49 13             	sbb    %ecx,0x13(%ecx)
     662:	11 01                	adc    %eax,(%ecx)
     664:	12 06                	adc    (%esi),%al
     666:	40                   	inc    %eax
     667:	18 96 42 19 01 13    	sbb    %dl,0x13011942(%esi)
     66d:	00 00                	add    %al,(%eax)
     66f:	16                   	push   %ss
     670:	05 00 03 08 3a       	add    $0x3a080300,%eax
     675:	0b 3b                	or     (%ebx),%edi
     677:	0b 39                	or     (%ecx),%edi
     679:	0b 49 13             	or     0x13(%ecx),%ecx
     67c:	02 18                	add    (%eax),%bl
     67e:	00 00                	add    %al,(%eax)
     680:	17                   	pop    %ss
     681:	05 00 03 0e 3a       	add    $0x3a0e0300,%eax
     686:	0b 3b                	or     (%ebx),%edi
     688:	0b 39                	or     (%ecx),%edi
     68a:	0b 49 13             	or     0x13(%ecx),%ecx
     68d:	02 18                	add    (%eax),%bl
     68f:	00 00                	add    %al,(%eax)
     691:	18 34 00             	sbb    %dh,(%eax,%eax,1)
     694:	03 0e                	add    (%esi),%ecx
     696:	3a 0b                	cmp    (%ebx),%cl
     698:	3b 0b                	cmp    (%ebx),%ecx
     69a:	39 0b                	cmp    %ecx,(%ebx)
     69c:	49                   	dec    %ecx
     69d:	13 02                	adc    (%edx),%eax
     69f:	18 00                	sbb    %al,(%eax)
     6a1:	00 19                	add    %bl,(%ecx)
     6a3:	0b 01                	or     (%ecx),%eax
     6a5:	11 01                	adc    %eax,(%ecx)
     6a7:	12 06                	adc    (%esi),%al
     6a9:	00 00                	add    %al,(%eax)
     6ab:	1a 34 00             	sbb    (%eax,%eax,1),%dh
     6ae:	03 08                	add    (%eax),%ecx
     6b0:	3a 0b                	cmp    (%ebx),%cl
     6b2:	3b 0b                	cmp    (%ebx),%ecx
     6b4:	39 0b                	cmp    %ecx,(%ebx)
     6b6:	49                   	dec    %ecx
     6b7:	13 02                	adc    (%edx),%eax
     6b9:	18 00                	sbb    %al,(%eax)
     6bb:	00 1b                	add    %bl,(%ebx)
     6bd:	2e 01 3f             	add    %edi,%cs:(%edi)
     6c0:	19 03                	sbb    %eax,(%ebx)
     6c2:	0e                   	push   %cs
     6c3:	3a 0b                	cmp    (%ebx),%cl
     6c5:	3b 0b                	cmp    (%ebx),%ecx
     6c7:	39 0b                	cmp    %ecx,(%ebx)
     6c9:	27                   	daa    
     6ca:	19 49 13             	sbb    %ecx,0x13(%ecx)
     6cd:	11 01                	adc    %eax,(%ecx)
     6cf:	12 06                	adc    (%esi),%al
     6d1:	40                   	inc    %eax
     6d2:	18 96 42 19 01 13    	sbb    %dl,0x13011942(%esi)
     6d8:	00 00                	add    %al,(%eax)
     6da:	1c 2e                	sbb    $0x2e,%al
     6dc:	01 3f                	add    %edi,(%edi)
     6de:	19 03                	sbb    %eax,(%ebx)
     6e0:	0e                   	push   %cs
     6e1:	3a 0b                	cmp    (%ebx),%cl
     6e3:	3b 0b                	cmp    (%ebx),%ecx
     6e5:	39 0b                	cmp    %ecx,(%ebx)
     6e7:	27                   	daa    
     6e8:	19 11                	sbb    %edx,(%ecx)
     6ea:	01 12                	add    %edx,(%edx)
     6ec:	06                   	push   %es
     6ed:	40                   	inc    %eax
     6ee:	18 96 42 19 01 13    	sbb    %dl,0x13011942(%esi)
     6f4:	00 00                	add    %al,(%eax)
     6f6:	1d 2e 01 3f 19       	sbb    $0x193f012e,%eax
     6fb:	03 0e                	add    (%esi),%ecx
     6fd:	3a 0b                	cmp    (%ebx),%cl
     6ff:	3b 0b                	cmp    (%ebx),%ecx
     701:	39 0b                	cmp    %ecx,(%ebx)
     703:	27                   	daa    
     704:	19 11                	sbb    %edx,(%ecx)
     706:	01 12                	add    %edx,(%edx)
     708:	06                   	push   %es
     709:	40                   	inc    %eax
     70a:	18 97 42 19 01 13    	sbb    %dl,0x13011942(%edi)
     710:	00 00                	add    %al,(%eax)
     712:	1e                   	push   %ds
     713:	2e 01 3f             	add    %edi,%cs:(%edi)
     716:	19 03                	sbb    %eax,(%ebx)
     718:	0e                   	push   %cs
     719:	3a 0b                	cmp    (%ebx),%cl
     71b:	3b 0b                	cmp    (%ebx),%ecx
     71d:	39 0b                	cmp    %ecx,(%ebx)
     71f:	11 01                	adc    %eax,(%ecx)
     721:	12 06                	adc    (%esi),%al
     723:	40                   	inc    %eax
     724:	18 96 42 19 01 13    	sbb    %dl,0x13011942(%esi)
     72a:	00 00                	add    %al,(%eax)
     72c:	1f                   	pop    %ds
     72d:	34 00                	xor    $0x0,%al
     72f:	03 0e                	add    (%esi),%ecx
     731:	3a 0b                	cmp    (%ebx),%cl
     733:	3b 0b                	cmp    (%ebx),%ecx
     735:	39 0b                	cmp    %ecx,(%ebx)
     737:	49                   	dec    %ecx
     738:	13 00                	adc    (%eax),%eax
     73a:	00 20                	add    %ah,(%eax)
     73c:	2e 01 03             	add    %eax,%cs:(%ebx)
     73f:	0e                   	push   %cs
     740:	3a 0b                	cmp    (%ebx),%cl
     742:	3b 0b                	cmp    (%ebx),%ecx
     744:	39 0b                	cmp    %ecx,(%ebx)
     746:	27                   	daa    
     747:	19 11                	sbb    %edx,(%ecx)
     749:	01 12                	add    %edx,(%edx)
     74b:	06                   	push   %es
     74c:	40                   	inc    %eax
     74d:	18 96 42 19 01 13    	sbb    %dl,0x13011942(%esi)
     753:	00 00                	add    %al,(%eax)
     755:	21 2e                	and    %ebp,(%esi)
     757:	01 03                	add    %eax,(%ebx)
     759:	0e                   	push   %cs
     75a:	3a 0b                	cmp    (%ebx),%cl
     75c:	3b 0b                	cmp    (%ebx),%ecx
     75e:	39 0b                	cmp    %ecx,(%ebx)
     760:	49                   	dec    %ecx
     761:	13 11                	adc    (%ecx),%edx
     763:	01 12                	add    %edx,(%edx)
     765:	06                   	push   %es
     766:	40                   	inc    %eax
     767:	18 97 42 19 01 13    	sbb    %dl,0x13011942(%edi)
     76d:	00 00                	add    %al,(%eax)
     76f:	22 2e                	and    (%esi),%ch
     771:	01 03                	add    %eax,(%ebx)
     773:	0e                   	push   %cs
     774:	3a 0b                	cmp    (%ebx),%cl
     776:	3b 0b                	cmp    (%ebx),%ecx
     778:	39 0b                	cmp    %ecx,(%ebx)
     77a:	27                   	daa    
     77b:	19 49 13             	sbb    %ecx,0x13(%ecx)
     77e:	11 01                	adc    %eax,(%ecx)
     780:	12 06                	adc    (%esi),%al
     782:	40                   	inc    %eax
     783:	18 97 42 19 01 13    	sbb    %dl,0x13011942(%edi)
     789:	00 00                	add    %al,(%eax)
     78b:	23 2e                	and    (%esi),%ebp
     78d:	01 03                	add    %eax,(%ebx)
     78f:	0e                   	push   %cs
     790:	3a 0b                	cmp    (%ebx),%cl
     792:	3b 0b                	cmp    (%ebx),%ecx
     794:	39 0b                	cmp    %ecx,(%ebx)
     796:	27                   	daa    
     797:	19 11                	sbb    %edx,(%ecx)
     799:	01 12                	add    %edx,(%edx)
     79b:	06                   	push   %es
     79c:	40                   	inc    %eax
     79d:	18 97 42 19 01 13    	sbb    %dl,0x13011942(%edi)
     7a3:	00 00                	add    %al,(%eax)
     7a5:	24 2e                	and    $0x2e,%al
     7a7:	01 03                	add    %eax,(%ebx)
     7a9:	0e                   	push   %cs
     7aa:	3a 0b                	cmp    (%ebx),%cl
     7ac:	3b 0b                	cmp    (%ebx),%ecx
     7ae:	39 0b                	cmp    %ecx,(%ebx)
     7b0:	27                   	daa    
     7b1:	19 11                	sbb    %edx,(%ecx)
     7b3:	01 12                	add    %edx,(%edx)
     7b5:	06                   	push   %es
     7b6:	40                   	inc    %eax
     7b7:	18 97 42 19 00 00    	sbb    %dl,0x1942(%edi)
     7bd:	00 01                	add    %al,(%ecx)
     7bf:	11 01                	adc    %eax,(%ecx)
     7c1:	25 0e 13 0b 03       	and    $0x30b130e,%eax
     7c6:	0e                   	push   %cs
     7c7:	1b 0e                	sbb    (%esi),%ecx
     7c9:	11 01                	adc    %eax,(%ecx)
     7cb:	12 06                	adc    (%esi),%al
     7cd:	10 17                	adc    %dl,(%edi)
     7cf:	00 00                	add    %al,(%eax)
     7d1:	02 16                	add    (%esi),%dl
     7d3:	00 03                	add    %al,(%ebx)
     7d5:	0e                   	push   %cs
     7d6:	3a 0b                	cmp    (%ebx),%cl
     7d8:	3b 0b                	cmp    (%ebx),%ecx
     7da:	39 0b                	cmp    %ecx,(%ebx)
     7dc:	49                   	dec    %ecx
     7dd:	13 00                	adc    (%eax),%eax
     7df:	00 03                	add    %al,(%ebx)
     7e1:	24 00                	and    $0x0,%al
     7e3:	0b 0b                	or     (%ebx),%ecx
     7e5:	3e 0b 03             	or     %ds:(%ebx),%eax
     7e8:	0e                   	push   %cs
     7e9:	00 00                	add    %al,(%eax)
     7eb:	04 24                	add    $0x24,%al
     7ed:	00 0b                	add    %cl,(%ebx)
     7ef:	0b 3e                	or     (%esi),%edi
     7f1:	0b 03                	or     (%ebx),%eax
     7f3:	08 00                	or     %al,(%eax)
     7f5:	00 05 13 01 03 0e    	add    %al,0xe030113
     7fb:	0b 0b                	or     (%ebx),%ecx
     7fd:	3a 0b                	cmp    (%ebx),%cl
     7ff:	3b 0b                	cmp    (%ebx),%ecx
     801:	39 0b                	cmp    %ecx,(%ebx)
     803:	01 13                	add    %edx,(%ebx)
     805:	00 00                	add    %al,(%eax)
     807:	06                   	push   %es
     808:	0d 00 03 0e 3a       	or     $0x3a0e0300,%eax
     80d:	0b 3b                	or     (%ebx),%edi
     80f:	0b 39                	or     (%ecx),%edi
     811:	0b 49 13             	or     0x13(%ecx),%ecx
     814:	38 0b                	cmp    %cl,(%ebx)
     816:	00 00                	add    %al,(%eax)
     818:	07                   	pop    %es
     819:	0d 00 03 08 3a       	or     $0x3a080300,%eax
     81e:	0b 3b                	or     (%ebx),%edi
     820:	0b 39                	or     (%ecx),%edi
     822:	0b 49 13             	or     0x13(%ecx),%ecx
     825:	38 0b                	cmp    %cl,(%ebx)
     827:	00 00                	add    %al,(%eax)
     829:	08 17                	or     %dl,(%edi)
     82b:	01 0b                	add    %ecx,(%ebx)
     82d:	0b 3a                	or     (%edx),%edi
     82f:	0b 3b                	or     (%ebx),%edi
     831:	0b 39                	or     (%ecx),%edi
     833:	0b 01                	or     (%ecx),%eax
     835:	13 00                	adc    (%eax),%eax
     837:	00 09                	add    %cl,(%ecx)
     839:	0d 00 03 0e 3a       	or     $0x3a0e0300,%eax
     83e:	0b 3b                	or     (%ebx),%edi
     840:	0b 39                	or     (%ecx),%edi
     842:	0b 49 13             	or     0x13(%ecx),%ecx
     845:	00 00                	add    %al,(%eax)
     847:	0a 13                	or     (%ebx),%dl
     849:	01 0b                	add    %ecx,(%ebx)
     84b:	0b 3a                	or     (%edx),%edi
     84d:	0b 3b                	or     (%ebx),%edi
     84f:	0b 39                	or     (%ecx),%edi
     851:	0b 01                	or     (%ecx),%eax
     853:	13 00                	adc    (%eax),%eax
     855:	00 0b                	add    %cl,(%ebx)
     857:	0d 00 49 13 00       	or     $0x134900,%eax
     85c:	00 0c 0d 00 49 13 38 	add    %cl,0x38134900(,%ecx,1)
     863:	0b 00                	or     (%eax),%eax
     865:	00 0d 0f 00 0b 0b    	add    %cl,0xb0b000f
     86b:	49                   	dec    %ecx
     86c:	13 00                	adc    (%eax),%eax
     86e:	00 0e                	add    %cl,(%esi)
     870:	15 01 27 19 49       	adc    $0x49192701,%eax
     875:	13 01                	adc    (%ecx),%eax
     877:	13 00                	adc    (%eax),%eax
     879:	00 0f                	add    %cl,(%edi)
     87b:	05 00 49 13 00       	add    $0x134900,%eax
     880:	00 10                	add    %dl,(%eax)
     882:	15 01 27 19 01       	adc    $0x1192701,%eax
     887:	13 00                	adc    (%eax),%eax
     889:	00 11                	add    %dl,(%ecx)
     88b:	01 01                	add    %eax,(%ecx)
     88d:	49                   	dec    %ecx
     88e:	13 01                	adc    (%ecx),%eax
     890:	13 00                	adc    (%eax),%eax
     892:	00 12                	add    %dl,(%edx)
     894:	21 00                	and    %eax,(%eax)
     896:	49                   	dec    %ecx
     897:	13 2f                	adc    (%edi),%ebp
     899:	0b 00                	or     (%eax),%eax
     89b:	00 13                	add    %dl,(%ebx)
     89d:	34 00                	xor    $0x0,%al
     89f:	03 0e                	add    (%esi),%ecx
     8a1:	3a 0b                	cmp    (%ebx),%cl
     8a3:	3b 0b                	cmp    (%ebx),%ecx
     8a5:	39 0b                	cmp    %ecx,(%ebx)
     8a7:	49                   	dec    %ecx
     8a8:	13 3f                	adc    (%edi),%edi
     8aa:	19 3c 19             	sbb    %edi,(%ecx,%ebx,1)
     8ad:	00 00                	add    %al,(%eax)
     8af:	14 34                	adc    $0x34,%al
     8b1:	00 03                	add    %al,(%ebx)
     8b3:	0e                   	push   %cs
     8b4:	3a 0b                	cmp    (%ebx),%cl
     8b6:	3b 0b                	cmp    (%ebx),%ecx
     8b8:	39 0b                	cmp    %ecx,(%ebx)
     8ba:	49                   	dec    %ecx
     8bb:	13 3f                	adc    (%edi),%edi
     8bd:	19 02                	sbb    %eax,(%edx)
     8bf:	18 00                	sbb    %al,(%eax)
     8c1:	00 15 2e 01 3f 19    	add    %dl,0x193f012e
     8c7:	03 0e                	add    (%esi),%ecx
     8c9:	3a 0b                	cmp    (%ebx),%cl
     8cb:	3b 0b                	cmp    (%ebx),%ecx
     8cd:	39 0b                	cmp    %ecx,(%ebx)
     8cf:	27                   	daa    
     8d0:	19 49 13             	sbb    %ecx,0x13(%ecx)
     8d3:	11 01                	adc    %eax,(%ecx)
     8d5:	12 06                	adc    (%esi),%al
     8d7:	40                   	inc    %eax
     8d8:	18 96 42 19 01 13    	sbb    %dl,0x13011942(%esi)
     8de:	00 00                	add    %al,(%eax)
     8e0:	16                   	push   %ss
     8e1:	05 00 03 0e 3a       	add    $0x3a0e0300,%eax
     8e6:	0b 3b                	or     (%ebx),%edi
     8e8:	0b 39                	or     (%ecx),%edi
     8ea:	0b 49 13             	or     0x13(%ecx),%ecx
     8ed:	02 18                	add    (%eax),%bl
     8ef:	00 00                	add    %al,(%eax)
     8f1:	17                   	pop    %ss
     8f2:	34 00                	xor    $0x0,%al
     8f4:	03 0e                	add    (%esi),%ecx
     8f6:	3a 0b                	cmp    (%ebx),%cl
     8f8:	3b 0b                	cmp    (%ebx),%ecx
     8fa:	39 0b                	cmp    %ecx,(%ebx)
     8fc:	49                   	dec    %ecx
     8fd:	13 02                	adc    (%edx),%eax
     8ff:	18 00                	sbb    %al,(%eax)
     901:	00 18                	add    %bl,(%eax)
     903:	15 00 27 19 00       	adc    $0x192700,%eax
     908:	00 00                	add    %al,(%eax)
     90a:	01 11                	add    %edx,(%ecx)
     90c:	01 25 0e 13 0b 03    	add    %esp,0x30b130e
     912:	0e                   	push   %cs
     913:	1b 0e                	sbb    (%esi),%ecx
     915:	11 01                	adc    %eax,(%ecx)
     917:	12 06                	adc    (%esi),%al
     919:	10 17                	adc    %dl,(%edi)
     91b:	00 00                	add    %al,(%eax)
     91d:	02 16                	add    (%esi),%dl
     91f:	00 03                	add    %al,(%ebx)
     921:	0e                   	push   %cs
     922:	3a 0b                	cmp    (%ebx),%cl
     924:	3b 0b                	cmp    (%ebx),%ecx
     926:	39 0b                	cmp    %ecx,(%ebx)
     928:	49                   	dec    %ecx
     929:	13 00                	adc    (%eax),%eax
     92b:	00 03                	add    %al,(%ebx)
     92d:	24 00                	and    $0x0,%al
     92f:	0b 0b                	or     (%ebx),%ecx
     931:	3e 0b 03             	or     %ds:(%ebx),%eax
     934:	0e                   	push   %cs
     935:	00 00                	add    %al,(%eax)
     937:	04 24                	add    $0x24,%al
     939:	00 0b                	add    %cl,(%ebx)
     93b:	0b 3e                	or     (%esi),%edi
     93d:	0b 03                	or     (%ebx),%eax
     93f:	08 00                	or     %al,(%eax)
     941:	00 05 0f 00 0b 0b    	add    %al,0xb0b000f
     947:	49                   	dec    %ecx
     948:	13 00                	adc    (%eax),%eax
     94a:	00 06                	add    %al,(%esi)
     94c:	15 01 27 19 49       	adc    $0x49192701,%eax
     951:	13 01                	adc    (%ecx),%eax
     953:	13 00                	adc    (%eax),%eax
     955:	00 07                	add    %al,(%edi)
     957:	05 00 49 13 00       	add    $0x134900,%eax
     95c:	00 08                	add    %cl,(%eax)
     95e:	13 01                	adc    (%ecx),%eax
     960:	03 0e                	add    (%esi),%ecx
     962:	0b 0b                	or     (%ebx),%ecx
     964:	3a 0b                	cmp    (%ebx),%cl
     966:	3b 0b                	cmp    (%ebx),%ecx
     968:	39 0b                	cmp    %ecx,(%ebx)
     96a:	01 13                	add    %edx,(%ebx)
     96c:	00 00                	add    %al,(%eax)
     96e:	09 0d 00 03 0e 3a    	or     %ecx,0x3a0e0300
     974:	0b 3b                	or     (%ebx),%edi
     976:	0b 39                	or     (%ecx),%edi
     978:	0b 49 13             	or     0x13(%ecx),%ecx
     97b:	38 0b                	cmp    %cl,(%ebx)
     97d:	00 00                	add    %al,(%eax)
     97f:	0a 0d 00 03 08 3a    	or     0x3a080300,%cl
     985:	0b 3b                	or     (%ebx),%edi
     987:	0b 39                	or     (%ecx),%edi
     989:	0b 49 13             	or     0x13(%ecx),%ecx
     98c:	38 0b                	cmp    %cl,(%ebx)
     98e:	00 00                	add    %al,(%eax)
     990:	0b 15 01 27 19 01    	or     0x1192701,%edx
     996:	13 00                	adc    (%eax),%eax
     998:	00 0c 01             	add    %cl,(%ecx,%eax,1)
     99b:	01 49 13             	add    %ecx,0x13(%ecx)
     99e:	01 13                	add    %edx,(%ebx)
     9a0:	00 00                	add    %al,(%eax)
     9a2:	0d 21 00 49 13       	or     $0x13490021,%eax
     9a7:	2f                   	das    
     9a8:	0b 00                	or     (%eax),%eax
     9aa:	00 0e                	add    %cl,(%esi)
     9ac:	34 00                	xor    $0x0,%al
     9ae:	03 0e                	add    (%esi),%ecx
     9b0:	3a 0b                	cmp    (%ebx),%cl
     9b2:	3b 0b                	cmp    (%ebx),%ecx
     9b4:	39 0b                	cmp    %ecx,(%ebx)
     9b6:	49                   	dec    %ecx
     9b7:	13 3f                	adc    (%edi),%edi
     9b9:	19 3c 19             	sbb    %edi,(%ecx,%ebx,1)
     9bc:	00 00                	add    %al,(%eax)
     9be:	0f 34                	sysenter 
     9c0:	00 47 13             	add    %al,0x13(%edi)
     9c3:	3a 0b                	cmp    (%ebx),%cl
     9c5:	3b 0b                	cmp    (%ebx),%ecx
     9c7:	39 0b                	cmp    %ecx,(%ebx)
     9c9:	02 18                	add    (%eax),%bl
     9cb:	00 00                	add    %al,(%eax)
     9cd:	10 2e                	adc    %ch,(%esi)
     9cf:	01 3f                	add    %edi,(%edi)
     9d1:	19 03                	sbb    %eax,(%ebx)
     9d3:	0e                   	push   %cs
     9d4:	3a 0b                	cmp    (%ebx),%cl
     9d6:	3b 0b                	cmp    (%ebx),%ecx
     9d8:	39 0b                	cmp    %ecx,(%ebx)
     9da:	27                   	daa    
     9db:	19 49 13             	sbb    %ecx,0x13(%ecx)
     9de:	11 01                	adc    %eax,(%ecx)
     9e0:	12 06                	adc    (%esi),%al
     9e2:	40                   	inc    %eax
     9e3:	18 96 42 19 01 13    	sbb    %dl,0x13011942(%esi)
     9e9:	00 00                	add    %al,(%eax)
     9eb:	11 05 00 03 0e 3a    	adc    %eax,0x3a0e0300
     9f1:	0b 3b                	or     (%ebx),%edi
     9f3:	0b 39                	or     (%ecx),%edi
     9f5:	0b 49 13             	or     0x13(%ecx),%ecx
     9f8:	02 18                	add    (%eax),%bl
     9fa:	00 00                	add    %al,(%eax)
     9fc:	12 2e                	adc    (%esi),%ch
     9fe:	01 3f                	add    %edi,(%edi)
     a00:	19 03                	sbb    %eax,(%ebx)
     a02:	0e                   	push   %cs
     a03:	3a 0b                	cmp    (%ebx),%cl
     a05:	3b 0b                	cmp    (%ebx),%ecx
     a07:	39 0b                	cmp    %ecx,(%ebx)
     a09:	27                   	daa    
     a0a:	19 11                	sbb    %edx,(%ecx)
     a0c:	01 12                	add    %edx,(%edx)
     a0e:	06                   	push   %es
     a0f:	40                   	inc    %eax
     a10:	18 96 42 19 01 13    	sbb    %dl,0x13011942(%esi)
     a16:	00 00                	add    %al,(%eax)
     a18:	13 2e                	adc    (%esi),%ebp
     a1a:	01 3f                	add    %edi,(%edi)
     a1c:	19 03                	sbb    %eax,(%ebx)
     a1e:	0e                   	push   %cs
     a1f:	3a 0b                	cmp    (%ebx),%cl
     a21:	3b 0b                	cmp    (%ebx),%ecx
     a23:	39 0b                	cmp    %ecx,(%ebx)
     a25:	27                   	daa    
     a26:	19 49 13             	sbb    %ecx,0x13(%ecx)
     a29:	11 01                	adc    %eax,(%ecx)
     a2b:	12 06                	adc    (%esi),%al
     a2d:	40                   	inc    %eax
     a2e:	18 96 42 19 00 00    	sbb    %dl,0x1942(%esi)
     a34:	00 01                	add    %al,(%ecx)
     a36:	11 01                	adc    %eax,(%ecx)
     a38:	25 0e 13 0b 03       	and    $0x30b130e,%eax
     a3d:	0e                   	push   %cs
     a3e:	1b 0e                	sbb    (%esi),%ecx
     a40:	11 01                	adc    %eax,(%ecx)
     a42:	12 06                	adc    (%esi),%al
     a44:	10 17                	adc    %dl,(%edi)
     a46:	00 00                	add    %al,(%eax)
     a48:	02 16                	add    (%esi),%dl
     a4a:	00 03                	add    %al,(%ebx)
     a4c:	0e                   	push   %cs
     a4d:	3a 0b                	cmp    (%ebx),%cl
     a4f:	3b 0b                	cmp    (%ebx),%ecx
     a51:	39 0b                	cmp    %ecx,(%ebx)
     a53:	49                   	dec    %ecx
     a54:	13 00                	adc    (%eax),%eax
     a56:	00 03                	add    %al,(%ebx)
     a58:	24 00                	and    $0x0,%al
     a5a:	0b 0b                	or     (%ebx),%ecx
     a5c:	3e 0b 03             	or     %ds:(%ebx),%eax
     a5f:	0e                   	push   %cs
     a60:	00 00                	add    %al,(%eax)
     a62:	04 24                	add    $0x24,%al
     a64:	00 0b                	add    %cl,(%ebx)
     a66:	0b 3e                	or     (%esi),%edi
     a68:	0b 03                	or     (%ebx),%eax
     a6a:	08 00                	or     %al,(%eax)
     a6c:	00 05 13 01 03 0e    	add    %al,0xe030113
     a72:	0b 0b                	or     (%ebx),%ecx
     a74:	3a 0b                	cmp    (%ebx),%cl
     a76:	3b 0b                	cmp    (%ebx),%ecx
     a78:	39 0b                	cmp    %ecx,(%ebx)
     a7a:	01 13                	add    %edx,(%ebx)
     a7c:	00 00                	add    %al,(%eax)
     a7e:	06                   	push   %es
     a7f:	0d 00 03 0e 3a       	or     $0x3a0e0300,%eax
     a84:	0b 3b                	or     (%ebx),%edi
     a86:	0b 39                	or     (%ecx),%edi
     a88:	0b 49 13             	or     0x13(%ecx),%ecx
     a8b:	38 0b                	cmp    %cl,(%ebx)
     a8d:	00 00                	add    %al,(%eax)
     a8f:	07                   	pop    %es
     a90:	34 00                	xor    $0x0,%al
     a92:	03 08                	add    (%eax),%ecx
     a94:	3a 0b                	cmp    (%ebx),%cl
     a96:	3b 0b                	cmp    (%ebx),%ecx
     a98:	39 0b                	cmp    %ecx,(%ebx)
     a9a:	49                   	dec    %ecx
     a9b:	13 3f                	adc    (%edi),%edi
     a9d:	19 02                	sbb    %eax,(%edx)
     a9f:	18 00                	sbb    %al,(%eax)
     aa1:	00 08                	add    %cl,(%eax)
     aa3:	01 01                	add    %eax,(%ecx)
     aa5:	49                   	dec    %ecx
     aa6:	13 01                	adc    (%ecx),%eax
     aa8:	13 00                	adc    (%eax),%eax
     aaa:	00 09                	add    %cl,(%ecx)
     aac:	21 00                	and    %eax,(%eax)
     aae:	49                   	dec    %ecx
     aaf:	13 2f                	adc    (%edi),%ebp
     ab1:	0b 00                	or     (%eax),%eax
     ab3:	00 0a                	add    %cl,(%edx)
     ab5:	34 00                	xor    $0x0,%al
     ab7:	03 0e                	add    (%esi),%ecx
     ab9:	3a 0b                	cmp    (%ebx),%cl
     abb:	3b 0b                	cmp    (%ebx),%ecx
     abd:	39 0b                	cmp    %ecx,(%ebx)
     abf:	49                   	dec    %ecx
     ac0:	13 3f                	adc    (%edi),%edi
     ac2:	19 02                	sbb    %eax,(%edx)
     ac4:	18 00                	sbb    %al,(%eax)
     ac6:	00 0b                	add    %cl,(%ebx)
     ac8:	2e 00 3f             	add    %bh,%cs:(%edi)
     acb:	19 03                	sbb    %eax,(%ebx)
     acd:	0e                   	push   %cs
     ace:	3a 0b                	cmp    (%ebx),%cl
     ad0:	3b 0b                	cmp    (%ebx),%ecx
     ad2:	39 0b                	cmp    %ecx,(%ebx)
     ad4:	11 01                	adc    %eax,(%ecx)
     ad6:	12 06                	adc    (%esi),%al
     ad8:	40                   	inc    %eax
     ad9:	18 96 42 19 00 00    	sbb    %dl,0x1942(%esi)
     adf:	0c 2e                	or     $0x2e,%al
     ae1:	01 03                	add    %eax,(%ebx)
     ae3:	0e                   	push   %cs
     ae4:	3a 0b                	cmp    (%ebx),%cl
     ae6:	3b 0b                	cmp    (%ebx),%ecx
     ae8:	39 0b                	cmp    %ecx,(%ebx)
     aea:	27                   	daa    
     aeb:	19 11                	sbb    %edx,(%ecx)
     aed:	01 12                	add    %edx,(%edx)
     aef:	06                   	push   %es
     af0:	40                   	inc    %eax
     af1:	18 97 42 19 00 00    	sbb    %dl,0x1942(%edi)
     af7:	0d 05 00 03 08       	or     $0x8030005,%eax
     afc:	3a 0b                	cmp    (%ebx),%cl
     afe:	3b 0b                	cmp    (%ebx),%ecx
     b00:	39 0b                	cmp    %ecx,(%ebx)
     b02:	49                   	dec    %ecx
     b03:	13 02                	adc    (%edx),%eax
     b05:	18 00                	sbb    %al,(%eax)
     b07:	00 0e                	add    %cl,(%esi)
     b09:	05 00 03 0e 3a       	add    $0x3a0e0300,%eax
     b0e:	0b 3b                	or     (%ebx),%edi
     b10:	0b 39                	or     (%ecx),%edi
     b12:	0b 49 13             	or     0x13(%ecx),%ecx
     b15:	02 18                	add    (%eax),%bl
     b17:	00 00                	add    %al,(%eax)
     b19:	00 01                	add    %al,(%ecx)
     b1b:	11 01                	adc    %eax,(%ecx)
     b1d:	25 0e 13 0b 03       	and    $0x30b130e,%eax
     b22:	0e                   	push   %cs
     b23:	1b 0e                	sbb    (%esi),%ecx
     b25:	11 01                	adc    %eax,(%ecx)
     b27:	12 06                	adc    (%esi),%al
     b29:	10 17                	adc    %dl,(%edi)
     b2b:	00 00                	add    %al,(%eax)
     b2d:	02 16                	add    (%esi),%dl
     b2f:	00 03                	add    %al,(%ebx)
     b31:	0e                   	push   %cs
     b32:	3a 0b                	cmp    (%ebx),%cl
     b34:	3b 0b                	cmp    (%ebx),%ecx
     b36:	39 0b                	cmp    %ecx,(%ebx)
     b38:	49                   	dec    %ecx
     b39:	13 00                	adc    (%eax),%eax
     b3b:	00 03                	add    %al,(%ebx)
     b3d:	24 00                	and    $0x0,%al
     b3f:	0b 0b                	or     (%ebx),%ecx
     b41:	3e 0b 03             	or     %ds:(%ebx),%eax
     b44:	0e                   	push   %cs
     b45:	00 00                	add    %al,(%eax)
     b47:	04 24                	add    $0x24,%al
     b49:	00 0b                	add    %cl,(%ebx)
     b4b:	0b 3e                	or     (%esi),%edi
     b4d:	0b 03                	or     (%ebx),%eax
     b4f:	08 00                	or     %al,(%eax)
     b51:	00 05 2e 01 3f 19    	add    %al,0x193f012e
     b57:	03 08                	add    (%eax),%ecx
     b59:	3a 0b                	cmp    (%ebx),%cl
     b5b:	3b 0b                	cmp    (%ebx),%ecx
     b5d:	39 0b                	cmp    %ecx,(%ebx)
     b5f:	27                   	daa    
     b60:	19 49 13             	sbb    %ecx,0x13(%ecx)
     b63:	11 01                	adc    %eax,(%ecx)
     b65:	12 06                	adc    (%esi),%al
     b67:	40                   	inc    %eax
     b68:	18 97 42 19 01 13    	sbb    %dl,0x13011942(%edi)
     b6e:	00 00                	add    %al,(%eax)
     b70:	06                   	push   %es
     b71:	05 00 03 0e 3a       	add    $0x3a0e0300,%eax
     b76:	0b 3b                	or     (%ebx),%edi
     b78:	0b 39                	or     (%ecx),%edi
     b7a:	0b 49 13             	or     0x13(%ecx),%ecx
     b7d:	02 18                	add    (%eax),%bl
     b7f:	00 00                	add    %al,(%eax)
     b81:	07                   	pop    %es
     b82:	34 00                	xor    $0x0,%al
     b84:	03 0e                	add    (%esi),%ecx
     b86:	3a 0b                	cmp    (%ebx),%cl
     b88:	3b 0b                	cmp    (%ebx),%ecx
     b8a:	39 0b                	cmp    %ecx,(%ebx)
     b8c:	49                   	dec    %ecx
     b8d:	13 02                	adc    (%edx),%eax
     b8f:	18 00                	sbb    %al,(%eax)
     b91:	00 08                	add    %cl,(%eax)
     b93:	2e 01 3f             	add    %edi,%cs:(%edi)
     b96:	19 03                	sbb    %eax,(%ebx)
     b98:	0e                   	push   %cs
     b99:	3a 0b                	cmp    (%ebx),%cl
     b9b:	3b 0b                	cmp    (%ebx),%ecx
     b9d:	39 0b                	cmp    %ecx,(%ebx)
     b9f:	27                   	daa    
     ba0:	19 11                	sbb    %edx,(%ecx)
     ba2:	01 12                	add    %edx,(%edx)
     ba4:	06                   	push   %es
     ba5:	40                   	inc    %eax
     ba6:	18 97 42 19 01 13    	sbb    %dl,0x13011942(%edi)
     bac:	00 00                	add    %al,(%eax)
     bae:	09 05 00 03 08 3a    	or     %eax,0x3a080300
     bb4:	0b 3b                	or     (%ebx),%edi
     bb6:	0b 39                	or     (%ecx),%edi
     bb8:	0b 49 13             	or     0x13(%ecx),%ecx
     bbb:	02 18                	add    (%eax),%bl
     bbd:	00 00                	add    %al,(%eax)
     bbf:	0a 0f                	or     (%edi),%cl
     bc1:	00 0b                	add    %cl,(%ebx)
     bc3:	0b 49 13             	or     0x13(%ecx),%ecx
     bc6:	00 00                	add    %al,(%eax)
     bc8:	0b 2e                	or     (%esi),%ebp
     bca:	01 3f                	add    %edi,(%edi)
     bcc:	19 03                	sbb    %eax,(%ebx)
     bce:	0e                   	push   %cs
     bcf:	3a 0b                	cmp    (%ebx),%cl
     bd1:	3b 0b                	cmp    (%ebx),%ecx
     bd3:	39 0b                	cmp    %ecx,(%ebx)
     bd5:	27                   	daa    
     bd6:	19 49 13             	sbb    %ecx,0x13(%ecx)
     bd9:	11 01                	adc    %eax,(%ecx)
     bdb:	12 06                	adc    (%esi),%al
     bdd:	40                   	inc    %eax
     bde:	18 96 42 19 01 13    	sbb    %dl,0x13011942(%esi)
     be4:	00 00                	add    %al,(%eax)
     be6:	0c 34                	or     $0x34,%al
     be8:	00 03                	add    %al,(%ebx)
     bea:	08 3a                	or     %bh,(%edx)
     bec:	0b 3b                	or     (%ebx),%edi
     bee:	0b 39                	or     (%ecx),%edi
     bf0:	0b 49 13             	or     0x13(%ecx),%ecx
     bf3:	02 18                	add    (%eax),%bl
     bf5:	00 00                	add    %al,(%eax)
     bf7:	0d 0b 01 11 01       	or     $0x111010b,%eax
     bfc:	12 06                	adc    (%esi),%al
     bfe:	00 00                	add    %al,(%eax)
     c00:	0e                   	push   %cs
     c01:	2e 01 3f             	add    %edi,%cs:(%edi)
     c04:	19 03                	sbb    %eax,(%ebx)
     c06:	0e                   	push   %cs
     c07:	3a 0b                	cmp    (%ebx),%cl
     c09:	3b 0b                	cmp    (%ebx),%ecx
     c0b:	39 0b                	cmp    %ecx,(%ebx)
     c0d:	27                   	daa    
     c0e:	19 11                	sbb    %edx,(%ecx)
     c10:	01 12                	add    %edx,(%edx)
     c12:	06                   	push   %es
     c13:	40                   	inc    %eax
     c14:	18 96 42 19 01 13    	sbb    %dl,0x13011942(%esi)
     c1a:	00 00                	add    %al,(%eax)
     c1c:	0f 2e 01             	ucomiss (%ecx),%xmm0
     c1f:	3f                   	aas    
     c20:	19 03                	sbb    %eax,(%ebx)
     c22:	0e                   	push   %cs
     c23:	3a 0b                	cmp    (%ebx),%cl
     c25:	3b 0b                	cmp    (%ebx),%ecx
     c27:	39 0b                	cmp    %ecx,(%ebx)
     c29:	49                   	dec    %ecx
     c2a:	13 11                	adc    (%ecx),%edx
     c2c:	01 12                	add    %edx,(%edx)
     c2e:	06                   	push   %es
     c2f:	40                   	inc    %eax
     c30:	18 96 42 19 00 00    	sbb    %dl,0x1942(%esi)
     c36:	00 01                	add    %al,(%ecx)
     c38:	11 01                	adc    %eax,(%ecx)
     c3a:	25 0e 13 0b 03       	and    $0x30b130e,%eax
     c3f:	0e                   	push   %cs
     c40:	1b 0e                	sbb    (%esi),%ecx
     c42:	11 01                	adc    %eax,(%ecx)
     c44:	12 06                	adc    (%esi),%al
     c46:	10 17                	adc    %dl,(%edi)
     c48:	00 00                	add    %al,(%eax)
     c4a:	02 16                	add    (%esi),%dl
     c4c:	00 03                	add    %al,(%ebx)
     c4e:	0e                   	push   %cs
     c4f:	3a 0b                	cmp    (%ebx),%cl
     c51:	3b 0b                	cmp    (%ebx),%ecx
     c53:	39 0b                	cmp    %ecx,(%ebx)
     c55:	49                   	dec    %ecx
     c56:	13 00                	adc    (%eax),%eax
     c58:	00 03                	add    %al,(%ebx)
     c5a:	24 00                	and    $0x0,%al
     c5c:	0b 0b                	or     (%ebx),%ecx
     c5e:	3e 0b 03             	or     %ds:(%ebx),%eax
     c61:	0e                   	push   %cs
     c62:	00 00                	add    %al,(%eax)
     c64:	04 24                	add    $0x24,%al
     c66:	00 0b                	add    %cl,(%ebx)
     c68:	0b 3e                	or     (%esi),%edi
     c6a:	0b 03                	or     (%ebx),%eax
     c6c:	08 00                	or     %al,(%eax)
     c6e:	00 05 13 01 03 0e    	add    %al,0xe030113
     c74:	0b 0b                	or     (%ebx),%ecx
     c76:	3a 0b                	cmp    (%ebx),%cl
     c78:	3b 0b                	cmp    (%ebx),%ecx
     c7a:	39 0b                	cmp    %ecx,(%ebx)
     c7c:	01 13                	add    %edx,(%ebx)
     c7e:	00 00                	add    %al,(%eax)
     c80:	06                   	push   %es
     c81:	0d 00 03 0e 3a       	or     $0x3a0e0300,%eax
     c86:	0b 3b                	or     (%ebx),%edi
     c88:	0b 39                	or     (%ecx),%edi
     c8a:	0b 49 13             	or     0x13(%ecx),%ecx
     c8d:	38 0b                	cmp    %cl,(%ebx)
     c8f:	00 00                	add    %al,(%eax)
     c91:	07                   	pop    %es
     c92:	0d 00 03 08 3a       	or     $0x3a080300,%eax
     c97:	0b 3b                	or     (%ebx),%edi
     c99:	0b 39                	or     (%ecx),%edi
     c9b:	0b 49 13             	or     0x13(%ecx),%ecx
     c9e:	38 0b                	cmp    %cl,(%ebx)
     ca0:	00 00                	add    %al,(%eax)
     ca2:	08 0f                	or     %cl,(%edi)
     ca4:	00 0b                	add    %cl,(%ebx)
     ca6:	0b 49 13             	or     0x13(%ecx),%ecx
     ca9:	00 00                	add    %al,(%eax)
     cab:	09 15 01 27 19 01    	or     %edx,0x1192701
     cb1:	13 00                	adc    (%eax),%eax
     cb3:	00 0a                	add    %cl,(%edx)
     cb5:	05 00 49 13 00       	add    $0x134900,%eax
     cba:	00 0b                	add    %cl,(%ebx)
     cbc:	34 00                	xor    $0x0,%al
     cbe:	03 08                	add    (%eax),%ecx
     cc0:	3a 0b                	cmp    (%ebx),%cl
     cc2:	3b 0b                	cmp    (%ebx),%ecx
     cc4:	39 0b                	cmp    %ecx,(%ebx)
     cc6:	49                   	dec    %ecx
     cc7:	13 3f                	adc    (%edi),%edi
     cc9:	19 02                	sbb    %eax,(%edx)
     ccb:	18 00                	sbb    %al,(%eax)
     ccd:	00 0c 01             	add    %cl,(%ecx,%eax,1)
     cd0:	01 49 13             	add    %ecx,0x13(%ecx)
     cd3:	01 13                	add    %edx,(%ebx)
     cd5:	00 00                	add    %al,(%eax)
     cd7:	0d 21 00 49 13       	or     $0x13490021,%eax
     cdc:	2f                   	das    
     cdd:	0b 00                	or     (%eax),%eax
     cdf:	00 0e                	add    %cl,(%esi)
     ce1:	34 00                	xor    $0x0,%al
     ce3:	03 0e                	add    (%esi),%ecx
     ce5:	3a 0b                	cmp    (%ebx),%cl
     ce7:	3b 0b                	cmp    (%ebx),%ecx
     ce9:	39 0b                	cmp    %ecx,(%ebx)
     ceb:	49                   	dec    %ecx
     cec:	13 3f                	adc    (%edi),%edi
     cee:	19 02                	sbb    %eax,(%edx)
     cf0:	18 00                	sbb    %al,(%eax)
     cf2:	00 0f                	add    %cl,(%edi)
     cf4:	2e 01 3f             	add    %edi,%cs:(%edi)
     cf7:	19 03                	sbb    %eax,(%ebx)
     cf9:	0e                   	push   %cs
     cfa:	3a 0b                	cmp    (%ebx),%cl
     cfc:	3b 0b                	cmp    (%ebx),%ecx
     cfe:	39 0b                	cmp    %ecx,(%ebx)
     d00:	27                   	daa    
     d01:	19 11                	sbb    %edx,(%ecx)
     d03:	01 12                	add    %edx,(%edx)
     d05:	06                   	push   %es
     d06:	40                   	inc    %eax
     d07:	18 97 42 19 01 13    	sbb    %dl,0x13011942(%edi)
     d0d:	00 00                	add    %al,(%eax)
     d0f:	10 05 00 03 0e 3a    	adc    %al,0x3a0e0300
     d15:	0b 3b                	or     (%ebx),%edi
     d17:	0b 39                	or     (%ecx),%edi
     d19:	0b 49 13             	or     0x13(%ecx),%ecx
     d1c:	02 18                	add    (%eax),%bl
     d1e:	00 00                	add    %al,(%eax)
     d20:	11 2e                	adc    %ebp,(%esi)
     d22:	01 3f                	add    %edi,(%edi)
     d24:	19 03                	sbb    %eax,(%ebx)
     d26:	0e                   	push   %cs
     d27:	3a 0b                	cmp    (%ebx),%cl
     d29:	3b 0b                	cmp    (%ebx),%ecx
     d2b:	39 0b                	cmp    %ecx,(%ebx)
     d2d:	27                   	daa    
     d2e:	19 11                	sbb    %edx,(%ecx)
     d30:	01 12                	add    %edx,(%edx)
     d32:	06                   	push   %es
     d33:	40                   	inc    %eax
     d34:	18 96 42 19 01 13    	sbb    %dl,0x13011942(%esi)
     d3a:	00 00                	add    %al,(%eax)
     d3c:	12 0b                	adc    (%ebx),%cl
     d3e:	01 11                	add    %edx,(%ecx)
     d40:	01 12                	add    %edx,(%edx)
     d42:	06                   	push   %es
     d43:	00 00                	add    %al,(%eax)
     d45:	13 34 00             	adc    (%eax,%eax,1),%esi
     d48:	03 0e                	add    (%esi),%ecx
     d4a:	3a 0b                	cmp    (%ebx),%cl
     d4c:	3b 0b                	cmp    (%ebx),%ecx
     d4e:	39 0b                	cmp    %ecx,(%ebx)
     d50:	49                   	dec    %ecx
     d51:	13 02                	adc    (%edx),%eax
     d53:	18 00                	sbb    %al,(%eax)
     d55:	00 14 2e             	add    %dl,(%esi,%ebp,1)
     d58:	00 3f                	add    %bh,(%edi)
     d5a:	19 03                	sbb    %eax,(%ebx)
     d5c:	0e                   	push   %cs
     d5d:	3a 0b                	cmp    (%ebx),%cl
     d5f:	3b 0b                	cmp    (%ebx),%ecx
     d61:	39 0b                	cmp    %ecx,(%ebx)
     d63:	11 01                	adc    %eax,(%ecx)
     d65:	12 06                	adc    (%esi),%al
     d67:	40                   	inc    %eax
     d68:	18 96 42 19 00 00    	sbb    %dl,0x1942(%esi)
     d6e:	15 2e 01 03 0e       	adc    $0xe03012e,%eax
     d73:	3a 0b                	cmp    (%ebx),%cl
     d75:	3b 0b                	cmp    (%ebx),%ecx
     d77:	39 0b                	cmp    %ecx,(%ebx)
     d79:	27                   	daa    
     d7a:	19 11                	sbb    %edx,(%ecx)
     d7c:	01 12                	add    %edx,(%edx)
     d7e:	06                   	push   %es
     d7f:	40                   	inc    %eax
     d80:	18 97 42 19 01 13    	sbb    %dl,0x13011942(%edi)
     d86:	00 00                	add    %al,(%eax)
     d88:	16                   	push   %ss
     d89:	05 00 03 08 3a       	add    $0x3a080300,%eax
     d8e:	0b 3b                	or     (%ebx),%edi
     d90:	0b 39                	or     (%ecx),%edi
     d92:	0b 49 13             	or     0x13(%ecx),%ecx
     d95:	02 18                	add    (%eax),%bl
     d97:	00 00                	add    %al,(%eax)
     d99:	17                   	pop    %ss
     d9a:	2e 01 03             	add    %eax,%cs:(%ebx)
     d9d:	0e                   	push   %cs
     d9e:	3a 0b                	cmp    (%ebx),%cl
     da0:	3b 0b                	cmp    (%ebx),%ecx
     da2:	39 0b                	cmp    %ecx,(%ebx)
     da4:	27                   	daa    
     da5:	19 11                	sbb    %edx,(%ecx)
     da7:	01 12                	add    %edx,(%edx)
     da9:	06                   	push   %es
     daa:	40                   	inc    %eax
     dab:	18 96 42 19 01 13    	sbb    %dl,0x13011942(%esi)
     db1:	00 00                	add    %al,(%eax)
     db3:	18 2e                	sbb    %ch,(%esi)
     db5:	00 03                	add    %al,(%ebx)
     db7:	0e                   	push   %cs
     db8:	3a 0b                	cmp    (%ebx),%cl
     dba:	3b 0b                	cmp    (%ebx),%ecx
     dbc:	39 0b                	cmp    %ecx,(%ebx)
     dbe:	11 01                	adc    %eax,(%ecx)
     dc0:	12 06                	adc    (%esi),%al
     dc2:	40                   	inc    %eax
     dc3:	18 96 42 19 00 00    	sbb    %dl,0x1942(%esi)
     dc9:	19 2e                	sbb    %ebp,(%esi)
     dcb:	01 03                	add    %eax,(%ebx)
     dcd:	0e                   	push   %cs
     dce:	3a 0b                	cmp    (%ebx),%cl
     dd0:	3b 0b                	cmp    (%ebx),%ecx
     dd2:	39 0b                	cmp    %ecx,(%ebx)
     dd4:	11 01                	adc    %eax,(%ecx)
     dd6:	12 06                	adc    (%esi),%al
     dd8:	40                   	inc    %eax
     dd9:	18 96 42 19 01 13    	sbb    %dl,0x13011942(%esi)
     ddf:	00 00                	add    %al,(%eax)
     de1:	1a 34 00             	sbb    (%eax,%eax,1),%dh
     de4:	03 08                	add    (%eax),%ecx
     de6:	3a 0b                	cmp    (%ebx),%cl
     de8:	3b 0b                	cmp    (%ebx),%ecx
     dea:	39 0b                	cmp    %ecx,(%ebx)
     dec:	49                   	dec    %ecx
     ded:	13 02                	adc    (%edx),%eax
     def:	18 00                	sbb    %al,(%eax)
     df1:	00 00                	add    %al,(%eax)
     df3:	01 11                	add    %edx,(%ecx)
     df5:	01 25 0e 13 0b 03    	add    %esp,0x30b130e
     dfb:	0e                   	push   %cs
     dfc:	1b 0e                	sbb    (%esi),%ecx
     dfe:	11 01                	adc    %eax,(%ecx)
     e00:	12 06                	adc    (%esi),%al
     e02:	10 17                	adc    %dl,(%edi)
     e04:	00 00                	add    %al,(%eax)
     e06:	02 16                	add    (%esi),%dl
     e08:	00 03                	add    %al,(%ebx)
     e0a:	0e                   	push   %cs
     e0b:	3a 0b                	cmp    (%ebx),%cl
     e0d:	3b 0b                	cmp    (%ebx),%ecx
     e0f:	39 0b                	cmp    %ecx,(%ebx)
     e11:	49                   	dec    %ecx
     e12:	13 00                	adc    (%eax),%eax
     e14:	00 03                	add    %al,(%ebx)
     e16:	24 00                	and    $0x0,%al
     e18:	0b 0b                	or     (%ebx),%ecx
     e1a:	3e 0b 03             	or     %ds:(%ebx),%eax
     e1d:	0e                   	push   %cs
     e1e:	00 00                	add    %al,(%eax)
     e20:	04 24                	add    $0x24,%al
     e22:	00 0b                	add    %cl,(%ebx)
     e24:	0b 3e                	or     (%esi),%edi
     e26:	0b 03                	or     (%ebx),%eax
     e28:	08 00                	or     %al,(%eax)
     e2a:	00 05 13 01 03 0e    	add    %al,0xe030113
     e30:	0b 0b                	or     (%ebx),%ecx
     e32:	3a 0b                	cmp    (%ebx),%cl
     e34:	3b 0b                	cmp    (%ebx),%ecx
     e36:	39 0b                	cmp    %ecx,(%ebx)
     e38:	01 13                	add    %edx,(%ebx)
     e3a:	00 00                	add    %al,(%eax)
     e3c:	06                   	push   %es
     e3d:	0d 00 03 08 3a       	or     $0x3a080300,%eax
     e42:	0b 3b                	or     (%ebx),%edi
     e44:	0b 39                	or     (%ecx),%edi
     e46:	0b 49 13             	or     0x13(%ecx),%ecx
     e49:	38 0b                	cmp    %cl,(%ebx)
     e4b:	00 00                	add    %al,(%eax)
     e4d:	07                   	pop    %es
     e4e:	0d 00 03 0e 3a       	or     $0x3a0e0300,%eax
     e53:	0b 3b                	or     (%ebx),%edi
     e55:	0b 39                	or     (%ecx),%edi
     e57:	0b 49 13             	or     0x13(%ecx),%ecx
     e5a:	38 0b                	cmp    %cl,(%ebx)
     e5c:	00 00                	add    %al,(%eax)
     e5e:	08 2e                	or     %ch,(%esi)
     e60:	01 03                	add    %eax,(%ebx)
     e62:	0e                   	push   %cs
     e63:	3a 0b                	cmp    (%ebx),%cl
     e65:	3b 0b                	cmp    (%ebx),%ecx
     e67:	39 0b                	cmp    %ecx,(%ebx)
     e69:	27                   	daa    
     e6a:	19 11                	sbb    %edx,(%ecx)
     e6c:	01 12                	add    %edx,(%edx)
     e6e:	06                   	push   %es
     e6f:	40                   	inc    %eax
     e70:	18 96 42 19 01 13    	sbb    %dl,0x13011942(%esi)
     e76:	00 00                	add    %al,(%eax)
     e78:	09 05 00 03 08 3a    	or     %eax,0x3a080300
     e7e:	0b 3b                	or     (%ebx),%edi
     e80:	0b 39                	or     (%ecx),%edi
     e82:	0b 49 13             	or     0x13(%ecx),%ecx
     e85:	02 18                	add    (%eax),%bl
     e87:	00 00                	add    %al,(%eax)
     e89:	0a 2e                	or     (%esi),%ch
     e8b:	00 03                	add    %al,(%ebx)
     e8d:	0e                   	push   %cs
     e8e:	3a 0b                	cmp    (%ebx),%cl
     e90:	3b 0b                	cmp    (%ebx),%ecx
     e92:	39 0b                	cmp    %ecx,(%ebx)
     e94:	49                   	dec    %ecx
     e95:	13 11                	adc    (%ecx),%edx
     e97:	01 12                	add    %edx,(%edx)
     e99:	06                   	push   %es
     e9a:	40                   	inc    %eax
     e9b:	18 96 42 19 00 00    	sbb    %dl,0x1942(%esi)
     ea1:	0b 2e                	or     (%esi),%ebp
     ea3:	00 03                	add    %al,(%ebx)
     ea5:	0e                   	push   %cs
     ea6:	3a 0b                	cmp    (%ebx),%cl
     ea8:	3b 0b                	cmp    (%ebx),%ecx
     eaa:	39 0b                	cmp    %ecx,(%ebx)
     eac:	11 01                	adc    %eax,(%ecx)
     eae:	12 06                	adc    (%esi),%al
     eb0:	40                   	inc    %eax
     eb1:	18 97 42 19 00 00    	sbb    %dl,0x1942(%edi)
     eb7:	0c 05                	or     $0x5,%al
     eb9:	00 03                	add    %al,(%ebx)
     ebb:	0e                   	push   %cs
     ebc:	3a 0b                	cmp    (%ebx),%cl
     ebe:	3b 0b                	cmp    (%ebx),%ecx
     ec0:	39 0b                	cmp    %ecx,(%ebx)
     ec2:	49                   	dec    %ecx
     ec3:	13 02                	adc    (%edx),%eax
     ec5:	18 00                	sbb    %al,(%eax)
     ec7:	00 0d 34 00 03 0e    	add    %cl,0xe030034
     ecd:	3a 0b                	cmp    (%ebx),%cl
     ecf:	3b 0b                	cmp    (%ebx),%ecx
     ed1:	39 0b                	cmp    %ecx,(%ebx)
     ed3:	49                   	dec    %ecx
     ed4:	13 02                	adc    (%edx),%eax
     ed6:	18 00                	sbb    %al,(%eax)
     ed8:	00 0e                	add    %cl,(%esi)
     eda:	2e 00 3f             	add    %bh,%cs:(%edi)
     edd:	19 03                	sbb    %eax,(%ebx)
     edf:	0e                   	push   %cs
     ee0:	3a 0b                	cmp    (%ebx),%cl
     ee2:	3b 0b                	cmp    (%ebx),%ecx
     ee4:	39 0b                	cmp    %ecx,(%ebx)
     ee6:	11 01                	adc    %eax,(%ecx)
     ee8:	12 06                	adc    (%esi),%al
     eea:	40                   	inc    %eax
     eeb:	18 96 42 19 00 00    	sbb    %dl,0x1942(%esi)
     ef1:	00 01                	add    %al,(%ecx)
     ef3:	11 01                	adc    %eax,(%ecx)
     ef5:	25 0e 13 0b 03       	and    $0x30b130e,%eax
     efa:	0e                   	push   %cs
     efb:	1b 0e                	sbb    (%esi),%ecx
     efd:	11 01                	adc    %eax,(%ecx)
     eff:	12 06                	adc    (%esi),%al
     f01:	10 17                	adc    %dl,(%edi)
     f03:	00 00                	add    %al,(%eax)
     f05:	02 16                	add    (%esi),%dl
     f07:	00 03                	add    %al,(%ebx)
     f09:	0e                   	push   %cs
     f0a:	3a 0b                	cmp    (%ebx),%cl
     f0c:	3b 0b                	cmp    (%ebx),%ecx
     f0e:	39 0b                	cmp    %ecx,(%ebx)
     f10:	49                   	dec    %ecx
     f11:	13 00                	adc    (%eax),%eax
     f13:	00 03                	add    %al,(%ebx)
     f15:	24 00                	and    $0x0,%al
     f17:	0b 0b                	or     (%ebx),%ecx
     f19:	3e 0b 03             	or     %ds:(%ebx),%eax
     f1c:	0e                   	push   %cs
     f1d:	00 00                	add    %al,(%eax)
     f1f:	04 24                	add    $0x24,%al
     f21:	00 0b                	add    %cl,(%ebx)
     f23:	0b 3e                	or     (%esi),%edi
     f25:	0b 03                	or     (%ebx),%eax
     f27:	08 00                	or     %al,(%eax)
     f29:	00 05 13 01 03 0e    	add    %al,0xe030113
     f2f:	0b 0b                	or     (%ebx),%ecx
     f31:	3a 0b                	cmp    (%ebx),%cl
     f33:	3b 0b                	cmp    (%ebx),%ecx
     f35:	39 0b                	cmp    %ecx,(%ebx)
     f37:	01 13                	add    %edx,(%ebx)
     f39:	00 00                	add    %al,(%eax)
     f3b:	06                   	push   %es
     f3c:	0d 00 03 08 3a       	or     $0x3a080300,%eax
     f41:	0b 3b                	or     (%ebx),%edi
     f43:	0b 39                	or     (%ecx),%edi
     f45:	0b 49 13             	or     0x13(%ecx),%ecx
     f48:	38 0b                	cmp    %cl,(%ebx)
     f4a:	00 00                	add    %al,(%eax)
     f4c:	07                   	pop    %es
     f4d:	0d 00 03 0e 3a       	or     $0x3a0e0300,%eax
     f52:	0b 3b                	or     (%ebx),%edi
     f54:	0b 39                	or     (%ecx),%edi
     f56:	0b 49 13             	or     0x13(%ecx),%ecx
     f59:	38 0b                	cmp    %cl,(%ebx)
     f5b:	00 00                	add    %al,(%eax)
     f5d:	08 34 00             	or     %dh,(%eax,%eax,1)
     f60:	03 0e                	add    (%esi),%ecx
     f62:	3a 0b                	cmp    (%ebx),%cl
     f64:	3b 0b                	cmp    (%ebx),%ecx
     f66:	39 0b                	cmp    %ecx,(%ebx)
     f68:	49                   	dec    %ecx
     f69:	13 3f                	adc    (%edi),%edi
     f6b:	19 02                	sbb    %eax,(%edx)
     f6d:	18 00                	sbb    %al,(%eax)
     f6f:	00 09                	add    %cl,(%ecx)
     f71:	2e 01 3f             	add    %edi,%cs:(%edi)
     f74:	19 03                	sbb    %eax,(%ebx)
     f76:	0e                   	push   %cs
     f77:	3a 0b                	cmp    (%ebx),%cl
     f79:	3b 0b                	cmp    (%ebx),%ecx
     f7b:	39 0b                	cmp    %ecx,(%ebx)
     f7d:	27                   	daa    
     f7e:	19 11                	sbb    %edx,(%ecx)
     f80:	01 12                	add    %edx,(%edx)
     f82:	06                   	push   %es
     f83:	40                   	inc    %eax
     f84:	18 96 42 19 01 13    	sbb    %dl,0x13011942(%esi)
     f8a:	00 00                	add    %al,(%eax)
     f8c:	0a 05 00 03 0e 3a    	or     0x3a0e0300,%al
     f92:	0b 3b                	or     (%ebx),%edi
     f94:	0b 39                	or     (%ecx),%edi
     f96:	0b 49 13             	or     0x13(%ecx),%ecx
     f99:	02 18                	add    (%eax),%bl
     f9b:	00 00                	add    %al,(%eax)
     f9d:	0b 34 00             	or     (%eax,%eax,1),%esi
     fa0:	03 0e                	add    (%esi),%ecx
     fa2:	3a 0b                	cmp    (%ebx),%cl
     fa4:	3b 0b                	cmp    (%ebx),%ecx
     fa6:	39 0b                	cmp    %ecx,(%ebx)
     fa8:	49                   	dec    %ecx
     fa9:	13 02                	adc    (%edx),%eax
     fab:	18 00                	sbb    %al,(%eax)
     fad:	00 0c 34             	add    %cl,(%esp,%esi,1)
     fb0:	00 03                	add    %al,(%ebx)
     fb2:	08 3a                	or     %bh,(%edx)
     fb4:	0b 3b                	or     (%ebx),%edi
     fb6:	0b 39                	or     (%ecx),%edi
     fb8:	0b 49 13             	or     0x13(%ecx),%ecx
     fbb:	02 18                	add    (%eax),%bl
     fbd:	00 00                	add    %al,(%eax)
     fbf:	0d 2e 01 03 0e       	or     $0xe03012e,%eax
     fc4:	3a 0b                	cmp    (%ebx),%cl
     fc6:	3b 0b                	cmp    (%ebx),%ecx
     fc8:	39 0b                	cmp    %ecx,(%ebx)
     fca:	27                   	daa    
     fcb:	19 11                	sbb    %edx,(%ecx)
     fcd:	01 12                	add    %edx,(%edx)
     fcf:	06                   	push   %es
     fd0:	40                   	inc    %eax
     fd1:	18 96 42 19 00 00    	sbb    %dl,0x1942(%esi)
     fd7:	00 01                	add    %al,(%ecx)
     fd9:	11 01                	adc    %eax,(%ecx)
     fdb:	25 0e 13 0b 03       	and    $0x30b130e,%eax
     fe0:	0e                   	push   %cs
     fe1:	1b 0e                	sbb    (%esi),%ecx
     fe3:	11 01                	adc    %eax,(%ecx)
     fe5:	12 06                	adc    (%esi),%al
     fe7:	10 17                	adc    %dl,(%edi)
     fe9:	00 00                	add    %al,(%eax)
     feb:	02 16                	add    (%esi),%dl
     fed:	00 03                	add    %al,(%ebx)
     fef:	0e                   	push   %cs
     ff0:	3a 0b                	cmp    (%ebx),%cl
     ff2:	3b 0b                	cmp    (%ebx),%ecx
     ff4:	39 0b                	cmp    %ecx,(%ebx)
     ff6:	49                   	dec    %ecx
     ff7:	13 00                	adc    (%eax),%eax
     ff9:	00 03                	add    %al,(%ebx)
     ffb:	24 00                	and    $0x0,%al
     ffd:	0b 0b                	or     (%ebx),%ecx
     fff:	3e 0b 03             	or     %ds:(%ebx),%eax
    1002:	0e                   	push   %cs
    1003:	00 00                	add    %al,(%eax)
    1005:	04 24                	add    $0x24,%al
    1007:	00 0b                	add    %cl,(%ebx)
    1009:	0b 3e                	or     (%esi),%edi
    100b:	0b 03                	or     (%ebx),%eax
    100d:	08 00                	or     %al,(%eax)
    100f:	00 05 0f 00 0b 0b    	add    %al,0xb0b000f
    1015:	00 00                	add    %al,(%eax)
    1017:	06                   	push   %es
    1018:	0f 00 0b             	str    (%ebx)
    101b:	0b 49 13             	or     0x13(%ecx),%ecx
    101e:	00 00                	add    %al,(%eax)
    1020:	07                   	pop    %es
    1021:	15 01 27 19 49       	adc    $0x49192701,%eax
    1026:	13 01                	adc    (%ecx),%eax
    1028:	13 00                	adc    (%eax),%eax
    102a:	00 08                	add    %cl,(%eax)
    102c:	05 00 49 13 00       	add    $0x134900,%eax
    1031:	00 09                	add    %cl,(%ecx)
    1033:	13 01                	adc    (%ecx),%eax
    1035:	0b 0b                	or     (%ebx),%ecx
    1037:	3a 0b                	cmp    (%ebx),%cl
    1039:	3b 0b                	cmp    (%ebx),%ecx
    103b:	39 0b                	cmp    %ecx,(%ebx)
    103d:	01 13                	add    %edx,(%ebx)
    103f:	00 00                	add    %al,(%eax)
    1041:	0a 0d 00 03 0e 3a    	or     0x3a0e0300,%cl
    1047:	0b 3b                	or     (%ebx),%edi
    1049:	0b 39                	or     (%ecx),%edi
    104b:	0b 49 13             	or     0x13(%ecx),%ecx
    104e:	38 0b                	cmp    %cl,(%ebx)
    1050:	00 00                	add    %al,(%eax)
    1052:	0b 2e                	or     (%esi),%ebp
    1054:	01 3f                	add    %edi,(%edi)
    1056:	19 03                	sbb    %eax,(%ebx)
    1058:	0e                   	push   %cs
    1059:	3a 0b                	cmp    (%ebx),%cl
    105b:	3b 0b                	cmp    (%ebx),%ecx
    105d:	39 0b                	cmp    %ecx,(%ebx)
    105f:	27                   	daa    
    1060:	19 11                	sbb    %edx,(%ecx)
    1062:	01 12                	add    %edx,(%edx)
    1064:	06                   	push   %es
    1065:	40                   	inc    %eax
    1066:	18 97 42 19 01 13    	sbb    %dl,0x13011942(%edi)
    106c:	00 00                	add    %al,(%eax)
    106e:	0c 05                	or     $0x5,%al
    1070:	00 03                	add    %al,(%ebx)
    1072:	08 3a                	or     %bh,(%edx)
    1074:	0b 3b                	or     (%ebx),%edi
    1076:	0b 39                	or     (%ecx),%edi
    1078:	0b 49 13             	or     0x13(%ecx),%ecx
    107b:	02 18                	add    (%eax),%bl
    107d:	00 00                	add    %al,(%eax)
    107f:	0d 05 00 03 0e       	or     $0xe030005,%eax
    1084:	3a 0b                	cmp    (%ebx),%cl
    1086:	3b 0b                	cmp    (%ebx),%ecx
    1088:	39 0b                	cmp    %ecx,(%ebx)
    108a:	49                   	dec    %ecx
    108b:	13 02                	adc    (%edx),%eax
    108d:	18 00                	sbb    %al,(%eax)
    108f:	00 0e                	add    %cl,(%esi)
    1091:	2e 01 3f             	add    %edi,%cs:(%edi)
    1094:	19 03                	sbb    %eax,(%ebx)
    1096:	0e                   	push   %cs
    1097:	3a 0b                	cmp    (%ebx),%cl
    1099:	3b 0b                	cmp    (%ebx),%ecx
    109b:	39 0b                	cmp    %ecx,(%ebx)
    109d:	27                   	daa    
    109e:	19 49 13             	sbb    %ecx,0x13(%ecx)
    10a1:	11 01                	adc    %eax,(%ecx)
    10a3:	12 06                	adc    (%esi),%al
    10a5:	40                   	inc    %eax
    10a6:	18 96 42 19 01 13    	sbb    %dl,0x13011942(%esi)
    10ac:	00 00                	add    %al,(%eax)
    10ae:	0f 2e 01             	ucomiss (%ecx),%xmm0
    10b1:	3f                   	aas    
    10b2:	19 03                	sbb    %eax,(%ebx)
    10b4:	0e                   	push   %cs
    10b5:	3a 0b                	cmp    (%ebx),%cl
    10b7:	3b 0b                	cmp    (%ebx),%ecx
    10b9:	39 0b                	cmp    %ecx,(%ebx)
    10bb:	27                   	daa    
    10bc:	19 11                	sbb    %edx,(%ecx)
    10be:	01 12                	add    %edx,(%edx)
    10c0:	06                   	push   %es
    10c1:	40                   	inc    %eax
    10c2:	18 96 42 19 01 13    	sbb    %dl,0x13011942(%esi)
    10c8:	00 00                	add    %al,(%eax)
    10ca:	10 34 00             	adc    %dh,(%eax,%eax,1)
    10cd:	03 08                	add    (%eax),%ecx
    10cf:	3a 0b                	cmp    (%ebx),%cl
    10d1:	3b 0b                	cmp    (%ebx),%ecx
    10d3:	39 0b                	cmp    %ecx,(%ebx)
    10d5:	49                   	dec    %ecx
    10d6:	13 02                	adc    (%edx),%eax
    10d8:	18 00                	sbb    %al,(%eax)
    10da:	00 11                	add    %dl,(%ecx)
    10dc:	34 00                	xor    $0x0,%al
    10de:	03 0e                	add    (%esi),%ecx
    10e0:	3a 0b                	cmp    (%ebx),%cl
    10e2:	3b 0b                	cmp    (%ebx),%ecx
    10e4:	39 0b                	cmp    %ecx,(%ebx)
    10e6:	49                   	dec    %ecx
    10e7:	13 02                	adc    (%edx),%eax
    10e9:	18 00                	sbb    %al,(%eax)
    10eb:	00 12                	add    %dl,(%edx)
    10ed:	2e 01 3f             	add    %edi,%cs:(%edi)
    10f0:	19 03                	sbb    %eax,(%ebx)
    10f2:	0e                   	push   %cs
    10f3:	3a 0b                	cmp    (%ebx),%cl
    10f5:	3b 0b                	cmp    (%ebx),%ecx
    10f7:	39 0b                	cmp    %ecx,(%ebx)
    10f9:	27                   	daa    
    10fa:	19 49 13             	sbb    %ecx,0x13(%ecx)
    10fd:	11 01                	adc    %eax,(%ecx)
    10ff:	12 06                	adc    (%esi),%al
    1101:	40                   	inc    %eax
    1102:	18 97 42 19 00 00    	sbb    %dl,0x1942(%edi)
    1108:	00 01                	add    %al,(%ecx)
    110a:	11 01                	adc    %eax,(%ecx)
    110c:	25 0e 13 0b 03       	and    $0x30b130e,%eax
    1111:	0e                   	push   %cs
    1112:	1b 0e                	sbb    (%esi),%ecx
    1114:	11 01                	adc    %eax,(%ecx)
    1116:	12 06                	adc    (%esi),%al
    1118:	10 17                	adc    %dl,(%edi)
    111a:	00 00                	add    %al,(%eax)
    111c:	02 24 00             	add    (%eax,%eax,1),%ah
    111f:	0b 0b                	or     (%ebx),%ecx
    1121:	3e 0b 03             	or     %ds:(%ebx),%eax
    1124:	0e                   	push   %cs
    1125:	00 00                	add    %al,(%eax)
    1127:	03 26                	add    (%esi),%esp
    1129:	00 49 13             	add    %cl,0x13(%ecx)
    112c:	00 00                	add    %al,(%eax)
    112e:	04 16                	add    $0x16,%al
    1130:	00 03                	add    %al,(%ebx)
    1132:	0e                   	push   %cs
    1133:	3a 0b                	cmp    (%ebx),%cl
    1135:	3b 0b                	cmp    (%ebx),%ecx
    1137:	39 0b                	cmp    %ecx,(%ebx)
    1139:	49                   	dec    %ecx
    113a:	13 00                	adc    (%eax),%eax
    113c:	00 05 24 00 0b 0b    	add    %al,0xb0b0024
    1142:	3e 0b 03             	or     %ds:(%ebx),%eax
    1145:	08 00                	or     %al,(%eax)
    1147:	00 06                	add    %al,(%esi)
    1149:	2e 01 3f             	add    %edi,%cs:(%edi)
    114c:	19 03                	sbb    %eax,(%ebx)
    114e:	0e                   	push   %cs
    114f:	3a 0b                	cmp    (%ebx),%cl
    1151:	3b 0b                	cmp    (%ebx),%ecx
    1153:	39 0b                	cmp    %ecx,(%ebx)
    1155:	27                   	daa    
    1156:	19 11                	sbb    %edx,(%ecx)
    1158:	01 12                	add    %edx,(%edx)
    115a:	06                   	push   %es
    115b:	40                   	inc    %eax
    115c:	18 97 42 19 01 13    	sbb    %dl,0x13011942(%edi)
    1162:	00 00                	add    %al,(%eax)
    1164:	07                   	pop    %es
    1165:	05 00 03 0e 3a       	add    $0x3a0e0300,%eax
    116a:	0b 3b                	or     (%ebx),%edi
    116c:	0b 39                	or     (%ecx),%edi
    116e:	0b 49 13             	or     0x13(%ecx),%ecx
    1171:	02 18                	add    (%eax),%bl
    1173:	00 00                	add    %al,(%eax)
    1175:	08 05 00 03 08 3a    	or     %al,0x3a080300
    117b:	0b 3b                	or     (%ebx),%edi
    117d:	0b 39                	or     (%ecx),%edi
    117f:	0b 49 13             	or     0x13(%ecx),%ecx
    1182:	02 18                	add    (%eax),%bl
    1184:	00 00                	add    %al,(%eax)
    1186:	09 0f                	or     %ecx,(%edi)
    1188:	00 0b                	add    %cl,(%ebx)
    118a:	0b 49 13             	or     0x13(%ecx),%ecx
    118d:	00 00                	add    %al,(%eax)
    118f:	0a 34 00             	or     (%eax,%eax,1),%dh
    1192:	03 08                	add    (%eax),%ecx
    1194:	3a 0b                	cmp    (%ebx),%cl
    1196:	3b 0b                	cmp    (%ebx),%ecx
    1198:	39 0b                	cmp    %ecx,(%ebx)
    119a:	49                   	dec    %ecx
    119b:	13 02                	adc    (%edx),%eax
    119d:	18 00                	sbb    %al,(%eax)
    119f:	00 0b                	add    %cl,(%ebx)
    11a1:	0b 01                	or     (%ecx),%eax
    11a3:	11 01                	adc    %eax,(%ecx)
    11a5:	12 06                	adc    (%esi),%al
    11a7:	00 00                	add    %al,(%eax)
    11a9:	0c 2e                	or     $0x2e,%al
    11ab:	01 3f                	add    %edi,(%edi)
    11ad:	19 03                	sbb    %eax,(%ebx)
    11af:	0e                   	push   %cs
    11b0:	3a 0b                	cmp    (%ebx),%cl
    11b2:	3b 0b                	cmp    (%ebx),%ecx
    11b4:	39 0b                	cmp    %ecx,(%ebx)
    11b6:	27                   	daa    
    11b7:	19 49 13             	sbb    %ecx,0x13(%ecx)
    11ba:	11 01                	adc    %eax,(%ecx)
    11bc:	12 06                	adc    (%esi),%al
    11be:	40                   	inc    %eax
    11bf:	18 97 42 19 01 13    	sbb    %dl,0x13011942(%edi)
    11c5:	00 00                	add    %al,(%eax)
    11c7:	0d 2e 01 3f 19       	or     $0x193f012e,%eax
    11cc:	03 0e                	add    (%esi),%ecx
    11ce:	3a 0b                	cmp    (%ebx),%cl
    11d0:	3b 0b                	cmp    (%ebx),%ecx
    11d2:	39 0b                	cmp    %ecx,(%ebx)
    11d4:	27                   	daa    
    11d5:	19 11                	sbb    %edx,(%ecx)
    11d7:	01 12                	add    %edx,(%edx)
    11d9:	06                   	push   %es
    11da:	40                   	inc    %eax
    11db:	18 96 42 19 01 13    	sbb    %dl,0x13011942(%esi)
    11e1:	00 00                	add    %al,(%eax)
    11e3:	0e                   	push   %cs
    11e4:	34 00                	xor    $0x0,%al
    11e6:	03 0e                	add    (%esi),%ecx
    11e8:	3a 0b                	cmp    (%ebx),%cl
    11ea:	3b 0b                	cmp    (%ebx),%ecx
    11ec:	39 0b                	cmp    %ecx,(%ebx)
    11ee:	49                   	dec    %ecx
    11ef:	13 02                	adc    (%edx),%eax
    11f1:	18 00                	sbb    %al,(%eax)
    11f3:	00 0f                	add    %cl,(%edi)
    11f5:	01 01                	add    %eax,(%ecx)
    11f7:	49                   	dec    %ecx
    11f8:	13 01                	adc    (%ecx),%eax
    11fa:	13 00                	adc    (%eax),%eax
    11fc:	00 10                	add    %dl,(%eax)
    11fe:	21 00                	and    %eax,(%eax)
    1200:	49                   	dec    %ecx
    1201:	13 2f                	adc    (%edi),%ebp
    1203:	0b 00                	or     (%eax),%eax
    1205:	00 11                	add    %dl,(%ecx)
    1207:	2e 01 3f             	add    %edi,%cs:(%edi)
    120a:	19 03                	sbb    %eax,(%ebx)
    120c:	0e                   	push   %cs
    120d:	3a 0b                	cmp    (%ebx),%cl
    120f:	3b 0b                	cmp    (%ebx),%ecx
    1211:	39 0b                	cmp    %ecx,(%ebx)
    1213:	27                   	daa    
    1214:	19 11                	sbb    %edx,(%ecx)
    1216:	01 12                	add    %edx,(%edx)
    1218:	06                   	push   %es
    1219:	40                   	inc    %eax
    121a:	18 96 42 19 00 00    	sbb    %dl,0x1942(%esi)
	...

Disassembly of section .debug_aranges:

00000000 <.debug_aranges>:
   0:	1c 00                	sbb    $0x0,%al
   2:	00 00                	add    %al,(%eax)
   4:	02 00                	add    (%eax),%al
   6:	00 00                	add    %al,(%eax)
   8:	00 00                	add    %al,(%eax)
   a:	04 00                	add    $0x0,%al
   c:	00 00                	add    %al,(%eax)
   e:	00 00                	add    %al,(%eax)
  10:	1a 00                	sbb    (%eax),%al
  12:	10 00                	adc    %al,(%eax)
  14:	35 08 00 00 00       	xor    $0x8,%eax
  19:	00 00                	add    %al,(%eax)
  1b:	00 00                	add    %al,(%eax)
  1d:	00 00                	add    %al,(%eax)
  1f:	00 1c 00             	add    %bl,(%eax,%eax,1)
  22:	00 00                	add    %al,(%eax)
  24:	02 00                	add    (%eax),%al
  26:	5f                   	pop    %edi
  27:	08 00                	or     %al,(%eax)
  29:	00 04 00             	add    %al,(%eax,%eax,1)
  2c:	00 00                	add    %al,(%eax)
  2e:	00 00                	add    %al,(%eax)
  30:	4f                   	dec    %edi
  31:	08 10                	or     %dl,(%eax)
  33:	00 2c 07             	add    %ch,(%edi,%eax,1)
	...
  3e:	00 00                	add    %al,(%eax)
  40:	1c 00                	sbb    $0x0,%al
  42:	00 00                	add    %al,(%eax)
  44:	02 00                	add    (%eax),%al
  46:	78 0d                	js     55 <FLAGS+0x54>
  48:	00 00                	add    %al,(%eax)
  4a:	04 00                	add    $0x0,%al
  4c:	00 00                	add    %al,(%eax)
  4e:	00 00                	add    %al,(%eax)
  50:	7b 0f                	jnp    61 <FLAGS+0x60>
  52:	10 00                	adc    %al,(%eax)
  54:	2f                   	das    
  55:	03 00                	add    (%eax),%eax
	...
  5f:	00 1c 00             	add    %bl,(%eax,%eax,1)
  62:	00 00                	add    %al,(%eax)
  64:	02 00                	add    (%eax),%al
  66:	b7 11                	mov    $0x11,%bh
  68:	00 00                	add    %al,(%eax)
  6a:	04 00                	add    $0x0,%al
  6c:	00 00                	add    %al,(%eax)
  6e:	00 00                	add    %al,(%eax)
  70:	aa                   	stos   %al,%es:(%edi)
  71:	12 10                	adc    (%eax),%dl
  73:	00 d7                	add    %dl,%bh
  75:	08 00                	or     %al,(%eax)
	...
  7f:	00 1c 00             	add    %bl,(%eax,%eax,1)
  82:	00 00                	add    %al,(%eax)
  84:	02 00                	add    (%eax),%al
  86:	75 19                	jne    a1 <FLAGS+0xa0>
  88:	00 00                	add    %al,(%eax)
  8a:	04 00                	add    $0x0,%al
  8c:	00 00                	add    %al,(%eax)
  8e:	00 00                	add    %al,(%eax)
  90:	81 1b 10 00 de 01    	sbbl   $0x1de0010,(%ebx)
	...
  9e:	00 00                	add    %al,(%eax)
  a0:	1c 00                	sbb    $0x0,%al
  a2:	00 00                	add    %al,(%eax)
  a4:	02 00                	add    (%eax),%al
  a6:	00 20                	add    %ah,(%eax)
  a8:	00 00                	add    %al,(%eax)
  aa:	04 00                	add    $0x0,%al
  ac:	00 00                	add    %al,(%eax)
  ae:	00 00                	add    %al,(%eax)
  b0:	5f                   	pop    %edi
  b1:	1d 10 00 52 01       	sbb    $0x1520010,%eax
	...
  be:	00 00                	add    %al,(%eax)
  c0:	1c 00                	sbb    $0x0,%al
  c2:	00 00                	add    %al,(%eax)
  c4:	02 00                	add    (%eax),%al
  c6:	f3 23 00             	repz and (%eax),%eax
  c9:	00 04 00             	add    %al,(%eax,%eax,1)
  cc:	00 00                	add    %al,(%eax)
  ce:	00 00                	add    %al,(%eax)
  d0:	b1 1e                	mov    $0x1e,%cl
  d2:	10 00                	adc    %al,(%eax)
  d4:	45                   	inc    %ebp
  d5:	01 00                	add    %eax,(%eax)
	...
  df:	00 1c 00             	add    %bl,(%eax,%eax,1)
  e2:	00 00                	add    %al,(%eax)
  e4:	02 00                	add    (%eax),%al
  e6:	ac                   	lods   %ds:(%esi),%al
  e7:	25 00 00 04 00       	and    $0x40000,%eax
  ec:	00 00                	add    %al,(%eax)
  ee:	00 00                	add    %al,(%eax)
  f0:	f6 1f                	negb   (%edi)
  f2:	10 00                	adc    %al,(%eax)
  f4:	0c 02                	or     $0x2,%al
	...
  fe:	00 00                	add    %al,(%eax)
 100:	1c 00                	sbb    $0x0,%al
 102:	00 00                	add    %al,(%eax)
 104:	02 00                	add    (%eax),%al
 106:	06                   	push   %es
 107:	28 00                	sub    %al,(%eax)
 109:	00 04 00             	add    %al,(%eax,%eax,1)
 10c:	00 00                	add    %al,(%eax)
 10e:	00 00                	add    %al,(%eax)
 110:	02 22                	add    (%edx),%ah
 112:	10 00                	adc    %al,(%eax)
 114:	81 07 00 00 00 00    	addl   $0x0,(%edi)
 11a:	00 00                	add    %al,(%eax)
 11c:	00 00                	add    %al,(%eax)
 11e:	00 00                	add    %al,(%eax)
 120:	1c 00                	sbb    $0x0,%al
 122:	00 00                	add    %al,(%eax)
 124:	02 00                	add    (%eax),%al
 126:	33 2c 00             	xor    (%eax,%eax,1),%ebp
 129:	00 04 00             	add    %al,(%eax,%eax,1)
 12c:	00 00                	add    %al,(%eax)
 12e:	00 00                	add    %al,(%eax)
 130:	83 29 10             	subl   $0x10,(%ecx)
 133:	00 45 01             	add    %al,0x1(%ebp)
	...
 13e:	00 00                	add    %al,(%eax)
 140:	1c 00                	sbb    $0x0,%al
 142:	00 00                	add    %al,(%eax)
 144:	02 00                	add    (%eax),%al
 146:	79 2e                	jns    176 <FLAGS+0x175>
 148:	00 00                	add    %al,(%eax)
 14a:	04 00                	add    $0x0,%al
 14c:	00 00                	add    %al,(%eax)
 14e:	00 00                	add    %al,(%eax)
 150:	c8 2a 10 00          	enter  $0x102a,$0x0
 154:	88 00                	mov    %al,(%eax)
	...
 15e:	00 00                	add    %al,(%eax)
 160:	1c 00                	sbb    $0x0,%al
 162:	00 00                	add    %al,(%eax)
 164:	02 00                	add    (%eax),%al
 166:	52                   	push   %edx
 167:	30 00                	xor    %al,(%eax)
 169:	00 04 00             	add    %al,(%eax,%eax,1)
 16c:	00 00                	add    %al,(%eax)
 16e:	00 00                	add    %al,(%eax)
 170:	50                   	push   %eax
 171:	2b 10                	sub    (%eax),%edx
 173:	00 6a 02             	add    %ch,0x2(%edx)
	...
 17e:	00 00                	add    %al,(%eax)
 180:	1c 00                	sbb    $0x0,%al
 182:	00 00                	add    %al,(%eax)
 184:	02 00                	add    (%eax),%al
 186:	d9 32                	fnstenv (%edx)
 188:	00 00                	add    %al,(%eax)
 18a:	04 00                	add    $0x0,%al
 18c:	00 00                	add    %al,(%eax)
 18e:	00 00                	add    %al,(%eax)
 190:	ba 2d 10 00 56       	mov    $0x5600102d,%edx
 195:	05 00 00 00 00       	add    $0x0,%eax
 19a:	00 00                	add    %al,(%eax)
 19c:	00 00                	add    %al,(%eax)
	...

Disassembly of section .debug_ranges:

00000000 <.debug_ranges>:
   0:	9c                   	pushf  
   1:	02 00                	add    (%eax),%al
   3:	00 62 03             	add    %ah,0x3(%edx)
   6:	00 00                	add    %al,(%eax)
   8:	75 03                	jne    d <FLAGS+0xc>
   a:	00 00                	add    %al,(%eax)
   c:	76 03                	jbe    11 <FLAGS+0x10>
	...

Disassembly of section .debug_line:

00000000 <.debug_line>:
       0:	8c 03                	mov    %es,(%ebx)
       2:	00 00                	add    %al,(%eax)
       4:	03 00                	add    (%eax),%eax
       6:	73 00                	jae    8 <FLAGS+0x7>
       8:	00 00                	add    %al,(%eax)
       a:	01 01                	add    %eax,(%ecx)
       c:	fb                   	sti    
       d:	0e                   	push   %cs
       e:	0d 00 01 01 01       	or     $0x1010100,%eax
      13:	01 00                	add    %eax,(%eax)
      15:	00 00                	add    %al,(%eax)
      17:	01 00                	add    %eax,(%eax)
      19:	00 01                	add    %al,(%ecx)
      1b:	73 72                	jae    8f <FLAGS+0x8e>
      1d:	63 2f                	arpl   %bp,(%edi)
      1f:	6b 65 72 6e          	imul   $0x6e,0x72(%ebp),%esp
      23:	65 6c                	gs insb (%dx),%es:(%edi)
      25:	00 73 72             	add    %dh,0x72(%ebx)
      28:	63 2f                	arpl   %bp,(%edi)
      2a:	6b 65 72 6e          	imul   $0x6e,0x72(%ebp),%esp
      2e:	65 6c                	gs insb (%dx),%es:(%edi)
      30:	2f                   	das    
      31:	2e 2e 2f             	cs cs das 
      34:	63 6f 6d             	arpl   %bp,0x6d(%edi)
      37:	6d                   	insl   (%dx),%es:(%edi)
      38:	6f                   	outsl  %ds:(%esi),(%dx)
      39:	6e                   	outsb  %ds:(%esi),(%dx)
      3a:	00 00                	add    %al,(%eax)
      3c:	6b 68 65 61          	imul   $0x61,0x65(%eax),%ebp
      40:	70 2e                	jo     70 <FLAGS+0x6f>
      42:	63 00                	arpl   %ax,(%eax)
      44:	01 00                	add    %eax,(%eax)
      46:	00 74 79 70          	add    %dh,0x70(%ecx,%edi,2)
      4a:	65 73 2e             	gs jae 7b <FLAGS+0x7a>
      4d:	68 00 02 00 00       	push   $0x200
      52:	6f                   	outsl  %ds:(%esi),(%dx)
      53:	72 64                	jb     b9 <FLAGS+0xb8>
      55:	65 72 65             	gs jb  bd <FLAGS+0xbc>
      58:	64 5f                	fs pop %edi
      5a:	61                   	popa   
      5b:	72 72                	jb     cf <FLAGS+0xce>
      5d:	61                   	popa   
      5e:	79 2e                	jns    8e <FLAGS+0x8d>
      60:	68 00 02 00 00       	push   $0x200
      65:	6b 68 65 61          	imul   $0x61,0x65(%eax),%ebp
      69:	70 2e                	jo     99 <FLAGS+0x98>
      6b:	68 00 01 00 00       	push   $0x100
      70:	70 61                	jo     d3 <FLAGS+0xd2>
      72:	67 69 6e 67 2e 68 00 	imul   $0x100682e,0x67(%bp),%ebp
      79:	01 
      7a:	00 00                	add    %al,(%eax)
      7c:	00 05 32 00 05 02    	add    %al,0x2050032
      82:	1a 00                	sbb    (%eax),%al
      84:	10 00                	adc    %al,(%eax)
      86:	03 09                	add    (%ecx),%ecx
      88:	01 05 05 83 00 02    	add    %eax,0x2008305
      8e:	04 01                	add    $0x1,%al
      90:	06                   	push   %es
      91:	08 4a 05             	or     %cl,0x5(%edx)
      94:	11 06                	adc    %eax,(%esi)
      96:	08 68 05             	or     %ch,0x5(%eax)
      99:	07                   	pop    %es
      9a:	82 05 0b 4b 75 05 05 	addb   $0x5,0x5754b0b
      a1:	76 00                	jbe    a3 <FLAGS+0xa2>
      a3:	02 04 01             	add    (%ecx,%eax,1),%al
      a6:	06                   	push   %es
      a7:	08 4a 05             	or     %cl,0x5(%edx)
      aa:	1a 06                	sbb    (%esi),%al
      ac:	08 68 05             	or     %ch,0x5(%eax)
      af:	2e 66 05 0b 66       	cs add $0x660b,%ax
      b4:	75 05                	jne    bb <FLAGS+0xba>
      b6:	0a 67 05             	or     0x5(%edi),%ah
      b9:	5f                   	pop    %edi
      ba:	2f                   	das    
      bb:	05 02 74 05 48       	add    $0x48057402,%eax
      c0:	82 05 02 74 05 1b c8 	addb   $0xc8,0x1b057402
      c7:	05 02 66 05 04       	add    $0x4056602,%eax
      cc:	02 22                	add    (%edx),%ah
      ce:	13 05 0a 72 05 1d    	adc    0x1d05720a,%eax
      d4:	86 05 2c 66 05 17    	xchg   %al,0x1705662c
      da:	58                   	pop    %eax
      db:	05 01 67 05 43       	add    $0x43056701,%eax
      e0:	85 05 0e 67 05 07    	test   %eax,0x705670e
      e6:	58                   	pop    %eax
      e7:	05 02 83 05 0f       	add    $0xf058302,%eax
      ec:	f3 05 1b 66 05 0f    	repz add $0xf05661b,%eax
      f2:	3c 05                	cmp    $0x5,%al
      f4:	02 08                	add    (%eax),%cl
      f6:	59                   	pop    %ecx
      f7:	f3 e5 05             	repz in $0x5,%eax
      fa:	04 c9                	add    $0xc9,%al
      fc:	05 15 67 05 12       	add    $0x12056715,%eax
     101:	08 9f 05 19 82 05    	or     %bl,0x5821905(%edi)
     107:	23 58 05             	and    0x5(%eax),%ebx
     10a:	21 3c 05 2e 2e 05 0c 	and    %edi,0xc052e2e(,%eax,1)
     111:	74 05                	je     118 <FLAGS+0x117>
     113:	09 5a 05             	or     %ebx,0x5(%edx)
     116:	0b 5b 05             	or     0x5(%ebx),%ebx
     119:	2d 00 02 04 01       	sub    $0x1040200,%eax
     11e:	66 05 17 00          	add    $0x17,%ax
     122:	02 04 01             	add    (%ecx,%eax,1),%al
     125:	9e                   	sahf   
     126:	05 18 4b e5 05       	add    $0x5e54b18,%eax
     12b:	0b e6                	or     %esi,%esp
     12d:	05 0c 67 05 0f       	add    $0xf05670c,%eax
     132:	ae                   	scas   %es:(%edi),%al
     133:	05 1b 83 05 12       	add    $0x1205831b,%eax
     138:	f6 05 01 3f 05 1b 30 	testb  $0x30,0x1b053f01
     13f:	05 0c 67 05 01       	add    $0x105670c,%eax
     144:	08 21                	or     %ah,(%ecx)
     146:	05 1d 30 05 0c       	add    $0xc05301d,%eax
     14b:	67 05 01 08 21 05    	addr16 add $0x5210801,%eax
     151:	2a 30                	sub    (%eax),%dh
     153:	05 0c 67 05 01       	add    $0x105670c,%eax
     158:	08 2f                	or     %ch,(%edi)
     15a:	05 2b 30 05 0c       	add    $0xc05302b,%eax
     15f:	67 05 01 08 2f 05    	addr16 add $0x52f0801,%eax
     165:	4c                   	dec    %esp
     166:	30 05 09 bb 05 0c    	xor    %al,0xc05bb09
     16c:	7a 05                	jp     173 <FLAGS+0x172>
     16e:	21 5a 05             	and    %ebx,0x5(%edx)
     171:	04 08                	add    $0x8,%al
     173:	59                   	pop    %ecx
     174:	05 0c 9f 05 0a       	add    $0xa059f0c,%eax
     179:	03 0a                	add    (%edx),%ecx
     17b:	66 05 13 75          	add    $0x7513,%ax
     17f:	05 26 66 05 08       	add    $0x8056626,%eax
     184:	58                   	pop    %eax
     185:	05 1f 83 05 32       	add    $0x3205831f,%eax
     18a:	66 05 13 58          	add    $0x5813,%ax
     18e:	05 0a 90 05 22       	add    $0x2205900a,%eax
     193:	3d 05 09 66 05       	cmp    $0x5660905,%eax
     198:	03 67 f3             	add    -0xd(%edi),%esp
     19b:	d7                   	xlat   %ds:(%ebx)
     19c:	f3 e5 05             	repz in $0x5,%eax
     19f:	10 c9                	adc    %cl,%cl
     1a1:	05 05 3c 05 07       	add    $0x7053c05,%eax
     1a6:	59                   	pop    %ecx
     1a7:	05 0f 32 05 08       	add    $0x805320f,%eax
     1ac:	66 05 06 5b          	add    $0x5b06,%ax
     1b0:	05 1c 03 61 4a       	add    $0x4a61031c,%eax
     1b5:	05 0f 66 05 0c       	add    $0xc05660f,%eax
     1ba:	3c 05                	cmp    $0x5,%al
     1bc:	03 03                	add    (%ebx),%eax
     1be:	1d 9e 05 18 25       	sbb    $0x2518059e,%eax
     1c3:	05 0a 66 05 07       	add    $0x705660a,%eax
     1c8:	3c 05                	cmp    $0x5,%al
     1ca:	09 4b 05             	or     %ecx,0x5(%ebx)
     1cd:	0c 76                	or     $0x76,%al
     1cf:	05 01 3d 05 32       	add    $0x32053d01,%eax
     1d4:	30 05 1b 3d 05 33    	xor    %al,0x33053d1b
     1da:	66 05 3e 66          	add    $0x663e,%ax
     1de:	05 01 59 05 58       	add    $0x58055901,%eax
     1e3:	2f                   	das    
     1e4:	05 1e 08 2f 05       	add    $0x52f081e,%eax
     1e9:	0d c8 05 13 3d       	or     $0x3d1305c8,%eax
     1ee:	05 0b 02 34 13       	add    $0x1334020b,%eax
     1f3:	05 0e 75 05 07       	add    $0x705750e,%eax
     1f8:	66 05 08 4b          	add    $0x4b08,%ax
     1fc:	75 05                	jne    203 <FLAGS+0x202>
     1fe:	19 76 05             	sbb    %esi,0x5(%esi)
     201:	17                   	pop    %ss
     202:	91                   	xchg   %eax,%ecx
     203:	91                   	xchg   %eax,%ecx
     204:	05 16 91 05 14       	add    $0x14059116,%eax
     209:	9f                   	lahf   
     20a:	05 0f a0 05 16       	add    $0x1605a00f,%eax
     20f:	67 05 10 82 05 11    	addr16 add $0x11058210,%eax
     215:	67 05 13 91 05 05    	addr16 add $0x5059113,%eax
     21b:	75 05                	jne    222 <FLAGS+0x221>
     21d:	0c 08                	or     $0x8,%al
     21f:	21 05 01 3e 05 38    	and    %eax,0x38053e01
     225:	5a                   	pop    %edx
     226:	05 0b bb 05 0f       	add    $0xf05bb0b,%eax
     22b:	92                   	xchg   %eax,%edx
     22c:	05 05 08 83 f3       	add    $0xf3830805,%eax
     231:	f3 f3 d7             	repz repz xlat %ds:(%ebx)
     234:	05 07 c9 05 19       	add    $0x1905c907,%eax
     239:	9f                   	lahf   
     23a:	05 2d 66 05 08       	add    $0x805662d,%eax
     23f:	66 75 05             	data16 jne 247 <FLAGS+0x246>
     242:	02 91 05 19 08 67    	add    0x67081905(%ecx),%dl
     248:	05 2d 66 05 08       	add    $0x805662d,%eax
     24d:	66 05 04 75          	add    $0x7504,%ax
     251:	05 08 75 05 18       	add    $0x18057508,%eax
     256:	74 05                	je     25d <FLAGS+0x25c>
     258:	07                   	pop    %es
     259:	75 05                	jne    260 <FLAGS+0x25f>
     25b:	19 2f                	sbb    %ebp,(%edi)
     25d:	05 0c 08 2e 05       	add    $0x52e080c,%eax
     262:	08 3d 05 09 83 05    	or     %bh,0x5830905
     268:	07                   	pop    %es
     269:	67 68 05 17 03 7a    	addr16 push $0x7a031705
     26f:	4a                   	dec    %edx
     270:	05 0a 66 05 07       	add    $0x705660a,%eax
     275:	3c 05                	cmp    $0x5,%al
     277:	04 52                	add    $0x52,%al
     279:	05 10 67 05 14       	add    $0x14056710,%eax
     27e:	67 05 20 91 05 13    	addr16 add $0x13059120,%eax
     284:	82 05 16 67 05 3c 75 	addb   $0x75,0x3c056716
     28b:	05 35 66 05 43       	add    $0x43056635,%eax
     290:	58                   	pop    %eax
     291:	05 10 3c 05 14       	add    $0x14053c10,%eax
     296:	3d 05 15 91 05       	cmp    $0x5911505,%eax
     29b:	06                   	push   %es
     29c:	91                   	xchg   %eax,%ecx
     29d:	05 19 08 3e 05       	add    $0x53e0819,%eax
     2a2:	13 08                	adc    (%eax),%ecx
     2a4:	4b                   	dec    %ebx
     2a5:	05 21 66 05 13       	add    $0x13056621,%eax
     2aa:	66 05 3a 83          	add    $0x833a,%ax
     2ae:	05 26 66 05 33       	add    $0x33056626,%eax
     2b3:	3c 05                	cmp    $0x5,%al
     2b5:	40                   	inc    %eax
     2b6:	2e 05 10 3c 05 15    	cs add $0x15053c10,%eax
     2bc:	3d 05 14 91 05       	cmp    $0x5911405,%eax
     2c1:	09 93 05 2e 08 a0    	or     %edx,-0x5ff7d1fb(%ebx)
     2c7:	05 0b 08 59 67       	add    $0x6759080b,%eax
     2cc:	05 16 91 05 07       	add    $0x7059116,%eax
     2d1:	66 05 19 59          	add    $0x5919,%ax
     2d5:	05 07 66 05 0b       	add    $0xb056607,%eax
     2da:	3d 05 05 68 f3       	cmp    $0xf3680505,%eax
     2df:	d7                   	xlat   %ds:(%ebx)
     2e0:	05 07 c9 05 25       	add    $0x2505c907,%eax
     2e5:	00 02                	add    %al,(%edx)
     2e7:	04 01                	add    $0x1,%al
     2e9:	9e                   	sahf   
     2ea:	05 38 00 02 04       	add    $0x4020038,%eax
     2ef:	01 66 05             	add    %esp,0x5(%esi)
     2f2:	13 00                	adc    (%eax),%eax
     2f4:	02 04 01             	add    (%ecx,%eax,1),%al
     2f7:	58                   	pop    %eax
     2f8:	05 02 4b 05 46       	add    $0x46054b02,%eax
     2fd:	f3 05 08 82 05 0c    	repz add $0xc058208,%eax
     303:	83 05 32 67 05 14 e4 	addl   $0xffffffe4,0x14056732
     30a:	05 15 67 05 17       	add    $0x17056715,%eax
     30f:	91                   	xchg   %eax,%ecx
     310:	05 3b 75 05 0c       	add    $0xc05753b,%eax
     315:	66 05 15 3d          	add    $0x3d15,%ax
     319:	05 16 91 05 10       	add    $0x10059116,%eax
     31e:	91                   	xchg   %eax,%ecx
     31f:	05 2f 67 05 11       	add    $0x1105672f,%eax
     324:	66 05 47 03          	add    $0x347,%ax
     328:	75 3c                	jne    366 <FLAGS+0x365>
     32a:	05 02 03 0d 2e       	add    $0x2e0d0302,%eax
     32f:	05 0f 08 30 05       	add    $0x530080f,%eax
     334:	19 67 05             	sbb    %esp,0x5(%edi)
     337:	1b 91 05 18 75 05    	sbb    0x5751805(%ecx),%edx
     33d:	49                   	dec    %ecx
     33e:	91                   	xchg   %eax,%ecx
     33f:	05 0f ac 05 19       	add    $0x1905ac0f,%eax
     344:	3d 05 1a 91 05       	cmp    $0x5911a05,%eax
     349:	07                   	pop    %es
     34a:	91                   	xchg   %eax,%ecx
     34b:	05 43 83 05 48       	add    $0x48058343,%eax
     350:	82 05 0c 3c 05 15 3d 	addb   $0x3d,0x15053c0c
     357:	05 17 91 05 25       	add    $0x25059117,%eax
     35c:	75 05                	jne    363 <FLAGS+0x362>
     35e:	14 82                	adc    $0x82,%al
     360:	05 27 67 05 39       	add    $0x39056727,%eax
     365:	3c 05                	cmp    $0x5,%al
     367:	48                   	dec    %eax
     368:	58                   	pop    %eax
     369:	05 51 3c 05 0c       	add    $0xc053c51,%eax
     36e:	3c 05                	cmp    $0x5,%al
     370:	1e                   	push   %ds
     371:	3d 05 18 66 05       	cmp    $0x5661805,%eax
     376:	04 3c                	add    $0x3c,%al
     378:	05 19 4b 05 1a       	add    $0x1a054b19,%eax
     37d:	91                   	xchg   %eax,%ecx
     37e:	05 02 92 05 15       	add    $0x15059202,%eax
     383:	08 22                	or     %ah,(%edx)
     385:	05 28 3c 05 01       	add    $0x1053c28,%eax
     38a:	3d 02 02 00 01       	cmp    $0x1000202,%eax
     38f:	01 bd 03 00 00 03    	add    %edi,0x3000003(%ebp)
     395:	00 5e 00             	add    %bl,0x0(%esi)
     398:	00 00                	add    %al,(%eax)
     39a:	01 01                	add    %eax,(%ecx)
     39c:	fb                   	sti    
     39d:	0e                   	push   %cs
     39e:	0d 00 01 01 01       	or     $0x1010100,%eax
     3a3:	01 00                	add    %eax,(%eax)
     3a5:	00 00                	add    %al,(%eax)
     3a7:	01 00                	add    %eax,(%eax)
     3a9:	00 01                	add    %al,(%ecx)
     3ab:	73 72                	jae    41f <FLAGS+0x41e>
     3ad:	63 2f                	arpl   %bp,(%edi)
     3af:	6b 65 72 6e          	imul   $0x6e,0x72(%ebp),%esp
     3b3:	65 6c                	gs insb (%dx),%es:(%edi)
     3b5:	00 73 72             	add    %dh,0x72(%ebx)
     3b8:	63 2f                	arpl   %bp,(%edi)
     3ba:	6b 65 72 6e          	imul   $0x6e,0x72(%ebp),%esp
     3be:	65 6c                	gs insb (%dx),%es:(%edi)
     3c0:	2f                   	das    
     3c1:	2e 2e 2f             	cs cs das 
     3c4:	63 6f 6d             	arpl   %bp,0x6d(%edi)
     3c7:	6d                   	insl   (%dx),%es:(%edi)
     3c8:	6f                   	outsl  %ds:(%esi),(%dx)
     3c9:	6e                   	outsb  %ds:(%esi),(%dx)
     3ca:	00 00                	add    %al,(%eax)
     3cc:	69 6e 69 74 72 64 2e 	imul   $0x2e647274,0x69(%esi),%ebp
     3d3:	63 00                	arpl   %ax,(%eax)
     3d5:	01 00                	add    %eax,(%eax)
     3d7:	00 74 79 70          	add    %dh,0x70(%ecx,%edi,2)
     3db:	65 73 2e             	gs jae 40c <FLAGS+0x40b>
     3de:	68 00 02 00 00       	push   $0x200
     3e3:	66 73 2e             	data16 jae 414 <FLAGS+0x413>
     3e6:	68 00 01 00 00       	push   $0x100
     3eb:	69 6e 69 74 72 64 2e 	imul   $0x2e647274,0x69(%esi),%ebp
     3f2:	68 00 01 00 00       	push   $0x100
     3f7:	00 05 50 00 05 02    	add    %al,0x2050050
     3fd:	4f                   	dec    %edi
     3fe:	08 10                	or     %dl,(%eax)
     400:	00 03                	add    %al,(%ebx)
     402:	0d 01 05 2f 91       	or     $0x912f0501,%eax
     407:	05 34 66 05 2f       	add    $0x2f056634,%eax
     40c:	90                   	nop
     40d:	05 1a 58 05 17       	add    $0x1705581a,%eax
     412:	08 21                	or     %ah,(%ecx)
     414:	05 07 3c 05 09       	add    $0x9053c07,%eax
     419:	59                   	pop    %ecx
     41a:	05 0e 75 05 1c       	add    $0x1c05750e,%eax
     41f:	82 05 07 3c 05 0f 4b 	addb   $0x4b,0xf053c07
     426:	05 07 3c 05 22       	add    $0x22053c07,%eax
     42b:	67 05 29 3c 05 05    	addr16 add $0x5053c29,%eax
     431:	58                   	pop    %eax
     432:	05 0c 08 21 05       	add    $0x521080c,%eax
     437:	01 00                	add    %eax,(%eax)
     439:	02 04 01             	add    (%ecx,%eax,1),%al
     43c:	3d 05 44 84 05       	cmp    $0x5844405,%eax
     441:	0c 67                	or     $0x67,%al
     443:	05 07 58 05 1a       	add    $0x1a055807,%eax
     448:	00 02                	add    %al,(%edx)
     44a:	04 01                	add    $0x1,%al
     44c:	58                   	pop    %eax
     44d:	05 02 67 05 0d       	add    $0xd056702,%eax
     452:	08 4c 05 09          	or     %cl,0x9(%ebp,%eax,1)
     456:	9f                   	lahf   
     457:	05 0d 76 05 10       	add    $0x1005760d,%eax
     45c:	66 05 07 58          	add    $0x5807,%ax
     460:	05 09 4b 05 23       	add    $0x23054b09,%eax
     465:	75 05                	jne    46c <FLAGS+0x46b>
     467:	05 08 58 05 1c       	add    $0x1c055808,%eax
     46c:	08 14 05 25 08 58 05 	or     %dl,0x5580825(,%eax,1)
     473:	10 66 05             	adc    %ah,0x5(%esi)
     476:	0c 59                	or     $0x59,%al
     478:	05 01 59 05 3f       	add    $0x3f055901,%eax
     47d:	30 05 0d 67 05 07    	xor    %al,0x705670d
     483:	58                   	pop    %eax
     484:	05 20 00 02 04       	add    $0x4020020,%eax
     489:	01 58 05             	add    %ebx,0x5(%eax)
     48c:	1c 00                	sbb    $0x0,%al
     48e:	02 04 01             	add    (%ecx,%eax,1),%al
     491:	08 2e                	or     %ch,(%esi)
     493:	05 09 4b 05 0a       	add    $0xa054b09,%eax
     498:	77 05                	ja     49f <FLAGS+0x49e>
     49a:	05 74 05 1d 2f       	add    $0x2f1d0574,%eax
     49f:	05 06 08 12 05       	add    $0x5120806,%eax
     4a4:	04 e4                	add    $0xe4,%al
     4a6:	05 0d 4b 05 18       	add    $0x18054b0d,%eax
     4ab:	66 05 0d 90          	add    $0x900d,%ax
     4af:	05 1e 00 02 04       	add    $0x402001e,%eax
     4b4:	02 48 05             	add    0x5(%eax),%cl
     4b7:	0f 00 02             	sldt   (%edx)
     4ba:	04 01                	add    $0x1,%al
     4bc:	4a                   	dec    %edx
     4bd:	05 05 00 02 04       	add    $0x4020005,%eax
     4c2:	01 58 05             	add    %ebx,0x5(%eax)
     4c5:	0c 5c                	or     $0x5c,%al
     4c7:	05 01 59 05 28       	add    $0x28055901,%eax
     4cc:	30 05 15 67 05 13    	xor    %al,0x13056715
     4d2:	3c 05                	cmp    $0x5,%al
     4d4:	35 59 05 12 66       	xor    $0x66120559,%eax
     4d9:	05 20 5a 05 11       	add    $0x11055a20,%eax
     4de:	f2 05 17 59 05 05    	repnz add $0x5055917,%eax
     4e4:	58                   	pop    %eax
     4e5:	05 5f 08 13 05       	add    $0x513085f,%eax
     4ea:	68 66 05 4a 9e       	push   $0x9e4a0566
     4ef:	05 5f 58 05 52       	add    $0x5205585f,%eax
     4f4:	66 05 37 66          	add    $0x6637,%ax
     4f8:	05 4a 66 05 3d       	add    $0x3d05664a,%eax
     4fd:	66 05 24 66          	add    $0x6624,%ax
     501:	05 37 58 05 2a       	add    $0x2a055837,%eax
     506:	66 05 10 66          	add    $0x6610,%ax
     50a:	05 24 66 05 17       	add    $0x17056624,%eax
     50f:	66 05 10 67          	add    $0x6710,%ax
     513:	05 18 58 05 10       	add    $0x10055818,%eax
     518:	9f                   	lahf   
     519:	05 17 58 05 10       	add    $0x10055817,%eax
     51e:	9f                   	lahf   
     51f:	05 18 58 05 10       	add    $0x10055818,%eax
     524:	9f                   	lahf   
     525:	05 17 58 05 10       	add    $0x10055817,%eax
     52a:	9f                   	lahf   
     52b:	05 18 58 05 10       	add    $0x10055818,%eax
     530:	9f                   	lahf   
     531:	05 1a 58 05 10       	add    $0x1005581a,%eax
     536:	9f                   	lahf   
     537:	05 1a 58 05 10       	add    $0x1005581a,%eax
     53c:	9f                   	lahf   
     53d:	05 16 58 05 10       	add    $0x10055816,%eax
     542:	9f                   	lahf   
     543:	05 17 58 05 1f       	add    $0x1f055817,%eax
     548:	a1 05 10 f2 05       	mov    0x5f21005,%eax
     54d:	16                   	push   %ss
     54e:	59                   	pop    %ecx
     54f:	05 05 58 05 5a       	add    $0x5a055805,%eax
     554:	08 13                	or     %dl,(%ebx)
     556:	05 63 66 05 46       	add    $0x46056663,%eax
     55b:	9e                   	sahf   
     55c:	05 5a 58 05 4e       	add    $0x4e05585a,%eax
     561:	66 05 34 66          	add    $0x6634,%ax
     565:	05 46 66 05 3a       	add    $0x3a056646,%eax
     56a:	66 05 22 66          	add    $0x6622,%ax
     56e:	05 34 58 05 28       	add    $0x28055834,%eax
     573:	66 05 0f 66          	add    $0x660f,%ax
     577:	05 22 66 05 16       	add    $0x16056622,%eax
     57c:	66 05 0f 67          	add    $0x670f,%ax
     580:	05 17 58 05 0f       	add    $0xf055817,%eax
     585:	9f                   	lahf   
     586:	05 16 58 05 0f       	add    $0xf055816,%eax
     58b:	9f                   	lahf   
     58c:	05 17 58 05 0f       	add    $0xf055817,%eax
     591:	9f                   	lahf   
     592:	05 16 58 05 0f       	add    $0xf055816,%eax
     597:	9f                   	lahf   
     598:	05 17 58 05 0f       	add    $0xf055817,%eax
     59d:	9f                   	lahf   
     59e:	05 19 58 05 0f       	add    $0xf055819,%eax
     5a3:	9f                   	lahf   
     5a4:	05 19 58 05 0f       	add    $0xf055819,%eax
     5a9:	9f                   	lahf   
     5aa:	05 15 58 05 0f       	add    $0xf055815,%eax
     5af:	9f                   	lahf   
     5b0:	05 16 58 05 47       	add    $0x47055816,%eax
     5b5:	a0 05 39 74 05       	mov    0x5743905,%al
     5ba:	1f                   	pop    %ds
     5bb:	66 05 10 ba          	add    $0xba10,%ax
     5bf:	05 20 59 05 11       	add    $0x11055920,%eax
     5c4:	74 05                	je     5cb <FLAGS+0x5ca>
     5c6:	0a 5b 05             	or     0x5(%ebx),%bl
     5c9:	05 74 05 19 00       	add    $0x190574,%eax
     5ce:	02 04 03             	add    (%ebx,%eax,1),%al
     5d1:	59                   	pop    %ecx
     5d2:	05 29 00 02 04       	add    $0x4020029,%eax
     5d7:	03 02                	add    (%edx),%eax
     5d9:	27                   	daa    
     5da:	13 05 2c 00 02 04    	adc    0x402002c,%eax
     5e0:	03 d6                	add    %esi,%edx
     5e2:	05 13 00 02 04       	add    $0x4020013,%eax
     5e7:	03 3c 05 02 00 02 04 	add    0x4020002(,%eax,1),%edi
     5ee:	03 08                	add    (%eax),%ecx
     5f0:	12 05 35 00 02 04    	adc    0x4020035,%al
     5f6:	03 c9                	add    %ecx,%ecx
     5f8:	05 3d 00 02 04       	add    $0x402003d,%eax
     5fd:	03 08                	add    (%eax),%ecx
     5ff:	12 05 21 00 02 04    	adc    0x4020021,%al
     605:	03 9e 05 38 00 02    	add    0x2003805(%esi),%ebx
     60b:	04 03                	add    $0x3,%al
     60d:	08 12                	or     %dl,(%edx)
     60f:	05 29 00 02 04       	add    $0x4020029,%eax
     614:	03 66 05             	add    0x5(%esi),%esp
     617:	0c 00                	or     $0x0,%al
     619:	02 04 03             	add    (%ebx,%eax,1),%al
     61c:	66 05 24 00          	add    $0x24,%ax
     620:	02 04 03             	add    (%ebx,%eax,1),%al
     623:	08 12                	or     %dl,(%edx)
     625:	05 15 00 02 04       	add    $0x4020015,%eax
     62a:	03 66 05             	add    0x5(%esi),%esp
     62d:	25 00 02 04 03       	and    $0x3040200,%eax
     632:	67 05 0c 00 02 04    	addr16 add $0x402000c,%eax
     638:	03 d6                	add    %esi,%edx
     63a:	05 28 00 02 04       	add    $0x4020028,%eax
     63f:	03 08                	add    (%eax),%ecx
     641:	12 05 17 00 02 04    	adc    0x4020017,%al
     647:	03 3c 05 0c 00 02 04 	add    0x402000c(,%eax,1),%edi
     64e:	03 67 05             	add    0x5(%edi),%esp
     651:	16                   	push   %ss
     652:	00 02                	add    %al,(%edx)
     654:	04 03                	add    $0x3,%al
     656:	08 12                	or     %dl,(%edx)
     658:	05 0c 00 02 04       	add    $0x402000c,%eax
     65d:	03 91 05 16 00 02    	add    0x2001605(%ecx),%edx
     663:	04 03                	add    $0x3,%al
     665:	08 12                	or     %dl,(%edx)
     667:	05 0c 00 02 04       	add    $0x402000c,%eax
     66c:	03 9f 05 15 00 02    	add    0x2001505(%edi),%ebx
     672:	04 03                	add    $0x3,%al
     674:	08 12                	or     %dl,(%edx)
     676:	05 0c 00 02 04       	add    $0x402000c,%eax
     67b:	03 9f 05 16 00 02    	add    0x2001605(%edi),%ebx
     681:	04 03                	add    $0x3,%al
     683:	08 12                	or     %dl,(%edx)
     685:	05 0c 00 02 04       	add    $0x402000c,%eax
     68a:	03 9f 05 18 00 02    	add    0x2001805(%edi),%ebx
     690:	04 03                	add    $0x3,%al
     692:	08 12                	or     %dl,(%edx)
     694:	05 0c 00 02 04       	add    $0x402000c,%eax
     699:	03 9f 05 18 00 02    	add    0x2001805(%edi),%ebx
     69f:	04 03                	add    $0x3,%al
     6a1:	08 12                	or     %dl,(%edx)
     6a3:	05 0c 00 02 04       	add    $0x402000c,%eax
     6a8:	03 9f 05 15 00 02    	add    0x2001505(%edi),%ebx
     6ae:	04 03                	add    $0x3,%al
     6b0:	08 12                	or     %dl,(%edx)
     6b2:	05 0c 00 02 04       	add    $0x402000c,%eax
     6b7:	03 9f 05 16 00 02    	add    0x2001605(%edi),%ebx
     6bd:	04 03                	add    $0x3,%al
     6bf:	08 12                	or     %dl,(%edx)
     6c1:	05 0c 00 02 04       	add    $0x402000c,%eax
     6c6:	03 9f 05 15 00 02    	add    0x2001505(%edi),%ebx
     6cc:	04 03                	add    $0x3,%al
     6ce:	08 12                	or     %dl,(%edx)
     6d0:	05 28 00 02 04       	add    $0x4020028,%eax
     6d5:	03 03                	add    (%ebx),%eax
     6d7:	73 9e                	jae    677 <FLAGS+0x676>
     6d9:	05 1d 00 02 04       	add    $0x402001d,%eax
     6de:	01 4a 05             	add    %ecx,0x5(%edx)
     6e1:	0f 00 02             	sldt   (%edx)
     6e4:	04 01                	add    $0x1,%al
     6e6:	74 05                	je     6ed <FLAGS+0x6ec>
     6e8:	05 00 02 04 01       	add    $0x1040200,%eax
     6ed:	3c 05                	cmp    $0x5,%al
     6ef:	0c 03                	or     $0x3,%al
     6f1:	0f 82 05 01 5a 05    	jb     55a07fc <kernel_end+0x5499a96>
     6f7:	22 30                	and    (%eax),%dh
     6f9:	05 05 67 05 16       	add    $0x16056705,%eax
     6fe:	f3 05 05 3c bb c9    	repz add $0xc9bb3c05,%eax
     704:	f3 08 4b 05          	repz or %cl,0x5(%ebx)
     708:	01 c9                	add    %ecx,%ecx
     70a:	05 23 3f 05 09       	add    $0x9053f23,%eax
     70f:	67 05 14 75 05 0a    	addr16 add $0xa057514,%eax
     715:	75 05                	jne    71c <FLAGS+0x71b>
     717:	02 59 05             	add    0x5(%ecx),%bl
     71a:	13 f3                	adc    %ebx,%esi
     71c:	05 02 3c bb 05       	add    $0x5bb3c02,%eax
     721:	2d c9 05 16 3c       	sub    $0x3c1605c9,%eax
     726:	05 02 08 21 05       	add    $0x5210802,%eax
     72b:	0c d7                	or     $0xd7,%al
     72d:	05 13 90 05 04       	add    $0x4059013,%eax
     732:	3c 05                	cmp    $0x5,%al
     734:	06                   	push   %es
     735:	59                   	pop    %ecx
     736:	08 22                	or     %ah,(%edx)
     738:	f4                   	hlt    
     739:	08 4b 05             	or     %cl,0x5(%ebx)
     73c:	03 d8                	add    %eax,%ebx
     73e:	05 11 03 72 4a       	add    $0x4a720311,%eax
     743:	05 0a 08 4a 05       	add    $0x54a080a,%eax
     748:	01 03                	add    %eax,(%ebx)
     74a:	11 9e 02 04 00 01    	adc    %ebx,0x1000402(%esi)
     750:	01 00                	add    %eax,(%eax)
     752:	02 00                	add    (%eax),%al
     754:	00 03                	add    %al,(%ebx)
     756:	00 5e 00             	add    %bl,0x0(%esi)
     759:	00 00                	add    %al,(%eax)
     75b:	01 01                	add    %eax,(%ecx)
     75d:	fb                   	sti    
     75e:	0e                   	push   %cs
     75f:	0d 00 01 01 01       	or     $0x1010100,%eax
     764:	01 00                	add    %eax,(%eax)
     766:	00 00                	add    %al,(%eax)
     768:	01 00                	add    %eax,(%eax)
     76a:	00 01                	add    %al,(%ecx)
     76c:	73 72                	jae    7e0 <FLAGS+0x7df>
     76e:	63 2f                	arpl   %bp,(%edi)
     770:	6b 65 72 6e          	imul   $0x6e,0x72(%ebp),%esp
     774:	65 6c                	gs insb (%dx),%es:(%edi)
     776:	00 73 72             	add    %dh,0x72(%ebx)
     779:	63 2f                	arpl   %bp,(%edi)
     77b:	6b 65 72 6e          	imul   $0x6e,0x72(%ebp),%esp
     77f:	65 6c                	gs insb (%dx),%es:(%edi)
     781:	2f                   	das    
     782:	2e 2e 2f             	cs cs das 
     785:	63 6f 6d             	arpl   %bp,0x6d(%edi)
     788:	6d                   	insl   (%dx),%es:(%edi)
     789:	6f                   	outsl  %ds:(%esi),(%dx)
     78a:	6e                   	outsb  %ds:(%esi),(%dx)
     78b:	00 00                	add    %al,(%eax)
     78d:	74 61                	je     7f0 <FLAGS+0x7ef>
     78f:	73 6b                	jae    7fc <FLAGS+0x7fb>
     791:	2e 63 00             	arpl   %ax,%cs:(%eax)
     794:	01 00                	add    %eax,(%eax)
     796:	00 70 61             	add    %dh,0x61(%eax)
     799:	67 69 6e 67 2e 68 00 	imul   $0x100682e,0x67(%bp),%ebp
     7a0:	01 
     7a1:	00 00                	add    %al,(%eax)
     7a3:	74 79                	je     81e <FLAGS+0x81d>
     7a5:	70 65                	jo     80c <FLAGS+0x80b>
     7a7:	73 2e                	jae    7d7 <FLAGS+0x7d6>
     7a9:	68 00 02 00 00       	push   $0x200
     7ae:	74 61                	je     811 <FLAGS+0x810>
     7b0:	73 6b                	jae    81d <FLAGS+0x81c>
     7b2:	2e 68 00 01 00 00    	cs push $0x100
     7b8:	00 05 12 00 05 02    	add    %al,0x2050012
     7be:	7b 0f                	jnp    7cf <FLAGS+0x7ce>
     7c0:	10 00                	adc    %al,(%eax)
     7c2:	03 0e                	add    (%esi),%ecx
     7c4:	01 05 05 68 22 05    	add    %eax,0x5226805
     7ca:	2c 08                	sub    $0x8,%al
     7cc:	4c                   	dec    %esp
     7cd:	05 20 c8 05 12       	add    $0x1205c820,%eax
     7d2:	58                   	pop    %eax
     7d3:	05 20 9f 05 11       	add    $0x11059f20,%eax
     7d8:	d6                   	(bad)  
     7d9:	05 16 66 05 25       	add    $0x25056616,%eax
     7de:	2f                   	das    
     7df:	05 2b 66 05 11       	add    $0x1105662b,%eax
     7e4:	82 05 17 66 05 11 3d 	addb   $0x3d,0x11056617
     7eb:	05 17 58 05 11       	add    $0x11055817,%eax
     7f0:	75 05                	jne    7f7 <FLAGS+0x7f6>
     7f2:	22 58 05             	and    0x5(%eax),%bl
     7f5:	11 91 05 18 58 05    	adc    %edx,0x5581805(%ecx)
     7fb:	05 75 05 01 23       	add    $0x23010575,%eax
     800:	05 34 3f 05 0a       	add    $0xa053f34,%eax
     805:	68 05 05 66 05       	push   $0x5660505
     80a:	02 00                	add    (%eax),%al
     80c:	02 04 03             	add    (%ebx,%eax,1),%al
     80f:	2f                   	das    
     810:	05 46 00 02 04       	add    $0x4020046,%eax
     815:	03 02                	add    (%edx),%eax
     817:	26 11 05 27 00 02 04 	adc    %eax,%es:0x4020027
     81e:	01 74 05 3d          	add    %esi,0x3d(%ebp,%eax,1)
     822:	00 02                	add    %al,(%edx)
     824:	04 01                	add    $0x1,%al
     826:	3c 05                	cmp    $0x5,%al
     828:	05 00 02 04 01       	add    $0x1040200,%eax
     82d:	3c 5d                	cmp    $0x5d,%al
     82f:	67 05 14 68 59 5a    	addr16 add $0x5a596814,%eax
     835:	05 2b 3c 05 0b       	add    $0xb053c2b,%eax
     83a:	58                   	pop    %eax
     83b:	75 ad                	jne    7ea <FLAGS+0x7e9>
     83d:	05 05 ae 05 0a       	add    $0xa05ae05,%eax
     842:	08 ca                	or     %cl,%dl
     844:	05 05 66 05 0f       	add    $0xf056605,%eax
     849:	2f                   	das    
     84a:	05 08 3c 05 0a       	add    $0xa053c08,%eax
     84f:	59                   	pop    %ecx
     850:	05 04 58 05 19       	add    $0x19055804,%eax
     855:	00 02                	add    %al,(%edx)
     857:	04 01                	add    $0x1,%al
     859:	58                   	pop    %eax
     85a:	05 0a 83 05 0d       	add    $0xd05830a,%eax
     85f:	67 05 0c 67 05 44    	addr16 add $0x4405670c,%eax
     865:	00 02                	add    %al,(%edx)
     867:	04 02                	add    $0x2,%al
     869:	7d 05                	jge    870 <FLAGS+0x86f>
     86b:	26 00 02             	add    %al,%es:(%edx)
     86e:	04 01                	add    $0x1,%al
     870:	4a                   	dec    %edx
     871:	05 3c 00 02 04       	add    $0x402003c,%eax
     876:	01 3c 05 05 00 02 04 	add    %edi,0x4020005(,%eax,1)
     87d:	01 3c 60             	add    %edi,(%eax,%eiz,2)
     880:	59                   	pop    %ecx
     881:	05 01 59 05 14       	add    $0x14055901,%eax
     886:	3e 05 08 75 05 07    	ds add $0x7057508,%eax
     88c:	58                   	pop    %eax
     88d:	05 05 84 59 05       	add    $0x5598405,%eax
     892:	0b 5a 05             	or     0x5(%edx),%ebx
     895:	07                   	pop    %es
     896:	83 05 11 c9 05 17 58 	addl   $0x58,0x1705c911
     89d:	05 11 67 05 17       	add    $0x17056711,%eax
     8a2:	58                   	pop    %eax
     8a3:	05 11 67 05 17       	add    $0x17056711,%eax
     8a8:	58                   	pop    %eax
     8a9:	05 1f 67 05 11       	add    $0x1105671f,%eax
     8ae:	82 05 08 59 05 07 58 	addb   $0x58,0x7055908
     8b5:	05 24 00 02 04       	add    $0x4020024,%eax
     8ba:	01 4a 05             	add    %ecx,0x5(%edx)
     8bd:	17                   	pop    %ss
     8be:	9f                   	lahf   
     8bf:	05 09 58 05 17       	add    $0x17055809,%eax
     8c4:	67 05 09 58 05 42    	addr16 add $0x42055809,%eax
     8ca:	03 09                	add    (%ecx),%ecx
     8cc:	66 05 05 03          	add    $0x305,%ax
     8d0:	78 ac                	js     87e <FLAGS+0x87d>
     8d2:	05 17 03 72 08       	add    $0x8720317,%eax
     8d7:	ba 05 18 42 05       	mov    $0x5421805,%edx
     8dc:	01 03                	add    %eax,(%ebx)
     8de:	12 20                	adc    (%eax),%ah
     8e0:	05 0c 68 05 05       	add    $0x505680c,%eax
     8e5:	67 05 0d 21 05 23    	addr16 add $0x2305210d,%eax
     8eb:	83 05 22 08 3d 05 0d 	addl   $0xd,0x53d0822
     8f2:	c8 05 1c 3d          	enter  $0x1c05,$0x3d
     8f6:	05 12 f2 05 23       	add    $0x2305f212,%eax
     8fb:	59                   	pop    %ecx
     8fc:	05 1d 9e 05 13       	add    $0x13059e1d,%eax
     901:	66 67 05 1e 9f       	addr16 add $0x9f1e,%ax
     906:	05 14 91 05 0d       	add    $0xd059114,%eax
     90b:	a0 05 0a 83 05       	mov    0x5830a05,%al
     910:	24 00                	and    $0x0,%al
     912:	02 04 02             	add    (%edx,%eax,1),%al
     915:	2e 05 13 00 02 04    	cs add $0x4020013,%eax
     91b:	01 90 05 0a 00 02    	add    %edx,0x2000a05(%eax)
     921:	04 01                	add    $0x1,%al
     923:	66 05 14 4b          	add    $0x4b14,%ax
     927:	05 11 92 05 15       	add    $0x15059211,%eax
     92c:	84 05 07 58 05 0d    	test   %al,0xd055807
     932:	59                   	pop    %ecx
     933:	59                   	pop    %ecx
     934:	05 17 59 05 10       	add    $0x10055917,%eax
     939:	91                   	xchg   %eax,%ecx
     93a:	91                   	xchg   %eax,%ecx
     93b:	05 02 91 05 11       	add    $0x11059102,%eax
     940:	21 05 09 76 05 01    	and    %eax,0x1057609
     946:	5a                   	pop    %edx
     947:	05 0f 30 05 18       	add    $0x1805300f,%eax
     94c:	3d 05 01 75 02       	cmp    $0x2750105,%eax
     951:	02 00                	add    (%eax),%al
     953:	01 01                	add    %eax,(%ecx)
     955:	bd 03 00 00 03       	mov    $0x3000003,%ebp
     95a:	00 99 00 00 00 01    	add    %bl,0x1000000(%ecx)
     960:	01 fb                	add    %edi,%ebx
     962:	0e                   	push   %cs
     963:	0d 00 01 01 01       	or     $0x1010100,%eax
     968:	01 00                	add    %eax,(%eax)
     96a:	00 00                	add    %al,(%eax)
     96c:	01 00                	add    %eax,(%eax)
     96e:	00 01                	add    %al,(%ecx)
     970:	73 72                	jae    9e4 <FLAGS+0x9e3>
     972:	63 2f                	arpl   %bp,(%edi)
     974:	6b 65 72 6e          	imul   $0x6e,0x72(%ebp),%esp
     978:	65 6c                	gs insb (%dx),%es:(%edi)
     97a:	00 73 72             	add    %dh,0x72(%ebx)
     97d:	63 2f                	arpl   %bp,(%edi)
     97f:	6b 65 72 6e          	imul   $0x6e,0x72(%ebp),%esp
     983:	65 6c                	gs insb (%dx),%es:(%edi)
     985:	2f                   	das    
     986:	2e 2e 2f             	cs cs das 
     989:	63 6f 6d             	arpl   %bp,0x6d(%edi)
     98c:	6d                   	insl   (%dx),%es:(%edi)
     98d:	6f                   	outsl  %ds:(%esi),(%dx)
     98e:	6e                   	outsb  %ds:(%esi),(%dx)
     98f:	00 73 72             	add    %dh,0x72(%ebx)
     992:	63 2f                	arpl   %bp,(%edi)
     994:	6b 65 72 6e          	imul   $0x6e,0x72(%ebp),%esp
     998:	65 6c                	gs insb (%dx),%es:(%edi)
     99a:	2f                   	das    
     99b:	2e 2e 2f             	cs cs das 
     99e:	64 72 69             	fs jb  a0a <FLAGS+0xa09>
     9a1:	76 65                	jbe    a08 <FLAGS+0xa07>
     9a3:	72 73                	jb     a18 <FLAGS+0xa17>
     9a5:	00 00                	add    %al,(%eax)
     9a7:	70 61                	jo     a0a <FLAGS+0xa09>
     9a9:	67 69 6e 67 2e 63 00 	imul   $0x100632e,0x67(%bp),%ebp
     9b0:	01 
     9b1:	00 00                	add    %al,(%eax)
     9b3:	74 79                	je     a2e <FLAGS+0xa2d>
     9b5:	70 65                	jo     a1c <FLAGS+0xa1b>
     9b7:	73 2e                	jae    9e7 <FLAGS+0x9e6>
     9b9:	68 00 02 00 00       	push   $0x200
     9be:	69 6e 74 65 72 72 75 	imul   $0x75727265,0x74(%esi),%ebp
     9c5:	70 74                	jo     a3b <FLAGS+0xa3a>
     9c7:	2e 68 00 03 00 00    	cs push $0x300
     9cd:	70 61                	jo     a30 <FLAGS+0xa2f>
     9cf:	67 69 6e 67 2e 68 00 	imul   $0x100682e,0x67(%bp),%ebp
     9d6:	01 
     9d7:	00 00                	add    %al,(%eax)
     9d9:	6f                   	outsl  %ds:(%esi),(%dx)
     9da:	72 64                	jb     a40 <FLAGS+0xa3f>
     9dc:	65 72 65             	gs jb  a44 <FLAGS+0xa43>
     9df:	64 5f                	fs pop %edi
     9e1:	61                   	popa   
     9e2:	72 72                	jb     a56 <FLAGS+0xa55>
     9e4:	61                   	popa   
     9e5:	79 2e                	jns    a15 <FLAGS+0xa14>
     9e7:	68 00 02 00 00       	push   $0x200
     9ec:	6b 68 65 61          	imul   $0x61,0x65(%eax),%ebp
     9f0:	70 2e                	jo     a20 <FLAGS+0xa1f>
     9f2:	68 00 01 00 00       	push   $0x100
     9f7:	00 05 29 00 05 02    	add    %al,0x2050029
     9fd:	aa                   	stos   %al,%es:(%edi)
     9fe:	12 10                	adc    (%eax),%dl
     a00:	00 03                	add    %al,(%ebx)
     a02:	1a 01                	sbb    (%ecx),%al
     a04:	05 0b 75 91 91       	add    $0x9191750b,%eax
     a09:	05 1a 91 05 22       	add    $0x2205911a,%eax
     a0e:	e4 05                	in     $0x5,%al
     a10:	1a f2                	sbb    %dl,%dh
     a12:	05 01 08 13 05       	add    $0x5130801,%eax
     a17:	2b 76 05             	sub    0x5(%esi),%esi
     a1a:	0b 75 91             	or     -0x6f(%ebp),%esi
     a1d:	91                   	xchg   %eax,%ecx
     a1e:	05 1a 91 05 23       	add    $0x2305911a,%eax
     a23:	e4 05                	in     $0x5,%al
     a25:	1d d6 05 1a 4a       	sbb    $0x4a1a05d6,%eax
     a2a:	05 01 08 13 05       	add    $0x5130801,%eax
     a2f:	2b 76 05             	sub    0x5(%esi),%esi
     a32:	0b 75 91             	or     -0x6f(%ebp),%esi
     a35:	91                   	xchg   %eax,%ecx
     a36:	05 1a 91 05 29       	add    $0x2905911a,%eax
     a3b:	e4 05                	in     $0x5,%al
     a3d:	22 d6                	and    %dh,%dl
     a3f:	05 01 2f 05 23       	add    $0x23052f01,%eax
     a44:	68 05 0a 76 05       	push   $0x5760a05
     a49:	05 74 05 12 2f       	add    $0x2f120574,%eax
     a4e:	05 04 e4 05 0b       	add    $0xb05e404,%eax
     a53:	59                   	pop    %ecx
     a54:	05 06 74 05 15       	add    $0x15057406,%eax
     a59:	2f                   	das    
     a5a:	05 20 e4 05 19       	add    $0x1905e420,%eax
     a5f:	d6                   	(bad)  
     a60:	05 05 2e 05 0c       	add    $0xc052e05,%eax
     a65:	4b                   	dec    %ebx
     a66:	05 0f 82 05 14       	add    $0x1405820f,%eax
     a6b:	00 02                	add    %al,(%edx)
     a6d:	04 02                	add    $0x2,%al
     a6f:	72 05                	jb     a76 <FLAGS+0xa75>
     a71:	06                   	push   %es
     a72:	00 02                	add    %al,(%edx)
     a74:	04 01                	add    $0x1,%al
     a76:	4a                   	dec    %edx
     a77:	05 2a 00 02 04       	add    $0x402002a,%eax
     a7c:	02 64 05 10          	add    0x10(%ebp,%eax,1),%ah
     a80:	00 02                	add    %al,(%edx)
     a82:	04 01                	add    $0x1,%al
     a84:	4a                   	dec    %edx
     a85:	05 05 00 02 04       	add    $0x4020005,%eax
     a8a:	01 82 05 01 03 09    	add    %eax,0x9030105(%edx)
     a90:	58                   	pop    %eax
     a91:	05 41 68 05 14       	add    $0x14056841,%eax
     a96:	67 05 07 9e 05 13    	addr16 add $0x13059e07,%eax
     a9c:	83 05 05 83 f3 e5 f3 	addl   $0xfffffff3,0xe5f38305
     aa3:	d7                   	xlat   %ds:(%ebx)
     aa4:	05 07 c9 05 02       	add    $0x205c907,%eax
     aa9:	67 f3 05 05 30 05 13 	addr16 repz add $0x13053005,%eax
     ab0:	08 21                	or     %ah,(%ecx)
     ab2:	05 20 ad 05 0e       	add    $0xe05ad20,%eax
     ab7:	74 05                	je     abe <FLAGS+0xabd>
     ab9:	1f                   	pop    %ds
     aba:	08 2f                	or     %ch,(%edi)
     abc:	05 10 74 05 11       	add    $0x11057410,%eax
     ac1:	08 67 05             	or     %ah,0x5(%edi)
     ac4:	1a 03                	sbb    (%ebx),%al
     ac6:	71 08                	jno    ad0 <FLAGS+0xacf>
     ac8:	e4 05                	in     $0x5,%al
     aca:	01 03                	add    %eax,(%ebx)
     acc:	10 20                	adc    %ah,(%eax)
     ace:	05 26 30 05 17       	add    $0x17053026,%eax
     ad3:	67 05 0b 82 05 07    	addr16 add $0x705820b,%eax
     ad9:	3d 05 05 67 05       	cmp    $0x5670505,%eax
     ade:	11 ad 05 10 e2 05    	adc    %ebp,0x5e21005(%ebp)
     ae4:	01 23                	add    %esp,(%ebx)
     ae6:	05 14 30 05 0b       	add    $0xb053014,%eax
     aeb:	67 05 1b 75 05 0d    	addr16 add $0xd05751b,%eax
     af1:	66 05 1d 5a          	add    $0x5a1d,%ax
     af5:	05 13 08 3c 05       	add    $0x53c0813,%eax
     afa:	05 59 05 2b 08       	add    $0x82b0559,%eax
     aff:	ca 05 16             	lret   $0x1605
     b02:	f2 05 05 59 05 3e    	repnz add $0x3e055905,%eax
     b08:	08 76 05             	or     %dh,0x5(%esi)
     b0b:	2e 58                	cs pop %eax
     b0d:	05 15 66 05 25       	add    $0x25056615,%eax
     b12:	58                   	pop    %eax
     b13:	05 0b 69 05 0a       	add    $0xa05690b,%eax
     b18:	75 05                	jne    b1f <FLAGS+0xb1e>
     b1a:	07                   	pop    %es
     b1b:	82 05 04 4b 05 0a 76 	addb   $0x76,0xa054b04
     b22:	05 02 2f 05 04       	add    $0x4052f02,%eax
     b27:	08 59 05             	or     %bl,0x5(%ecx)
     b2a:	0a 72 05             	or     0x5(%edx),%dh
     b2d:	09 94 05 0a 75 05 02 	or     %edx,0x205750a(%ebp,%eax,1)
     b34:	2f                   	das    
     b35:	05 04 02 28 13       	add    $0x13280204,%eax
     b3a:	05 1f 72 05 0c       	add    $0xc05721f,%eax
     b3f:	ac                   	lods   %ds:(%esi),%al
     b40:	05 0a 3c 05 07       	add    $0x7053c0a,%eax
     b45:	51                   	push   %ecx
     b46:	05 0a 75 05 07       	add    $0x705750a,%eax
     b4b:	82 05 04 4b 05 0a 76 	addb   $0x76,0xa054b04
     b52:	05 02 2f 05 04       	add    $0x4052f02,%eax
     b57:	02 26                	add    (%esi),%ah
     b59:	13 05 0a 72 05 05    	adc    0x505720a,%eax
     b5f:	94                   	xchg   %eax,%esp
     b60:	08 21                	or     %ah,(%ecx)
     b62:	05 0d 08 13 05       	add    $0x513080d,%eax
     b67:	0b 08                	or     (%eax),%ecx
     b69:	c8 05 05 59          	enter  $0x505,$0x59
     b6d:	05 01 08 13 05       	add    $0x5130801,%eax
     b72:	33 3e                	xor    (%esi),%edi
     b74:	05 17 67 05 27       	add    $0x27056717,%eax
     b79:	83 05 03 90 05 05 3e 	addl   $0x3e,0x5059003
     b80:	05 09 67 05 05       	add    $0x5056709,%eax
     b85:	75 05                	jne    b8c <FLAGS+0xb8b>
     b87:	01 67 05             	add    %esp,0x5(%edi)
     b8a:	42                   	inc    %edx
     b8b:	3e 05 0f 6b 05 0b    	ds add $0xb056b0f,%eax
     b91:	91                   	xchg   %eax,%ecx
     b92:	05 07 97 05 18       	add    $0x18059707,%eax
     b97:	f3 05 07 90 4f 05    	repz add $0x54f9007,%eax
     b9d:	1a c9                	sbb    %cl,%cl
     b9f:	05 36 90 05 09       	add    $0x9059036,%eax
     ba4:	90                   	nop
     ba5:	05 0e 9f 05 31       	add    $0x31059f0e,%eax
     baa:	a0 05 22 08 3c       	mov    0x3c082205,%al
     baf:	05 20 2e 05 22       	add    $0x22052e20,%eax
     bb4:	91                   	xchg   %eax,%ecx
     bb5:	05 02 90 05 29       	add    $0x29059002,%eax
     bba:	08 2f                	or     %ch,(%edi)
     bbc:	05 24 82 05 05       	add    $0x5058224,%eax
     bc1:	e5 f3                	in     $0xf3,%eax
     bc3:	d7                   	xlat   %ds:(%ebx)
     bc4:	f3 05 26 f3 05 05    	repz add $0x505f326,%eax
     bca:	90                   	nop
     bcb:	bb 05 27 f3 05       	mov    $0x5f32705,%ebx
     bd0:	43                   	inc    %ebx
     bd1:	90                   	nop
     bd2:	05 16 90 05 05       	add    $0x5059016,%eax
     bd7:	58                   	pop    %eax
     bd8:	bb 05 1a c9 05       	mov    $0x5c91a05,%ebx
     bdd:	36 90                	ss nop
     bdf:	05 09 90 05 02       	add    $0x2059009,%eax
     be4:	77 05                	ja     beb <FLAGS+0xbea>
     be6:	09 f3                	or     %esi,%ebx
     be8:	05 01 00 02 04       	add    $0x4020001,%eax
     bed:	01 5a 05             	add    %ebx,0x5(%edx)
     bf0:	23 30                	and    (%eax),%esi
     bf2:	05 05 68 67 f3       	add    $0xf3676805,%eax
     bf7:	d7                   	xlat   %ds:(%ebx)
     bf8:	05 0a 00 02 04       	add    $0x402000a,%eax
     bfd:	01 f3                	add    %esi,%ebx
     bff:	05 3a 32 05 31       	add    $0x3105323a,%eax
     c04:	76 05                	jbe    c0b <FLAGS+0xc0a>
     c06:	17                   	pop    %ss
     c07:	08 3c 05 05 3d 05 1f 	or     %bh,0x1f053d05(,%eax,1)
     c0e:	08 59 05             	or     %bl,0x5(%ecx)
     c11:	1b 3c 05 14 58 05 33 	sbb    0x33055814(,%eax,1),%edi
     c18:	2e 05 0b 3c 05 1f    	cs add $0x1f053c0b,%eax
     c1e:	75 05                	jne    c25 <FLAGS+0xc24>
     c20:	08 3c 05 1f 3c 05 18 	or     %bh,0x18053c1f(,%eax,1)
     c27:	58                   	pop    %eax
     c28:	05 0d 69 05 05       	add    $0x505690d,%eax
     c2d:	74 05                	je     c34 <FLAGS+0xc33>
     c2f:	16                   	push   %ss
     c30:	59                   	pop    %ecx
     c31:	05 04 90 05 15       	add    $0x15059004,%eax
     c36:	84 05 22 58 05 39    	test   %al,0x39055822
     c3c:	66 05 04 90          	add    $0x9004,%ax
     c40:	05 09 4b 05 2c       	add    $0x2c054b09,%eax
     c45:	3c 05                	cmp    $0x5,%al
     c47:	1a 90 05 09 67 05    	sbb    0x5670905(%eax),%dl
     c4d:	34 3c                	xor    $0x3c,%al
     c4f:	05 1e e4 05 1c       	add    $0x1c05e41e,%eax
     c54:	d9 05 09 90 05 1c    	flds   0x1c059009
     c5a:	3c 05                	cmp    $0x5,%al
     c5c:	1a f2                	sbb    %dl,%dh
     c5e:	05 25 67 05 09       	add    $0x9056725,%eax
     c63:	3c 05                	cmp    $0x5,%al
     c65:	25 3c 05 1e 58       	and    $0x581e053c,%eax
     c6a:	05 06 03 79 d6       	add    $0xd6790306,%eax
     c6f:	05 1b 00 02 04       	add    $0x402001b,%eax
     c74:	02 1e                	add    (%esi),%bl
     c76:	05 05 00 02 04       	add    $0x4020005,%eax
     c7b:	01 4a 05             	add    %ecx,0x5(%edx)
     c7e:	0c 03                	or     $0x3,%al
     c80:	0c c8                	or     $0xc8,%al
     c82:	05 01 3d 05 42       	add    $0x42053d01,%eax
     c87:	5a                   	pop    %edx
     c88:	05 2b 67 05 13       	add    $0x1305672b,%eax
     c8d:	08 2e                	or     %ch,(%esi)
     c8f:	05 05 3d 05 0d       	add    $0xd053d05,%eax
     c94:	08 4b 05             	or     %cl,0x5(%ebx)
     c97:	05 74 05 13 59       	add    $0x59130574,%eax
     c9c:	05 04 ba 05 02       	add    $0x205ba04,%eax
     ca1:	84 05 12 08 d7 05    	test   %al,0x5d70812
     ca7:	04 c8                	add    $0xc8,%al
     ca9:	05 33 00 02 04       	add    $0x4020033,%eax
     cae:	01 4a 05             	add    %ecx,0x5(%edx)
     cb1:	12 f3                	adc    %bl,%dh
     cb3:	05 04 e4 05 29       	add    $0x2905e404,%eax
     cb8:	00 02                	add    %al,(%edx)
     cba:	04 01                	add    $0x1,%al
     cbc:	4a                   	dec    %edx
     cbd:	05 12 f3 05 04       	add    $0x405f312,%eax
     cc2:	f2 05 2d 00 02 04    	repnz add $0x402002d,%eax
     cc8:	01 4a 05             	add    %ecx,0x5(%edx)
     ccb:	12 f3                	adc    %bl,%dh
     ccd:	05 04 f2 05 35       	add    $0x3505f204,%eax
     cd2:	00 02                	add    %al,(%edx)
     cd4:	04 01                	add    $0x1,%al
     cd6:	4a                   	dec    %edx
     cd7:	05 12 f3 05 04       	add    $0x405f312,%eax
     cdc:	f2 05 2f 00 02 04    	repnz add $0x402002f,%eax
     ce2:	01 4a 05             	add    %ecx,0x5(%edx)
     ce5:	3f                   	aas    
     ce6:	f3 05 45 ba 05 02    	repz add $0x205ba45,%eax
     cec:	3c 05                	cmp    $0x5,%al
     cee:	22 2e                	and    (%esi),%ch
     cf0:	05 28 ba 05 02       	add    $0x205ba28,%eax
     cf5:	3c 05                	cmp    $0x5,%al
     cf7:	06                   	push   %es
     cf8:	03 79 e4             	add    -0x1c(%ecx),%edi
     cfb:	05 19 00 02 04       	add    $0x4020019,%eax
     d00:	02 1e                	add    (%esi),%bl
     d02:	05 05 00 02 04       	add    $0x4020005,%eax
     d07:	01 4a 05             	add    %ecx,0x5(%edx)
     d0a:	0c 03                	or     $0x3,%al
     d0c:	0b c8                	or     %eax,%ecx
     d0e:	05 01 3d 02 02       	add    $0x2023d01,%eax
     d13:	00 01                	add    %al,(%ecx)
     d15:	01 f6                	add    %esi,%esi
     d17:	00 00                	add    %al,(%eax)
     d19:	00 03                	add    %al,(%ebx)
     d1b:	00 6d 00             	add    %ch,0x0(%ebp)
     d1e:	00 00                	add    %al,(%eax)
     d20:	01 01                	add    %eax,(%ecx)
     d22:	fb                   	sti    
     d23:	0e                   	push   %cs
     d24:	0d 00 01 01 01       	or     $0x1010100,%eax
     d29:	01 00                	add    %eax,(%eax)
     d2b:	00 00                	add    %al,(%eax)
     d2d:	01 00                	add    %eax,(%eax)
     d2f:	00 01                	add    %al,(%ecx)
     d31:	73 72                	jae    da5 <FLAGS+0xda4>
     d33:	63 2f                	arpl   %bp,(%edi)
     d35:	6b 65 72 6e          	imul   $0x6e,0x72(%ebp),%esp
     d39:	65 6c                	gs insb (%dx),%es:(%edi)
     d3b:	00 73 72             	add    %dh,0x72(%ebx)
     d3e:	63 2f                	arpl   %bp,(%edi)
     d40:	6b 65 72 6e          	imul   $0x6e,0x72(%ebp),%esp
     d44:	65 6c                	gs insb (%dx),%es:(%edi)
     d46:	2f                   	das    
     d47:	2e 2e 2f             	cs cs das 
     d4a:	63 6f 6d             	arpl   %bp,0x6d(%edi)
     d4d:	6d                   	insl   (%dx),%es:(%edi)
     d4e:	6f                   	outsl  %ds:(%esi),(%dx)
     d4f:	6e                   	outsb  %ds:(%esi),(%dx)
     d50:	00 00                	add    %al,(%eax)
     d52:	6b 65 72 6e          	imul   $0x6e,0x72(%ebp),%esp
     d56:	65 6c                	gs insb (%dx),%es:(%edi)
     d58:	2e 63 00             	arpl   %ax,%cs:(%eax)
     d5b:	01 00                	add    %eax,(%eax)
     d5d:	00 74 79 70          	add    %dh,0x70(%ecx,%edi,2)
     d61:	65 73 2e             	gs jae d92 <FLAGS+0xd91>
     d64:	68 00 02 00 00       	push   $0x200
     d69:	6d                   	insl   (%dx),%es:(%edi)
     d6a:	75 6c                	jne    dd8 <FLAGS+0xdd7>
     d6c:	74 69                	je     dd7 <FLAGS+0xdd6>
     d6e:	62 6f 6f             	bound  %ebp,0x6f(%edi)
     d71:	74 2e                	je     da1 <FLAGS+0xda0>
     d73:	68 00 01 00 00       	push   $0x100
     d78:	66 73 2e             	data16 jae da9 <FLAGS+0xda8>
     d7b:	68 00 01 00 00       	push   $0x100
     d80:	69 6e 69 74 72 64 2e 	imul   $0x2e647274,0x69(%esi),%ebp
     d87:	68 00 01 00 00       	push   $0x100
     d8c:	00 05 41 00 05 02    	add    %al,0x2050041
     d92:	81 1b 10 00 03 0f    	sbbl   $0xf030010,(%ebx)
     d98:	01 05 11 08 3d 05    	add    %eax,0x53d0811
     d9e:	05 83 59 f3 59       	add    $0x59f35983,%eax
     da3:	c9                   	leave  
     da4:	59                   	pop    %ecx
     da5:	f4                   	hlt    
     da6:	00 02                	add    %al,(%edx)
     da8:	04 01                	add    $0x1,%al
     daa:	06                   	push   %es
     dab:	90                   	nop
     dac:	05 0b 06 08 67       	add    $0x6708060b,%eax
     db1:	05 36 83 05 0b       	add    $0xb058336,%eax
     db6:	58                   	pop    %eax
     db7:	05 31 59 05 3d       	add    $0x3d055931,%eax
     dbc:	58                   	pop    %eax
     dbd:	05 0b 3c 05 05       	add    $0x5053c0b,%eax
     dc2:	59                   	pop    %ecx
     dc3:	f3 d7                	repz xlat %ds:(%ebx)
     dc5:	f3 f3 d7             	repz repz xlat %ds:(%ebx)
     dc8:	f3 f3 d7             	repz repz xlat %ds:(%ebx)
     dcb:	05 21 f3 05 05       	add    $0x505f321,%eax
     dd0:	58                   	pop    %eax
     dd1:	bb 05 14 f3 05       	mov    $0x5f31405,%ebx
     dd6:	13 3c 05 05 2e bb 05 	adc    0x5bb2e05(,%eax,1),%edi
     ddd:	4a                   	dec    %edx
     dde:	f3 05 1b 66 05 17    	repz add $0x1705661b,%eax
     de4:	3d 05 05 66 05       	cmp    $0x5660505,%eax
     de9:	16                   	push   %ss
     dea:	e5 05                	in     $0x5,%eax
     dec:	05 66 bb 05 13       	add    $0x1305bb66,%eax
     df1:	f4                   	hlt    
     df2:	05 17 67 05 05       	add    $0x5056717,%eax
     df7:	84 59 05             	test   %bl,0x5(%ecx)
     dfa:	1a 03                	sbb    (%ebx),%al
     dfc:	0e                   	push   %cs
     dfd:	58                   	pop    %eax
     dfe:	05 05 08 1a 21       	add    $0x211a0805,%eax
     e03:	d7                   	xlat   %ds:(%ebx)
     e04:	05 0a 00 02 04       	add    $0x402000a,%eax
     e09:	01 21                	add    %esp,(%ecx)
     e0b:	02 02                	add    (%edx),%al
     e0d:	00 01                	add    %al,(%ecx)
     e0f:	01 fd                	add    %edi,%ebp
     e11:	00 00                	add    %al,(%eax)
     e13:	00 03                	add    %al,(%ebx)
     e15:	00 4e 00             	add    %cl,0x0(%esi)
     e18:	00 00                	add    %al,(%eax)
     e1a:	01 01                	add    %eax,(%ecx)
     e1c:	fb                   	sti    
     e1d:	0e                   	push   %cs
     e1e:	0d 00 01 01 01       	or     $0x1010100,%eax
     e23:	01 00                	add    %eax,(%eax)
     e25:	00 00                	add    %al,(%eax)
     e27:	01 00                	add    %eax,(%eax)
     e29:	00 01                	add    %al,(%ecx)
     e2b:	73 72                	jae    e9f <FLAGS+0xe9e>
     e2d:	63 2f                	arpl   %bp,(%edi)
     e2f:	6b 65 72 6e          	imul   $0x6e,0x72(%ebp),%esp
     e33:	65 6c                	gs insb (%dx),%es:(%edi)
     e35:	00 73 72             	add    %dh,0x72(%ebx)
     e38:	63 2f                	arpl   %bp,(%edi)
     e3a:	6b 65 72 6e          	imul   $0x6e,0x72(%ebp),%esp
     e3e:	65 6c                	gs insb (%dx),%es:(%edi)
     e40:	2f                   	das    
     e41:	2e 2e 2f             	cs cs das 
     e44:	63 6f 6d             	arpl   %bp,0x6d(%edi)
     e47:	6d                   	insl   (%dx),%es:(%edi)
     e48:	6f                   	outsl  %ds:(%esi),(%dx)
     e49:	6e                   	outsb  %ds:(%esi),(%dx)
     e4a:	00 00                	add    %al,(%eax)
     e4c:	66 73 2e             	data16 jae e7d <FLAGS+0xe7c>
     e4f:	63 00                	arpl   %ax,(%eax)
     e51:	01 00                	add    %eax,(%eax)
     e53:	00 74 79 70          	add    %dh,0x70(%ecx,%edi,2)
     e57:	65 73 2e             	gs jae e88 <FLAGS+0xe87>
     e5a:	68 00 02 00 00       	push   $0x200
     e5f:	66 73 2e             	data16 jae e90 <FLAGS+0xe8f>
     e62:	68 00 01 00 00       	push   $0x100
     e67:	00 05 48 00 05 02    	add    %al,0x2050048
     e6d:	5f                   	pop    %edi
     e6e:	1d 10 00 16 05       	sbb    $0x5160010,%eax
     e73:	0c 67                	or     $0x67,%al
     e75:	05 07 90 05 0d       	add    $0xd059007,%eax
     e7a:	4b                   	dec    %ebx
     e7b:	05 09 90 05 0c       	add    $0xc059009,%eax
     e80:	08 2f                	or     %ch,(%edi)
     e82:	05 01 59 05 49       	add    $0x49055901,%eax
     e87:	30 05 0c 67 05 07    	xor    %al,0x705670c
     e8d:	90                   	nop
     e8e:	05 0d 4b 05 09       	add    $0x9054b0d,%eax
     e93:	90                   	nop
     e94:	05 0c 08 2f 05       	add    $0x52f080c,%eax
     e99:	01 59 05             	add    %ebx,0x5(%ecx)
     e9c:	36 2f                	ss das 
     e9e:	05 0c 08 21 05       	add    $0x521080c,%eax
     ea3:	07                   	pop    %es
     ea4:	90                   	nop
     ea5:	05 0d 4b 05 09       	add    $0x9054b0d,%eax
     eaa:	90                   	nop
     eab:	05 01 ad 05 20       	add    $0x2005ad01,%eax
     eb0:	2f                   	das    
     eb1:	05 0c 67 05 07       	add    $0x705670c,%eax
     eb6:	90                   	nop
     eb7:	05 0d 4b 05 09       	add    $0x9054b0d,%eax
     ebc:	90                   	nop
     ebd:	05 01 ad 05 39       	add    $0x3905ad01,%eax
     ec2:	2f                   	das    
     ec3:	05 0c 67 05 14       	add    $0x1405670c,%eax
     ec8:	90                   	nop
     ec9:	05 06 3c 05 32       	add    $0x32053c06,%eax
     ece:	00 02                	add    %al,(%edx)
     ed0:	04 01                	add    $0x1,%al
     ed2:	58                   	pop    %eax
     ed3:	05 2b 00 02 04       	add    $0x402002b,%eax
     ed8:	01 90 05 0d 4b 05    	add    %edx,0x54b0d05(%eax)
     ede:	09 90 05 0c f3 05    	or     %edx,0x5f30c05(%eax)
     ee4:	01 59 05             	add    %ebx,0x5(%ecx)
     ee7:	34 2f                	xor    $0x2f,%al
     ee9:	05 0c 67 05 14       	add    $0x1405670c,%eax
     eee:	90                   	nop
     eef:	05 06 3c 05 32       	add    $0x32053c06,%eax
     ef4:	00 02                	add    %al,(%edx)
     ef6:	04 01                	add    $0x1,%al
     ef8:	58                   	pop    %eax
     ef9:	05 2b 00 02 04       	add    $0x402002b,%eax
     efe:	01 90 05 0d 4b 05    	add    %edx,0x54b0d05(%eax)
     f04:	09 90 05 0c f3 05    	or     %edx,0x5f30c05(%eax)
     f0a:	01 59 02             	add    %ebx,0x2(%ecx)
     f0d:	02 00                	add    (%eax),%al
     f0f:	01 01                	add    %eax,(%ecx)
     f11:	bc 00 00 00 03       	mov    $0x3000000,%esp
     f16:	00 4c 00 00          	add    %cl,0x0(%eax,%eax,1)
     f1a:	00 01                	add    %al,(%ecx)
     f1c:	01 fb                	add    %edi,%ebx
     f1e:	0e                   	push   %cs
     f1f:	0d 00 01 01 01       	or     $0x1010100,%eax
     f24:	01 00                	add    %eax,(%eax)
     f26:	00 00                	add    %al,(%eax)
     f28:	01 00                	add    %eax,(%eax)
     f2a:	00 01                	add    %al,(%ecx)
     f2c:	73 72                	jae    fa0 <FLAGS+0xf9f>
     f2e:	63 2f                	arpl   %bp,(%edi)
     f30:	62 6f 6f             	bound  %ebp,0x6f(%edi)
     f33:	74 00                	je     f35 <FLAGS+0xf34>
     f35:	73 72                	jae    fa9 <FLAGS+0xfa8>
     f37:	63 2f                	arpl   %bp,(%edi)
     f39:	62 6f 6f             	bound  %ebp,0x6f(%edi)
     f3c:	74 2f                	je     f6d <FLAGS+0xf6c>
     f3e:	2e 2e 2f             	cs cs das 
     f41:	63 6f 6d             	arpl   %bp,0x6d(%edi)
     f44:	6d                   	insl   (%dx),%es:(%edi)
     f45:	6f                   	outsl  %ds:(%esi),(%dx)
     f46:	6e                   	outsb  %ds:(%esi),(%dx)
     f47:	00 00                	add    %al,(%eax)
     f49:	67 64 74 2e          	addr16 fs je f7b <FLAGS+0xf7a>
     f4d:	63 00                	arpl   %ax,(%eax)
     f4f:	01 00                	add    %eax,(%eax)
     f51:	00 74 79 70          	add    %dh,0x70(%ecx,%edi,2)
     f55:	65 73 2e             	gs jae f86 <FLAGS+0xf85>
     f58:	68 00 02 00 00       	push   $0x200
     f5d:	67 64 74 2e          	addr16 fs je f8f <FLAGS+0xf8e>
     f61:	68 00 01 00 00       	push   $0x100
     f66:	00 05 4f 00 05 02    	add    %al,0x205004f
     f6c:	b1 1e                	mov    $0x1e,%cl
     f6e:	10 00                	adc    %al,(%eax)
     f70:	18 05 13 08 75 05    	sbb    %al,0x5750813
     f76:	1d 4a 05 28 ad       	sbb    $0xad28054a,%eax
     f7b:	05 13 82 05 20       	add    $0x20058213,%eax
     f80:	4a                   	dec    %edx
     f81:	05 2d 75 05 13       	add    $0x1305752d,%eax
     f86:	82 05 1e 4a 05 13 76 	addb   $0x76,0x13054a1e
     f8d:	05 1e 4a 05 29       	add    $0x29054a1e,%eax
     f92:	ad                   	lods   %ds:(%esi),%eax
     f93:	05 30 66 05 13       	add    $0x13056630,%eax
     f98:	2e 05 30 4a 05 20    	cs add $0x20054a30,%eax
     f9e:	3c 75                	cmp    $0x75,%al
     fa0:	05 28 d6 05 20       	add    $0x2005d628,%eax
     fa5:	74 05                	je     fac <FLAGS+0xfab>
     fa7:	13 c9                	adc    %ecx,%ecx
     fa9:	05 1b 4a 05 01       	add    $0x1054a1b,%eax
     fae:	af                   	scas   %es:(%edi),%eax
     faf:	05 11 3e 05 10       	add    $0x10053e11,%eax
     fb4:	67 05 0e 58 05 0f    	addr16 add $0xf05580e,%eax
     fba:	59                   	pop    %ecx
     fbb:	05 05 92 08 21       	add    $0x21089205,%eax
     fc0:	08 75 08             	or     %dh,0x8(%ebp)
     fc3:	75 08                	jne    fcd <FLAGS+0xfcc>
     fc5:	75 08                	jne    fcf <FLAGS+0xfce>
     fc7:	75 05                	jne    fce <FLAGS+0xfcd>
     fc9:	01 08                	add    %ecx,(%eax)
     fcb:	13 02                	adc    (%edx),%eax
     fcd:	03 00                	add    (%eax),%eax
     fcf:	01 01                	add    %eax,(%ecx)
     fd1:	39 01                	cmp    %eax,(%ecx)
     fd3:	00 00                	add    %al,(%eax)
     fd5:	03 00                	add    (%eax),%eax
     fd7:	48                   	dec    %eax
     fd8:	00 00                	add    %al,(%eax)
     fda:	00 01                	add    %al,(%ecx)
     fdc:	01 fb                	add    %edi,%ebx
     fde:	0e                   	push   %cs
     fdf:	0d 00 01 01 01       	or     $0x1010100,%eax
     fe4:	01 00                	add    %eax,(%eax)
     fe6:	00 00                	add    %al,(%eax)
     fe8:	01 00                	add    %eax,(%eax)
     fea:	00 01                	add    %al,(%ecx)
     fec:	73 72                	jae    1060 <FLAGS+0x105f>
     fee:	63 2f                	arpl   %bp,(%edi)
     ff0:	64 72 69             	fs jb  105c <FLAGS+0x105b>
     ff3:	76 65                	jbe    105a <FLAGS+0x1059>
     ff5:	72 73                	jb     106a <FLAGS+0x1069>
     ff7:	00 73 72             	add    %dh,0x72(%ebx)
     ffa:	63 2f                	arpl   %bp,(%edi)
     ffc:	64 72 69             	fs jb  1068 <FLAGS+0x1067>
     fff:	76 65                	jbe    1066 <FLAGS+0x1065>
    1001:	72 73                	jb     1076 <FLAGS+0x1075>
    1003:	2f                   	das    
    1004:	2e 2e 2f             	cs cs das 
    1007:	63 6f 6d             	arpl   %bp,0x6d(%edi)
    100a:	6d                   	insl   (%dx),%es:(%edi)
    100b:	6f                   	outsl  %ds:(%esi),(%dx)
    100c:	6e                   	outsb  %ds:(%esi),(%dx)
    100d:	00 00                	add    %al,(%eax)
    100f:	69 6f 2e 63 00 01 00 	imul   $0x10063,0x2e(%edi),%ebp
    1016:	00 74 79 70          	add    %dh,0x70(%ecx,%edi,2)
    101a:	65 73 2e             	gs jae 104b <FLAGS+0x104a>
    101d:	68 00 02 00 00       	push   $0x200
    1022:	00 05 17 00 05 02    	add    %al,0x2050017
    1028:	f6 1f                	negb   (%edi)
    102a:	10 00                	adc    %al,(%eax)
    102c:	03 09                	add    (%ecx),%ecx
    102e:	01 05 05 68 05 0b    	add    %eax,0xb056805
    1034:	08 21                	or     %ah,(%ecx)
    1036:	05 09 08 2e 05       	add    $0x52e0809,%eax
    103b:	05 75 05 0c 08       	add    $0x80c0575,%eax
    1040:	21 05 09 08 2e 05    	and    %eax,0x52e0809
    1046:	0c 4b                	or     $0x4b,%al
    1048:	05 01 4b 05 24       	add    $0x24054b01,%eax
    104d:	30 05 05 c9 08 21    	xor    %al,0x2108c905
    1053:	08 ad 08 21 05 01    	or     %ch,0x1052108(%ebp)
    1059:	08 76 05             	or     %dh,0x5(%esi)
    105c:	30 3e                	xor    %bh,(%esi)
    105e:	05 0c 08 2f 05       	add    $0x52f080c,%eax
    1063:	2a 75 05             	sub    0x5(%ebp),%dh
    1066:	07                   	pop    %es
    1067:	9e                   	sahf   
    1068:	05 12 ba 05 01       	add    $0x105ba12,%eax
    106d:	3e 05 21 3e 05 0b    	ds add $0xb053e21,%eax
    1073:	c9                   	leave  
    1074:	05 07 75 05 2d       	add    $0x2d057507,%eax
    1079:	00 02                	add    %al,(%edx)
    107b:	04 01                	add    $0x1,%al
    107d:	82 05 0d 67 05 05 74 	addb   $0x74,0x505670d
    1084:	05 3e 00 02 04       	add    $0x402003e,%eax
    1089:	03 2f                	add    (%edi),%ebp
    108b:	05 29 00 02 04       	add    $0x4020029,%eax
    1090:	03 e4                	add    %esp,%esp
    1092:	05 23 00 02 04       	add    $0x4020023,%eax
    1097:	03 66 05             	add    0x5(%esi),%esp
    109a:	20 00                	and    %al,(%eax)
    109c:	02 04 03             	add    (%ebx,%eax,1),%al
    109f:	66 05 0b 00          	add    $0xb,%ax
    10a3:	02 04 03             	add    (%ebx,%eax,1),%al
    10a6:	ba 05 02 00 02       	mov    $0x2000205,%edx
    10ab:	04 03                	add    $0x3,%al
    10ad:	58                   	pop    %eax
    10ae:	05 20 00 02 04       	add    $0x4020020,%eax
    10b3:	03 08                	add    (%eax),%ecx
    10b5:	1f                   	pop    %ds
    10b6:	05 05 00 02 04       	add    $0x4020005,%eax
    10bb:	01 4a 05             	add    %ecx,0x5(%edx)
    10be:	0c 69                	or     $0x69,%al
    10c0:	05 01 59 05 31       	add    $0x31055901,%eax
    10c5:	30 05 0a 3d 05 13    	xor    %al,0x13053d0a
    10cb:	2f                   	das    
    10cc:	05 08 90 05 0e       	add    $0xe059008,%eax
    10d1:	90                   	nop
    10d2:	05 0c 3c 05 05       	add    $0x5053c0c,%eax
    10d7:	2f                   	das    
    10d8:	05 0a 48 05 01       	add    $0x105480a,%eax
    10dd:	6a 05                	push   $0x5
    10df:	35 4c 05 0a bb       	xor    $0xbb0a054c,%eax
    10e4:	05 08 2f 05 0c       	add    $0xc052f08,%eax
    10e9:	90                   	nop
    10ea:	05 05 67 05 0a       	add    $0xa056705,%eax
    10ef:	48                   	dec    %eax
    10f0:	05 01 6a 05 22       	add    $0x22056a01,%eax
    10f5:	4c                   	dec    %esp
    10f6:	05 05 08 4b 05       	add    $0x54b0805,%eax
    10fb:	01 92 05 16 3e 05    	add    %edx,0x53e1605(%edx)
    1101:	05 ca 05 0c 9f       	add    $0x9f0c05ca,%eax
    1106:	05 01 4b 02 02       	add    $0x2024b01,%eax
    110b:	00 01                	add    %al,(%ecx)
    110d:	01 b5 01 00 00 03    	add    %esi,0x3000001(%ebp)
    1113:	00 5e 00             	add    %bl,0x0(%esi)
    1116:	00 00                	add    %al,(%eax)
    1118:	01 01                	add    %eax,(%ecx)
    111a:	fb                   	sti    
    111b:	0e                   	push   %cs
    111c:	0d 00 01 01 01       	or     $0x1010100,%eax
    1121:	01 00                	add    %eax,(%eax)
    1123:	00 00                	add    %al,(%eax)
    1125:	01 00                	add    %eax,(%eax)
    1127:	00 01                	add    %al,(%ecx)
    1129:	73 72                	jae    119d <FLAGS+0x119c>
    112b:	63 2f                	arpl   %bp,(%edi)
    112d:	64 72 69             	fs jb  1199 <FLAGS+0x1198>
    1130:	76 65                	jbe    1197 <FLAGS+0x1196>
    1132:	72 73                	jb     11a7 <FLAGS+0x11a6>
    1134:	00 73 72             	add    %dh,0x72(%ebx)
    1137:	63 2f                	arpl   %bp,(%edi)
    1139:	64 72 69             	fs jb  11a5 <FLAGS+0x11a4>
    113c:	76 65                	jbe    11a3 <FLAGS+0x11a2>
    113e:	72 73                	jb     11b3 <FLAGS+0x11b2>
    1140:	2f                   	das    
    1141:	2e 2e 2f             	cs cs das 
    1144:	63 6f 6d             	arpl   %bp,0x6d(%edi)
    1147:	6d                   	insl   (%dx),%es:(%edi)
    1148:	6f                   	outsl  %ds:(%esi),(%dx)
    1149:	6e                   	outsb  %ds:(%esi),(%dx)
    114a:	00 00                	add    %al,(%eax)
    114c:	69 6e 74 65 72 72 75 	imul   $0x75727265,0x74(%esi),%ebp
    1153:	70 74                	jo     11c9 <FLAGS+0x11c8>
    1155:	2e 63 00             	arpl   %ax,%cs:(%eax)
    1158:	01 00                	add    %eax,(%eax)
    115a:	00 74 79 70          	add    %dh,0x70(%ecx,%edi,2)
    115e:	65 73 2e             	gs jae 118f <FLAGS+0x118e>
    1161:	68 00 02 00 00       	push   $0x200
    1166:	69 6e 74 65 72 72 75 	imul   $0x75727265,0x74(%esi),%ebp
    116d:	70 74                	jo     11e3 <FLAGS+0x11e2>
    116f:	2e 68 00 01 00 00    	cs push $0x100
    1175:	00 05 31 00 05 02    	add    %al,0x2050031
    117b:	02 22                	add    (%edx),%ah
    117d:	10 00                	adc    %al,(%eax)
    117f:	03 0e                	add    (%esi),%ecx
    1181:	01 05 05 59 05 01    	add    %eax,0x1055905
    1187:	08 13                	or     %dl,(%ebx)
    1189:	05 22 5a 05 05       	add    $0x5055a22,%eax
    118e:	69 05 0c 08 22 05 07 	imul   $0x2058207,0x522080c,%eax
    1195:	82 05 02 
    1198:	4b                   	dec    %ebx
    1199:	05 09 f3 05 04       	add    $0x405f309,%eax
    119e:	66 05 06 4b          	add    $0x4b06,%ax
    11a2:	59                   	pop    %ecx
    11a3:	05 01 f8 05 06       	add    $0x605f801,%eax
    11a8:	2a 05 01 f6 05 18    	sub    0x1805f601,%al
    11ae:	3f                   	aas    
    11af:	05 05 68 59 e5       	add    $0xe5596805,%eax
    11b4:	08 21                	or     %ah,(%ecx)
    11b6:	e5 08                	in     $0x8,%eax
    11b8:	21 e5                	and    %esp,%ebp
    11ba:	08 21                	or     %ah,(%ecx)
    11bc:	e5 08                	in     $0x8,%eax
    11be:	21 e5                	and    %esp,%ebp
    11c0:	08 21                	or     %ah,(%ecx)
    11c2:	05 01 21 05 2b       	add    $0x2b052101,%eax
    11c7:	3e 05 07 67 05 26    	ds add $0x26056707,%eax
    11cd:	00 02                	add    %al,(%edx)
    11cf:	04 01                	add    $0x1,%al
    11d1:	66 05 07 69          	add    $0x6907,%ax
    11d5:	05 02 67 08 14       	add    $0x14086702,%eax
    11da:	08 37                	or     %dh,(%edi)
    11dc:	05 01 27 05 48       	add    $0x48052701,%eax
    11e1:	30 05 1d 08 4b 05    	xor    %al,0x54b081d
    11e7:	2d f3 05 1e 66       	sub    $0x661e05f3,%eax
    11ec:	05 1c c9 e5 05       	add    $0x5e5c91c,%eax
    11f1:	1a ad 05 01 d7 05    	sbb    0x5d70105(%ebp),%ch
    11f7:	11 3e                	adc    %edi,(%esi)
    11f9:	05 0f 67 05 10       	add    $0x1005670f,%eax
    11fe:	91                   	xchg   %eax,%ecx
    11ff:	05 0e 58 05 05       	add    $0x505580e,%eax
    1204:	5a                   	pop    %edx
    1205:	5a                   	pop    %edx
    1206:	08 67 08             	or     %ah,0x8(%edi)
    1209:	67 08 67 08          	or     %ah,0x8(%bx)
    120d:	67 08 67 08          	or     %ah,0x8(%bx)
    1211:	67 08 67 08          	or     %ah,0x8(%bx)
    1215:	67 08 67 08          	or     %ah,0x8(%bx)
    1219:	67 08 67 08          	or     %ah,0x8(%bx)
    121d:	67 08 67 08          	or     %ah,0x8(%bx)
    1221:	67 08 67 08          	or     %ah,0x8(%bx)
    1225:	67 08 67 08          	or     %ah,0x8(%bx)
    1229:	67 08 67 08          	or     %ah,0x8(%bx)
    122d:	67 08 67 08          	or     %ah,0x8(%bx)
    1231:	67 08 67 08          	or     %ah,0x8(%bx)
    1235:	67 08 67 08          	or     %ah,0x8(%bx)
    1239:	67 08 67 08          	or     %ah,0x8(%bx)
    123d:	67 08 67 08          	or     %ah,0x8(%bx)
    1241:	67 08 67 08          	or     %ah,0x8(%bx)
    1245:	67 08 67 08          	or     %ah,0x8(%bx)
    1249:	67 08 67 08          	or     %ah,0x8(%bx)
    124d:	67 08 67 08          	or     %ah,0x8(%bx)
    1251:	67 08 67 08          	or     %ah,0x8(%bx)
    1255:	67 08 67 08          	or     %ah,0x8(%bx)
    1259:	67 08 67 08          	or     %ah,0x8(%bx)
    125d:	67 08 67 08          	or     %ah,0x8(%bx)
    1261:	67 08 68 05          	or     %ch,0x5(%bx,%si)
    1265:	01 08                	add    %ecx,(%eax)
    1267:	14 05                	adc    $0x5,%al
    1269:	24 3e                	and    $0x3e,%al
    126b:	05 26 67 05 21       	add    $0x21056726,%eax
    1270:	3c 05                	cmp    $0x5,%al
    1272:	07                   	pop    %es
    1273:	74 05                	je     127a <FLAGS+0x1279>
    1275:	3e 4b                	ds dec %ebx
    1277:	05 16 3c 05 02       	add    $0x2053c16,%eax
    127c:	9f                   	lahf   
    127d:	05 01 02 38 18       	add    $0x18380201,%eax
    1282:	05 02 2a 05 14       	add    $0x14052a02,%eax
    1287:	f3 05 02 3c bb 05    	repz add $0x5bb3c02,%eax
    128d:	01 f4                	add    %esi,%esp
    128f:	05 24 3e 05 05       	add    $0x5053e24,%eax
    1294:	67 05 26 e5 05 21    	addr16 add $0x2105e526,%eax
    129a:	3c 05                	cmp    $0x5,%al
    129c:	07                   	pop    %es
    129d:	74 05                	je     12a4 <FLAGS+0x12a3>
    129f:	3e 4b                	ds dec %ebx
    12a1:	05 16 3c 05 02       	add    $0x2053c16,%eax
    12a6:	9f                   	lahf   
    12a7:	05 01 02 38 19       	add    $0x19380201,%eax
    12ac:	05 02 29 05 14       	add    $0x14052902,%eax
    12b1:	f3 05 02 3c bb 05    	repz add $0x5bb3c02,%eax
    12b7:	01 f5                	add    %esi,%ebp
    12b9:	05 4c 3e 05 27       	add    $0x27053e4c,%eax
    12be:	3d 05 01 c9 02       	cmp    $0x2c90105,%eax
    12c3:	03 00                	add    (%eax),%eax
    12c5:	01 01                	add    %eax,(%ecx)
    12c7:	da 00                	fiaddl (%eax)
    12c9:	00 00                	add    %al,(%eax)
    12cb:	03 00                	add    (%eax),%eax
    12cd:	5d                   	pop    %ebp
    12ce:	00 00                	add    %al,(%eax)
    12d0:	00 01                	add    %al,(%ecx)
    12d2:	01 fb                	add    %edi,%ebx
    12d4:	0e                   	push   %cs
    12d5:	0d 00 01 01 01       	or     $0x1010100,%eax
    12da:	01 00                	add    %eax,(%eax)
    12dc:	00 00                	add    %al,(%eax)
    12de:	01 00                	add    %eax,(%eax)
    12e0:	00 01                	add    %al,(%ecx)
    12e2:	73 72                	jae    1356 <FLAGS+0x1355>
    12e4:	63 2f                	arpl   %bp,(%edi)
    12e6:	64 72 69             	fs jb  1352 <FLAGS+0x1351>
    12e9:	76 65                	jbe    1350 <FLAGS+0x134f>
    12eb:	72 73                	jb     1360 <FLAGS+0x135f>
    12ed:	00 73 72             	add    %dh,0x72(%ebx)
    12f0:	63 2f                	arpl   %bp,(%edi)
    12f2:	64 72 69             	fs jb  135e <FLAGS+0x135d>
    12f5:	76 65                	jbe    135c <FLAGS+0x135b>
    12f7:	72 73                	jb     136c <FLAGS+0x136b>
    12f9:	2f                   	das    
    12fa:	2e 2e 2f             	cs cs das 
    12fd:	63 6f 6d             	arpl   %bp,0x6d(%edi)
    1300:	6d                   	insl   (%dx),%es:(%edi)
    1301:	6f                   	outsl  %ds:(%esi),(%dx)
    1302:	6e                   	outsb  %ds:(%esi),(%dx)
    1303:	00 00                	add    %al,(%eax)
    1305:	6b 65 79 62          	imul   $0x62,0x79(%ebp),%esp
    1309:	6f                   	outsl  %ds:(%esi),(%dx)
    130a:	61                   	popa   
    130b:	72 64                	jb     1371 <FLAGS+0x1370>
    130d:	2e 63 00             	arpl   %ax,%cs:(%eax)
    1310:	01 00                	add    %eax,(%eax)
    1312:	00 74 79 70          	add    %dh,0x70(%ecx,%edi,2)
    1316:	65 73 2e             	gs jae 1347 <FLAGS+0x1346>
    1319:	68 00 02 00 00       	push   $0x200
    131e:	69 6e 74 65 72 72 75 	imul   $0x75727265,0x74(%esi),%ebp
    1325:	70 74                	jo     139b <FLAGS+0x139a>
    1327:	2e 68 00 01 00 00    	cs push $0x100
    132d:	00 05 16 00 05 02    	add    %al,0x2050016
    1333:	83 29 10             	subl   $0x10,(%ecx)
    1336:	00 03                	add    %al,(%ebx)
    1338:	16                   	push   %ss
    1339:	01 05 05 67 05 01    	add    %eax,0x1056705
    133f:	08 23                	or     %ah,(%ebx)
    1341:	05 2b 3e 05 05       	add    $0x5053e2b,%eax
    1346:	67 05 17 f3 05 05    	addr16 add $0x505f317,%eax
    134c:	3c bb                	cmp    $0xbb,%al
    134e:	05 08 f4 05 1e       	add    $0x1e05f408,%eax
    1353:	58                   	pop    %eax
    1354:	05 07 66 05 09       	add    $0x9056607,%eax
    1359:	4b                   	dec    %ebx
    135a:	05 07 58 05 02       	add    $0x2055807,%eax
    135f:	67 f3 e5 f3          	addr16 repz in $0xf3,%eax
    1363:	d7                   	xlat   %ds:(%ebx)
    1364:	05 01 f4 05 19       	add    $0x1905f401,%eax
    1369:	3e 05 01 3d 05 23    	ds add $0x23053d01,%eax
    136f:	3e 05 0c 67 05 01    	ds add $0x105670c,%eax
    1375:	c9                   	leave  
    1376:	05 28 30 05 05       	add    $0x5053028,%eax
    137b:	bc 05 04 58 05       	mov    $0x5580405,%esp
    1380:	27                   	daa    
    1381:	34 05                	xor    $0x5,%al
    1383:	05 bc 05 04 58       	add    $0x580405bc,%eax
    1388:	05 1f 35 05 0c       	add    $0xc05351f,%eax
    138d:	67 05 01 c9 05 26    	addr16 add $0x2605c901,%eax
    1393:	30 05 05 bb 05 19    	xor    %al,0x1905bb05
    1399:	f3 05 05 74 05 01    	repz add $0x1057405,%eax
    139f:	e5 02                	in     $0x2,%eax
    13a1:	03 00                	add    (%eax),%eax
    13a3:	01 01                	add    %eax,(%ecx)
    13a5:	97                   	xchg   %eax,%edi
    13a6:	00 00                	add    %al,(%eax)
    13a8:	00 03                	add    %al,(%ebx)
    13aa:	00 5a 00             	add    %bl,0x0(%edx)
    13ad:	00 00                	add    %al,(%eax)
    13af:	01 01                	add    %eax,(%ecx)
    13b1:	fb                   	sti    
    13b2:	0e                   	push   %cs
    13b3:	0d 00 01 01 01       	or     $0x1010100,%eax
    13b8:	01 00                	add    %eax,(%eax)
    13ba:	00 00                	add    %al,(%eax)
    13bc:	01 00                	add    %eax,(%eax)
    13be:	00 01                	add    %al,(%ecx)
    13c0:	73 72                	jae    1434 <FLAGS+0x1433>
    13c2:	63 2f                	arpl   %bp,(%edi)
    13c4:	64 72 69             	fs jb  1430 <FLAGS+0x142f>
    13c7:	76 65                	jbe    142e <FLAGS+0x142d>
    13c9:	72 73                	jb     143e <FLAGS+0x143d>
    13cb:	00 73 72             	add    %dh,0x72(%ebx)
    13ce:	63 2f                	arpl   %bp,(%edi)
    13d0:	64 72 69             	fs jb  143c <FLAGS+0x143b>
    13d3:	76 65                	jbe    143a <FLAGS+0x1439>
    13d5:	72 73                	jb     144a <FLAGS+0x1449>
    13d7:	2f                   	das    
    13d8:	2e 2e 2f             	cs cs das 
    13db:	63 6f 6d             	arpl   %bp,0x6d(%edi)
    13de:	6d                   	insl   (%dx),%es:(%edi)
    13df:	6f                   	outsl  %ds:(%esi),(%dx)
    13e0:	6e                   	outsb  %ds:(%esi),(%dx)
    13e1:	00 00                	add    %al,(%eax)
    13e3:	74 69                	je     144e <FLAGS+0x144d>
    13e5:	6d                   	insl   (%dx),%es:(%edi)
    13e6:	65 72 2e             	gs jb  1417 <FLAGS+0x1416>
    13e9:	63 00                	arpl   %ax,(%eax)
    13eb:	01 00                	add    %eax,(%eax)
    13ed:	00 74 79 70          	add    %dh,0x70(%ecx,%edi,2)
    13f1:	65 73 2e             	gs jae 1422 <FLAGS+0x1421>
    13f4:	68 00 02 00 00       	push   $0x200
    13f9:	69 6e 74 65 72 72 75 	imul   $0x75727265,0x74(%esi),%ebp
    1400:	70 74                	jo     1476 <FLAGS+0x1475>
    1402:	2e 68 00 01 00 00    	cs push $0x100
    1408:	00 05 2e 00 05 02    	add    %al,0x205002e
    140e:	c8 2a 10 00          	enter  $0x102a,$0x0
    1412:	1a 05 09 67 05 05    	sbb    0x5056709,%al
    1418:	c9                   	leave  
    1419:	05 01 5f 05 22       	add    $0x22055f01,%eax
    141e:	3e 05 05 67 05 0b    	ds add $0xb056705,%eax
    1424:	08 21                	or     %ah,(%ecx)
    1426:	05 05 f3 05 0a       	add    $0xa05f305,%eax
    142b:	e5 05                	in     $0x5,%eax
    142d:	1e                   	push   %ds
    142e:	67 05 0a 66 05 05    	addr16 add $0x505660a,%eax
    1434:	3d 08 21 05 01       	cmp    $0x1052108,%eax
    1439:	08 22                	or     %ah,(%edx)
    143b:	02 03                	add    (%ebx),%al
    143d:	00 01                	add    %al,(%ecx)
    143f:	01 7e 01             	add    %edi,0x1(%esi)
    1442:	00 00                	add    %al,(%eax)
    1444:	03 00                	add    (%eax),%eax
    1446:	4f                   	dec    %edi
    1447:	00 00                	add    %al,(%eax)
    1449:	00 01                	add    %al,(%ecx)
    144b:	01 fb                	add    %edi,%ebx
    144d:	0e                   	push   %cs
    144e:	0d 00 01 01 01       	or     $0x1010100,%eax
    1453:	01 00                	add    %eax,(%eax)
    1455:	00 00                	add    %al,(%eax)
    1457:	01 00                	add    %eax,(%eax)
    1459:	00 01                	add    %al,(%ecx)
    145b:	73 72                	jae    14cf <FLAGS+0x14ce>
    145d:	63 2f                	arpl   %bp,(%edi)
    145f:	63 6f 6d             	arpl   %bp,0x6d(%edi)
    1462:	6d                   	insl   (%dx),%es:(%edi)
    1463:	6f                   	outsl  %ds:(%esi),(%dx)
    1464:	6e                   	outsb  %ds:(%esi),(%dx)
    1465:	00 00                	add    %al,(%eax)
    1467:	6f                   	outsl  %ds:(%esi),(%dx)
    1468:	72 64                	jb     14ce <FLAGS+0x14cd>
    146a:	65 72 65             	gs jb  14d2 <FLAGS+0x14d1>
    146d:	64 5f                	fs pop %edi
    146f:	61                   	popa   
    1470:	72 72                	jb     14e4 <FLAGS+0x14e3>
    1472:	61                   	popa   
    1473:	79 2e                	jns    14a3 <FLAGS+0x14a2>
    1475:	63 00                	arpl   %ax,(%eax)
    1477:	01 00                	add    %eax,(%eax)
    1479:	00 74 79 70          	add    %dh,0x70(%ecx,%edi,2)
    147d:	65 73 2e             	gs jae 14ae <FLAGS+0x14ad>
    1480:	68 00 01 00 00       	push   $0x100
    1485:	6f                   	outsl  %ds:(%esi),(%dx)
    1486:	72 64                	jb     14ec <FLAGS+0x14eb>
    1488:	65 72 65             	gs jb  14f0 <FLAGS+0x14ef>
    148b:	64 5f                	fs pop %edi
    148d:	61                   	popa   
    148e:	72 72                	jb     1502 <FLAGS+0x1501>
    1490:	61                   	popa   
    1491:	79 2e                	jns    14c1 <FLAGS+0x14c0>
    1493:	68 00 01 00 00       	push   $0x100
    1498:	00 05 24 00 05 02    	add    %al,0x2050024
    149e:	50                   	push   %eax
    149f:	2b 10                	sub    (%eax),%edx
    14a1:	00 16                	add    %dl,(%esi)
    14a3:	05 18 3d 05 01       	add    $0x1053d18,%eax
    14a8:	91                   	xchg   %eax,%ecx
    14a9:	05 4d 30 05 2e       	add    $0x2e05304d,%eax
    14ae:	68 05 1e 66 05       	push   $0x5661e05
    14b3:	12 ba 05 2d 3d 05    	adc    0x53d2d05(%edx),%bh
    14b9:	1a 9e 05 05 3c 05    	sbb    0x53c0505(%esi),%bl
    14bf:	11 e5                	adc    %esp,%ebp
    14c1:	05 15 75 05 16       	add    $0x16057515,%eax
    14c6:	67 05 0c 67 05 01    	addr16 add $0x105670c,%eax
    14cc:	08 92 05 57 76 05    	or     %dl,0x5765705(%edx)
    14d2:	12 68 05             	adc    0x5(%eax),%ch
    14d5:	05 67 05 1c f3       	add    $0xf31c0567,%eax
    14da:	05 05 3c bb 05       	add    $0x5bb3c05,%eax
    14df:	2d f3 05 1a 9e       	sub    $0x9e1a05f3,%eax
    14e4:	05 05 3c 05 11       	add    $0x11053c05,%eax
    14e9:	e5 05                	in     $0x5,%eax
    14eb:	15 75 05 16 67       	adc    $0x67160575,%eax
    14f0:	05 0c 67 05 01       	add    $0x105670c,%eax
    14f5:	08 92 05 40 76 05    	or     %dl,0x5764005(%edx)
    14fb:	05 67 00 02 04       	add    $0x4020067,%eax
    1500:	01 06                	add    %eax,(%esi)
    1502:	f2 05 0d 06 08 67    	repnz add $0x6708060d,%eax
    1508:	05 1c 66 05 07       	add    $0x705661c,%eax
    150d:	66 05 09 83          	add    $0x8309,%ax
    1511:	05 0a 75 05 03       	add    $0x305750a,%eax
    1516:	2f                   	das    
    1517:	05 14 49 05 0d       	add    $0xd054914,%eax
    151c:	66 05 0a 3c          	add    $0x3c0a,%ax
    1520:	05 23 00 02 04       	add    $0x4020023,%eax
    1525:	01 4a 05             	add    %ecx,0x5(%edx)
    1528:	34 00                	xor    $0x0,%al
    152a:	02 04 01             	add    (%ecx,%eax,1),%al
    152d:	66 05 3b 00          	add    $0x3b,%ax
    1531:	02 04 01             	add    (%ecx,%eax,1),%al
    1534:	58                   	pop    %eax
    1535:	05 1e 00 02 04       	add    $0x402001e,%eax
    153a:	01 82 05 1b 00 02    	add    %eax,0x2001b05(%edx)
    1540:	04 01                	add    $0x1,%al
    1542:	d6                   	(bad)  
    1543:	05 12 4c 05 09       	add    $0x9054c12,%eax
    1548:	66 05 0a 3d          	add    $0x3d0a,%ax
    154c:	05 19 2f 05 20       	add    $0x20052f19,%eax
    1551:	58                   	pop    %eax
    1552:	05 07 e4 05 0e       	add    $0xe05e407,%eax
    1557:	58                   	pop    %eax
    1558:	05 20 82 05 12       	add    $0x12058220,%eax
    155d:	2e 05 03 2f 05 0a    	cs add $0xa052f03,%eax
    1563:	48                   	dec    %eax
    1564:	86 05 11 58 05 15    	xchg   %al,0x15055811
    156a:	82 05 0a 59 05 10 66 	addb   $0x66,0x1005590a
    1571:	05 28 03 76 ac       	add    $0xac760328,%eax
    1576:	05 01 03 0b 20       	add    $0x200b0301,%eax
    157b:	05 3e 30 05 05       	add    $0x505303e,%eax
    1580:	67 00 02             	add    %al,(%bp,%si)
    1583:	04 01                	add    $0x1,%al
    1585:	06                   	push   %es
    1586:	ac                   	lods   %ds:(%esi),%al
    1587:	05 11 06 08 67       	add    $0x67080611,%eax
    158c:	05 18 58 05 01       	add    $0x1055818,%eax
    1591:	a0 05 3c 30 05       	mov    0x5303c05,%al
    1596:	0a 3d 05 19 2f 05    	or     0x52f1905,%bh
    159c:	20 58 05             	and    %bl,0x5(%eax)
    159f:	07                   	pop    %es
    15a0:	ba 05 0e 58 05       	mov    $0x5580e05,%edx
    15a5:	20 82 05 12 2e 05    	and    %al,0x52e1205(%edx)
    15ab:	03 2f                	add    (%edi),%ebp
    15ad:	05 14 48 05 1a       	add    $0x1a054814,%eax
    15b2:	66 05 0a 3c          	add    $0x3c0a,%ax
    15b6:	5c                   	pop    %esp
    15b7:	05 10 66 05 01       	add    $0x1056610,%eax
    15bc:	91                   	xchg   %eax,%ecx
    15bd:	02 03                	add    (%ebx),%al
    15bf:	00 01                	add    %al,(%ecx)
    15c1:	01 49 02             	add    %ecx,0x2(%ecx)
    15c4:	00 00                	add    %al,(%eax)
    15c6:	03 00                	add    (%eax),%eax
    15c8:	34 00                	xor    $0x0,%al
    15ca:	00 00                	add    %al,(%eax)
    15cc:	01 01                	add    %eax,(%ecx)
    15ce:	fb                   	sti    
    15cf:	0e                   	push   %cs
    15d0:	0d 00 01 01 01       	or     $0x1010100,%eax
    15d5:	01 00                	add    %eax,(%eax)
    15d7:	00 00                	add    %al,(%eax)
    15d9:	01 00                	add    %eax,(%eax)
    15db:	00 01                	add    %al,(%ecx)
    15dd:	73 72                	jae    1651 <FLAGS+0x1650>
    15df:	63 2f                	arpl   %bp,(%edi)
    15e1:	63 6f 6d             	arpl   %bp,0x6d(%edi)
    15e4:	6d                   	insl   (%dx),%es:(%edi)
    15e5:	6f                   	outsl  %ds:(%esi),(%dx)
    15e6:	6e                   	outsb  %ds:(%esi),(%dx)
    15e7:	00 00                	add    %al,(%eax)
    15e9:	75 74                	jne    165f <FLAGS+0x165e>
    15eb:	69 6c 73 2e 63 00 01 	imul   $0x10063,0x2e(%ebx,%esi,2),%ebp
    15f2:	00 
    15f3:	00 74 79 70          	add    %dh,0x70(%ecx,%edi,2)
    15f7:	65 73 2e             	gs jae 1628 <FLAGS+0x1627>
    15fa:	68 00 01 00 00       	push   $0x100
    15ff:	00 05 21 00 05 02    	add    %al,0x2050021
    1605:	ba 2d 10 00 17       	mov    $0x1700102d,%edx
    160a:	05 11 bb 05 07       	add    $0x705bb11,%eax
    160f:	91                   	xchg   %eax,%ecx
    1610:	05 06 67 05 02       	add    $0x2056706,%eax
    1615:	02 27                	add    (%edi),%ah
    1617:	14 05                	adc    $0x5,%al
    1619:	05 08 4b 05 0b       	add    $0xb054b08,%eax
    161e:	ae                   	scas   %es:(%edi),%al
    161f:	05 05 08 3d 05       	add    $0x53d0805,%eax
    1624:	01 f3                	add    %esi,%ebx
    1626:	05 24 3e 05 11       	add    $0x11053e24,%eax
    162b:	67 05 0d 91 05 05    	addr16 add $0x505910d,%eax
    1631:	74 05                	je     1638 <FLAGS+0x1637>
    1633:	08 2f                	or     %ch,(%edi)
    1635:	05 04 ac 05 0a       	add    $0xa05ac04,%eax
    163a:	4b                   	dec    %ebx
    163b:	05 06 02 27 14       	add    $0x14270206,%eax
    1640:	05 12 4a 05 06       	add    $0x6054a12,%eax
    1645:	ac                   	lods   %ds:(%esi),%al
    1646:	05 09 f3 05 08       	add    $0x805f309,%eax
    164b:	00 02                	add    %al,(%edx)
    164d:	04 02                	add    $0x2,%al
    164f:	ae                   	scas   %es:(%edi),%al
    1650:	05 20 00 02 04       	add    $0x4020020,%eax
    1655:	02 03                	add    (%ebx),%al
    1657:	79 08                	jns    1661 <FLAGS+0x1660>
    1659:	3c 05                	cmp    $0x5,%al
    165b:	15 00 02 04 01       	adc    $0x1040200,%eax
    1660:	4a                   	dec    %edx
    1661:	05 05 00 02 04       	add    $0x4020005,%eax
    1666:	01 ac 03 09 82 05 01 	add    %ebp,0x1058209(%ebx,%eax,1)
    166d:	f3 05 1d 3e 05 09    	repz add $0x9053e1d,%eax
    1673:	68 05 07 75 67       	push   $0x67750705
    1678:	05 0e 3d 05 09       	add    $0x9053d0e,%eax
    167d:	76 05                	jbe    1684 <FLAGS+0x1683>
    167f:	0f 75 05 12 02 23 12 	pcmpeqw 0x12230212,%mm0
    1686:	05 0c 74 05 06       	add    $0x605740c,%eax
    168b:	9f                   	lahf   
    168c:	05 07 4b 05 0a       	add    $0xa054b07,%eax
    1691:	08 9f 05 0c 2f 05    	or     %bl,0x52f0c05(%edi)
    1697:	0f 02 23             	lar    (%ebx),%esp
    169a:	12 05 09 74 05 04    	adc    0x4057409,%al
    16a0:	9f                   	lahf   
    16a1:	05 03 08 9f 05       	add    $0x59f0803,%eax
    16a6:	0a 47 05             	or     0x5(%edi),%al
    16a9:	06                   	push   %es
    16aa:	6c                   	insb   (%dx),%es:(%edi)
    16ab:	05 09 4b 05 07       	add    $0x7054b09,%eax
    16b0:	75 05                	jne    16b7 <FLAGS+0x16b6>
    16b2:	0a 67 05             	or     0x5(%edi),%ah
    16b5:	03 ad 05 0a 4c 05    	add    0x54c0a05(%ebp),%ebp
    16bb:	13 2f                	adc    (%edi),%ebp
    16bd:	05 08 90 05 11       	add    $0x11059008,%eax
    16c2:	90                   	nop
    16c3:	05 0c 58 05 0a       	add    $0xa05580c,%eax
    16c8:	49                   	dec    %ecx
    16c9:	05 0d 69 05 05       	add    $0x505690d,%eax
    16ce:	ad                   	lods   %ds:(%esi),%eax
    16cf:	05 01 e5 05 19       	add    $0x1905e501,%eax
    16d4:	3e 05 09 68 75 05    	ds add $0x5756809,%eax
    16da:	07                   	pop    %es
    16db:	75 05                	jne    16e2 <FLAGS+0x16e1>
    16dd:	08 67 4b             	or     %ah,0x4b(%edi)
    16e0:	4b                   	dec    %ebx
    16e1:	05 02 4b 05 08       	add    $0x8054b02,%eax
    16e6:	08 40 05             	or     %al,0x5(%eax)
    16e9:	04 3c                	add    $0x3c,%al
    16eb:	67 05 11 67 05 0d    	addr16 add $0xd056711,%eax
    16f1:	82 05 16 bc 05 0d 82 	addb   $0x82,0xd05bc16
    16f8:	05 04 a0 05 03       	add    $0x305a004,%eax
    16fd:	4b                   	dec    %ebx
    16fe:	05 0a 03 78 4a       	add    $0x4a78030a,%eax
    1703:	05 06 03 0b 66       	add    $0x660b0306,%eax
    1708:	05 09 4b 05 0d       	add    $0xd054b09,%eax
    170d:	75 4b                	jne    175a <FLAGS+0x1759>
    170f:	05 07 4b 05 0a       	add    $0xa054b07,%eax
    1714:	4b                   	dec    %ebx
    1715:	05 13 2f 05 08       	add    $0x8052f13,%eax
    171a:	90                   	nop
    171b:	05 11 90 05 0c       	add    $0xc059011,%eax
    1720:	58                   	pop    %eax
    1721:	05 0a 49 05 0d       	add    $0xd05490a,%eax
    1726:	69 05 05 ad 05 01 e5 	imul   $0x313f05e5,0x105ad05,%eax
    172d:	05 3f 31 
    1730:	05 05 67 21 f3       	add    $0xf3216705,%eax
    1735:	d7                   	xlat   %ds:(%ebx)
    1736:	f3 d7                	repz xlat %ds:(%ebx)
    1738:	f3 e5 05             	repz in $0x5,%eax
    173b:	0a 00                	or     (%eax),%al
    173d:	02 04 01             	add    (%ecx,%eax,1),%al
    1740:	f3 05 43 32 05 05    	repz add $0x5053243,%eax
    1746:	67 21 f3             	addr16 and %esi,%ebx
    1749:	d7                   	xlat   %ds:(%ebx)
    174a:	f3 d7                	repz xlat %ds:(%ebx)
    174c:	f3 e5 05             	repz in $0x5,%eax
    174f:	0a 00                	or     (%eax),%al
    1751:	02 04 01             	add    (%ecx,%eax,1),%al
    1754:	f3 05 2a 32 05 07    	repz add $0x705322a,%eax
    175a:	67 05 06 83 05 07    	addr16 add $0x7058306,%eax
    1760:	75 05                	jne    1767 <FLAGS+0x1766>
    1762:	14 2f                	adc    $0x2f,%al
    1764:	05 0b 90 05 10       	add    $0x1005900b,%eax
    1769:	90                   	nop
    176a:	05 0e 3c 05 08       	add    $0x8053c0e,%eax
    176f:	2d 05 07 66 05       	sub    $0x5660705,%eax
    1774:	08 4d 05             	or     %cl,0x5(%ebp)
    1777:	01 68 05             	add    %ebp,0x5(%eax)
    177a:	32 03                	xor    (%ebx),%al
    177c:	0b 3c 05 1a 67 67 05 	or     0x567671a(,%eax,1),%edi
    1783:	0a 69 05             	or     0x5(%ecx),%ch
    1786:	05 90 05 0a 67       	add    $0x670a0590,%eax
    178b:	05 05 90 05 04       	add    $0x4059005,%eax
    1790:	67 05 10 67 05 05    	addr16 add $0x5056710,%eax
    1796:	d7                   	xlat   %ds:(%ebx)
    1797:	05 0f 91 05 01       	add    $0x105910f,%eax
    179c:	bb 05 20 2f 05       	mov    $0x52f2005,%ebx
    17a1:	09 67 05             	or     %esp,0x5(%edi)
    17a4:	0a 75 05             	or     0x5(%ebp),%dh
    17a7:	03 2f                	add    (%edi),%ebp
    17a9:	05 0f 49 05 0a       	add    $0xa05490f,%eax
    17ae:	ac                   	lods   %ds:(%esi),%al
    17af:	05 0c 4c 05 01       	add    $0x1054c0c,%eax
    17b4:	3d 05 35 2f 05       	cmp    $0x52f3505,%eax
    17b9:	11 67 05             	adc    %esp,0x5(%edi)
    17bc:	0d 67 05 05 74       	or     $0x74050567,%eax
    17c1:	05 0e 00 02 04       	add    $0x402000e,%eax
    17c6:	03 2f                	add    (%edi),%ebp
    17c8:	05 07 00 02 04       	add    $0x4020007,%eax
    17cd:	03 90 05 0c 00 02    	add    0x2000c05(%eax),%edx
    17d3:	04 03                	add    $0x3,%al
    17d5:	90                   	nop
    17d6:	05 0a 00 02 04       	add    $0x402000a,%eax
    17db:	03 3c 05 1a 00 02 04 	add    0x402001a(,%eax,1),%edi
    17e2:	03 2d 05 13 00 02    	add    0x2001305,%ebp
    17e8:	04 01                	add    $0x1,%al
    17ea:	4a                   	dec    %edx
    17eb:	05 05 00 02 04       	add    $0x4020005,%eax
    17f0:	01 3c 05 01 5a 05 34 	add    %edi,0x34055a01(,%eax,1)
    17f7:	4c                   	dec    %esp
    17f8:	05 0a bb 05 0f       	add    $0xf05bb0a,%eax
    17fd:	2f                   	das    
    17fe:	05 13 90 05 0c       	add    $0xc059013,%eax
    1803:	67 05 0a 48 05 01    	addr16 add $0x105480a,%eax
    1809:	6a 02                	push   $0x2
    180b:	04 00                	add    $0x0,%al
    180d:	01 01                	add    %eax,(%ecx)

Disassembly of section .debug_str:

00000000 <.debug_str>:
   0:	73 75                	jae    77 <FLAGS+0x76>
   2:	70 65                	jo     69 <FLAGS+0x68>
   4:	72 76                	jb     7c <FLAGS+0x7b>
   6:	69 73 6f 72 00 68 65 	imul   $0x65680072,0x6f(%ebx),%esi
   d:	61                   	popa   
   e:	70 5f                	jo     6f <FLAGS+0x6e>
  10:	74 00                	je     12 <FLAGS+0x11>
  12:	70 6c                	jo     80 <FLAGS+0x7f>
  14:	61                   	popa   
  15:	63 65 6d             	arpl   %sp,0x6d(%ebp)
  18:	65 6e                	outsb  %gs:(%esi),(%dx)
  1a:	74 5f                	je     7b <FLAGS+0x7a>
  1c:	61                   	popa   
  1d:	64 64 72 65          	fs fs jb 86 <FLAGS+0x85>
  21:	73 73                	jae    96 <FLAGS+0x95>
  23:	00 6b 65             	add    %ch,0x65(%ebx)
  26:	72 6e                	jb     96 <FLAGS+0x95>
  28:	65 6c                	gs insb (%dx),%es:(%edi)
  2a:	5f                   	pop    %edi
  2b:	65 6e                	outsb  %gs:(%esi),(%dx)
  2d:	64 00 47 4e          	add    %al,%fs:0x4e(%edi)
  31:	55                   	push   %ebp
  32:	20 43 31             	and    %al,0x31(%ebx)
  35:	37                   	aaa    
  36:	20 39                	and    %bh,(%ecx)
  38:	2e 32 2e             	xor    %cs:(%esi),%ch
  3b:	30 20                	xor    %ah,(%eax)
  3d:	2d 6d 74 75 6e       	sub    $0x6e75746d,%eax
  42:	65 3d 67 65 6e 65    	gs cmp $0x656e6567,%eax
  48:	72 69                	jb     b3 <FLAGS+0xb2>
  4a:	63 20                	arpl   %sp,(%eax)
  4c:	2d 6d 61 72 63       	sub    $0x6372616d,%eax
  51:	68 3d 70 65 6e       	push   $0x6e65703d
  56:	74 69                	je     c1 <FLAGS+0xc0>
  58:	75 6d                	jne    c7 <FLAGS+0xc6>
  5a:	70 72                	jo     ce <FLAGS+0xcd>
  5c:	6f                   	outsl  %ds:(%esi),(%dx)
  5d:	20 2d 67 20 2d 66    	and    %ch,0x662d2067
  63:	66 72 65             	data16 jb cb <FLAGS+0xca>
  66:	65 73 74             	gs jae dd <FLAGS+0xdc>
  69:	61                   	popa   
  6a:	6e                   	outsb  %ds:(%esi),(%dx)
  6b:	64 69 6e 67 00 73 68 	imul   $0x6f687300,%fs:0x67(%esi),%ebp
  72:	6f 
  73:	72 74                	jb     e9 <FLAGS+0xe8>
  75:	20 69 6e             	and    %ch,0x6e(%ecx)
  78:	74 00                	je     7a <FLAGS+0x79>
  7a:	6b 65 72 6e          	imul   $0x6e,0x72(%ebp),%esp
  7e:	65 6c                	gs insb (%dx),%es:(%edi)
  80:	5f                   	pop    %edi
  81:	64 69 72 65 63 74 6f 	imul   $0x726f7463,%fs:0x65(%edx),%esi
  88:	72 
  89:	79 00                	jns    8b <FLAGS+0x8a>
  8b:	72 65                	jb     f2 <FLAGS+0xf1>
  8d:	61                   	popa   
  8e:	64 6f                	outsl  %fs:(%esi),(%dx)
  90:	6e                   	outsb  %ds:(%esi),(%dx)
  91:	6c                   	insb   (%dx),%es:(%edi)
  92:	79 00                	jns    94 <FLAGS+0x93>
  94:	66 69 6e 64 5f 73    	imul   $0x735f,0x64(%esi),%bp
  9a:	6d                   	insl   (%dx),%es:(%edi)
  9b:	61                   	popa   
  9c:	6c                   	insb   (%dx),%es:(%edi)
  9d:	6c                   	insb   (%dx),%es:(%edi)
  9e:	65 73 74             	gs jae 115 <FLAGS+0x114>
  a1:	5f                   	pop    %edi
  a2:	68 6f 6c 65 00       	push   $0x656c6f
  a7:	73 33                	jae    dc <FLAGS+0xdb>
  a9:	32 5f 74             	xor    0x74(%edi),%bl
  ac:	00 70 61             	add    %dh,0x61(%eax)
  af:	67 65 5f             	addr16 gs pop %edi
  b2:	64 69 72 65 63 74 6f 	imul   $0x726f7463,%fs:0x65(%edx),%esi
  b9:	72 
  ba:	79 5f                	jns    11b <FLAGS+0x11a>
  bc:	74 00                	je     be <FLAGS+0xbd>
  be:	70 61                	jo     121 <FLAGS+0x120>
  c0:	67 65 5f             	addr16 gs pop %edi
  c3:	74 61                	je     126 <FLAGS+0x125>
  c5:	62 6c 65 5f          	bound  %ebp,0x5f(%ebp,%eiz,2)
  c9:	74 00                	je     cb <FLAGS+0xca>
  cb:	6e                   	outsb  %ds:(%esi),(%dx)
  cc:	65 77 5f             	gs ja  12e <FLAGS+0x12d>
  cf:	6c                   	insb   (%dx),%es:(%edi)
  d0:	6f                   	outsl  %ds:(%esi),(%dx)
  d1:	63 61 74             	arpl   %sp,0x74(%ecx)
  d4:	69 6f 6e 00 6b 68 65 	imul   $0x65686b00,0x6e(%edi),%ebp
  db:	61                   	popa   
  dc:	70 00                	jo     de <FLAGS+0xdd>
  de:	6f                   	outsl  %ds:(%esi),(%dx)
  df:	6c                   	insb   (%dx),%es:(%edi)
  e0:	64 5f                	fs pop %edi
  e2:	73 69                	jae    14d <FLAGS+0x14c>
  e4:	7a 65                	jp     14b <FLAGS+0x14a>
  e6:	00 76 61             	add    %dh,0x61(%esi)
  e9:	6c                   	insb   (%dx),%es:(%edi)
  ea:	75 65                	jne    151 <FLAGS+0x150>
  ec:	00 6b 6d             	add    %ch,0x6d(%ebx)
  ef:	61                   	popa   
  f0:	6c                   	insb   (%dx),%es:(%edi)
  f1:	6c                   	insb   (%dx),%es:(%edi)
  f2:	6f                   	outsl  %ds:(%esi),(%dx)
  f3:	63 5f 61             	arpl   %bx,0x61(%edi)
  f6:	70 00                	jo     f8 <FLAGS+0xf7>
  f8:	70 68                	jo     162 <FLAGS+0x161>
  fa:	79 73                	jns    16f <FLAGS+0x16e>
  fc:	69 63 61 6c 5f 61 64 	imul   $0x64615f6c,0x61(%ebx),%esp
 103:	64 72 00             	fs jb  106 <FLAGS+0x105>
 106:	73 72                	jae    17a <FLAGS+0x179>
 108:	63 2f                	arpl   %bp,(%edi)
 10a:	6b 65 72 6e          	imul   $0x6e,0x72(%ebp),%esp
 10e:	65 6c                	gs insb (%dx),%es:(%edi)
 110:	2f                   	das    
 111:	6b 68 65 61          	imul   $0x61,0x65(%eax),%ebp
 115:	70 2e                	jo     145 <FLAGS+0x144>
 117:	63 00                	arpl   %ax,(%eax)
 119:	70 61                	jo     17c <FLAGS+0x17b>
 11b:	67 65 5f             	addr16 gs pop %edi
 11e:	74 61                	je     181 <FLAGS+0x180>
 120:	62 6c 65 73          	bound  %ebp,0x73(%ebp,%eiz,2)
 124:	00 68 6f             	add    %ch,0x6f(%eax)
 127:	6c                   	insb   (%dx),%es:(%edi)
 128:	65 5f                	gs pop %edi
 12a:	66 6f                	outsw  %ds:(%esi),(%dx)
 12c:	6f                   	outsl  %ds:(%esi),(%dx)
 12d:	74 65                	je     194 <FLAGS+0x193>
 12f:	72 00                	jb     131 <FLAGS+0x130>
 131:	73 38                	jae    16b <FLAGS+0x16a>
 133:	5f                   	pop    %edi
 134:	74 00                	je     136 <FLAGS+0x135>
 136:	62 6c 6f 63          	bound  %ebp,0x63(%edi,%ebp,2)
 13a:	6b 5f 68 65          	imul   $0x65,0x68(%edi),%ebx
 13e:	61                   	popa   
 13f:	64 65 72 00          	fs gs jb 143 <FLAGS+0x142>
 143:	6f                   	outsl  %ds:(%esi),(%dx)
 144:	66 66 73 65          	data16 data16 jae 1ad <FLAGS+0x1ac>
 148:	74 00                	je     14a <FLAGS+0x149>
 14a:	70 61                	jo     1ad <FLAGS+0x1ac>
 14c:	67 65 5f             	addr16 gs pop %edi
 14f:	74 00                	je     151 <FLAGS+0x150>
 151:	70 68                	jo     1bb <FLAGS+0x1ba>
 153:	79 73                	jns    1c8 <FLAGS+0x1c7>
 155:	00 70 61             	add    %dh,0x61(%eax)
 158:	67 65 5f             	addr16 gs pop %edi
 15b:	74 61                	je     1be <FLAGS+0x1bd>
 15d:	62 6c 65 00          	bound  %ebp,0x0(%ebp,%eiz,2)
 161:	75 6e                	jne    1d1 <FLAGS+0x1d0>
 163:	73 69                	jae    1ce <FLAGS+0x1cd>
 165:	67 6e                	outsb  %ds:(%si),(%dx)
 167:	65 64 20 63 68       	gs and %ah,%fs:0x68(%ebx)
 16c:	61                   	popa   
 16d:	72 00                	jb     16f <FLAGS+0x16e>
 16f:	73 74                	jae    1e5 <FLAGS+0x1e4>
 171:	61                   	popa   
 172:	72 74                	jb     1e8 <FLAGS+0x1e7>
 174:	5f                   	pop    %edi
 175:	61                   	popa   
 176:	64 64 72 65          	fs fs jb 1df <FLAGS+0x1de>
 17a:	73 73                	jae    1ef <FLAGS+0x1ee>
 17c:	00 70 61             	add    %dh,0x61(%eax)
 17f:	67 65 5f             	addr16 gs pop %edi
 182:	61                   	popa   
 183:	6c                   	insb   (%dx),%es:(%edi)
 184:	69 67 6e 00 68 65 61 	imul   $0x61656800,0x6e(%edi),%esp
 18b:	64 65 72 5f          	fs gs jb 1ee <FLAGS+0x1ed>
 18f:	74 5f                	je     1f0 <FLAGS+0x1ef>
 191:	6c                   	insb   (%dx),%es:(%edi)
 192:	65 73 73             	gs jae 208 <FLAGS+0x207>
 195:	5f                   	pop    %edi
 196:	74 68                	je     200 <FLAGS+0x1ff>
 198:	61                   	popa   
 199:	6e                   	outsb  %ds:(%esi),(%dx)
 19a:	00 6d 61             	add    %ch,0x61(%ebp)
 19d:	78 5f                	js     1fe <FLAGS+0x1fd>
 19f:	61                   	popa   
 1a0:	64 64 72 65          	fs fs jb 209 <FLAGS+0x208>
 1a4:	73 73                	jae    219 <FLAGS+0x218>
 1a6:	00 64 69 72          	add    %ah,0x72(%ecx,%ebp,2)
 1aa:	74 79                	je     225 <FLAGS+0x224>
 1ac:	00 63 72             	add    %ah,0x72(%ebx)
 1af:	65 61                	gs popa 
 1b1:	74 65                	je     218 <FLAGS+0x217>
 1b3:	5f                   	pop    %edi
 1b4:	68 65 61 70 00       	push   $0x706165
 1b9:	75 73                	jne    22e <FLAGS+0x22d>
 1bb:	65 72 00             	gs jb  1be <FLAGS+0x1bd>
 1be:	73 68                	jae    228 <FLAGS+0x227>
 1c0:	6f                   	outsl  %ds:(%esi),(%dx)
 1c1:	72 74                	jb     237 <FLAGS+0x236>
 1c3:	20 75 6e             	and    %dh,0x6e(%ebp)
 1c6:	73 69                	jae    231 <FLAGS+0x230>
 1c8:	67 6e                	outsb  %ds:(%si),(%dx)
 1ca:	65 64 20 69 6e       	gs and %ch,%fs:0x6e(%ecx)
 1cf:	74 00                	je     1d1 <FLAGS+0x1d0>
 1d1:	6b 6d 61 6c          	imul   $0x6c,0x61(%ebp),%ebp
 1d5:	6c                   	insb   (%dx),%es:(%edi)
 1d6:	6f                   	outsl  %ds:(%esi),(%dx)
 1d7:	63 00                	arpl   %ax,(%eax)
 1d9:	62 6c 6f 63          	bound  %ebp,0x63(%edi,%ebp,2)
 1dd:	6b 5f 66 6f          	imul   $0x6f,0x66(%edi),%ebx
 1e1:	6f                   	outsl  %ds:(%esi),(%dx)
 1e2:	74 65                	je     249 <FLAGS+0x248>
 1e4:	72 00                	jb     1e6 <FLAGS+0x1e5>
 1e6:	6e                   	outsb  %ds:(%esi),(%dx)
 1e7:	65 77 5f             	gs ja  249 <FLAGS+0x248>
 1ea:	6c                   	insb   (%dx),%es:(%edi)
 1eb:	65 6e                	outsb  %gs:(%esi),(%dx)
 1ed:	67 74 68             	addr16 je 258 <FLAGS+0x257>
 1f0:	00 66 6f             	add    %ah,0x6f(%esi)
 1f3:	6f                   	outsl  %ds:(%esi),(%dx)
 1f4:	74 65                	je     25b <FLAGS+0x25a>
 1f6:	72 5f                	jb     257 <FLAGS+0x256>
 1f8:	74 00                	je     1fa <FLAGS+0x1f9>
 1fa:	6f                   	outsl  %ds:(%esi),(%dx)
 1fb:	72 69                	jb     266 <FLAGS+0x265>
 1fd:	67 5f                	addr16 pop %edi
 1ff:	68 6f 6c 65 5f       	push   $0x5f656c6f
 204:	70 6f                	jo     275 <FLAGS+0x274>
 206:	73 00                	jae    208 <FLAGS+0x207>
 208:	6f                   	outsl  %ds:(%esi),(%dx)
 209:	72 64                	jb     26f <FLAGS+0x26e>
 20b:	65 72 65             	gs jb  273 <FLAGS+0x272>
 20e:	64 5f                	fs pop %edi
 210:	61                   	popa   
 211:	72 72                	jb     285 <FLAGS+0x284>
 213:	61                   	popa   
 214:	79 5f                	jns    275 <FLAGS+0x274>
 216:	74 00                	je     218 <FLAGS+0x217>
 218:	6b 6d 61 6c          	imul   $0x6c,0x61(%ebp),%ebp
 21c:	6c                   	insb   (%dx),%es:(%edi)
 21d:	6f                   	outsl  %ds:(%esi),(%dx)
 21e:	63 5f 61             	arpl   %bx,0x61(%edi)
 221:	00 6f 6c             	add    %ch,0x6c(%edi)
 224:	64 5f                	fs pop %edi
 226:	6c                   	insb   (%dx),%es:(%edi)
 227:	65 6e                	outsb  %gs:(%esi),(%dx)
 229:	67 74 68             	addr16 je 294 <FLAGS+0x293>
 22c:	00 2f                	add    %ch,(%edi)
 22e:	68 6f 6d 65 2f       	push   $0x2f656d6f
 233:	77 65                	ja     29a <FLAGS+0x299>
 235:	6e                   	outsb  %ds:(%esi),(%dx)
 236:	7a 61                	jp     299 <FLAGS+0x298>
 238:	70 65                	jo     29f <FLAGS+0x29e>
 23a:	6e                   	outsb  %ds:(%esi),(%dx)
 23b:	2f                   	das    
 23c:	6d                   	insl   (%dx),%es:(%edi)
 23d:	79 6f                	jns    2ae <FLAGS+0x2ad>
 23f:	73 00                	jae    241 <FLAGS+0x240>
 241:	6b 6d 61 6c          	imul   $0x6c,0x61(%ebp),%ebp
 245:	6c                   	insb   (%dx),%es:(%edi)
 246:	6f                   	outsl  %ds:(%esi),(%dx)
 247:	63 5f 70             	arpl   %bx,0x70(%edi)
 24a:	00 65 78             	add    %ah,0x78(%ebp)
 24d:	70 61                	jo     2b0 <FLAGS+0x2af>
 24f:	6e                   	outsb  %ds:(%esi),(%dx)
 250:	64 00 61 63          	add    %ah,%fs:0x63(%ecx)
 254:	63 65 73             	arpl   %sp,0x73(%ebp)
 257:	73 65                	jae    2be <FLAGS+0x2bd>
 259:	64 00 75 38          	add    %dh,%fs:0x38(%ebp)
 25d:	5f                   	pop    %edi
 25e:	74 00                	je     260 <FLAGS+0x25f>
 260:	75 33                	jne    295 <FLAGS+0x294>
 262:	32 5f 74             	xor    0x74(%edi),%bl
 265:	00 69 73             	add    %ch,0x73(%ecx)
 268:	5f                   	pop    %edi
 269:	68 6f 6c 65 00       	push   $0x656c6f
 26e:	70 72                	jo     2e2 <FLAGS+0x2e1>
 270:	65 73 65             	gs jae 2d8 <FLAGS+0x2d7>
 273:	6e                   	outsb  %ds:(%esi),(%dx)
 274:	74 00                	je     276 <FLAGS+0x275>
 276:	6f                   	outsl  %ds:(%esi),(%dx)
 277:	72 69                	jb     2e2 <FLAGS+0x2e1>
 279:	67 5f                	addr16 pop %edi
 27b:	68 6f 6c 65 5f       	push   $0x5f656c6f
 280:	73 69                	jae    2eb <FLAGS+0x2ea>
 282:	7a 65                	jp     2e9 <FLAGS+0x2e8>
 284:	00 6d 61             	add    %ch,0x61(%ebp)
 287:	78 5f                	js     2e8 <FLAGS+0x2e7>
 289:	73 69                	jae    2f4 <FLAGS+0x2f3>
 28b:	7a 65                	jp     2f2 <FLAGS+0x2f1>
 28d:	00 6c 65 73          	add    %ch,0x73(%ebp,%eiz,2)
 291:	73 5f                	jae    2f2 <FLAGS+0x2f1>
 293:	74 68                	je     2fd <FLAGS+0x2fc>
 295:	61                   	popa   
 296:	6e                   	outsb  %ds:(%esi),(%dx)
 297:	5f                   	pop    %edi
 298:	74 00                	je     29a <FLAGS+0x299>
 29a:	6e                   	outsb  %ds:(%esi),(%dx)
 29b:	65 77 5f             	gs ja  2fd <FLAGS+0x2fc>
 29e:	73 69                	jae    309 <FLAGS+0x308>
 2a0:	7a 65                	jp     307 <FLAGS+0x306>
 2a2:	00 6d 61             	add    %ch,0x61(%ebp)
 2a5:	67 69 63 00 74 61 62 	imul   $0x6c626174,0x0(%bp,%di),%esp
 2ac:	6c 
 2ad:	65 73 5f             	gs jae 30f <FLAGS+0x30e>
 2b0:	70 68                	jo     31a <FLAGS+0x319>
 2b2:	79 73                	jns    327 <FLAGS+0x326>
 2b4:	69 63 61 6c 00 6b 6d 	imul   $0x6d6b006c,0x61(%ebx),%esp
 2bb:	61                   	popa   
 2bc:	6c                   	insb   (%dx),%es:(%edi)
 2bd:	6c                   	insb   (%dx),%es:(%edi)
 2be:	6f                   	outsl  %ds:(%esi),(%dx)
 2bf:	63 5f 69             	arpl   %bx,0x69(%edi)
 2c2:	6e                   	outsb  %ds:(%esi),(%dx)
 2c3:	74 65                	je     32a <FLAGS+0x329>
 2c5:	72 6e                	jb     335 <FLAGS+0x334>
 2c7:	61                   	popa   
 2c8:	6c                   	insb   (%dx),%es:(%edi)
 2c9:	00 70 61             	add    %dh,0x61(%eax)
 2cc:	67 65 73 00          	addr16 gs jae 2d0 <FLAGS+0x2cf>
 2d0:	75 6e                	jne    340 <FLAGS+0x33f>
 2d2:	75 73                	jne    347 <FLAGS+0x346>
 2d4:	65 64 00 6f 72       	gs add %ch,%fs:0x72(%edi)
 2d9:	69 67 5f 68 6f 6c 65 	imul   $0x656c6f68,0x5f(%edi),%esp
 2e0:	5f                   	pop    %edi
 2e1:	68 65 61 64 65       	push   $0x65646165
 2e6:	72 00                	jb     2e8 <FLAGS+0x2e7>
 2e8:	6f                   	outsl  %ds:(%esi),(%dx)
 2e9:	6c                   	insb   (%dx),%es:(%edi)
 2ea:	64 5f                	fs pop %edi
 2ec:	65 6e                	outsb  %gs:(%esi),(%dx)
 2ee:	64 5f                	fs pop %edi
 2f0:	61                   	popa   
 2f1:	64 64 72 65          	fs fs jb 35a <FLAGS+0x359>
 2f5:	73 73                	jae    36a <FLAGS+0x369>
 2f7:	00 6f 70             	add    %ch,0x70(%edi)
 2fa:	65 6e                	outsb  %gs:(%esi),(%dx)
 2fc:	00 66 73             	add    %ah,0x73(%esi)
 2ff:	5f                   	pop    %edi
 300:	6e                   	outsb  %ds:(%esi),(%dx)
 301:	6f                   	outsl  %ds:(%esi),(%dx)
 302:	64 65 5f             	fs gs pop %edi
 305:	74 00                	je     307 <FLAGS+0x306>
 307:	6e                   	outsb  %ds:(%esi),(%dx)
 308:	72 6f                	jb     379 <FLAGS+0x378>
 30a:	6f                   	outsl  %ds:(%esi),(%dx)
 30b:	74 5f                	je     36c <FLAGS+0x36b>
 30d:	6e                   	outsb  %ds:(%esi),(%dx)
 30e:	6f                   	outsl  %ds:(%esi),(%dx)
 30f:	64 65 73 00          	fs gs jae 313 <FLAGS+0x312>
 313:	62 75 66             	bound  %esi,0x66(%ebp)
 316:	66 65 72 00          	data16 gs jb 31a <FLAGS+0x319>
 31a:	64 69 72 65 6e 74 00 	imul   $0x6600746e,%fs:0x65(%edx),%esi
 321:	66 
 322:	73 5f                	jae    383 <FLAGS+0x382>
 324:	6e                   	outsb  %ds:(%esi),(%dx)
 325:	6f                   	outsl  %ds:(%esi),(%dx)
 326:	64 65 00 6d 61       	fs add %ch,%gs:0x61(%ebp)
 32b:	73 6b                	jae    398 <FLAGS+0x397>
 32d:	00 70 72             	add    %dh,0x72(%eax)
 330:	69 6e 74 5f 6e 6f 64 	imul   $0x646f6e5f,0x74(%esi),%ebp
 337:	65 00 72 65          	add    %dh,%gs:0x65(%edx)
 33b:	61                   	popa   
 33c:	64 5f                	fs pop %edi
 33e:	74 79                	je     3b9 <FLAGS+0x3b8>
 340:	70 65                	jo     3a7 <FLAGS+0x3a6>
 342:	5f                   	pop    %edi
 343:	74 00                	je     345 <FLAGS+0x344>
 345:	69 6e 69 74 5f 69 6e 	imul   $0x6e695f74,0x69(%esi),%ebp
 34c:	69 74 72 64 00 63 6c 	imul   $0x6f6c6300,0x64(%edx,%esi,2),%esi
 353:	6f 
 354:	73 65                	jae    3bb <FLAGS+0x3ba>
 356:	5f                   	pop    %edi
 357:	74 79                	je     3d2 <FLAGS+0x3d1>
 359:	70 65                	jo     3c0 <FLAGS+0x3bf>
 35b:	5f                   	pop    %edi
 35c:	74 00                	je     35e <FLAGS+0x35d>
 35e:	69 6e 69 74 72 64 5f 	imul   $0x5f647274,0x69(%esi),%ebp
 365:	66 69 6c 65 5f 68 65 	imul   $0x6568,0x5f(%ebp,%eiz,2),%bp
 36c:	61                   	popa   
 36d:	64 65 72 5f          	fs gs jb 3d0 <FLAGS+0x3cf>
 371:	74 00                	je     373 <FLAGS+0x372>
 373:	77 72                	ja     3e7 <FLAGS+0x3e6>
 375:	69 74 65 5f 74 79 70 	imul   $0x65707974,0x5f(%ebp,%eiz,2),%esi
 37c:	65 
 37d:	5f                   	pop    %edi
 37e:	74 00                	je     380 <FLAGS+0x37f>
 380:	66 69 6c 65 5f 68 65 	imul   $0x6568,0x5f(%ebp,%eiz,2),%bp
 387:	61                   	popa   
 388:	64 65 72 73          	fs gs jb 3ff <FLAGS+0x3fe>
 38c:	00 6f 70             	add    %ch,0x70(%edi)
 38f:	65 6e                	outsb  %gs:(%esi),(%dx)
 391:	5f                   	pop    %edi
 392:	74 79                	je     40d <FLAGS+0x40c>
 394:	70 65                	jo     3fb <FLAGS+0x3fa>
 396:	5f                   	pop    %edi
 397:	74 00                	je     399 <FLAGS+0x398>
 399:	69 6e 69 74 72 64 5f 	imul   $0x5f647274,0x69(%esi),%ebp
 3a0:	72 6f                	jb     411 <FLAGS+0x410>
 3a2:	6f                   	outsl  %ds:(%esi),(%dx)
 3a3:	74 00                	je     3a5 <FLAGS+0x3a4>
 3a5:	69 6e 69 74 72 64 5f 	imul   $0x5f647274,0x69(%esi),%ebp
 3ac:	72 65                	jb     413 <FLAGS+0x412>
 3ae:	61                   	popa   
 3af:	64 00 69 6e          	add    %ch,%fs:0x6e(%ecx)
 3b3:	69 74 72 64 5f 68 65 	imul   $0x6165685f,0x64(%edx,%esi,2),%esi
 3ba:	61 
 3bb:	64 65 72 5f          	fs gs jb 41e <FLAGS+0x41d>
 3bf:	74 00                	je     3c1 <FLAGS+0x3c0>
 3c1:	73 72                	jae    435 <FLAGS+0x434>
 3c3:	63 2f                	arpl   %bp,(%edi)
 3c5:	6b 65 72 6e          	imul   $0x6e,0x72(%ebp),%esp
 3c9:	65 6c                	gs insb (%dx),%es:(%edi)
 3cb:	2f                   	das    
 3cc:	69 6e 69 74 72 64 2e 	imul   $0x2e647274,0x69(%esi),%ebp
 3d3:	63 00                	arpl   %ax,(%eax)
 3d5:	66 69 6e 64 64 69    	imul   $0x6964,0x64(%esi),%bp
 3db:	72 5f                	jb     43c <FLAGS+0x43b>
 3dd:	74 79                	je     458 <FLAGS+0x457>
 3df:	70 65                	jo     446 <FLAGS+0x445>
 3e1:	5f                   	pop    %edi
 3e2:	74 00                	je     3e4 <FLAGS+0x3e3>
 3e4:	69 6e 69 74 72 64 5f 	imul   $0x5f647274,0x69(%esi),%ebp
 3eb:	64 65 76 00          	fs gs jbe 3ef <FLAGS+0x3ee>
 3ef:	69 6e 69 74 72 64 5f 	imul   $0x5f647274,0x69(%esi),%ebp
 3f6:	72 65                	jb     45d <FLAGS+0x45c>
 3f8:	61                   	popa   
 3f9:	64 64 69 72 00 69 6d 	fs imul $0x6c706d69,%fs:0x0(%edx),%esi
 400:	70 6c 
 402:	00 69 6e             	add    %ch,0x6e(%ecx)
 405:	69 74 72 64 5f 68 65 	imul   $0x6165685f,0x64(%edx,%esi,2),%esi
 40c:	61 
 40d:	64 65 72 00          	fs gs jb 411 <FLAGS+0x410>
 411:	70 72                	jo     485 <FLAGS+0x484>
 413:	69 6e 74 5f 66 73 00 	imul   $0x73665f,0x74(%esi),%ebp
 41a:	66 73 6e             	data16 jae 48b <FLAGS+0x48a>
 41d:	6f                   	outsl  %ds:(%esi),(%dx)
 41e:	64 65 00 72 65       	fs add %dh,%gs:0x65(%edx)
 423:	61                   	popa   
 424:	64 64 69 72 5f 74 79 	fs imul $0x65707974,%fs:0x5f(%edx),%esi
 42b:	70 65 
 42d:	5f                   	pop    %edi
 42e:	74 00                	je     430 <FLAGS+0x42f>
 430:	69 6e 69 74 72 64 5f 	imul   $0x5f647274,0x69(%esi),%ebp
 437:	66 69 6e 64 64 69    	imul   $0x6964,0x64(%esi),%bp
 43d:	72 00                	jb     43f <FLAGS+0x43e>
 43f:	69 6e 6f 64 65 00 63 	imul   $0x63006564,0x6f(%esi),%ebp
 446:	6c                   	insb   (%dx),%es:(%edi)
 447:	6f                   	outsl  %ds:(%esi),(%dx)
 448:	73 65                	jae    4af <FLAGS+0x4ae>
 44a:	00 66 73             	add    %ah,0x73(%esi)
 44d:	5f                   	pop    %edi
 44e:	72 6f                	jb     4bf <FLAGS+0x4be>
 450:	6f                   	outsl  %ds:(%esi),(%dx)
 451:	74 00                	je     453 <FLAGS+0x452>
 453:	6e                   	outsb  %ds:(%esi),(%dx)
 454:	66 69 6c 65 73 00 66 	imul   $0x6600,0x73(%ebp,%eiz,2),%bp
 45b:	6f                   	outsl  %ds:(%esi),(%dx)
 45c:	72 6b                	jb     4c9 <FLAGS+0x4c8>
 45e:	00 70 64             	add    %dh,0x64(%eax)
 461:	5f                   	pop    %edi
 462:	61                   	popa   
 463:	64 64 72 00          	fs fs jb 467 <FLAGS+0x466>
 467:	6f                   	outsl  %ds:(%esi),(%dx)
 468:	6c                   	insb   (%dx),%es:(%edi)
 469:	64 5f                	fs pop %edi
 46b:	65 73 70             	gs jae 4de <FLAGS+0x4dd>
 46e:	00 6d 6f             	add    %ch,0x6f(%ebp)
 471:	76 65                	jbe    4d8 <FLAGS+0x4d7>
 473:	5f                   	pop    %edi
 474:	73 74                	jae    4ea <FLAGS+0x4e9>
 476:	61                   	popa   
 477:	63 6b 00             	arpl   %bp,0x0(%ebx)
 47a:	6e                   	outsb  %ds:(%esi),(%dx)
 47b:	65 77 5f             	gs ja  4dd <FLAGS+0x4dc>
 47e:	74 61                	je     4e1 <FLAGS+0x4e0>
 480:	73 6b                	jae    4ed <FLAGS+0x4ec>
 482:	00 70 61             	add    %dh,0x61(%eax)
 485:	72 65                	jb     4ec <FLAGS+0x4eb>
 487:	6e                   	outsb  %ds:(%esi),(%dx)
 488:	74 5f                	je     4e9 <FLAGS+0x4e8>
 48a:	74 61                	je     4ed <FLAGS+0x4ec>
 48c:	73 6b                	jae    4f9 <FLAGS+0x4f8>
 48e:	00 6e 65             	add    %ch,0x65(%esi)
 491:	77 5f                	ja     4f2 <FLAGS+0x4f1>
 493:	65 62 70 00          	bound  %esi,%gs:0x0(%eax)
 497:	74 61                	je     4fa <FLAGS+0x4f9>
 499:	73 6b                	jae    506 <FLAGS+0x505>
 49b:	5f                   	pop    %edi
 49c:	74 00                	je     49e <FLAGS+0x49d>
 49e:	63 75 72             	arpl   %si,0x72(%ebp)
 4a1:	72 65                	jb     508 <FLAGS+0x507>
 4a3:	6e                   	outsb  %ds:(%esi),(%dx)
 4a4:	74 5f                	je     505 <FLAGS+0x504>
 4a6:	64 69 72 65 63 74 6f 	imul   $0x726f7463,%fs:0x65(%edx),%esi
 4ad:	72 
 4ae:	79 00                	jns    4b0 <FLAGS+0x4af>
 4b0:	6f                   	outsl  %ds:(%esi),(%dx)
 4b1:	6c                   	insb   (%dx),%es:(%edi)
 4b2:	64 5f                	fs pop %edi
 4b4:	65 62 70 00          	bound  %esi,%gs:0x0(%eax)
 4b8:	67 65 74 5f          	addr16 gs je 51b <FLAGS+0x51a>
 4bc:	70 69                	jo     527 <FLAGS+0x526>
 4be:	64 00 63 75          	add    %ah,%fs:0x75(%ebx)
 4c2:	72 72                	jb     536 <FLAGS+0x535>
 4c4:	65 6e                	outsb  %gs:(%esi),(%dx)
 4c6:	74 5f                	je     527 <FLAGS+0x526>
 4c8:	74 61                	je     52b <FLAGS+0x52a>
 4ca:	73 6b                	jae    537 <FLAGS+0x536>
 4cc:	00 6e 65             	add    %ch,0x65(%esi)
 4cf:	77 5f                	ja     530 <FLAGS+0x52f>
 4d1:	73 74                	jae    547 <FLAGS+0x546>
 4d3:	61                   	popa   
 4d4:	63 6b 5f             	arpl   %bp,0x5f(%ebx)
 4d7:	73 74                	jae    54d <FLAGS+0x54c>
 4d9:	61                   	popa   
 4da:	72 74                	jb     550 <FLAGS+0x54f>
 4dc:	00 73 72             	add    %dh,0x72(%ebx)
 4df:	63 2f                	arpl   %bp,(%edi)
 4e1:	6b 65 72 6e          	imul   $0x6e,0x72(%ebp),%esp
 4e5:	65 6c                	gs insb (%dx),%es:(%edi)
 4e7:	2f                   	das    
 4e8:	74 61                	je     54b <FLAGS+0x54a>
 4ea:	73 6b                	jae    557 <FLAGS+0x556>
 4ec:	2e 63 00             	arpl   %ax,%cs:(%eax)
 4ef:	69 6e 69 74 5f 74 61 	imul   $0x61745f74,0x69(%esi),%ebp
 4f6:	73 6b                	jae    563 <FLAGS+0x562>
 4f8:	00 69 6e             	add    %ch,0x6e(%ecx)
 4fb:	69 74 69 61 6c 5f 65 	imul   $0x73655f6c,0x61(%ecx,%ebp,2),%esi
 502:	73 
 503:	70 00                	jo     505 <FLAGS+0x504>
 505:	74 6d                	je     574 <FLAGS+0x573>
 507:	70 5f                	jo     568 <FLAGS+0x567>
 509:	74 61                	je     56c <FLAGS+0x56b>
 50b:	73 6b                	jae    578 <FLAGS+0x577>
 50d:	00 74 6d 70          	add    %dh,0x70(%ebp,%ebp,2)
 511:	32 00                	xor    (%eax),%al
 513:	6e                   	outsb  %ds:(%esi),(%dx)
 514:	65 78 74             	gs js  58b <FLAGS+0x58a>
 517:	5f                   	pop    %edi
 518:	70 69                	jo     583 <FLAGS+0x582>
 51a:	64 00 73 77          	add    %dh,%fs:0x77(%ebx)
 51e:	69 74 63 68 5f 74 61 	imul   $0x7361745f,0x68(%ebx,%eiz,2),%esi
 525:	73 
 526:	6b 00 6e             	imul   $0x6e,(%eax),%eax
 529:	65 77 5f             	gs ja  58b <FLAGS+0x58a>
 52c:	65 73 70             	gs jae 59f <FLAGS+0x59e>
 52f:	00 72 65             	add    %dh,0x65(%edx)
 532:	61                   	popa   
 533:	64 79 5f             	fs jns 595 <FLAGS+0x594>
 536:	71 75                	jno    5ad <FLAGS+0x5ac>
 538:	65 75 65             	gs jne 5a0 <FLAGS+0x59f>
 53b:	00 6e 65             	add    %ch,0x65(%esi)
 53e:	78 74                	js     5b4 <FLAGS+0x5b3>
 540:	00 72 65             	add    %dh,0x65(%edx)
 543:	67 69 73 74 65 72 73 	imul   $0x5f737265,0x74(%bp,%di),%esi
 54a:	5f 
 54b:	74 00                	je     54d <FLAGS+0x54c>
 54d:	66 61                	popaw  
 54f:	75 6c                	jne    5bd <FLAGS+0x5bc>
 551:	74 5f                	je     5b2 <FLAGS+0x5b1>
 553:	61                   	popa   
 554:	64 64 72 65          	fs fs jb 5bd <FLAGS+0x5bc>
 558:	73 73                	jae    5cd <FLAGS+0x5cc>
 55a:	00 66 72             	add    %ah,0x72(%esi)
 55d:	61                   	popa   
 55e:	6d                   	insl   (%dx),%es:(%edi)
 55f:	65 73 5f             	gs jae 5c1 <FLAGS+0x5c0>
 562:	62 69 74             	bound  %ebp,0x74(%ecx)
 565:	6d                   	insl   (%dx),%es:(%edi)
 566:	61                   	popa   
 567:	70 00                	jo     569 <FLAGS+0x568>
 569:	73 77                	jae    5e2 <FLAGS+0x5e1>
 56b:	69 74 63 68 5f 70 61 	imul   $0x6761705f,0x68(%ebx,%eiz,2),%esi
 572:	67 
 573:	65 5f                	gs pop %edi
 575:	64 69 72 65 63 74 6f 	imul   $0x726f7463,%fs:0x65(%edx),%esi
 57c:	72 
 57d:	79 00                	jns    57f <FLAGS+0x57e>
 57f:	65 66 6c             	gs data16 insb (%dx),%es:(%edi)
 582:	61                   	popa   
 583:	67 73 00             	addr16 jae 586 <FLAGS+0x585>
 586:	66 69 72 73 74 5f    	imul   $0x5f74,0x73(%edx),%si
 58c:	75 6e                	jne    5fc <FLAGS+0x5fb>
 58e:	75 73                	jne    603 <FLAGS+0x602>
 590:	65 64 5f             	gs fs pop %edi
 593:	66 72 61             	data16 jb 5f7 <FLAGS+0x5f6>
 596:	6d                   	insl   (%dx),%es:(%edi)
 597:	65 00 63 6c          	add    %ah,%gs:0x6c(%ebx)
 59b:	6f                   	outsl  %ds:(%esi),(%dx)
 59c:	6e                   	outsb  %ds:(%esi),(%dx)
 59d:	65 5f                	gs pop %edi
 59f:	74 61                	je     602 <FLAGS+0x601>
 5a1:	62 6c 65 00          	bound  %ebp,0x0(%ebp,%eiz,2)
 5a5:	63 6c 65 61          	arpl   %bp,0x61(%ebp,%eiz,2)
 5a9:	72 5f                	jb     60a <FLAGS+0x609>
 5ab:	66 72 61             	data16 jb 60f <FLAGS+0x60e>
 5ae:	6d                   	insl   (%dx),%es:(%edi)
 5af:	65 00 63 6c          	add    %ah,%gs:0x6c(%ebx)
 5b3:	6f                   	outsl  %ds:(%esi),(%dx)
 5b4:	6e                   	outsb  %ds:(%esi),(%dx)
 5b5:	65 5f                	gs pop %edi
 5b7:	64 69 72 65 63 74 6f 	imul   $0x726f7463,%fs:0x65(%edx),%esi
 5be:	72 
 5bf:	79 00                	jns    5c1 <FLAGS+0x5c0>
 5c1:	61                   	popa   
 5c2:	6c                   	insb   (%dx),%es:(%edi)
 5c3:	6c                   	insb   (%dx),%es:(%edi)
 5c4:	6f                   	outsl  %ds:(%esi),(%dx)
 5c5:	63 5f 66             	arpl   %bx,0x66(%edi)
 5c8:	72 61                	jb     62b <FLAGS+0x62a>
 5ca:	6d                   	insl   (%dx),%es:(%edi)
 5cb:	65 00 73 65          	add    %dh,%gs:0x65(%ebx)
 5cf:	74 5f                	je     630 <FLAGS+0x62f>
 5d1:	66 72 61             	data16 jb 635 <FLAGS+0x634>
 5d4:	6d                   	insl   (%dx),%es:(%edi)
 5d5:	65 00 74 65 73       	add    %dh,%gs:0x73(%ebp,%eiz,2)
 5da:	74 5f                	je     63b <FLAGS+0x63a>
 5dc:	66 72 61             	data16 jb 640 <FLAGS+0x63f>
 5df:	6d                   	insl   (%dx),%es:(%edi)
 5e0:	65 00 69 73          	add    %ch,%gs:0x73(%ecx)
 5e4:	5f                   	pop    %edi
 5e5:	6b 65 72 6e          	imul   $0x6e,0x72(%ebp),%esp
 5e9:	65 6c                	gs insb (%dx),%es:(%edi)
 5eb:	00 75 73             	add    %dh,0x73(%ebp)
 5ee:	65 72 65             	gs jb  656 <FLAGS+0x655>
 5f1:	73 70                	jae    663 <FLAGS+0x662>
 5f3:	00 6e 66             	add    %ch,0x66(%esi)
 5f6:	72 61                	jb     659 <FLAGS+0x658>
 5f8:	6d                   	insl   (%dx),%es:(%edi)
 5f9:	65 73 00             	gs jae 5fc <FLAGS+0x5fb>
 5fc:	73 72                	jae    670 <FLAGS+0x66f>
 5fe:	63 2f                	arpl   %bp,(%edi)
 600:	6b 65 72 6e          	imul   $0x6e,0x72(%ebp),%esp
 604:	65 6c                	gs insb (%dx),%es:(%edi)
 606:	2f                   	das    
 607:	70 61                	jo     66a <FLAGS+0x669>
 609:	67 69 6e 67 2e 63 00 	imul   $0x6700632e,0x67(%bp),%ebp
 610:	67 
 611:	65 74 5f             	gs je  673 <FLAGS+0x672>
 614:	70 61                	jo     677 <FLAGS+0x676>
 616:	67 65 00 69 73       	add    %ch,%gs:0x73(%bx,%di)
 61b:	5f                   	pop    %edi
 61c:	77 72                	ja     690 <FLAGS+0x68f>
 61e:	69 74 65 61 62 6c 65 	imul   $0x656c62,0x61(%ebp,%eiz,2),%esi
 625:	00 
 626:	70 61                	jo     689 <FLAGS+0x688>
 628:	67 65 5f             	addr16 gs pop %edi
 62b:	66 61                	popaw  
 62d:	75 6c                	jne    69b <FLAGS+0x69a>
 62f:	74 00                	je     631 <FLAGS+0x630>
 631:	69 6e 74 5f 6e 6f 00 	imul   $0x6f6e5f,0x74(%esi),%ebp
 638:	66 72 61             	data16 jb 69c <FLAGS+0x69b>
 63b:	6d                   	insl   (%dx),%es:(%edi)
 63c:	65 5f                	gs pop %edi
 63e:	61                   	popa   
 63f:	64 64 72 00          	fs fs jb 643 <FLAGS+0x642>
 643:	6d                   	insl   (%dx),%es:(%edi)
 644:	61                   	popa   
 645:	6b 65 00 6d          	imul   $0x6d,0x0(%ebp),%esp
 649:	65 6d                	gs insl (%dx),%es:(%edi)
 64b:	5f                   	pop    %edi
 64c:	65 6e                	outsb  %gs:(%esi),(%dx)
 64e:	64 5f                	fs pop %edi
 650:	70 61                	jo     6b3 <FLAGS+0x6b2>
 652:	67 65 00 65 72       	add    %ah,%gs:0x72(%di)
 657:	72 5f                	jb     6b8 <FLAGS+0x6b7>
 659:	63 6f 64             	arpl   %bp,0x64(%edi)
 65c:	65 00 66 72          	add    %ah,%gs:0x72(%esi)
 660:	65 65 5f             	gs gs pop %edi
 663:	66 72 61             	data16 jb 6c7 <FLAGS+0x6c6>
 666:	6d                   	insl   (%dx),%es:(%edi)
 667:	65 00 72 65          	add    %dh,%gs:0x65(%edx)
 66b:	67 69 73 74 65 72 73 	imul   $0x5f737265,0x74(%bp,%di),%esi
 672:	5f 
 673:	73 74                	jae    6e9 <FLAGS+0x6e8>
 675:	72 75                	jb     6ec <FLAGS+0x6eb>
 677:	63 74 00 74          	arpl   %si,0x74(%eax,%eax,1)
 67b:	61                   	popa   
 67c:	62 6c 65 5f          	bound  %ebp,0x5f(%ebp,%eiz,2)
 680:	69 6e 64 65 78 00 69 	imul   $0x69007865,0x64(%esi),%ebp
 687:	6e                   	outsb  %ds:(%esi),(%dx)
 688:	69 74 5f 70 61 67 69 	imul   $0x6e696761,0x70(%edi,%ebx,2),%esi
 68f:	6e 
 690:	67 00 72 65          	add    %dh,0x65(%bp,%si)
 694:	67 73 00             	addr16 jae 697 <FLAGS+0x696>
 697:	76 62                	jbe    6fb <FLAGS+0x6fa>
 699:	65 5f                	gs pop %edi
 69b:	63 6f 6e             	arpl   %bp,0x6e(%edi)
 69e:	74 72                	je     712 <FLAGS+0x711>
 6a0:	6f                   	outsl  %ds:(%esi),(%dx)
 6a1:	6c                   	insb   (%dx),%es:(%edi)
 6a2:	5f                   	pop    %edi
 6a3:	69 6e 66 6f 00 66 72 	imul   $0x7266006f,0x66(%esi),%ebp
 6aa:	61                   	popa   
 6ab:	6d                   	insl   (%dx),%es:(%edi)
 6ac:	65 62 75 66          	bound  %esi,%gs:0x66(%ebp)
 6b0:	66 65 72 5f          	data16 gs jb 713 <FLAGS+0x712>
 6b4:	77 69                	ja     71f <FLAGS+0x71e>
 6b6:	64 74 68             	fs je  721 <FLAGS+0x720>
 6b9:	00 74 61 62          	add    %dh,0x62(%ecx,%eiz,2)
 6bd:	73 69                	jae    728 <FLAGS+0x727>
 6bf:	7a 65                	jp     726 <FLAGS+0x725>
 6c1:	00 66 72             	add    %ah,0x72(%esi)
 6c4:	61                   	popa   
 6c5:	6d                   	insl   (%dx),%es:(%edi)
 6c6:	65 62 75 66          	bound  %esi,%gs:0x66(%ebp)
 6ca:	66 65 72 5f          	data16 gs jb 72d <FLAGS+0x72c>
 6ce:	62 70 70             	bound  %esi,0x70(%eax)
 6d1:	00 6c 6f 6e          	add    %ch,0x6e(%edi,%ebp,2)
 6d5:	67 20 6c 6f          	and    %ch,0x6f(%si)
 6d9:	6e                   	outsb  %ds:(%esi),(%dx)
 6da:	67 20 75 6e          	and    %dh,0x6e(%di)
 6de:	73 69                	jae    749 <FLAGS+0x748>
 6e0:	67 6e                	outsb  %ds:(%si),(%dx)
 6e2:	65 64 20 69 6e       	gs and %ch,%fs:0x6e(%ecx)
 6e7:	74 00                	je     6e9 <FLAGS+0x6e8>
 6e9:	73 68                	jae    753 <FLAGS+0x752>
 6eb:	6e                   	outsb  %ds:(%esi),(%dx)
 6ec:	64 78 00             	fs js  6ef <FLAGS+0x6ee>
 6ef:	6d                   	insl   (%dx),%es:(%edi)
 6f0:	75 6c                	jne    75e <FLAGS+0x75d>
 6f2:	74 69                	je     75d <FLAGS+0x75c>
 6f4:	62 6f 6f             	bound  %ebp,0x6f(%edi)
 6f7:	74 5f                	je     758 <FLAGS+0x757>
 6f9:	75 69                	jne    764 <FLAGS+0x763>
 6fb:	6e                   	outsb  %ds:(%esi),(%dx)
 6fc:	74 31                	je     72f <FLAGS+0x72e>
 6fe:	36 5f                	ss pop %edi
 700:	74 00                	je     702 <FLAGS+0x701>
 702:	69 6e 69 74 72 64 5f 	imul   $0x5f647274,0x69(%esi),%ebp
 709:	65 6e                	outsb  %gs:(%esi),(%dx)
 70b:	64 00 66 72          	add    %ah,%fs:0x72(%esi)
 70f:	61                   	popa   
 710:	6d                   	insl   (%dx),%es:(%edi)
 711:	65 62 75 66          	bound  %esi,%gs:0x66(%ebp)
 715:	66 65 72 5f          	data16 gs jb 778 <FLAGS+0x777>
 719:	72 65                	jb     780 <FLAGS+0x77f>
 71b:	64 5f                	fs pop %edi
 71d:	66 69 65 6c 64 5f    	imul   $0x5f64,0x6c(%ebp),%sp
 723:	70 6f                	jo     794 <FLAGS+0x793>
 725:	73 69                	jae    790 <FLAGS+0x78f>
 727:	74 69                	je     792 <FLAGS+0x791>
 729:	6f                   	outsl  %ds:(%esi),(%dx)
 72a:	6e                   	outsb  %ds:(%esi),(%dx)
 72b:	00 6d 75             	add    %ch,0x75(%ebp)
 72e:	6c                   	insb   (%dx),%es:(%edi)
 72f:	74 69                	je     79a <FLAGS+0x799>
 731:	62 6f 6f             	bound  %ebp,0x6f(%edi)
 734:	74 5f                	je     795 <FLAGS+0x794>
 736:	75 69                	jne    7a1 <FLAGS+0x7a0>
 738:	6e                   	outsb  %ds:(%esi),(%dx)
 739:	74 38                	je     773 <FLAGS+0x772>
 73b:	5f                   	pop    %edi
 73c:	74 00                	je     73e <FLAGS+0x73d>
 73e:	62 6f 6f             	bound  %ebp,0x6f(%edi)
 741:	74 5f                	je     7a2 <FLAGS+0x7a1>
 743:	6c                   	insb   (%dx),%es:(%edi)
 744:	6f                   	outsl  %ds:(%esi),(%dx)
 745:	61                   	popa   
 746:	64 65 72 5f          	fs gs jb 7a9 <FLAGS+0x7a8>
 74a:	6e                   	outsb  %ds:(%esi),(%dx)
 74b:	61                   	popa   
 74c:	6d                   	insl   (%dx),%es:(%edi)
 74d:	65 00 66 72          	add    %ah,%gs:0x72(%esi)
 751:	61                   	popa   
 752:	6d                   	insl   (%dx),%es:(%edi)
 753:	65 62 75 66          	bound  %esi,%gs:0x66(%ebp)
 757:	66 65 72 5f          	data16 gs jb 7ba <FLAGS+0x7b9>
 75b:	72 65                	jb     7c2 <FLAGS+0x7c1>
 75d:	64 5f                	fs pop %edi
 75f:	6d                   	insl   (%dx),%es:(%edi)
 760:	61                   	popa   
 761:	73 6b                	jae    7ce <FLAGS+0x7cd>
 763:	5f                   	pop    %edi
 764:	73 69                	jae    7cf <FLAGS+0x7ce>
 766:	7a 65                	jp     7cd <FLAGS+0x7cc>
 768:	00 76 62             	add    %dh,0x62(%esi)
 76b:	65 5f                	gs pop %edi
 76d:	69 6e 74 65 72 66 61 	imul   $0x61667265,0x74(%esi),%ebp
 774:	63 65 5f             	arpl   %sp,0x5f(%ebp)
 777:	6f                   	outsl  %ds:(%esi),(%dx)
 778:	66 66 00 6d 75       	data16 data16 add %ch,0x75(%ebp)
 77d:	6c                   	insb   (%dx),%es:(%edi)
 77e:	74 69                	je     7e9 <FLAGS+0x7e8>
 780:	62 6f 6f             	bound  %ebp,0x6f(%edi)
 783:	74 5f                	je     7e4 <FLAGS+0x7e3>
 785:	65 6c                	gs insb (%dx),%es:(%edi)
 787:	66 5f                	pop    %di
 789:	73 65                	jae    7f0 <FLAGS+0x7ef>
 78b:	63 74 69 6f          	arpl   %si,0x6f(%ecx,%ebp,2)
 78f:	6e                   	outsb  %ds:(%esi),(%dx)
 790:	5f                   	pop    %edi
 791:	68 65 61 64 65       	push   $0x65646165
 796:	72 5f                	jb     7f7 <FLAGS+0x7f6>
 798:	74 61                	je     7fb <FLAGS+0x7fa>
 79a:	62 6c 65 00          	bound  %ebp,0x0(%ebp,%eiz,2)
 79e:	69 6e 69 74 69 61 6c 	imul   $0x6c616974,0x69(%esi),%ebp
 7a5:	5f                   	pop    %edi
 7a6:	73 74                	jae    81c <FLAGS+0x81b>
 7a8:	61                   	popa   
 7a9:	63 6b 00             	arpl   %bp,0x0(%ebx)
 7ac:	6d                   	insl   (%dx),%es:(%edi)
 7ad:	6f                   	outsl  %ds:(%esi),(%dx)
 7ae:	64 73 5f             	fs jae 810 <FLAGS+0x80f>
 7b1:	63 6f 75             	arpl   %bp,0x75(%edi)
 7b4:	6e                   	outsb  %ds:(%esi),(%dx)
 7b5:	74 00                	je     7b7 <FLAGS+0x7b6>
 7b7:	76 62                	jbe    81b <FLAGS+0x81a>
 7b9:	65 5f                	gs pop %edi
 7bb:	69 6e 74 65 72 66 61 	imul   $0x61667265,0x74(%esi),%ebp
 7c2:	63 65 5f             	arpl   %sp,0x5f(%ebp)
 7c5:	73 65                	jae    82c <FLAGS+0x82b>
 7c7:	67 00 76 62          	add    %dh,0x62(%bp)
 7cb:	65 5f                	gs pop %edi
 7cd:	6d                   	insl   (%dx),%es:(%edi)
 7ce:	6f                   	outsl  %ds:(%esi),(%dx)
 7cf:	64 65 5f             	fs gs pop %edi
 7d2:	69 6e 66 6f 00 72 65 	imul   $0x6572006f,0x66(%esi),%ebp
 7d9:	73 65                	jae    840 <FLAGS+0x83f>
 7db:	72 76                	jb     853 <FLAGS+0x852>
 7dd:	65 64 00 6d 75       	gs add %ch,%fs:0x75(%ebp)
 7e2:	6c                   	insb   (%dx),%es:(%edi)
 7e3:	74 69                	je     84e <FLAGS+0x84d>
 7e5:	62 6f 6f             	bound  %ebp,0x6f(%edi)
 7e8:	74 5f                	je     849 <FLAGS+0x848>
 7ea:	69 6e 66 6f 5f 74 00 	imul   $0x745f6f,0x66(%esi),%ebp
 7f1:	6d                   	insl   (%dx),%es:(%edi)
 7f2:	6f                   	outsl  %ds:(%esi),(%dx)
 7f3:	64 73 5f             	fs jae 855 <FLAGS+0x854>
 7f6:	61                   	popa   
 7f7:	64 64 72 00          	fs fs jb 7fb <FLAGS+0x7fa>
 7fb:	6d                   	insl   (%dx),%es:(%edi)
 7fc:	75 6c                	jne    86a <FLAGS+0x869>
 7fe:	74 69                	je     869 <FLAGS+0x868>
 800:	62 6f 6f             	bound  %ebp,0x6f(%edi)
 803:	74 5f                	je     864 <FLAGS+0x863>
 805:	61                   	popa   
 806:	6f                   	outsl  %ds:(%esi),(%dx)
 807:	75 74                	jne    87d <FLAGS+0x87c>
 809:	5f                   	pop    %edi
 80a:	73 79                	jae    885 <FLAGS+0x884>
 80c:	6d                   	insl   (%dx),%es:(%edi)
 80d:	62 6f 6c             	bound  %ebp,0x6c(%edi)
 810:	5f                   	pop    %edi
 811:	74 61                	je     874 <FLAGS+0x873>
 813:	62 6c 65 00          	bound  %ebp,0x0(%ebp,%eiz,2)
 817:	65 6c                	gs insb (%dx),%es:(%edi)
 819:	66 5f                	pop    %di
 81b:	73 65                	jae    882 <FLAGS+0x881>
 81d:	63 00                	arpl   %ax,(%eax)
 81f:	64 72 69             	fs jb  88b <FLAGS+0x88a>
 822:	76 65                	jbe    889 <FLAGS+0x888>
 824:	73 5f                	jae    885 <FLAGS+0x884>
 826:	61                   	popa   
 827:	64 64 72 00          	fs fs jb 82b <FLAGS+0x82a>
 82b:	66 72 61             	data16 jb 88f <FLAGS+0x88e>
 82e:	6d                   	insl   (%dx),%es:(%edi)
 82f:	65 62 75 66          	bound  %esi,%gs:0x66(%ebp)
 833:	66 65 72 5f          	data16 gs jb 896 <FLAGS+0x895>
 837:	62 6c 75 65          	bound  %ebp,0x65(%ebp,%esi,2)
 83b:	5f                   	pop    %edi
 83c:	66 69 65 6c 64 5f    	imul   $0x5f64,0x6c(%ebp),%sp
 842:	70 6f                	jo     8b3 <FLAGS+0x8b2>
 844:	73 69                	jae    8af <FLAGS+0x8ae>
 846:	74 69                	je     8b1 <FLAGS+0x8b0>
 848:	6f                   	outsl  %ds:(%esi),(%dx)
 849:	6e                   	outsb  %ds:(%esi),(%dx)
 84a:	00 6d 75             	add    %ch,0x75(%ebp)
 84d:	6c                   	insb   (%dx),%es:(%edi)
 84e:	74 69                	je     8b9 <FLAGS+0x8b8>
 850:	62 6f 6f             	bound  %ebp,0x6f(%edi)
 853:	74 5f                	je     8b4 <FLAGS+0x8b3>
 855:	61                   	popa   
 856:	6f                   	outsl  %ds:(%esi),(%dx)
 857:	75 74                	jne    8cd <FLAGS+0x8cc>
 859:	5f                   	pop    %edi
 85a:	73 79                	jae    8d5 <FLAGS+0x8d4>
 85c:	6d                   	insl   (%dx),%es:(%edi)
 85d:	62 6f 6c             	bound  %ebp,0x6c(%edi)
 860:	5f                   	pop    %edi
 861:	74 61                	je     8c4 <FLAGS+0x8c3>
 863:	62 6c 65 5f          	bound  %ebp,0x5f(%ebp,%eiz,2)
 867:	74 00                	je     869 <FLAGS+0x868>
 869:	66 72 61             	data16 jb 8cd <FLAGS+0x8cc>
 86c:	6d                   	insl   (%dx),%es:(%edi)
 86d:	65 62 75 66          	bound  %esi,%gs:0x66(%ebp)
 871:	66 65 72 5f          	data16 gs jb 8d4 <FLAGS+0x8d3>
 875:	70 61                	jo     8d8 <FLAGS+0x8d7>
 877:	6c                   	insb   (%dx),%es:(%edi)
 878:	65 74 74             	gs je  8ef <FLAGS+0x8ee>
 87b:	65 5f                	gs pop %edi
 87d:	61                   	popa   
 87e:	64 64 72 00          	fs fs jb 882 <FLAGS+0x881>
 882:	66 72 61             	data16 jb 8e6 <FLAGS+0x8e5>
 885:	6d                   	insl   (%dx),%es:(%edi)
 886:	65 62 75 66          	bound  %esi,%gs:0x66(%ebp)
 88a:	66 65 72 5f          	data16 gs jb 8ed <FLAGS+0x8ec>
 88e:	70 69                	jo     8f9 <FLAGS+0x8f8>
 890:	74 63                	je     8f5 <FLAGS+0x8f4>
 892:	68 00 73 72 63       	push   $0x63727300
 897:	2f                   	das    
 898:	6b 65 72 6e          	imul   $0x6e,0x72(%ebp),%esp
 89c:	65 6c                	gs insb (%dx),%es:(%edi)
 89e:	2f                   	das    
 89f:	6b 65 72 6e          	imul   $0x6e,0x72(%ebp),%esp
 8a3:	65 6c                	gs insb (%dx),%es:(%edi)
 8a5:	2e 63 00             	arpl   %ax,%cs:(%eax)
 8a8:	6d                   	insl   (%dx),%es:(%edi)
 8a9:	75 6c                	jne    917 <FLAGS+0x916>
 8ab:	74 69                	je     916 <FLAGS+0x915>
 8ad:	62 6f 6f             	bound  %ebp,0x6f(%edi)
 8b0:	74 5f                	je     911 <FLAGS+0x910>
 8b2:	65 6c                	gs insb (%dx),%es:(%edi)
 8b4:	66 5f                	pop    %di
 8b6:	73 65                	jae    91d <FLAGS+0x91c>
 8b8:	63 74 69 6f          	arpl   %si,0x6f(%ecx,%ebp,2)
 8bc:	6e                   	outsb  %ds:(%esi),(%dx)
 8bd:	5f                   	pop    %edi
 8be:	68 65 61 64 65       	push   $0x65646165
 8c3:	72 5f                	jb     924 <FLAGS+0x923>
 8c5:	74 61                	je     928 <FLAGS+0x927>
 8c7:	62 6c 65 5f          	bound  %ebp,0x5f(%ebp,%eiz,2)
 8cb:	74 00                	je     8cd <FLAGS+0x8cc>
 8cd:	61                   	popa   
 8ce:	70 6d                	jo     93d <FLAGS+0x93c>
 8d0:	5f                   	pop    %edi
 8d1:	74 61                	je     934 <FLAGS+0x933>
 8d3:	62 6c 65 00          	bound  %ebp,0x0(%ebp,%eiz,2)
 8d7:	76 62                	jbe    93b <FLAGS+0x93a>
 8d9:	65 5f                	gs pop %edi
 8db:	6d                   	insl   (%dx),%es:(%edi)
 8dc:	6f                   	outsl  %ds:(%esi),(%dx)
 8dd:	64 65 00 61 6f       	fs add %ah,%gs:0x6f(%ecx)
 8e2:	75 74                	jne    958 <FLAGS+0x957>
 8e4:	5f                   	pop    %edi
 8e5:	73 79                	jae    960 <FLAGS+0x95f>
 8e7:	6d                   	insl   (%dx),%es:(%edi)
 8e8:	00 63 6f             	add    %ah,0x6f(%ebx)
 8eb:	6e                   	outsb  %ds:(%esi),(%dx)
 8ec:	66 69 67 5f 74 61    	imul   $0x6174,0x5f(%edi),%sp
 8f2:	62 6c 65 00          	bound  %ebp,0x0(%ebp,%eiz,2)
 8f6:	6d                   	insl   (%dx),%es:(%edi)
 8f7:	6f                   	outsl  %ds:(%esi),(%dx)
 8f8:	64 75 6c             	fs jne 967 <FLAGS+0x966>
 8fb:	65 5f                	gs pop %edi
 8fd:	61                   	popa   
 8fe:	64 64 72 00          	fs fs jb 902 <FLAGS+0x901>
 902:	6d                   	insl   (%dx),%es:(%edi)
 903:	65 6d                	gs insl (%dx),%es:(%edi)
 905:	5f                   	pop    %edi
 906:	75 70                	jne    978 <FLAGS+0x977>
 908:	70 65                	jo     96f <FLAGS+0x96e>
 90a:	72 00                	jb     90c <FLAGS+0x90b>
 90c:	66 72 61             	data16 jb 970 <FLAGS+0x96f>
 90f:	6d                   	insl   (%dx),%es:(%edi)
 910:	65 62 75 66          	bound  %esi,%gs:0x66(%ebp)
 914:	66 65 72 5f          	data16 gs jb 977 <FLAGS+0x976>
 918:	70 61                	jo     97b <FLAGS+0x97a>
 91a:	6c                   	insb   (%dx),%es:(%edi)
 91b:	65 74 74             	gs je  992 <FLAGS+0x991>
 91e:	65 5f                	gs pop %edi
 920:	6e                   	outsb  %ds:(%esi),(%dx)
 921:	75 6d                	jne    990 <FLAGS+0x98f>
 923:	5f                   	pop    %edi
 924:	63 6f 6c             	arpl   %bp,0x6c(%edi)
 927:	6f                   	outsl  %ds:(%esi),(%dx)
 928:	72 73                	jb     99d <FLAGS+0x99c>
 92a:	00 6d 75             	add    %ch,0x75(%ebp)
 92d:	6c                   	insb   (%dx),%es:(%edi)
 92e:	74 69                	je     999 <FLAGS+0x998>
 930:	62 6f 6f             	bound  %ebp,0x6f(%edi)
 933:	74 5f                	je     994 <FLAGS+0x993>
 935:	75 69                	jne    9a0 <FLAGS+0x99f>
 937:	6e                   	outsb  %ds:(%esi),(%dx)
 938:	74 33                	je     96d <FLAGS+0x96c>
 93a:	32 5f 74             	xor    0x74(%edi),%bl
 93d:	00 66 72             	add    %ah,0x72(%esi)
 940:	61                   	popa   
 941:	6d                   	insl   (%dx),%es:(%edi)
 942:	65 62 75 66          	bound  %esi,%gs:0x66(%ebp)
 946:	66 65 72 5f          	data16 gs jb 9a9 <FLAGS+0x9a8>
 94a:	67 72 65             	addr16 jb 9b2 <FLAGS+0x9b1>
 94d:	65 6e                	outsb  %gs:(%esi),(%dx)
 94f:	5f                   	pop    %edi
 950:	6d                   	insl   (%dx),%es:(%edi)
 951:	61                   	popa   
 952:	73 6b                	jae    9bf <FLAGS+0x9be>
 954:	5f                   	pop    %edi
 955:	73 69                	jae    9c0 <FLAGS+0x9bf>
 957:	7a 65                	jp     9be <FLAGS+0x9bd>
 959:	00 76 62             	add    %dh,0x62(%esi)
 95c:	65 5f                	gs pop %edi
 95e:	69 6e 74 65 72 66 61 	imul   $0x61667265,0x74(%esi),%ebp
 965:	63 65 5f             	arpl   %sp,0x5f(%ebp)
 968:	6c                   	insb   (%dx),%es:(%edi)
 969:	65 6e                	outsb  %gs:(%esi),(%dx)
 96b:	00 66 72             	add    %ah,0x72(%esi)
 96e:	61                   	popa   
 96f:	6d                   	insl   (%dx),%es:(%edi)
 970:	65 62 75 66          	bound  %esi,%gs:0x66(%ebp)
 974:	66 65 72 5f          	data16 gs jb 9d7 <FLAGS+0x9d6>
 978:	74 79                	je     9f3 <FLAGS+0x9f2>
 97a:	70 65                	jo     9e1 <FLAGS+0x9e0>
 97c:	00 66 69             	add    %ah,0x69(%esi)
 97f:	6c                   	insb   (%dx),%es:(%edi)
 980:	65 00 62 6f          	add    %ah,%gs:0x6f(%edx)
 984:	6f                   	outsl  %ds:(%esi),(%dx)
 985:	74 5f                	je     9e6 <FLAGS+0x9e5>
 987:	64 65 76 69          	fs gs jbe 9f4 <FLAGS+0x9f3>
 98b:	63 65 00             	arpl   %sp,0x0(%ebp)
 98e:	6d                   	insl   (%dx),%es:(%edi)
 98f:	65 6d                	gs insl (%dx),%es:(%edi)
 991:	5f                   	pop    %edi
 992:	6c                   	insb   (%dx),%es:(%edi)
 993:	6f                   	outsl  %ds:(%esi),(%dx)
 994:	77 65                	ja     9fb <FLAGS+0x9fa>
 996:	72 00                	jb     998 <FLAGS+0x997>
 998:	73 74                	jae    a0e <FLAGS+0xa0d>
 99a:	72 73                	jb     a0f <FLAGS+0xa0e>
 99c:	69 7a 65 00 66 72 61 	imul   $0x61726600,0x65(%edx),%edi
 9a3:	6d                   	insl   (%dx),%es:(%edi)
 9a4:	65 62 75 66          	bound  %esi,%gs:0x66(%ebp)
 9a8:	66 65 72 5f          	data16 gs jb a0b <FLAGS+0xa0a>
 9ac:	67 72 65             	addr16 jb a14 <FLAGS+0xa13>
 9af:	65 6e                	outsb  %gs:(%esi),(%dx)
 9b1:	5f                   	pop    %edi
 9b2:	66 69 65 6c 64 5f    	imul   $0x5f64,0x6c(%ebp),%sp
 9b8:	70 6f                	jo     a29 <FLAGS+0xa28>
 9ba:	73 69                	jae    a25 <FLAGS+0xa24>
 9bc:	74 69                	je     a27 <FLAGS+0xa26>
 9be:	6f                   	outsl  %ds:(%esi),(%dx)
 9bf:	6e                   	outsb  %ds:(%esi),(%dx)
 9c0:	00 6d 6d             	add    %ch,0x6d(%ebp)
 9c3:	61                   	popa   
 9c4:	70 5f                	jo     a25 <FLAGS+0xa24>
 9c6:	61                   	popa   
 9c7:	64 64 72 00          	fs fs jb 9cb <FLAGS+0x9ca>
 9cb:	66 72 61             	data16 jb a2f <FLAGS+0xa2e>
 9ce:	6d                   	insl   (%dx),%es:(%edi)
 9cf:	65 62 75 66          	bound  %esi,%gs:0x66(%ebp)
 9d3:	66 65 72 5f          	data16 gs jb a36 <FLAGS+0xa35>
 9d7:	62 6c 75 65          	bound  %ebp,0x65(%ebp,%esi,2)
 9db:	5f                   	pop    %edi
 9dc:	6d                   	insl   (%dx),%es:(%edi)
 9dd:	61                   	popa   
 9de:	73 6b                	jae    a4b <FLAGS+0xa4a>
 9e0:	5f                   	pop    %edi
 9e1:	73 69                	jae    a4c <FLAGS+0xa4b>
 9e3:	7a 65                	jp     a4a <FLAGS+0xa49>
 9e5:	00 63 61             	add    %ah,0x61(%ebx)
 9e8:	6c                   	insb   (%dx),%es:(%edi)
 9e9:	6c                   	insb   (%dx),%es:(%edi)
 9ea:	5f                   	pop    %edi
 9eb:	6d                   	insl   (%dx),%es:(%edi)
 9ec:	6f                   	outsl  %ds:(%esi),(%dx)
 9ed:	64 75 6c             	fs jne a5c <FLAGS+0xa5b>
 9f0:	65 5f                	gs pop %edi
 9f2:	74 00                	je     9f4 <FLAGS+0x9f3>
 9f4:	63 6d 64             	arpl   %bp,0x64(%ebp)
 9f7:	6c                   	insb   (%dx),%es:(%edi)
 9f8:	69 6e 65 00 73 74 61 	imul   $0x61747300,0x65(%esi),%ebp
 9ff:	72 74                	jb     a75 <FLAGS+0xa74>
 a01:	5f                   	pop    %edi
 a02:	70 72                	jo     a76 <FLAGS+0xa75>
 a04:	6f                   	outsl  %ds:(%esi),(%dx)
 a05:	67 72 61             	addr16 jb a69 <FLAGS+0xa68>
 a08:	6d                   	insl   (%dx),%es:(%edi)
 a09:	00 69 6e             	add    %ch,0x6e(%ecx)
 a0c:	69 74 72 64 5f 6c 6f 	imul   $0x636f6c5f,0x64(%edx,%esi,2),%esi
 a13:	63 
 a14:	61                   	popa   
 a15:	74 69                	je     a80 <FLAGS+0xa7f>
 a17:	6f                   	outsl  %ds:(%esi),(%dx)
 a18:	6e                   	outsb  %ds:(%esi),(%dx)
 a19:	00 6d 75             	add    %ch,0x75(%ebp)
 a1c:	6c                   	insb   (%dx),%es:(%edi)
 a1d:	74 69                	je     a88 <FLAGS+0xa87>
 a1f:	62 6f 6f             	bound  %ebp,0x6f(%edi)
 a22:	74 5f                	je     a83 <FLAGS+0xa82>
 a24:	75 69                	jne    a8f <FLAGS+0xa8e>
 a26:	6e                   	outsb  %ds:(%esi),(%dx)
 a27:	74 36                	je     a5f <FLAGS+0xa5e>
 a29:	34 5f                	xor    $0x5f,%al
 a2b:	74 00                	je     a2d <FLAGS+0xa2c>
 a2d:	66 72 61             	data16 jb a91 <FLAGS+0xa90>
 a30:	6d                   	insl   (%dx),%es:(%edi)
 a31:	65 62 75 66          	bound  %esi,%gs:0x66(%ebp)
 a35:	66 65 72 5f          	data16 gs jb a98 <FLAGS+0xa97>
 a39:	68 65 69 67 68       	push   $0x68676965
 a3e:	74 00                	je     a40 <FLAGS+0xa3f>
 a40:	64 72 69             	fs jb  aac <FLAGS+0xaab>
 a43:	76 65                	jbe    aaa <FLAGS+0xaa9>
 a45:	73 5f                	jae    aa6 <FLAGS+0xaa5>
 a47:	6c                   	insb   (%dx),%es:(%edi)
 a48:	65 6e                	outsb  %gs:(%esi),(%dx)
 a4a:	67 74 68             	addr16 je ab5 <FLAGS+0xab4>
 a4d:	00 6d 75             	add    %ch,0x75(%ebp)
 a50:	6c                   	insb   (%dx),%es:(%edi)
 a51:	74 69                	je     abc <FLAGS+0xabb>
 a53:	62 6f 6f             	bound  %ebp,0x6f(%edi)
 a56:	74 5f                	je     ab7 <FLAGS+0xab6>
 a58:	69 6e 66 6f 00 6d 61 	imul   $0x616d006f,0x66(%esi),%ebp
 a5f:	69 6e 00 66 72 61 6d 	imul   $0x6d617266,0x0(%esi),%ebp
 a66:	65 62 75 66          	bound  %esi,%gs:0x66(%ebp)
 a6a:	66 65 72 5f          	data16 gs jb acd <FLAGS+0xacc>
 a6e:	61                   	popa   
 a6f:	64 64 72 00          	fs fs jb a73 <FLAGS+0xa72>
 a73:	6d                   	insl   (%dx),%es:(%edi)
 a74:	6d                   	insl   (%dx),%es:(%edi)
 a75:	61                   	popa   
 a76:	70 5f                	jo     ad7 <FLAGS+0xad6>
 a78:	6c                   	insb   (%dx),%es:(%edi)
 a79:	65 6e                	outsb  %gs:(%esi),(%dx)
 a7b:	67 74 68             	addr16 je ae6 <FLAGS+0xae5>
 a7e:	00 77 72             	add    %dh,0x72(%edi)
 a81:	69 74 65 5f 66 73 00 	imul   $0x72007366,0x5f(%ebp,%eiz,2),%esi
 a88:	72 
 a89:	65 61                	gs popa 
 a8b:	64 64 69 72 5f 66 73 	fs imul $0x73007366,%fs:0x5f(%edx),%esi
 a92:	00 73 
 a94:	72 63                	jb     af9 <FLAGS+0xaf8>
 a96:	2f                   	das    
 a97:	6b 65 72 6e          	imul   $0x6e,0x72(%ebp),%esp
 a9b:	65 6c                	gs insb (%dx),%es:(%edi)
 a9d:	2f                   	das    
 a9e:	66 73 2e             	data16 jae acf <FLAGS+0xace>
 aa1:	63 00                	arpl   %ax,(%eax)
 aa3:	63 6c 6f 73          	arpl   %bp,0x73(%edi,%ebp,2)
 aa7:	65 5f                	gs pop %edi
 aa9:	66 73 00             	data16 jae aac <FLAGS+0xaab>
 aac:	66 69 6e 64 64 69    	imul   $0x6964,0x64(%esi),%bp
 ab2:	72 5f                	jb     b13 <FLAGS+0xb12>
 ab4:	66 73 00             	data16 jae ab7 <FLAGS+0xab6>
 ab7:	72 65                	jb     b1e <FLAGS+0xb1d>
 ab9:	61                   	popa   
 aba:	64 5f                	fs pop %edi
 abc:	66 73 00             	data16 jae abf <FLAGS+0xabe>
 abf:	6f                   	outsl  %ds:(%esi),(%dx)
 ac0:	70 65                	jo     b27 <FLAGS+0xb26>
 ac2:	6e                   	outsb  %ds:(%esi),(%dx)
 ac3:	5f                   	pop    %edi
 ac4:	66 73 00             	data16 jae ac7 <FLAGS+0xac6>
 ac7:	69 6e 69 74 5f 67 64 	imul   $0x64675f74,0x69(%esi),%ebp
 ace:	74 00                	je     ad0 <FLAGS+0xacf>
 ad0:	67 64 74 5f          	addr16 fs je b33 <FLAGS+0xb32>
 ad4:	65 6e                	outsb  %gs:(%esi),(%dx)
 ad6:	74 72                	je     b4a <FLAGS+0xb49>
 ad8:	79 5f                	jns    b39 <FLAGS+0xb38>
 ada:	73 74                	jae    b50 <FLAGS+0xb4f>
 adc:	72 75                	jb     b53 <FLAGS+0xb52>
 ade:	63 74 00 61          	arpl   %si,0x61(%eax,%eax,1)
 ae2:	63 63 65             	arpl   %sp,0x65(%ebx)
 ae5:	73 73                	jae    b5a <FLAGS+0xb59>
 ae7:	00 67 64             	add    %ah,0x64(%edi)
 aea:	74 5f                	je     b4b <FLAGS+0xb4a>
 aec:	74 00                	je     aee <FLAGS+0xaed>
 aee:	67 64 74 5f          	addr16 fs je b51 <FLAGS+0xb50>
 af2:	65 6e                	outsb  %gs:(%esi),(%dx)
 af4:	74 72                	je     b68 <FLAGS+0xb67>
 af6:	79 5f                	jns    b57 <FLAGS+0xb56>
 af8:	74 00                	je     afa <FLAGS+0xaf9>
 afa:	6c                   	insb   (%dx),%es:(%edi)
 afb:	69 6d 69 74 00 67 64 	imul   $0x64670074,0x69(%ebp),%ebp
 b02:	74 5f                	je     b63 <FLAGS+0xb62>
 b04:	65 6e                	outsb  %gs:(%esi),(%dx)
 b06:	74 72                	je     b7a <FLAGS+0xb79>
 b08:	69 65 73 00 62 61 73 	imul   $0x73616200,0x73(%ebp),%esp
 b0f:	65 00 67 72          	add    %ah,%gs:0x72(%edi)
 b13:	61                   	popa   
 b14:	6e                   	outsb  %ds:(%esi),(%dx)
 b15:	00 6c 69 6d          	add    %ch,0x6d(%ecx,%ebp,2)
 b19:	69 74 5f 6c 6f 77 00 	imul   $0x6200776f,0x6c(%edi,%ebx,2),%esi
 b20:	62 
 b21:	61                   	popa   
 b22:	73 65                	jae    b89 <FLAGS+0xb88>
 b24:	5f                   	pop    %edi
 b25:	68 69 67 68 00       	push   $0x686769
 b2a:	62 61 73             	bound  %esp,0x73(%ecx)
 b2d:	65 5f                	gs pop %edi
 b2f:	6d                   	insl   (%dx),%es:(%edi)
 b30:	69 64 64 6c 65 00 67 	imul   $0x72670065,0x6c(%esp,%eiz,2),%esp
 b37:	72 
 b38:	61                   	popa   
 b39:	6e                   	outsb  %ds:(%esi),(%dx)
 b3a:	75 6c                	jne    ba8 <FLAGS+0xba7>
 b3c:	61                   	popa   
 b3d:	72 69                	jb     ba8 <FLAGS+0xba7>
 b3f:	74 79                	je     bba <FLAGS+0xbb9>
 b41:	00 67 64             	add    %ah,0x64(%edi)
 b44:	74 5f                	je     ba5 <FLAGS+0xba4>
 b46:	73 74                	jae    bbc <FLAGS+0xbbb>
 b48:	72 75                	jb     bbf <FLAGS+0xbbe>
 b4a:	63 74 00 62          	arpl   %si,0x62(%eax,%eax,1)
 b4e:	61                   	popa   
 b4f:	73 65                	jae    bb6 <FLAGS+0xbb5>
 b51:	5f                   	pop    %edi
 b52:	6c                   	insb   (%dx),%es:(%edi)
 b53:	6f                   	outsl  %ds:(%esi),(%dx)
 b54:	77 00                	ja     b56 <FLAGS+0xb55>
 b56:	67 64 74 5f          	addr16 fs je bb9 <FLAGS+0xbb8>
 b5a:	73 65                	jae    bc1 <FLAGS+0xbc0>
 b5c:	74 5f                	je     bbd <FLAGS+0xbbc>
 b5e:	67 61                	addr16 popa 
 b60:	74 65                	je     bc7 <FLAGS+0xbc6>
 b62:	00 75 31             	add    %dh,0x31(%ebp)
 b65:	36 5f                	ss pop %edi
 b67:	74 00                	je     b69 <FLAGS+0xb68>
 b69:	73 72                	jae    bdd <FLAGS+0xbdc>
 b6b:	63 2f                	arpl   %bp,(%edi)
 b6d:	62 6f 6f             	bound  %ebp,0x6f(%edi)
 b70:	74 2f                	je     ba1 <FLAGS+0xba0>
 b72:	67 64 74 2e          	addr16 fs je ba4 <FLAGS+0xba3>
 b76:	63 00                	arpl   %ax,(%eax)
 b78:	63 68 61             	arpl   %bp,0x61(%eax)
 b7b:	72 61                	jb     bde <FLAGS+0xbdd>
 b7d:	63 74 65 72          	arpl   %si,0x72(%ebp,%eiz,2)
 b81:	00 64 65 73          	add    %ah,0x73(%ebp,%eiz,2)
 b85:	74 00                	je     b87 <FLAGS+0xb86>
 b87:	66 62 5f 67          	bound  %bx,0x67(%edi)
 b8b:	65 74 5f             	gs je  bed <FLAGS+0xbec>
 b8e:	63 75 72             	arpl   %si,0x72(%ebp)
 b91:	73 6f                	jae    c02 <FLAGS+0xc01>
 b93:	72 00                	jb     b95 <FLAGS+0xb94>
 b95:	6f                   	outsl  %ds:(%esi),(%dx)
 b96:	75 74                	jne    c0c <FLAGS+0xc0b>
 b98:	62 00                	bound  %eax,(%eax)
 b9a:	64 61                	fs popa 
 b9c:	74 61                	je     bff <FLAGS+0xbfe>
 b9e:	00 70 6f             	add    %dh,0x6f(%eax)
 ba1:	72 74                	jb     c17 <FLAGS+0xc16>
 ba3:	00 6d 65             	add    %ch,0x65(%ebp)
 ba6:	6d                   	insl   (%dx),%es:(%edi)
 ba7:	5f                   	pop    %edi
 ba8:	73 65                	jae    c0f <FLAGS+0xc0e>
 baa:	74 00                	je     bac <FLAGS+0xbab>
 bac:	66 62 5f 73          	bound  %bx,0x73(%edi)
 bb0:	63 72 6f             	arpl   %si,0x6f(%edx)
 bb3:	6c                   	insb   (%dx),%es:(%edi)
 bb4:	6c                   	insb   (%dx),%es:(%edi)
 bb5:	00 6d 65             	add    %ch,0x65(%ebp)
 bb8:	6d                   	insl   (%dx),%es:(%edi)
 bb9:	5f                   	pop    %edi
 bba:	63 6f 70             	arpl   %bp,0x70(%edi)
 bbd:	79 00                	jns    bbf <FLAGS+0xbbe>
 bbf:	66 62 5f 77          	bound  %bx,0x77(%edi)
 bc3:	72 69                	jb     c2e <FLAGS+0xc2d>
 bc5:	74 65                	je     c2c <FLAGS+0xc2b>
 bc7:	00 66 62             	add    %ah,0x62(%esi)
 bca:	5f                   	pop    %edi
 bcb:	73 65                	jae    c32 <FLAGS+0xc31>
 bcd:	74 5f                	je     c2e <FLAGS+0xc2d>
 bcf:	63 75 72             	arpl   %si,0x72(%ebp)
 bd2:	73 6f                	jae    c43 <FLAGS+0xc42>
 bd4:	72 00                	jb     bd6 <FLAGS+0xbd5>
 bd6:	73 72                	jae    c4a <FLAGS+0xc49>
 bd8:	63 2f                	arpl   %bp,(%edi)
 bda:	64 72 69             	fs jb  c46 <FLAGS+0xc45>
 bdd:	76 65                	jbe    c44 <FLAGS+0xc43>
 bdf:	72 73                	jb     c54 <FLAGS+0xc53>
 be1:	2f                   	das    
 be2:	69 6f 2e 63 00 69 6e 	imul   $0x6e690063,0x2e(%edi),%ebp
 be9:	69 74 5f 70 69 63 00 	imul   $0x69006369,0x70(%edi,%ebx,2),%esi
 bf0:	69 
 bf1:	73 72                	jae    c65 <FLAGS+0xc64>
 bf3:	5f                   	pop    %edi
 bf4:	68 61 6e 64 6c       	push   $0x6c646e61
 bf9:	65 72 00             	gs jb  bfc <FLAGS+0xbfb>
 bfc:	69 64 74 5f 73 65 74 	imul   $0x5f746573,0x5f(%esp,%esi,2),%esp
 c03:	5f 
 c04:	67 61                	addr16 popa 
 c06:	74 65                	je     c6d <FLAGS+0xc6c>
 c08:	00 69 6e             	add    %ch,0x6e(%ecx)
 c0b:	74 65                	je     c72 <FLAGS+0xc71>
 c0d:	72 72                	jb     c81 <FLAGS+0xc80>
 c0f:	75 70                	jne    c81 <FLAGS+0xc80>
 c11:	74 5f                	je     c72 <FLAGS+0xc71>
 c13:	68 61 6e 64 6c       	push   $0x6c646e61
 c18:	65 72 5f             	gs jb  c7a <FLAGS+0xc79>
 c1b:	74 00                	je     c1d <FLAGS+0xc1c>
 c1d:	69 64 74 5f 65 6e 74 	imul   $0x72746e65,0x5f(%esp,%esi,2),%esp
 c24:	72 
 c25:	79 5f                	jns    c86 <FLAGS+0xc85>
 c27:	74 00                	je     c29 <FLAGS+0xc28>
 c29:	72 65                	jb     c90 <FLAGS+0xc8f>
 c2b:	67 69 73 74 65 72 5f 	imul   $0x695f7265,0x74(%bp,%di),%esi
 c32:	69 
 c33:	6e                   	outsb  %ds:(%esi),(%dx)
 c34:	74 65                	je     c9b <FLAGS+0xc9a>
 c36:	72 72                	jb     caa <FLAGS+0xca9>
 c38:	75 70                	jne    caa <FLAGS+0xca9>
 c3a:	74 5f                	je     c9b <FLAGS+0xc9a>
 c3c:	68 61 6e 64 6c       	push   $0x6c646e61
 c41:	65 72 00             	gs jb  c44 <FLAGS+0xc43>
 c44:	69 72 71 5f 68 61 6e 	imul   $0x6e61685f,0x71(%edx),%esi
 c4b:	64 6c                	fs insb (%dx),%es:(%edi)
 c4d:	65 72 00             	gs jb  c50 <FLAGS+0xc4f>
 c50:	69 6e 74 65 72 72 75 	imul   $0x75727265,0x74(%esi),%ebp
 c57:	70 74                	jo     ccd <FLAGS+0xccc>
 c59:	5f                   	pop    %edi
 c5a:	68 61 6e 64 6c       	push   $0x6c646e61
 c5f:	65 72 5f             	gs jb  cc1 <FLAGS+0xcc0>
 c62:	65 6e                	outsb  %gs:(%esi),(%dx)
 c64:	74 72                	je     cd8 <FLAGS+0xcd7>
 c66:	69 65 73 00 73 65 67 	imul   $0x67657300,0x73(%ebp),%esp
 c6d:	6d                   	insl   (%dx),%es:(%edi)
 c6e:	65 6e                	outsb  %gs:(%esi),(%dx)
 c70:	74 00                	je     c72 <FLAGS+0xc71>
 c72:	70 69                	jo     cdd <FLAGS+0xcdc>
 c74:	63 5f 61             	arpl   %bx,0x61(%edi)
 c77:	63 6b 6e             	arpl   %bp,0x6e(%ebx)
 c7a:	6f                   	outsl  %ds:(%esi),(%dx)
 c7b:	77 6c                	ja     ce9 <FLAGS+0xce8>
 c7d:	65 64 67 65 00 61 6c 	gs fs add %ah,%gs:0x6c(%bx,%di)
 c84:	77 61                	ja     ce7 <FLAGS+0xce6>
 c86:	79 73                	jns    cfb <FLAGS+0xcfa>
 c88:	30 00                	xor    %al,(%eax)
 c8a:	63 70 75             	arpl   %si,0x75(%eax)
 c8d:	69 64 00 69 64 74 5f 	imul   $0x735f7464,0x69(%eax,%eax,1),%esp
 c94:	73 
 c95:	74 72                	je     d09 <FLAGS+0xd08>
 c97:	75 63                	jne    cfc <FLAGS+0xcfb>
 c99:	74 00                	je     c9b <FLAGS+0xc9a>
 c9b:	69 64 74 5f 65 6e 74 	imul   $0x72746e65,0x5f(%esp,%esi,2),%esp
 ca2:	72 
 ca3:	79 5f                	jns    d04 <FLAGS+0xd03>
 ca5:	73 74                	jae    d1b <FLAGS+0xd1a>
 ca7:	72 75                	jb     d1e <FLAGS+0xd1d>
 ca9:	63 74 00 69          	arpl   %si,0x69(%eax,%eax,1)
 cad:	64 74 5f             	fs je  d0f <FLAGS+0xd0e>
 cb0:	65 6e                	outsb  %gs:(%esi),(%dx)
 cb2:	74 72                	je     d26 <FLAGS+0xd25>
 cb4:	69 65 73 00 73 72 63 	imul   $0x63727300,0x73(%ebp),%esp
 cbb:	2f                   	das    
 cbc:	64 72 69             	fs jb  d28 <FLAGS+0xd27>
 cbf:	76 65                	jbe    d26 <FLAGS+0xd25>
 cc1:	72 73                	jb     d36 <FLAGS+0xd35>
 cc3:	2f                   	das    
 cc4:	69 6e 74 65 72 72 75 	imul   $0x75727265,0x74(%esi),%ebp
 ccb:	70 74                	jo     d41 <FLAGS+0xd40>
 ccd:	2e 63 00             	arpl   %ax,%cs:(%eax)
 cd0:	69 6e 69 74 5f 69 64 	imul   $0x64695f74,0x69(%esi),%ebp
 cd7:	74 00                	je     cd9 <FLAGS+0xcd8>
 cd9:	64 69 73 61 62 6c 65 	imul   $0x5f656c62,%fs:0x61(%ebx),%esi
 ce0:	5f 
 ce1:	6c                   	insb   (%dx),%es:(%edi)
 ce2:	6f                   	outsl  %ds:(%esi),(%dx)
 ce3:	63 61 6c             	arpl   %sp,0x6c(%ecx)
 ce6:	5f                   	pop    %edi
 ce7:	61                   	popa   
 ce8:	70 69                	jo     d53 <FLAGS+0xd52>
 cea:	63 00                	arpl   %ax,(%eax)
 cec:	69 64 74 5f 74 00 6b 	imul   $0x626b0074,0x5f(%esp,%esi,2),%esp
 cf3:	62 
 cf4:	5f                   	pop    %edi
 cf5:	65 6e                	outsb  %gs:(%esi),(%dx)
 cf7:	63 5f 73             	arpl   %bx,0x73(%edi)
 cfa:	65 6e                	outsb  %gs:(%esi),(%dx)
 cfc:	64 5f                	fs pop %edi
 cfe:	63 6d 64             	arpl   %bp,0x64(%ebp)
 d01:	00 6b 62             	add    %ch,0x62(%ebx)
 d04:	5f                   	pop    %edi
 d05:	65 6e                	outsb  %gs:(%esi),(%dx)
 d07:	61                   	popa   
 d08:	62 6c 65 00          	bound  %ebp,0x0(%ebp,%eiz,2)
 d0c:	6b 62 5f 63          	imul   $0x63,0x5f(%edx),%esp
 d10:	61                   	popa   
 d11:	6c                   	insb   (%dx),%es:(%edi)
 d12:	6c                   	insb   (%dx),%es:(%edi)
 d13:	62 61 63             	bound  %esp,0x63(%ecx)
 d16:	6b 00 6b             	imul   $0x6b,(%eax),%eax
 d19:	62 5f 63             	bound  %ebx,0x63(%edi)
 d1c:	74 72                	je     d90 <FLAGS+0xd8f>
 d1e:	6c                   	insb   (%dx),%es:(%edi)
 d1f:	5f                   	pop    %edi
 d20:	72 65                	jb     d87 <FLAGS+0xd86>
 d22:	61                   	popa   
 d23:	64 5f                	fs pop %edi
 d25:	73 74                	jae    d9b <FLAGS+0xd9a>
 d27:	61                   	popa   
 d28:	74 75                	je     d9f <FLAGS+0xd9e>
 d2a:	73 00                	jae    d2c <FLAGS+0xd2b>
 d2c:	6b 62 5f 63          	imul   $0x63,0x5f(%edx),%esp
 d30:	74 72                	je     da4 <FLAGS+0xda3>
 d32:	6c                   	insb   (%dx),%es:(%edi)
 d33:	5f                   	pop    %edi
 d34:	73 65                	jae    d9b <FLAGS+0xd9a>
 d36:	6e                   	outsb  %ds:(%esi),(%dx)
 d37:	64 5f                	fs pop %edi
 d39:	63 6d 64             	arpl   %bp,0x64(%ebp)
 d3c:	00 69 6e             	add    %ch,0x6e(%ecx)
 d3f:	69 74 5f 6b 65 79 62 	imul   $0x6f627965,0x6b(%edi,%ebx,2),%esi
 d46:	6f 
 d47:	61                   	popa   
 d48:	72 64                	jb     dae <FLAGS+0xdad>
 d4a:	00 6b 62             	add    %ch,0x62(%ebx)
 d4d:	5f                   	pop    %edi
 d4e:	65 6e                	outsb  %gs:(%esi),(%dx)
 d50:	63 5f 72             	arpl   %bx,0x72(%edi)
 d53:	65 61                	gs popa 
 d55:	64 5f                	fs pop %edi
 d57:	62 75 66             	bound  %esi,0x66(%ebp)
 d5a:	00 6b 62             	add    %ch,0x62(%ebx)
 d5d:	5f                   	pop    %edi
 d5e:	73 65                	jae    dc5 <FLAGS+0xdc4>
 d60:	74 5f                	je     dc1 <FLAGS+0xdc0>
 d62:	63 61 70             	arpl   %sp,0x70(%ecx)
 d65:	5f                   	pop    %edi
 d66:	6c                   	insb   (%dx),%es:(%edi)
 d67:	65 64 00 73 72       	gs add %dh,%fs:0x72(%ebx)
 d6c:	63 2f                	arpl   %bp,(%edi)
 d6e:	64 72 69             	fs jb  dda <FLAGS+0xdd9>
 d71:	76 65                	jbe    dd8 <FLAGS+0xdd7>
 d73:	72 73                	jb     de8 <FLAGS+0xde7>
 d75:	2f                   	das    
 d76:	6b 65 79 62          	imul   $0x62,0x79(%ebp),%esp
 d7a:	6f                   	outsl  %ds:(%esi),(%dx)
 d7b:	61                   	popa   
 d7c:	72 64                	jb     de2 <FLAGS+0xde1>
 d7e:	2e 63 00             	arpl   %ax,%cs:(%eax)
 d81:	66 72 65             	data16 jb de9 <FLAGS+0xde8>
 d84:	71 75                	jno    dfb <FLAGS+0xdfa>
 d86:	65 6e                	outsb  %gs:(%esi),(%dx)
 d88:	63 79 00             	arpl   %di,0x0(%ecx)
 d8b:	74 69                	je     df6 <FLAGS+0xdf5>
 d8d:	6d                   	insl   (%dx),%es:(%edi)
 d8e:	65 72 5f             	gs jb  df0 <FLAGS+0xdef>
 d91:	63 61 6c             	arpl   %sp,0x6c(%ecx)
 d94:	6c                   	insb   (%dx),%es:(%edi)
 d95:	62 61 63             	bound  %esp,0x63(%ecx)
 d98:	6b 00 69             	imul   $0x69,(%eax),%eax
 d9b:	6e                   	outsb  %ds:(%esi),(%dx)
 d9c:	69 74 5f 74 69 6d 65 	imul   $0x72656d69,0x74(%edi,%ebx,2),%esi
 da3:	72 
 da4:	00 74 69 63          	add    %dh,0x63(%ecx,%ebp,2)
 da8:	6b 00 64             	imul   $0x64,(%eax),%eax
 dab:	69 76 69 73 6f 72 00 	imul   $0x726f73,0x69(%esi),%esi
 db2:	73 72                	jae    e26 <FLAGS+0xe25>
 db4:	63 2f                	arpl   %bp,(%edi)
 db6:	64 72 69             	fs jb  e22 <FLAGS+0xe21>
 db9:	76 65                	jbe    e20 <FLAGS+0xe1f>
 dbb:	72 73                	jb     e30 <FLAGS+0xe2f>
 dbd:	2f                   	das    
 dbe:	74 69                	je     e29 <FLAGS+0xe28>
 dc0:	6d                   	insl   (%dx),%es:(%edi)
 dc1:	65 72 2e             	gs jb  df2 <FLAGS+0xdf1>
 dc4:	63 00                	arpl   %ax,(%eax)
 dc6:	69 74 65 6d 00 63 72 	imul   $0x65726300,0x6d(%ebp,%eiz,2),%esi
 dcd:	65 
 dce:	61                   	popa   
 dcf:	74 65                	je     e36 <FLAGS+0xe35>
 dd1:	5f                   	pop    %edi
 dd2:	6f                   	outsl  %ds:(%esi),(%dx)
 dd3:	72 64                	jb     e39 <FLAGS+0xe38>
 dd5:	65 72 65             	gs jb  e3d <FLAGS+0xe3c>
 dd8:	64 5f                	fs pop %edi
 dda:	61                   	popa   
 ddb:	72 72                	jb     e4f <FLAGS+0xe4e>
 ddd:	61                   	popa   
 dde:	79 00                	jns    de0 <FLAGS+0xddf>
 de0:	70 6c                	jo     e4e <FLAGS+0xe4d>
 de2:	61                   	popa   
 de3:	63 65 5f             	arpl   %sp,0x5f(%ebp)
 de6:	6f                   	outsl  %ds:(%esi),(%dx)
 de7:	72 64                	jb     e4d <FLAGS+0xe4c>
 de9:	65 72 65             	gs jb  e51 <FLAGS+0xe50>
 dec:	64 5f                	fs pop %edi
 dee:	61                   	popa   
 def:	72 72                	jb     e63 <FLAGS+0xe62>
 df1:	61                   	popa   
 df2:	79 00                	jns    df4 <FLAGS+0xdf3>
 df4:	72 65                	jb     e5b <FLAGS+0xe5a>
 df6:	6d                   	insl   (%dx),%es:(%edi)
 df7:	6f                   	outsl  %ds:(%esi),(%dx)
 df8:	76 65                	jbe    e5f <FLAGS+0xe5e>
 dfa:	5f                   	pop    %edi
 dfb:	6f                   	outsl  %ds:(%esi),(%dx)
 dfc:	72 64                	jb     e62 <FLAGS+0xe61>
 dfe:	65 72 65             	gs jb  e66 <FLAGS+0xe65>
 e01:	64 5f                	fs pop %edi
 e03:	61                   	popa   
 e04:	72 72                	jb     e78 <FLAGS+0xe77>
 e06:	61                   	popa   
 e07:	79 00                	jns    e09 <FLAGS+0xe08>
 e09:	74 6f                	je     e7a <FLAGS+0xe79>
 e0b:	5f                   	pop    %edi
 e0c:	72 65                	jb     e73 <FLAGS+0xe72>
 e0e:	74 00                	je     e10 <FLAGS+0xe0f>
 e10:	6c                   	insb   (%dx),%es:(%edi)
 e11:	6f                   	outsl  %ds:(%esi),(%dx)
 e12:	6f                   	outsl  %ds:(%esi),(%dx)
 e13:	6b 75 70 5f          	imul   $0x5f,0x70(%ebp),%esi
 e17:	6f                   	outsl  %ds:(%esi),(%dx)
 e18:	72 64                	jb     e7e <FLAGS+0xe7d>
 e1a:	65 72 65             	gs jb  e82 <FLAGS+0xe81>
 e1d:	64 5f                	fs pop %edi
 e1f:	61                   	popa   
 e20:	72 72                	jb     e94 <FLAGS+0xe93>
 e22:	61                   	popa   
 e23:	79 00                	jns    e25 <FLAGS+0xe24>
 e25:	69 6e 73 65 72 74 5f 	imul   $0x5f747265,0x73(%esi),%ebp
 e2c:	6f                   	outsl  %ds:(%esi),(%dx)
 e2d:	72 64                	jb     e93 <FLAGS+0xe92>
 e2f:	65 72 65             	gs jb  e97 <FLAGS+0xe96>
 e32:	64 5f                	fs pop %edi
 e34:	61                   	popa   
 e35:	72 72                	jb     ea9 <FLAGS+0xea8>
 e37:	61                   	popa   
 e38:	79 00                	jns    e3a <FLAGS+0xe39>
 e3a:	73 72                	jae    eae <FLAGS+0xead>
 e3c:	63 2f                	arpl   %bp,(%edi)
 e3e:	63 6f 6d             	arpl   %bp,0x6d(%edi)
 e41:	6d                   	insl   (%dx),%es:(%edi)
 e42:	6f                   	outsl  %ds:(%esi),(%dx)
 e43:	6e                   	outsb  %ds:(%esi),(%dx)
 e44:	2f                   	das    
 e45:	6f                   	outsl  %ds:(%esi),(%dx)
 e46:	72 64                	jb     eac <FLAGS+0xeab>
 e48:	65 72 65             	gs jb  eb0 <FLAGS+0xeaf>
 e4b:	64 5f                	fs pop %edi
 e4d:	61                   	popa   
 e4e:	72 72                	jb     ec2 <FLAGS+0xec1>
 e50:	61                   	popa   
 e51:	79 2e                	jns    e81 <FLAGS+0xe80>
 e53:	63 00                	arpl   %ax,(%eax)
 e55:	6d                   	insl   (%dx),%es:(%edi)
 e56:	65 73 73             	gs jae ecc <FLAGS+0xecb>
 e59:	61                   	popa   
 e5a:	67 65 00 64 65       	add    %ah,%gs:0x65(%si)
 e5f:	73 63                	jae    ec4 <FLAGS+0xec3>
 e61:	00 70 61             	add    %dh,0x61(%eax)
 e64:	6e                   	outsb  %ds:(%esi),(%dx)
 e65:	69 63 5f 61 73 73 65 	imul   $0x65737361,0x5f(%ebx),%esp
 e6c:	72 74                	jb     ee2 <FLAGS+0xee1>
 e6e:	00 73 74             	add    %dh,0x74(%ebx)
 e71:	72 6c                	jb     edf <FLAGS+0xede>
 e73:	65 6e                	outsb  %gs:(%esi),(%dx)
 e75:	00 73 74             	add    %dh,0x74(%ebx)
 e78:	72 63                	jb     edd <FLAGS+0xedc>
 e7a:	70 79                	jo     ef5 <FLAGS+0xef4>
 e7c:	00 70 72             	add    %dh,0x72(%eax)
 e7f:	69 6e 74 5f 68 65 78 	imul   $0x7865685f,0x74(%esi),%ebp
 e86:	00 6d 65             	add    %ch,0x65(%ebp)
 e89:	6d                   	insl   (%dx),%es:(%edi)
 e8a:	73 65                	jae    ef1 <FLAGS+0xef0>
 e8c:	74 00                	je     e8e <FLAGS+0xe8d>
 e8e:	73 74                	jae    f04 <FLAGS+0xf03>
 e90:	72 32                	jb     ec4 <FLAGS+0xec3>
 e92:	00 73 74             	add    %dh,0x74(%ebx)
 e95:	72 31                	jb     ec8 <FLAGS+0xec7>
 e97:	00 73 72             	add    %dh,0x72(%ebx)
 e9a:	63 2f                	arpl   %bp,(%edi)
 e9c:	63 6f 6d             	arpl   %bp,0x6d(%edi)
 e9f:	6d                   	insl   (%dx),%es:(%edi)
 ea0:	6f                   	outsl  %ds:(%esi),(%dx)
 ea1:	6e                   	outsb  %ds:(%esi),(%dx)
 ea2:	2f                   	das    
 ea3:	75 74                	jne    f19 <FLAGS+0xf18>
 ea5:	69 6c 73 2e 63 00 73 	imul   $0x74730063,0x2e(%ebx,%esi,2),%ebp
 eac:	74 
 ead:	72 63                	jb     f12 <FLAGS+0xf11>
 eaf:	6d                   	insl   (%dx),%es:(%edi)
 eb0:	70 00                	jo     eb2 <FLAGS+0xeb1>
 eb2:	70 61                	jo     f15 <FLAGS+0xf14>
 eb4:	6e                   	outsb  %ds:(%esi),(%dx)
 eb5:	69 63 00 6d 65 6d 63 	imul   $0x636d656d,0x0(%ebx),%esp
 ebc:	70 79                	jo     f37 <FLAGS+0xf36>
 ebe:	00 70 72             	add    %dh,0x72(%eax)
 ec1:	69 6e 74 5f 64 65 63 	imul   $0x6365645f,0x74(%esi),%ebp
 ec8:	69 6d 61 6c 00 70 72 	imul   $0x7270006c,0x61(%ebp),%ebp
 ecf:	69 6e 74 5f 63 68 61 	imul   $0x6168635f,0x74(%esi),%ebp
 ed6:	72 00                	jb     ed8 <FLAGS+0xed7>
 ed8:	70 72                	jo     f4c <FLAGS+0xf4b>
 eda:	69 6e 74 5f 73 74 72 	imul   $0x7274735f,0x74(%esi),%ebp
 ee1:	69 6e 67 00 6e 65 67 	imul   $0x67656e00,0x67(%esi),%ebp
 ee8:	61                   	popa   
 ee9:	74 69                	je     f54 <FLAGS+0xf53>
 eeb:	76 65                	jbe    f52 <FLAGS+0xf51>
	...

Disassembly of section .comment:

00000000 <.comment>:
   0:	47                   	inc    %edi
   1:	43                   	inc    %ebx
   2:	43                   	inc    %ebx
   3:	3a 20                	cmp    (%eax),%ah
   5:	28 47 4e             	sub    %al,0x4e(%edi)
   8:	55                   	push   %ebp
   9:	29 20                	sub    %esp,(%eax)
   b:	39 2e                	cmp    %ebp,(%esi)
   d:	32 2e                	xor    (%esi),%ch
   f:	30 00                	xor    %al,(%eax)
